ARM GAS  /tmp/cc7cohkt.s 			page 1


   1              		.syntax unified
   2              		.cpu cortex-m3
   3              		.fpu softvfp
   4              		.eabi_attribute 20, 1
   5              		.eabi_attribute 21, 1
   6              		.eabi_attribute 23, 3
   7              		.eabi_attribute 24, 1
   8              		.eabi_attribute 25, 1
   9              		.eabi_attribute 26, 1
  10              		.eabi_attribute 30, 2
  11              		.eabi_attribute 34, 1
  12              		.eabi_attribute 18, 4
  13              		.thumb
  14              		.file	"atmel_twi.c"
  15              		.text
  16              	.Ltext0:
  17              		.cfi_sections	.debug_frame
  18              		.section	.text.unlikely.TWI_WriteByte.part.0,"ax",%progbits
  19              		.align	2
  20              		.thumb
  21              		.thumb_func
  22              		.type	TWI_WriteByte.part.0, %function
  23              	TWI_WriteByte.part.0:
  24              	.LFB15:
  25              		.file 1 "ChibiOS//os/hal/platforms/AT91SAM3S/atmel_twi.c"
  26              		.loc 1 235 0
  27              		.cfi_startproc
  28              		@ Volatile: function does not return.
  29              		@ args = 0, pretend = 0, frame = 0
  30              		@ frame_needed = 0, uses_anonymous_args = 0
  31              	.LVL0:
  32 0000 08B5     		push	{r3, lr}
  33              		.cfi_def_cfa_offset 8
  34              		.cfi_offset 3, -8
  35              		.cfi_offset 14, -4
  36              		.loc 1 237 0
  37 0002 0348     		ldr	r0, .L3
  38 0004 ED21     		movs	r1, #237
  39 0006 034A     		ldr	r2, .L3+4
  40 0008 034B     		ldr	r3, .L3+8
  41 000a FFF7FEFF 		bl	__assert_func
  42              	.LVL1:
  43              	.L4:
  44 000e 00BF     		.align	2
  45              	.L3:
  46 0010 00000000 		.word	.LC0
  47 0014 00000000 		.word	.LANCHOR0
  48 0018 30000000 		.word	.LC1
  49              		.cfi_endproc
  50              	.LFE15:
  51              		.size	TWI_WriteByte.part.0, .-TWI_WriteByte.part.0
  52              		.section	.text.TWI_ConfigureMaster,"ax",%progbits
  53              		.align	2
  54              		.p2align 4,,15
  55              		.global	TWI_ConfigureMaster
  56              		.thumb
  57              		.thumb_func
ARM GAS  /tmp/cc7cohkt.s 			page 2


  58              		.type	TWI_ConfigureMaster, %function
  59              	TWI_ConfigureMaster:
  60              	.LFB0:
  61              		.loc 1 97 0
  62              		.cfi_startproc
  63              		@ args = 0, pretend = 0, frame = 0
  64              		@ frame_needed = 0, uses_anonymous_args = 0
  65              	.LVL2:
  66 0000 38B5     		push	{r3, r4, r5, lr}
  67              		.cfi_def_cfa_offset 16
  68              		.cfi_offset 3, -16
  69              		.cfi_offset 4, -12
  70              		.cfi_offset 5, -8
  71              		.cfi_offset 14, -4
  72              		.loc 1 103 0
  73 0002 10B3     		cbz	r0, .L16
  74 0004 4900     		lsls	r1, r1, #1
  75              	.LVL3:
  76 0006 B2FBF1F2 		udiv	r2, r2, r1
  77              	.LVL4:
  78              		.loc 1 108 0
  79 000a 8023     		movs	r3, #128
  80              		.loc 1 106 0
  81 000c 1021     		movs	r1, #16
  82 000e 0160     		str	r1, [r0]
  83              		.loc 1 108 0
  84 0010 0360     		str	r3, [r0]
  85              		.loc 1 109 0
  86 0012 036B     		ldr	r3, [r0, #48]
  87              		.loc 1 116 0
  88 0014 0421     		movs	r1, #4
  89              		.loc 1 112 0
  90 0016 2025     		movs	r5, #32
  91              		.loc 1 113 0
  92 0018 0824     		movs	r4, #8
  93 001a 043A     		subs	r2, r2, #4
  94              		.loc 1 98 0
  95 001c 0023     		movs	r3, #0
  96              		.loc 1 112 0
  97 001e 0560     		str	r5, [r0]
  98              		.loc 1 113 0
  99 0020 0460     		str	r4, [r0]
 100              		.loc 1 116 0
 101 0022 0160     		str	r1, [r0]
 102              	.LVL5:
 103              		.loc 1 121 0
 104 0024 22FA03F1 		lsr	r1, r2, r3
 105              	.LVL6:
 106              		.loc 1 123 0
 107 0028 FF29     		cmp	r1, #255
 108 002a 04D9     		bls	.L7
 109              	.L17:
 110              		.loc 1 129 0
 111 002c 0133     		adds	r3, r3, #1
 112              	.LVL7:
 113              		.loc 1 121 0
 114 002e 22FA03F1 		lsr	r1, r2, r3
ARM GAS  /tmp/cc7cohkt.s 			page 3


 115              	.LVL8:
 116              		.loc 1 123 0
 117 0032 FF29     		cmp	r1, #255
 118 0034 FAD8     		bhi	.L17
 119              	.L7:
 120              	.LVL9:
 121              		.loc 1 133 0
 122 0036 072B     		cmp	r3, #7
 123 0038 0DD8     		bhi	.L18
 124              		.loc 1 137 0
 125 003a 0A02     		lsls	r2, r1, #8
 126 003c 42EA0343 		orr	r3, r2, r3, lsl #16
 127              	.LVL10:
 128 0040 1943     		orrs	r1, r1, r3
 129              	.LVL11:
 130              		.loc 1 136 0
 131 0042 0023     		movs	r3, #0
 132 0044 0361     		str	r3, [r0, #16]
 133              		.loc 1 137 0
 134 0046 0161     		str	r1, [r0, #16]
 135 0048 38BD     		pop	{r3, r4, r5, pc}
 136              	.LVL12:
 137              	.L16:
 138              		.loc 1 103 0 discriminator 1
 139 004a 0648     		ldr	r0, .L19
 140              	.LVL13:
 141 004c 6721     		movs	r1, #103
 142              	.LVL14:
 143 004e 064A     		ldr	r2, .L19+4
 144              	.LVL15:
 145 0050 064B     		ldr	r3, .L19+8
 146 0052 FFF7FEFF 		bl	__assert_func
 147              	.LVL16:
 148              	.L18:
 149              		.loc 1 133 0 discriminator 1
 150 0056 0348     		ldr	r0, .L19
 151              	.LVL17:
 152 0058 8521     		movs	r1, #133
 153              	.LVL18:
 154 005a 034A     		ldr	r2, .L19+4
 155 005c 044B     		ldr	r3, .L19+12
 156              	.LVL19:
 157 005e FFF7FEFF 		bl	__assert_func
 158              	.LVL20:
 159              	.L20:
 160 0062 00BF     		.align	2
 161              	.L19:
 162 0064 00000000 		.word	.LC0
 163 0068 00000000 		.word	.LANCHOR1
 164 006c 3C000000 		.word	.LC2
 165 0070 44000000 		.word	.LC3
 166              		.cfi_endproc
 167              	.LFE0:
 168              		.size	TWI_ConfigureMaster, .-TWI_ConfigureMaster
 169              		.section	.text.TWI_ConfigureSlave,"ax",%progbits
 170              		.align	2
 171              		.p2align 4,,15
ARM GAS  /tmp/cc7cohkt.s 			page 4


 172              		.global	TWI_ConfigureSlave
 173              		.thumb
 174              		.thumb_func
 175              		.type	TWI_ConfigureSlave, %function
 176              	TWI_ConfigureSlave:
 177              	.LFB1:
 178              		.loc 1 146 0
 179              		.cfi_startproc
 180              		@ args = 0, pretend = 0, frame = 0
 181              		@ frame_needed = 0, uses_anonymous_args = 0
 182              	.LVL21:
 183 0000 38B5     		push	{r3, r4, r5, lr}
 184              		.cfi_def_cfa_offset 16
 185              		.cfi_offset 3, -16
 186              		.cfi_offset 4, -12
 187              		.cfi_offset 5, -8
 188              		.cfi_offset 14, -4
 189              		.loc 1 161 0
 190 0002 0904     		lsls	r1, r1, #16
 191              	.LVL22:
 192              		.loc 1 150 0
 193 0004 8023     		movs	r3, #128
 194 0006 0360     		str	r3, [r0]
 195              		.loc 1 161 0
 196 0008 01F4FE01 		and	r1, r1, #8323072
 197              		.loc 1 164 0
 198 000c 1023     		movs	r3, #16
 199              		.loc 1 157 0
 200 000e 2824     		movs	r4, #40
 201              		.loc 1 160 0
 202 0010 0022     		movs	r2, #0
 203              		.loc 1 151 0
 204 0012 056B     		ldr	r5, [r0, #48]
 205              	.LVL23:
 206              		.loc 1 157 0
 207 0014 0460     		str	r4, [r0]
 208              		.loc 1 160 0
 209 0016 8260     		str	r2, [r0, #8]
 210              		.loc 1 161 0
 211 0018 8160     		str	r1, [r0, #8]
 212              		.loc 1 164 0
 213 001a 0360     		str	r3, [r0]
 214              		.loc 1 168 0
 215 001c 0368     		ldr	r3, [r0]
 216 001e 9B06     		lsls	r3, r3, #26
 217 0020 00D4     		bmi	.L24
 218 0022 38BD     		pop	{r3, r4, r5, pc}
 219              	.L24:
 220              		.loc 1 168 0 is_stmt 0 discriminator 1
 221 0024 0248     		ldr	r0, .L25
 222              	.LVL24:
 223 0026 A821     		movs	r1, #168
 224 0028 024A     		ldr	r2, .L25+4
 225 002a 034B     		ldr	r3, .L25+8
 226 002c FFF7FEFF 		bl	__assert_func
 227              	.LVL25:
 228              	.L26:
ARM GAS  /tmp/cc7cohkt.s 			page 5


 229              		.align	2
 230              	.L25:
 231 0030 00000000 		.word	.LC0
 232 0034 00000000 		.word	.LANCHOR2
 233 0038 50000000 		.word	.LC4
 234              		.cfi_endproc
 235              	.LFE1:
 236              		.size	TWI_ConfigureSlave, .-TWI_ConfigureSlave
 237              		.section	.text.TWI_Stop,"ax",%progbits
 238              		.align	2
 239              		.p2align 4,,15
 240              		.global	TWI_Stop
 241              		.thumb
 242              		.thumb_func
 243              		.type	TWI_Stop, %function
 244              	TWI_Stop:
 245              	.LFB2:
 246              		.loc 1 176 0 is_stmt 1
 247              		.cfi_startproc
 248              		@ args = 0, pretend = 0, frame = 0
 249              		@ frame_needed = 0, uses_anonymous_args = 0
 250              	.LVL26:
 251 0000 08B5     		push	{r3, lr}
 252              		.cfi_def_cfa_offset 8
 253              		.cfi_offset 3, -8
 254              		.cfi_offset 14, -4
 255              		.loc 1 177 0
 256 0002 10B1     		cbz	r0, .L30
 257              		.loc 1 179 0
 258 0004 0223     		movs	r3, #2
 259 0006 0360     		str	r3, [r0]
 260 0008 08BD     		pop	{r3, pc}
 261              	.L30:
 262              		.loc 1 177 0 discriminator 1
 263 000a 0348     		ldr	r0, .L31
 264              	.LVL27:
 265 000c B121     		movs	r1, #177
 266 000e 034A     		ldr	r2, .L31+4
 267 0010 034B     		ldr	r3, .L31+8
 268 0012 FFF7FEFF 		bl	__assert_func
 269              	.LVL28:
 270              	.L32:
 271 0016 00BF     		.align	2
 272              	.L31:
 273 0018 00000000 		.word	.LC0
 274 001c 00000000 		.word	.LANCHOR3
 275 0020 30000000 		.word	.LC1
 276              		.cfi_endproc
 277              	.LFE2:
 278              		.size	TWI_Stop, .-TWI_Stop
 279              		.section	.text.TWI_StartRead,"ax",%progbits
 280              		.align	2
 281              		.p2align 4,,15
 282              		.global	TWI_StartRead
 283              		.thumb
 284              		.thumb_func
 285              		.type	TWI_StartRead, %function
ARM GAS  /tmp/cc7cohkt.s 			page 6


 286              	TWI_StartRead:
 287              	.LFB3:
 288              		.loc 1 196 0
 289              		.cfi_startproc
 290              		@ args = 0, pretend = 0, frame = 0
 291              		@ frame_needed = 0, uses_anonymous_args = 0
 292              	.LVL29:
 293 0000 10B5     		push	{r4, lr}
 294              		.cfi_def_cfa_offset 8
 295              		.cfi_offset 4, -8
 296              		.cfi_offset 14, -4
 297              		.loc 1 197 0
 298 0002 90B1     		cbz	r0, .L39
 299              		.loc 1 198 0
 300 0004 0C06     		lsls	r4, r1, #24
 301 0006 22D4     		bmi	.L40
 302              		.loc 1 199 0
 303 0008 12F07F44 		ands	r4, r2, #-16777216
 304 000c 19D1     		bne	.L41
 305              		.loc 1 200 0
 306 000e 032B     		cmp	r3, #3
 307 0010 11D8     		bhi	.L42
 308              		.loc 1 204 0
 309 0012 1B02     		lsls	r3, r3, #8
 310              	.LVL30:
 311 0014 43F48053 		orr	r3, r3, #4096
 312 0018 43EA0141 		orr	r1, r3, r1, lsl #16
 313              	.LVL31:
 314              		.loc 1 211 0
 315 001c 0123     		movs	r3, #1
 316              		.loc 1 203 0
 317 001e 4460     		str	r4, [r0, #4]
 318              		.loc 1 204 0
 319 0020 4160     		str	r1, [r0, #4]
 320              		.loc 1 207 0
 321 0022 C460     		str	r4, [r0, #12]
 322              		.loc 1 208 0
 323 0024 C260     		str	r2, [r0, #12]
 324              		.loc 1 211 0
 325 0026 0360     		str	r3, [r0]
 326 0028 10BD     		pop	{r4, pc}
 327              	.LVL32:
 328              	.L39:
 329              		.loc 1 197 0 discriminator 1
 330 002a 0C48     		ldr	r0, .L43
 331              	.LVL33:
 332 002c C521     		movs	r1, #197
 333              	.LVL34:
 334 002e 0C4A     		ldr	r2, .L43+4
 335              	.LVL35:
 336 0030 0C4B     		ldr	r3, .L43+8
 337              	.LVL36:
 338 0032 FFF7FEFF 		bl	__assert_func
 339              	.LVL37:
 340              	.L42:
 341              		.loc 1 200 0 discriminator 1
 342 0036 0948     		ldr	r0, .L43
ARM GAS  /tmp/cc7cohkt.s 			page 7


 343              	.LVL38:
 344 0038 C821     		movs	r1, #200
 345              	.LVL39:
 346 003a 094A     		ldr	r2, .L43+4
 347              	.LVL40:
 348 003c 0A4B     		ldr	r3, .L43+12
 349              	.LVL41:
 350 003e FFF7FEFF 		bl	__assert_func
 351              	.LVL42:
 352              	.L41:
 353              		.loc 1 199 0 discriminator 1
 354 0042 0648     		ldr	r0, .L43
 355              	.LVL43:
 356 0044 C721     		movs	r1, #199
 357              	.LVL44:
 358 0046 064A     		ldr	r2, .L43+4
 359              	.LVL45:
 360 0048 084B     		ldr	r3, .L43+16
 361              	.LVL46:
 362 004a FFF7FEFF 		bl	__assert_func
 363              	.LVL47:
 364              	.L40:
 365              		.loc 1 198 0 discriminator 1
 366 004e 0348     		ldr	r0, .L43
 367              	.LVL48:
 368 0050 C621     		movs	r1, #198
 369              	.LVL49:
 370 0052 034A     		ldr	r2, .L43+4
 371              	.LVL50:
 372 0054 064B     		ldr	r3, .L43+20
 373              	.LVL51:
 374 0056 FFF7FEFF 		bl	__assert_func
 375              	.LVL52:
 376              	.L44:
 377 005a 00BF     		.align	2
 378              	.L43:
 379 005c 00000000 		.word	.LC0
 380 0060 00000000 		.word	.LANCHOR4
 381 0064 30000000 		.word	.LC1
 382 0068 B8000000 		.word	.LC7
 383 006c 98000000 		.word	.LC6
 384 0070 80000000 		.word	.LC5
 385              		.cfi_endproc
 386              	.LFE3:
 387              		.size	TWI_StartRead, .-TWI_StartRead
 388              		.section	.text.TWI_ReadByte,"ax",%progbits
 389              		.align	2
 390              		.p2align 4,,15
 391              		.global	TWI_ReadByte
 392              		.thumb
 393              		.thumb_func
 394              		.type	TWI_ReadByte, %function
 395              	TWI_ReadByte:
 396              	.LFB4:
 397              		.loc 1 221 0
 398              		.cfi_startproc
 399              		@ args = 0, pretend = 0, frame = 0
ARM GAS  /tmp/cc7cohkt.s 			page 8


 400              		@ frame_needed = 0, uses_anonymous_args = 0
 401              	.LVL53:
 402              		.loc 1 222 0
 403 0000 10B1     		cbz	r0, .L48
 404              		.loc 1 224 0
 405 0002 006B     		ldr	r0, [r0, #48]
 406              	.LVL54:
 407              		.loc 1 225 0
 408 0004 C0B2     		uxtb	r0, r0
 409 0006 7047     		bx	lr
 410              	.LVL55:
 411              	.L48:
 412              		.loc 1 221 0 discriminator 1
 413 0008 08B5     		push	{r3, lr}
 414              		.cfi_def_cfa_offset 8
 415              		.cfi_offset 3, -8
 416              		.cfi_offset 14, -4
 417              		.loc 1 222 0 discriminator 1
 418 000a 0348     		ldr	r0, .L49
 419              	.LVL56:
 420 000c DE21     		movs	r1, #222
 421 000e 034A     		ldr	r2, .L49+4
 422 0010 034B     		ldr	r3, .L49+8
 423 0012 FFF7FEFF 		bl	__assert_func
 424              	.LVL57:
 425              	.L50:
 426 0016 00BF     		.align	2
 427              	.L49:
 428 0018 00000000 		.word	.LC0
 429 001c 00000000 		.word	.LANCHOR5
 430 0020 30000000 		.word	.LC1
 431              		.cfi_endproc
 432              	.LFE4:
 433              		.size	TWI_ReadByte, .-TWI_ReadByte
 434              		.section	.text.TWI_WriteByte,"ax",%progbits
 435              		.align	2
 436              		.p2align 4,,15
 437              		.global	TWI_WriteByte
 438              		.thumb
 439              		.thumb_func
 440              		.type	TWI_WriteByte, %function
 441              	TWI_WriteByte:
 442              	.LFB5:
 443              		.loc 1 236 0
 444              		.cfi_startproc
 445              		@ args = 0, pretend = 0, frame = 0
 446              		@ frame_needed = 0, uses_anonymous_args = 0
 447              	.LVL58:
 448              		.loc 1 237 0
 449 0000 08B1     		cbz	r0, .L54
 450              		.loc 1 239 0
 451 0002 4163     		str	r1, [r0, #52]
 452 0004 7047     		bx	lr
 453              	.L54:
 454              		.loc 1 236 0 discriminator 1
 455 0006 08B5     		push	{r3, lr}
 456              		.cfi_def_cfa_offset 8
ARM GAS  /tmp/cc7cohkt.s 			page 9


 457              		.cfi_offset 3, -8
 458              		.cfi_offset 14, -4
 459 0008 FFF7FEFF 		bl	TWI_WriteByte.part.0
 460              	.LVL59:
 461              		.cfi_endproc
 462              	.LFE5:
 463              		.size	TWI_WriteByte, .-TWI_WriteByte
 464              		.section	.text.TWI_StartWrite,"ax",%progbits
 465              		.align	2
 466              		.p2align 4,,15
 467              		.global	TWI_StartWrite
 468              		.thumb
 469              		.thumb_func
 470              		.type	TWI_StartWrite, %function
 471              	TWI_StartWrite:
 472              	.LFB6:
 473              		.loc 1 259 0
 474              		.cfi_startproc
 475              		@ args = 4, pretend = 0, frame = 0
 476              		@ frame_needed = 0, uses_anonymous_args = 0
 477              	.LVL60:
 478              		.loc 1 259 0
 479 0000 38B5     		push	{r3, r4, r5, lr}
 480              		.cfi_def_cfa_offset 16
 481              		.cfi_offset 3, -16
 482              		.cfi_offset 4, -12
 483              		.cfi_offset 5, -8
 484              		.cfi_offset 14, -4
 485              		.loc 1 259 0
 486 0002 9DF81050 		ldrb	r5, [sp, #16]	@ zero_extendqisi2
 487              		.loc 1 260 0
 488 0006 78B1     		cbz	r0, .L61
 489              		.loc 1 261 0
 490 0008 0C06     		lsls	r4, r1, #24
 491 000a 22D4     		bmi	.L62
 492              		.loc 1 262 0
 493 000c 12F07F44 		ands	r4, r2, #-16777216
 494 0010 18D1     		bne	.L63
 495              		.loc 1 263 0
 496 0012 032B     		cmp	r3, #3
 497 0014 0FD8     		bhi	.L64
 498              		.loc 1 267 0
 499 0016 1B02     		lsls	r3, r3, #8
 500              	.LVL61:
 501 0018 43EA0141 		orr	r1, r3, r1, lsl #16
 502              	.LVL62:
 503              		.loc 1 266 0
 504 001c 4460     		str	r4, [r0, #4]
 505              		.loc 1 267 0
 506 001e 4160     		str	r1, [r0, #4]
 507              		.loc 1 270 0
 508 0020 C460     		str	r4, [r0, #12]
 509              		.loc 1 271 0
 510 0022 C260     		str	r2, [r0, #12]
 511              	.LVL63:
 512              	.LBB4:
 513              	.LBB5:
ARM GAS  /tmp/cc7cohkt.s 			page 10


 514              		.loc 1 239 0
 515 0024 4563     		str	r5, [r0, #52]
 516 0026 38BD     		pop	{r3, r4, r5, pc}
 517              	.LVL64:
 518              	.L61:
 519              	.LBE5:
 520              	.LBE4:
 521              		.loc 1 260 0 discriminator 1
 522 0028 0D48     		ldr	r0, .L65
 523              	.LVL65:
 524 002a 4FF48271 		mov	r1, #260
 525              	.LVL66:
 526 002e 0D4A     		ldr	r2, .L65+4
 527              	.LVL67:
 528 0030 0D4B     		ldr	r3, .L65+8
 529              	.LVL68:
 530 0032 FFF7FEFF 		bl	__assert_func
 531              	.LVL69:
 532              	.L64:
 533              		.loc 1 263 0 discriminator 1
 534 0036 0A48     		ldr	r0, .L65
 535              	.LVL70:
 536 0038 40F20711 		movw	r1, #263
 537              	.LVL71:
 538 003c 094A     		ldr	r2, .L65+4
 539              	.LVL72:
 540 003e 0B4B     		ldr	r3, .L65+12
 541              	.LVL73:
 542 0040 FFF7FEFF 		bl	__assert_func
 543              	.LVL74:
 544              	.L63:
 545              		.loc 1 262 0 discriminator 1
 546 0044 0648     		ldr	r0, .L65
 547              	.LVL75:
 548 0046 4FF48371 		mov	r1, #262
 549              	.LVL76:
 550 004a 064A     		ldr	r2, .L65+4
 551              	.LVL77:
 552 004c 084B     		ldr	r3, .L65+16
 553              	.LVL78:
 554 004e FFF7FEFF 		bl	__assert_func
 555              	.LVL79:
 556              	.L62:
 557              		.loc 1 261 0 discriminator 1
 558 0052 0348     		ldr	r0, .L65
 559              	.LVL80:
 560 0054 40F20511 		movw	r1, #261
 561              	.LVL81:
 562 0058 024A     		ldr	r2, .L65+4
 563              	.LVL82:
 564 005a 064B     		ldr	r3, .L65+20
 565              	.LVL83:
 566 005c FFF7FEFF 		bl	__assert_func
 567              	.LVL84:
 568              	.L66:
 569              		.align	2
 570              	.L65:
ARM GAS  /tmp/cc7cohkt.s 			page 11


 571 0060 00000000 		.word	.LC0
 572 0064 00000000 		.word	.LANCHOR6
 573 0068 30000000 		.word	.LC1
 574 006c B8000000 		.word	.LC7
 575 0070 98000000 		.word	.LC6
 576 0074 80000000 		.word	.LC5
 577              		.cfi_endproc
 578              	.LFE6:
 579              		.size	TWI_StartWrite, .-TWI_StartWrite
 580              		.section	.text.TWI_ByteReceived,"ax",%progbits
 581              		.align	2
 582              		.p2align 4,,15
 583              		.global	TWI_ByteReceived
 584              		.thumb
 585              		.thumb_func
 586              		.type	TWI_ByteReceived, %function
 587              	TWI_ByteReceived:
 588              	.LFB7:
 589              		.loc 1 284 0
 590              		.cfi_startproc
 591              		@ args = 0, pretend = 0, frame = 0
 592              		@ frame_needed = 0, uses_anonymous_args = 0
 593              		@ link register save eliminated.
 594              	.LVL85:
 595              		.loc 1 285 0
 596 0000 006A     		ldr	r0, [r0, #32]
 597              	.LVL86:
 598              		.loc 1 286 0
 599 0002 C0F34000 		ubfx	r0, r0, #1, #1
 600 0006 7047     		bx	lr
 601              		.cfi_endproc
 602              	.LFE7:
 603              		.size	TWI_ByteReceived, .-TWI_ByteReceived
 604              		.section	.text.TWI_ByteSent,"ax",%progbits
 605              		.align	2
 606              		.p2align 4,,15
 607              		.global	TWI_ByteSent
 608              		.thumb
 609              		.thumb_func
 610              		.type	TWI_ByteSent, %function
 611              	TWI_ByteSent:
 612              	.LFB8:
 613              		.loc 1 295 0
 614              		.cfi_startproc
 615              		@ args = 0, pretend = 0, frame = 0
 616              		@ frame_needed = 0, uses_anonymous_args = 0
 617              		@ link register save eliminated.
 618              	.LVL87:
 619              		.loc 1 296 0
 620 0000 006A     		ldr	r0, [r0, #32]
 621              	.LVL88:
 622              		.loc 1 297 0
 623 0002 C0F38000 		ubfx	r0, r0, #2, #1
 624 0006 7047     		bx	lr
 625              		.cfi_endproc
 626              	.LFE8:
 627              		.size	TWI_ByteSent, .-TWI_ByteSent
ARM GAS  /tmp/cc7cohkt.s 			page 12


 628              		.section	.text.TWI_TransferComplete,"ax",%progbits
 629              		.align	2
 630              		.p2align 4,,15
 631              		.global	TWI_TransferComplete
 632              		.thumb
 633              		.thumb_func
 634              		.type	TWI_TransferComplete, %function
 635              	TWI_TransferComplete:
 636              	.LFB9:
 637              		.loc 1 306 0
 638              		.cfi_startproc
 639              		@ args = 0, pretend = 0, frame = 0
 640              		@ frame_needed = 0, uses_anonymous_args = 0
 641              		@ link register save eliminated.
 642              	.LVL89:
 643              		.loc 1 307 0
 644 0000 006A     		ldr	r0, [r0, #32]
 645              	.LVL90:
 646              		.loc 1 308 0
 647 0002 00F00100 		and	r0, r0, #1
 648 0006 7047     		bx	lr
 649              		.cfi_endproc
 650              	.LFE9:
 651              		.size	TWI_TransferComplete, .-TWI_TransferComplete
 652              		.section	.text.TWI_EnableIt,"ax",%progbits
 653              		.align	2
 654              		.p2align 4,,15
 655              		.global	TWI_EnableIt
 656              		.thumb
 657              		.thumb_func
 658              		.type	TWI_EnableIt, %function
 659              	TWI_EnableIt:
 660              	.LFB10:
 661              		.loc 1 316 0
 662              		.cfi_startproc
 663              		@ args = 0, pretend = 0, frame = 0
 664              		@ frame_needed = 0, uses_anonymous_args = 0
 665              	.LVL91:
 666 0000 08B5     		push	{r3, lr}
 667              		.cfi_def_cfa_offset 8
 668              		.cfi_offset 3, -8
 669              		.cfi_offset 14, -4
 670              		.loc 1 317 0
 671 0002 30B1     		cbz	r0, .L74
 672              		.loc 1 318 0
 673 0004 21F47763 		bic	r3, r1, #3952
 674 0008 23F00703 		bic	r3, r3, #7
 675 000c 43B9     		cbnz	r3, .L75
 676              		.loc 1 320 0
 677 000e 4162     		str	r1, [r0, #36]
 678 0010 08BD     		pop	{r3, pc}
 679              	.L74:
 680              		.loc 1 317 0 discriminator 1
 681 0012 0748     		ldr	r0, .L76
 682              	.LVL92:
 683 0014 40F23D11 		movw	r1, #317
 684              	.LVL93:
ARM GAS  /tmp/cc7cohkt.s 			page 13


 685 0018 064A     		ldr	r2, .L76+4
 686 001a 074B     		ldr	r3, .L76+8
 687 001c FFF7FEFF 		bl	__assert_func
 688              	.LVL94:
 689              	.L75:
 690              		.loc 1 318 0 discriminator 1
 691 0020 0348     		ldr	r0, .L76
 692              	.LVL95:
 693 0022 4FF49F71 		mov	r1, #318
 694              	.LVL96:
 695 0026 034A     		ldr	r2, .L76+4
 696 0028 044B     		ldr	r3, .L76+12
 697 002a FFF7FEFF 		bl	__assert_func
 698              	.LVL97:
 699              	.L77:
 700 002e 00BF     		.align	2
 701              	.L76:
 702 0030 00000000 		.word	.LC0
 703 0034 00000000 		.word	.LANCHOR7
 704 0038 30000000 		.word	.LC1
 705 003c C4000000 		.word	.LC8
 706              		.cfi_endproc
 707              	.LFE10:
 708              		.size	TWI_EnableIt, .-TWI_EnableIt
 709              		.section	.text.TWI_DisableIt,"ax",%progbits
 710              		.align	2
 711              		.p2align 4,,15
 712              		.global	TWI_DisableIt
 713              		.thumb
 714              		.thumb_func
 715              		.type	TWI_DisableIt, %function
 716              	TWI_DisableIt:
 717              	.LFB11:
 718              		.loc 1 329 0
 719              		.cfi_startproc
 720              		@ args = 0, pretend = 0, frame = 0
 721              		@ frame_needed = 0, uses_anonymous_args = 0
 722              	.LVL98:
 723 0000 08B5     		push	{r3, lr}
 724              		.cfi_def_cfa_offset 8
 725              		.cfi_offset 3, -8
 726              		.cfi_offset 14, -4
 727              		.loc 1 330 0
 728 0002 30B1     		cbz	r0, .L82
 729              		.loc 1 331 0
 730 0004 21F47763 		bic	r3, r1, #3952
 731 0008 23F00703 		bic	r3, r3, #7
 732 000c 43B9     		cbnz	r3, .L83
 733              		.loc 1 333 0
 734 000e 8162     		str	r1, [r0, #40]
 735 0010 08BD     		pop	{r3, pc}
 736              	.L82:
 737              		.loc 1 330 0 discriminator 1
 738 0012 0748     		ldr	r0, .L84
 739              	.LVL99:
 740 0014 4FF4A571 		mov	r1, #330
 741              	.LVL100:
ARM GAS  /tmp/cc7cohkt.s 			page 14


 742 0018 064A     		ldr	r2, .L84+4
 743 001a 074B     		ldr	r3, .L84+8
 744 001c FFF7FEFF 		bl	__assert_func
 745              	.LVL101:
 746              	.L83:
 747              		.loc 1 331 0 discriminator 1
 748 0020 0348     		ldr	r0, .L84
 749              	.LVL102:
 750 0022 40F24B11 		movw	r1, #331
 751              	.LVL103:
 752 0026 034A     		ldr	r2, .L84+4
 753 0028 044B     		ldr	r3, .L84+12
 754 002a FFF7FEFF 		bl	__assert_func
 755              	.LVL104:
 756              	.L85:
 757 002e 00BF     		.align	2
 758              	.L84:
 759 0030 00000000 		.word	.LC0
 760 0034 00000000 		.word	.LANCHOR8
 761 0038 30000000 		.word	.LC1
 762 003c C4000000 		.word	.LC8
 763              		.cfi_endproc
 764              	.LFE11:
 765              		.size	TWI_DisableIt, .-TWI_DisableIt
 766              		.section	.text.TWI_GetStatus,"ax",%progbits
 767              		.align	2
 768              		.p2align 4,,15
 769              		.global	TWI_GetStatus
 770              		.thumb
 771              		.thumb_func
 772              		.type	TWI_GetStatus, %function
 773              	TWI_GetStatus:
 774              	.LFB12:
 775              		.loc 1 344 0
 776              		.cfi_startproc
 777              		@ args = 0, pretend = 0, frame = 0
 778              		@ frame_needed = 0, uses_anonymous_args = 0
 779              	.LVL105:
 780              		.loc 1 345 0
 781 0000 08B1     		cbz	r0, .L89
 782              		.loc 1 347 0
 783 0002 006A     		ldr	r0, [r0, #32]
 784              	.LVL106:
 785              		.loc 1 348 0
 786 0004 7047     		bx	lr
 787              	.LVL107:
 788              	.L89:
 789              		.loc 1 344 0 discriminator 1
 790 0006 08B5     		push	{r3, lr}
 791              		.cfi_def_cfa_offset 8
 792              		.cfi_offset 3, -8
 793              		.cfi_offset 14, -4
 794              		.loc 1 345 0 discriminator 1
 795 0008 0348     		ldr	r0, .L90
 796              	.LVL108:
 797 000a 40F25911 		movw	r1, #345
 798 000e 034A     		ldr	r2, .L90+4
ARM GAS  /tmp/cc7cohkt.s 			page 15


 799 0010 034B     		ldr	r3, .L90+8
 800 0012 FFF7FEFF 		bl	__assert_func
 801              	.LVL109:
 802              	.L91:
 803 0016 00BF     		.align	2
 804              	.L90:
 805 0018 00000000 		.word	.LC0
 806 001c 00000000 		.word	.LANCHOR9
 807 0020 30000000 		.word	.LC1
 808              		.cfi_endproc
 809              	.LFE12:
 810              		.size	TWI_GetStatus, .-TWI_GetStatus
 811              		.section	.text.TWI_GetMaskedStatus,"ax",%progbits
 812              		.align	2
 813              		.p2align 4,,15
 814              		.global	TWI_GetMaskedStatus
 815              		.thumb
 816              		.thumb_func
 817              		.type	TWI_GetMaskedStatus, %function
 818              	TWI_GetMaskedStatus:
 819              	.LFB13:
 820              		.loc 1 358 0
 821              		.cfi_startproc
 822              		@ args = 0, pretend = 0, frame = 0
 823              		@ frame_needed = 0, uses_anonymous_args = 0
 824              	.LVL110:
 825 0000 08B5     		push	{r3, lr}
 826              		.cfi_def_cfa_offset 8
 827              		.cfi_offset 3, -8
 828              		.cfi_offset 14, -4
 829              		.loc 1 361 0
 830 0002 18B1     		cbz	r0, .L95
 831              		.loc 1 363 0
 832 0004 036A     		ldr	r3, [r0, #32]
 833              	.LVL111:
 834              		.loc 1 364 0
 835 0006 C06A     		ldr	r0, [r0, #44]
 836              	.LVL112:
 837              		.loc 1 367 0
 838 0008 1840     		ands	r0, r0, r3
 839              	.LVL113:
 840 000a 08BD     		pop	{r3, pc}
 841              	.LVL114:
 842              	.L95:
 843              		.loc 1 361 0 discriminator 1
 844 000c 0348     		ldr	r0, .L96
 845              	.LVL115:
 846 000e 40F26911 		movw	r1, #361
 847 0012 034A     		ldr	r2, .L96+4
 848 0014 034B     		ldr	r3, .L96+8
 849 0016 FFF7FEFF 		bl	__assert_func
 850              	.LVL116:
 851              	.L97:
 852 001a 00BF     		.align	2
 853              	.L96:
 854 001c 00000000 		.word	.LC0
 855 0020 00000000 		.word	.LANCHOR10
ARM GAS  /tmp/cc7cohkt.s 			page 16


 856 0024 30000000 		.word	.LC1
 857              		.cfi_endproc
 858              	.LFE13:
 859              		.size	TWI_GetMaskedStatus, .-TWI_GetMaskedStatus
 860              		.section	.text.TWI_SendSTOPCondition,"ax",%progbits
 861              		.align	2
 862              		.p2align 4,,15
 863              		.global	TWI_SendSTOPCondition
 864              		.thumb
 865              		.thumb_func
 866              		.type	TWI_SendSTOPCondition, %function
 867              	TWI_SendSTOPCondition:
 868              	.LFB14:
 869              		.loc 1 375 0
 870              		.cfi_startproc
 871              		@ args = 0, pretend = 0, frame = 0
 872              		@ frame_needed = 0, uses_anonymous_args = 0
 873              	.LVL117:
 874 0000 08B5     		push	{r3, lr}
 875              		.cfi_def_cfa_offset 8
 876              		.cfi_offset 3, -8
 877              		.cfi_offset 14, -4
 878              		.loc 1 376 0
 879 0002 20B1     		cbz	r0, .L101
 880              		.loc 1 378 0
 881 0004 0368     		ldr	r3, [r0]
 882 0006 43F00203 		orr	r3, r3, #2
 883 000a 0360     		str	r3, [r0]
 884 000c 08BD     		pop	{r3, pc}
 885              	.L101:
 886              		.loc 1 376 0 discriminator 1
 887 000e 0348     		ldr	r0, .L102
 888              	.LVL118:
 889 0010 4FF4BC71 		mov	r1, #376
 890 0014 024A     		ldr	r2, .L102+4
 891 0016 034B     		ldr	r3, .L102+8
 892 0018 FFF7FEFF 		bl	__assert_func
 893              	.LVL119:
 894              	.L103:
 895              		.align	2
 896              	.L102:
 897 001c 00000000 		.word	.LC0
 898 0020 00000000 		.word	.LANCHOR11
 899 0024 30000000 		.word	.LC1
 900              		.cfi_endproc
 901              	.LFE14:
 902              		.size	TWI_SendSTOPCondition, .-TWI_SendSTOPCondition
 903              		.section	.rodata.__func__.4883,"a",%progbits
 904              		.align	2
 905              		.set	.LANCHOR6,. + 0
 906              		.type	__func__.4883, %object
 907              		.size	__func__.4883, 15
 908              	__func__.4883:
 909 0000 5457495F 		.ascii	"TWI_StartWrite\000"
 909      53746172 
 909      74577269 
 909      746500
ARM GAS  /tmp/cc7cohkt.s 			page 17


 910              		.section	.rodata.__func__.4915,"a",%progbits
 911              		.align	2
 912              		.set	.LANCHOR11,. + 0
 913              		.type	__func__.4915, %object
 914              		.size	__func__.4915, 22
 915              	__func__.4915:
 916 0000 5457495F 		.ascii	"TWI_SendSTOPCondition\000"
 916      53656E64 
 916      53544F50 
 916      436F6E64 
 916      6974696F 
 917              		.section	.rodata.__func__.4911,"a",%progbits
 918              		.align	2
 919              		.set	.LANCHOR10,. + 0
 920              		.type	__func__.4911, %object
 921              		.size	__func__.4911, 20
 922              	__func__.4911:
 923 0000 5457495F 		.ascii	"TWI_GetMaskedStatus\000"
 923      4765744D 
 923      61736B65 
 923      64537461 
 923      74757300 
 924              		.section	.rodata.__func__.4840,"a",%progbits
 925              		.align	2
 926              		.set	.LANCHOR1,. + 0
 927              		.type	__func__.4840, %object
 928              		.size	__func__.4840, 20
 929              	__func__.4840:
 930 0000 5457495F 		.ascii	"TWI_ConfigureMaster\000"
 930      436F6E66 
 930      69677572 
 930      654D6173 
 930      74657200 
 931              		.section	.rodata.__func__.4897,"a",%progbits
 932              		.align	2
 933              		.set	.LANCHOR7,. + 0
 934              		.type	__func__.4897, %object
 935              		.size	__func__.4897, 13
 936              	__func__.4897:
 937 0000 5457495F 		.ascii	"TWI_EnableIt\000"
 937      456E6162 
 937      6C654974 
 937      00
 938              		.section	.rodata.__func__.4902,"a",%progbits
 939              		.align	2
 940              		.set	.LANCHOR8,. + 0
 941              		.type	__func__.4902, %object
 942              		.size	__func__.4902, 14
 943              	__func__.4902:
 944 0000 5457495F 		.ascii	"TWI_DisableIt\000"
 944      44697361 
 944      626C6549 
 944      7400
 945              		.section	.rodata.str1.4,"aMS",%progbits,1
 946              		.align	2
 947              	.LC0:
 948 0000 43686962 		.ascii	"ChibiOS//os/hal/platforms/AT91SAM3S/atmel_twi.c\000"
ARM GAS  /tmp/cc7cohkt.s 			page 18


 948      694F532F 
 948      2F6F732F 
 948      68616C2F 
 948      706C6174 
 949              	.LC1:
 950 0030 70547769 		.ascii	"pTwi != 0\000"
 950      20213D20 
 950      3000
 951 003a 0000     		.space	2
 952              	.LC2:
 953 003c 70547769 		.ascii	"pTwi\000"
 953      00
 954 0041 000000   		.space	3
 955              	.LC3:
 956 0044 6477436B 		.ascii	"dwCkDiv < 8\000"
 956      44697620 
 956      3C203800 
 957              	.LC4:
 958 0050 28705477 		.ascii	"(pTwi->TWI_CR & TWI_CR_SVDIS)!= TWI_CR_SVDIS\000"
 958      692D3E54 
 958      57495F43 
 958      52202620 
 958      5457495F 
 959 007d 000000   		.space	3
 960              	.LC5:
 961 0080 28616464 		.ascii	"(address & 0x80) == 0\000"
 961      72657373 
 961      20262030 
 961      78383029 
 961      203D3D20 
 962 0096 0000     		.space	2
 963              	.LC6:
 964 0098 28696164 		.ascii	"(iaddress & 0xFF000000) == 0\000"
 964      64726573 
 964      73202620 
 964      30784646 
 964      30303030 
 965 00b5 000000   		.space	3
 966              	.LC7:
 967 00b8 6973697A 		.ascii	"isize < 4\000"
 967      65203C20 
 967      3400
 968 00c2 0000     		.space	2
 969              	.LC8:
 970 00c4 28736F75 		.ascii	"(sources & 0xFFFFF088) == 0\000"
 970      72636573 
 970      20262030 
 970      78464646 
 970      46463038 
 971              		.section	.rodata.__func__.4855,"a",%progbits
 972              		.align	2
 973              		.set	.LANCHOR2,. + 0
 974              		.type	__func__.4855, %object
 975              		.size	__func__.4855, 19
 976              	__func__.4855:
 977 0000 5457495F 		.ascii	"TWI_ConfigureSlave\000"
 977      436F6E66 
ARM GAS  /tmp/cc7cohkt.s 			page 19


 977      69677572 
 977      65536C61 
 977      766500
 978              		.section	.rodata.__func__.4906,"a",%progbits
 979              		.align	2
 980              		.set	.LANCHOR9,. + 0
 981              		.type	__func__.4906, %object
 982              		.size	__func__.4906, 14
 983              	__func__.4906:
 984 0000 5457495F 		.ascii	"TWI_GetStatus\000"
 984      47657453 
 984      74617475 
 984      7300
 985              		.section	.rodata.__func__.4859,"a",%progbits
 986              		.align	2
 987              		.set	.LANCHOR3,. + 0
 988              		.type	__func__.4859, %object
 989              		.size	__func__.4859, 9
 990              	__func__.4859:
 991 0000 5457495F 		.ascii	"TWI_Stop\000"
 991      53746F70 
 991      00
 992              		.section	.rodata.__func__.4870,"a",%progbits
 993              		.align	2
 994              		.set	.LANCHOR5,. + 0
 995              		.type	__func__.4870, %object
 996              		.size	__func__.4870, 13
 997              	__func__.4870:
 998 0000 5457495F 		.ascii	"TWI_ReadByte\000"
 998      52656164 
 998      42797465 
 998      00
 999              		.section	.rodata.__func__.4866,"a",%progbits
 1000              		.align	2
 1001              		.set	.LANCHOR4,. + 0
 1002              		.type	__func__.4866, %object
 1003              		.size	__func__.4866, 14
 1004              	__func__.4866:
 1005 0000 5457495F 		.ascii	"TWI_StartRead\000"
 1005      53746172 
 1005      74526561 
 1005      6400
 1006              		.section	.rodata.__func__.4875,"a",%progbits
 1007              		.align	2
 1008              		.set	.LANCHOR0,. + 0
 1009              		.type	__func__.4875, %object
 1010              		.size	__func__.4875, 14
 1011              	__func__.4875:
 1012 0000 5457495F 		.ascii	"TWI_WriteByte\000"
 1012      57726974 
 1012      65427974 
 1012      6500
 1013              		.text
 1014              	.Letext0:
 1015              		.file 2 "/usr/include/newlib/machine/_default_types.h"
 1016              		.file 3 "/usr/include/newlib/sys/_stdint.h"
 1017              		.file 4 "ChibiOS//os/hal/platforms/AT91SAM3S/SAM3S.h"
ARM GAS  /tmp/cc7cohkt.s 			page 20


 1018              		.file 5 "/usr/include/newlib/assert.h"
 1019              		.section	.debug_info,"",%progbits
 1020              	.Ldebug_info0:
 1021 0000 930B0000 		.4byte	0xb93
 1022 0004 0400     		.2byte	0x4
 1023 0006 00000000 		.4byte	.Ldebug_abbrev0
 1024 000a 04       		.byte	0x4
 1025 000b 01       		.uleb128 0x1
 1026 000c 9D000000 		.4byte	.LASF71
 1027 0010 01       		.byte	0x1
 1028 0011 56030000 		.4byte	.LASF72
 1029 0015 7A000000 		.4byte	.LASF73
 1030 0019 00000000 		.4byte	.Ldebug_ranges0+0
 1031 001d 00000000 		.4byte	0
 1032 0021 00000000 		.4byte	.Ldebug_line0
 1033 0025 02       		.uleb128 0x2
 1034 0026 01       		.byte	0x1
 1035 0027 06       		.byte	0x6
 1036 0028 8B020000 		.4byte	.LASF0
 1037 002c 03       		.uleb128 0x3
 1038 002d 1D020000 		.4byte	.LASF5
 1039 0031 02       		.byte	0x2
 1040 0032 1D       		.byte	0x1d
 1041 0033 37000000 		.4byte	0x37
 1042 0037 02       		.uleb128 0x2
 1043 0038 01       		.byte	0x1
 1044 0039 08       		.byte	0x8
 1045 003a 4E020000 		.4byte	.LASF1
 1046 003e 02       		.uleb128 0x2
 1047 003f 02       		.byte	0x2
 1048 0040 05       		.byte	0x5
 1049 0041 26000000 		.4byte	.LASF2
 1050 0045 02       		.uleb128 0x2
 1051 0046 02       		.byte	0x2
 1052 0047 07       		.byte	0x7
 1053 0048 E2020000 		.4byte	.LASF3
 1054 004c 02       		.uleb128 0x2
 1055 004d 04       		.byte	0x4
 1056 004e 05       		.byte	0x5
 1057 004f FE010000 		.4byte	.LASF4
 1058 0053 03       		.uleb128 0x3
 1059 0054 5A000000 		.4byte	.LASF6
 1060 0058 02       		.byte	0x2
 1061 0059 41       		.byte	0x41
 1062 005a 5E000000 		.4byte	0x5e
 1063 005e 02       		.uleb128 0x2
 1064 005f 04       		.byte	0x4
 1065 0060 07       		.byte	0x7
 1066 0061 2B030000 		.4byte	.LASF7
 1067 0065 02       		.uleb128 0x2
 1068 0066 08       		.byte	0x8
 1069 0067 05       		.byte	0x5
 1070 0068 B5010000 		.4byte	.LASF8
 1071 006c 02       		.uleb128 0x2
 1072 006d 08       		.byte	0x8
 1073 006e 07       		.byte	0x7
 1074 006f 97020000 		.4byte	.LASF9
ARM GAS  /tmp/cc7cohkt.s 			page 21


 1075 0073 04       		.uleb128 0x4
 1076 0074 04       		.byte	0x4
 1077 0075 05       		.byte	0x5
 1078 0076 696E7400 		.ascii	"int\000"
 1079 007a 02       		.uleb128 0x2
 1080 007b 04       		.byte	0x4
 1081 007c 07       		.byte	0x7
 1082 007d BF020000 		.4byte	.LASF10
 1083 0081 03       		.uleb128 0x3
 1084 0082 7D010000 		.4byte	.LASF11
 1085 0086 03       		.byte	0x3
 1086 0087 14       		.byte	0x14
 1087 0088 2C000000 		.4byte	0x2c
 1088 008c 03       		.uleb128 0x3
 1089 008d B6020000 		.4byte	.LASF12
 1090 0091 03       		.byte	0x3
 1091 0092 20       		.byte	0x20
 1092 0093 53000000 		.4byte	0x53
 1093 0097 03       		.uleb128 0x3
 1094 0098 48020000 		.4byte	.LASF13
 1095 009c 04       		.byte	0x4
 1096 009d 35       		.byte	0x35
 1097 009e A2000000 		.4byte	0xa2
 1098 00a2 05       		.uleb128 0x5
 1099 00a3 A7000000 		.4byte	0xa7
 1100 00a7 06       		.uleb128 0x6
 1101 00a8 8C000000 		.4byte	0x8c
 1102 00ac 03       		.uleb128 0x3
 1103 00ad 5B010000 		.4byte	.LASF14
 1104 00b1 04       		.byte	0x4
 1105 00b2 39       		.byte	0x39
 1106 00b3 B7000000 		.4byte	0xb7
 1107 00b7 06       		.uleb128 0x6
 1108 00b8 8C000000 		.4byte	0x8c
 1109 00bc 03       		.uleb128 0x3
 1110 00bd 85020000 		.4byte	.LASF15
 1111 00c1 04       		.byte	0x4
 1112 00c2 3A       		.byte	0x3a
 1113 00c3 B7000000 		.4byte	0xb7
 1114 00c7 02       		.uleb128 0x2
 1115 00c8 04       		.byte	0x4
 1116 00c9 07       		.byte	0x7
 1117 00ca 30000000 		.4byte	.LASF16
 1118 00ce 07       		.uleb128 0x7
 1119 00cf BC000000 		.4byte	0xbc
 1120 00d3 DE000000 		.4byte	0xde
 1121 00d7 08       		.uleb128 0x8
 1122 00d8 C7000000 		.4byte	0xc7
 1123 00dc 02       		.byte	0x2
 1124 00dd 00       		.byte	0
 1125 00de 09       		.uleb128 0x9
 1126 00df 2801     		.2byte	0x128
 1127 00e1 04       		.byte	0x4
 1128 00e2 5616     		.2byte	0x1656
 1129 00e4 1E020000 		.4byte	0x21e
 1130 00e8 0A       		.uleb128 0xa
 1131 00e9 92030000 		.4byte	.LASF17
ARM GAS  /tmp/cc7cohkt.s 			page 22


 1132 00ed 04       		.byte	0x4
 1133 00ee 5716     		.2byte	0x1657
 1134 00f0 AC000000 		.4byte	0xac
 1135 00f4 00       		.byte	0
 1136 00f5 0A       		.uleb128 0xa
 1137 00f6 12030000 		.4byte	.LASF18
 1138 00fa 04       		.byte	0x4
 1139 00fb 5816     		.2byte	0x1658
 1140 00fd BC000000 		.4byte	0xbc
 1141 0101 04       		.byte	0x4
 1142 0102 0A       		.uleb128 0xa
 1143 0103 E6030000 		.4byte	.LASF19
 1144 0107 04       		.byte	0x4
 1145 0108 5916     		.2byte	0x1659
 1146 010a BC000000 		.4byte	0xbc
 1147 010e 08       		.byte	0x8
 1148 010f 0A       		.uleb128 0xa
 1149 0110 D4030000 		.4byte	.LASF20
 1150 0114 04       		.byte	0x4
 1151 0115 5A16     		.2byte	0x165a
 1152 0117 BC000000 		.4byte	0xbc
 1153 011b 0C       		.byte	0xc
 1154 011c 0A       		.uleb128 0xa
 1155 011d 01030000 		.4byte	.LASF21
 1156 0121 04       		.byte	0x4
 1157 0122 5B16     		.2byte	0x165b
 1158 0124 BC000000 		.4byte	0xbc
 1159 0128 10       		.byte	0x10
 1160 0129 0A       		.uleb128 0xa
 1161 012a 69010000 		.4byte	.LASF22
 1162 012e 04       		.byte	0x4
 1163 012f 5C16     		.2byte	0x165c
 1164 0131 1E020000 		.4byte	0x21e
 1165 0135 14       		.byte	0x14
 1166 0136 0A       		.uleb128 0xa
 1167 0137 1F000000 		.4byte	.LASF23
 1168 013b 04       		.byte	0x4
 1169 013c 5D16     		.2byte	0x165d
 1170 013e 97000000 		.4byte	0x97
 1171 0142 20       		.byte	0x20
 1172 0143 0A       		.uleb128 0xa
 1173 0144 00000000 		.4byte	.LASF24
 1174 0148 04       		.byte	0x4
 1175 0149 5E16     		.2byte	0x165e
 1176 014b AC000000 		.4byte	0xac
 1177 014f 24       		.byte	0x24
 1178 0150 0A       		.uleb128 0xa
 1179 0151 23030000 		.4byte	.LASF25
 1180 0155 04       		.byte	0x4
 1181 0156 5F16     		.2byte	0x165f
 1182 0158 AC000000 		.4byte	0xac
 1183 015c 28       		.byte	0x28
 1184 015d 0A       		.uleb128 0xa
 1185 015e 4D000000 		.4byte	.LASF26
 1186 0162 04       		.byte	0x4
 1187 0163 6016     		.2byte	0x1660
 1188 0165 97000000 		.4byte	0x97
ARM GAS  /tmp/cc7cohkt.s 			page 23


 1189 0169 2C       		.byte	0x2c
 1190 016a 0A       		.uleb128 0xa
 1191 016b 46030000 		.4byte	.LASF27
 1192 016f 04       		.byte	0x4
 1193 0170 6116     		.2byte	0x1661
 1194 0172 97000000 		.4byte	0x97
 1195 0176 30       		.byte	0x30
 1196 0177 0A       		.uleb128 0xa
 1197 0178 AE020000 		.4byte	.LASF28
 1198 017c 04       		.byte	0x4
 1199 017d 6216     		.2byte	0x1662
 1200 017f AC000000 		.4byte	0xac
 1201 0183 34       		.byte	0x34
 1202 0184 0A       		.uleb128 0xa
 1203 0185 73010000 		.4byte	.LASF29
 1204 0189 04       		.byte	0x4
 1205 018a 6316     		.2byte	0x1663
 1206 018c 33020000 		.4byte	0x233
 1207 0190 38       		.byte	0x38
 1208 0191 0B       		.uleb128 0xb
 1209 0192 A8030000 		.4byte	.LASF30
 1210 0196 04       		.byte	0x4
 1211 0197 6416     		.2byte	0x1664
 1212 0199 BC000000 		.4byte	0xbc
 1213 019d 0001     		.2byte	0x100
 1214 019f 0B       		.uleb128 0xb
 1215 01a0 27020000 		.4byte	.LASF31
 1216 01a4 04       		.byte	0x4
 1217 01a5 6516     		.2byte	0x1665
 1218 01a7 BC000000 		.4byte	0xbc
 1219 01ab 0401     		.2byte	0x104
 1220 01ad 0B       		.uleb128 0xb
 1221 01ae 0A030000 		.4byte	.LASF32
 1222 01b2 04       		.byte	0x4
 1223 01b3 6616     		.2byte	0x1666
 1224 01b5 BC000000 		.4byte	0xbc
 1225 01b9 0801     		.2byte	0x108
 1226 01bb 0B       		.uleb128 0xb
 1227 01bc 61010000 		.4byte	.LASF33
 1228 01c0 04       		.byte	0x4
 1229 01c1 6716     		.2byte	0x1667
 1230 01c3 BC000000 		.4byte	0xbc
 1231 01c7 0C01     		.2byte	0x10c
 1232 01c9 0B       		.uleb128 0xb
 1233 01ca DD030000 		.4byte	.LASF34
 1234 01ce 04       		.byte	0x4
 1235 01cf 6816     		.2byte	0x1668
 1236 01d1 BC000000 		.4byte	0xbc
 1237 01d5 1001     		.2byte	0x110
 1238 01d7 0B       		.uleb128 0xb
 1239 01d8 7C020000 		.4byte	.LASF35
 1240 01dc 04       		.byte	0x4
 1241 01dd 6916     		.2byte	0x1669
 1242 01df BC000000 		.4byte	0xbc
 1243 01e3 1401     		.2byte	0x114
 1244 01e5 0B       		.uleb128 0xb
 1245 01e6 62020000 		.4byte	.LASF36
ARM GAS  /tmp/cc7cohkt.s 			page 24


 1246 01ea 04       		.byte	0x4
 1247 01eb 6A16     		.2byte	0x166a
 1248 01ed BC000000 		.4byte	0xbc
 1249 01f1 1801     		.2byte	0x118
 1250 01f3 0B       		.uleb128 0xb
 1251 01f4 08000000 		.4byte	.LASF37
 1252 01f8 04       		.byte	0x4
 1253 01f9 6B16     		.2byte	0x166b
 1254 01fb BC000000 		.4byte	0xbc
 1255 01ff 1C01     		.2byte	0x11c
 1256 0201 0B       		.uleb128 0xb
 1257 0202 8E010000 		.4byte	.LASF38
 1258 0206 04       		.byte	0x4
 1259 0207 6C16     		.2byte	0x166c
 1260 0209 AC000000 		.4byte	0xac
 1261 020d 2001     		.2byte	0x120
 1262 020f 0B       		.uleb128 0xb
 1263 0210 CC020000 		.4byte	.LASF39
 1264 0214 04       		.byte	0x4
 1265 0215 6D16     		.2byte	0x166d
 1266 0217 97000000 		.4byte	0x97
 1267 021b 2401     		.2byte	0x124
 1268 021d 00       		.byte	0
 1269 021e 06       		.uleb128 0x6
 1270 021f CE000000 		.4byte	0xce
 1271 0223 07       		.uleb128 0x7
 1272 0224 BC000000 		.4byte	0xbc
 1273 0228 33020000 		.4byte	0x233
 1274 022c 08       		.uleb128 0x8
 1275 022d C7000000 		.4byte	0xc7
 1276 0231 31       		.byte	0x31
 1277 0232 00       		.byte	0
 1278 0233 06       		.uleb128 0x6
 1279 0234 23020000 		.4byte	0x223
 1280 0238 0C       		.uleb128 0xc
 1281 0239 54776900 		.ascii	"Twi\000"
 1282 023d 04       		.byte	0x4
 1283 023e 6E16     		.2byte	0x166e
 1284 0240 DE000000 		.4byte	0xde
 1285 0244 0D       		.uleb128 0xd
 1286 0245 11000000 		.4byte	.LASF69
 1287 0249 01       		.byte	0x1
 1288 024a EB       		.byte	0xeb
 1289 024b 01       		.byte	0x1
 1290 024c 74020000 		.4byte	0x274
 1291 0250 0E       		.uleb128 0xe
 1292 0251 55000000 		.4byte	.LASF40
 1293 0255 01       		.byte	0x1
 1294 0256 EB       		.byte	0xeb
 1295 0257 74020000 		.4byte	0x274
 1296 025b 0E       		.uleb128 0xe
 1297 025c 2F020000 		.4byte	.LASF41
 1298 0260 01       		.byte	0x1
 1299 0261 EB       		.byte	0xeb
 1300 0262 81000000 		.4byte	0x81
 1301 0266 0F       		.uleb128 0xf
 1302 0267 1A030000 		.4byte	.LASF48
ARM GAS  /tmp/cc7cohkt.s 			page 25


 1303 026b 91020000 		.4byte	0x291
 1304 026f 11000000 		.4byte	.LASF69
 1305 0273 00       		.byte	0
 1306 0274 10       		.uleb128 0x10
 1307 0275 04       		.byte	0x4
 1308 0276 38020000 		.4byte	0x238
 1309 027a 07       		.uleb128 0x7
 1310 027b 8A020000 		.4byte	0x28a
 1311 027f 8A020000 		.4byte	0x28a
 1312 0283 08       		.uleb128 0x8
 1313 0284 C7000000 		.4byte	0xc7
 1314 0288 0D       		.byte	0xd
 1315 0289 00       		.byte	0
 1316 028a 02       		.uleb128 0x2
 1317 028b 01       		.byte	0x1
 1318 028c 08       		.byte	0x8
 1319 028d FC020000 		.4byte	.LASF42
 1320 0291 05       		.uleb128 0x5
 1321 0292 7A020000 		.4byte	0x27a
 1322 0296 11       		.uleb128 0x11
 1323 0297 44020000 		.4byte	0x244
 1324 029b 00000000 		.4byte	.LFB15
 1325 029f 1C000000 		.4byte	.LFE15-.LFB15
 1326 02a3 01       		.uleb128 0x1
 1327 02a4 9C       		.byte	0x9c
 1328 02a5 F8020000 		.4byte	0x2f8
 1329 02a9 12       		.uleb128 0x12
 1330 02aa 5B020000 		.4byte	0x25b
 1331 02ae 06       		.uleb128 0x6
 1332 02af FA       		.byte	0xfa
 1333 02b0 5B020000 		.4byte	0x25b
 1334 02b4 9F       		.byte	0x9f
 1335 02b5 12       		.uleb128 0x12
 1336 02b6 50020000 		.4byte	0x250
 1337 02ba 06       		.uleb128 0x6
 1338 02bb FA       		.byte	0xfa
 1339 02bc 50020000 		.4byte	0x250
 1340 02c0 9F       		.byte	0x9f
 1341 02c1 13       		.uleb128 0x13
 1342 02c2 66020000 		.4byte	0x266
 1343 02c6 05       		.uleb128 0x5
 1344 02c7 03       		.byte	0x3
 1345 02c8 00000000 		.4byte	__func__.4875
 1346 02cc 14       		.uleb128 0x14
 1347 02cd 0E000000 		.4byte	.LVL1
 1348 02d1 6B0B0000 		.4byte	0xb6b
 1349 02d5 15       		.uleb128 0x15
 1350 02d6 01       		.uleb128 0x1
 1351 02d7 53       		.byte	0x53
 1352 02d8 05       		.uleb128 0x5
 1353 02d9 03       		.byte	0x3
 1354 02da 30000000 		.4byte	.LC1
 1355 02de 15       		.uleb128 0x15
 1356 02df 01       		.uleb128 0x1
 1357 02e0 52       		.byte	0x52
 1358 02e1 05       		.uleb128 0x5
 1359 02e2 03       		.byte	0x3
ARM GAS  /tmp/cc7cohkt.s 			page 26


 1360 02e3 00000000 		.4byte	.LANCHOR0
 1361 02e7 15       		.uleb128 0x15
 1362 02e8 01       		.uleb128 0x1
 1363 02e9 51       		.byte	0x51
 1364 02ea 02       		.uleb128 0x2
 1365 02eb 08       		.byte	0x8
 1366 02ec ED       		.byte	0xed
 1367 02ed 15       		.uleb128 0x15
 1368 02ee 01       		.uleb128 0x1
 1369 02ef 50       		.byte	0x50
 1370 02f0 05       		.uleb128 0x5
 1371 02f1 03       		.byte	0x3
 1372 02f2 00000000 		.4byte	.LC0
 1373 02f6 00       		.byte	0
 1374 02f7 00       		.byte	0
 1375 02f8 16       		.uleb128 0x16
 1376 02f9 34020000 		.4byte	.LASF49
 1377 02fd 01       		.byte	0x1
 1378 02fe 60       		.byte	0x60
 1379 02ff 00000000 		.4byte	.LFB0
 1380 0303 74000000 		.4byte	.LFE0-.LFB0
 1381 0307 01       		.uleb128 0x1
 1382 0308 9C       		.byte	0x9c
 1383 0309 D1030000 		.4byte	0x3d1
 1384 030d 17       		.uleb128 0x17
 1385 030e 55000000 		.4byte	.LASF40
 1386 0312 01       		.byte	0x1
 1387 0313 60       		.byte	0x60
 1388 0314 74020000 		.4byte	0x274
 1389 0318 00000000 		.4byte	.LLST0
 1390 031c 17       		.uleb128 0x17
 1391 031d 8B030000 		.4byte	.LASF43
 1392 0321 01       		.byte	0x1
 1393 0322 60       		.byte	0x60
 1394 0323 8C000000 		.4byte	0x8c
 1395 0327 3A000000 		.4byte	.LLST1
 1396 032b 17       		.uleb128 0x17
 1397 032c D0010000 		.4byte	.LASF44
 1398 0330 01       		.byte	0x1
 1399 0331 60       		.byte	0x60
 1400 0332 8C000000 		.4byte	0x8c
 1401 0336 74000000 		.4byte	.LLST2
 1402 033a 18       		.uleb128 0x18
 1403 033b 97010000 		.4byte	.LASF45
 1404 033f 01       		.byte	0x1
 1405 0340 62       		.byte	0x62
 1406 0341 8C000000 		.4byte	0x8c
 1407 0345 AE000000 		.4byte	.LLST3
 1408 0349 18       		.uleb128 0x18
 1409 034a AD010000 		.4byte	.LASF46
 1410 034e 01       		.byte	0x1
 1411 034f 63       		.byte	0x63
 1412 0350 8C000000 		.4byte	0x8c
 1413 0354 E4000000 		.4byte	.LLST4
 1414 0358 18       		.uleb128 0x18
 1415 0359 86030000 		.4byte	.LASF47
 1416 035d 01       		.byte	0x1
ARM GAS  /tmp/cc7cohkt.s 			page 27


 1417 035e 64       		.byte	0x64
 1418 035f 8C000000 		.4byte	0x8c
 1419 0363 0D010000 		.4byte	.LLST5
 1420 0367 19       		.uleb128 0x19
 1421 0368 1A030000 		.4byte	.LASF48
 1422 036c E1030000 		.4byte	0x3e1
 1423 0370 05       		.uleb128 0x5
 1424 0371 03       		.byte	0x3
 1425 0372 00000000 		.4byte	__func__.4840
 1426 0376 1A       		.uleb128 0x1a
 1427 0377 56000000 		.4byte	.LVL16
 1428 037b 6B0B0000 		.4byte	0xb6b
 1429 037f A5030000 		.4byte	0x3a5
 1430 0383 15       		.uleb128 0x15
 1431 0384 01       		.uleb128 0x1
 1432 0385 53       		.byte	0x53
 1433 0386 05       		.uleb128 0x5
 1434 0387 03       		.byte	0x3
 1435 0388 3C000000 		.4byte	.LC2
 1436 038c 15       		.uleb128 0x15
 1437 038d 01       		.uleb128 0x1
 1438 038e 52       		.byte	0x52
 1439 038f 05       		.uleb128 0x5
 1440 0390 03       		.byte	0x3
 1441 0391 00000000 		.4byte	.LANCHOR1
 1442 0395 15       		.uleb128 0x15
 1443 0396 01       		.uleb128 0x1
 1444 0397 51       		.byte	0x51
 1445 0398 02       		.uleb128 0x2
 1446 0399 08       		.byte	0x8
 1447 039a 67       		.byte	0x67
 1448 039b 15       		.uleb128 0x15
 1449 039c 01       		.uleb128 0x1
 1450 039d 50       		.byte	0x50
 1451 039e 05       		.uleb128 0x5
 1452 039f 03       		.byte	0x3
 1453 03a0 00000000 		.4byte	.LC0
 1454 03a4 00       		.byte	0
 1455 03a5 14       		.uleb128 0x14
 1456 03a6 62000000 		.4byte	.LVL20
 1457 03aa 6B0B0000 		.4byte	0xb6b
 1458 03ae 15       		.uleb128 0x15
 1459 03af 01       		.uleb128 0x1
 1460 03b0 53       		.byte	0x53
 1461 03b1 05       		.uleb128 0x5
 1462 03b2 03       		.byte	0x3
 1463 03b3 44000000 		.4byte	.LC3
 1464 03b7 15       		.uleb128 0x15
 1465 03b8 01       		.uleb128 0x1
 1466 03b9 52       		.byte	0x52
 1467 03ba 05       		.uleb128 0x5
 1468 03bb 03       		.byte	0x3
 1469 03bc 00000000 		.4byte	.LANCHOR1
 1470 03c0 15       		.uleb128 0x15
 1471 03c1 01       		.uleb128 0x1
 1472 03c2 51       		.byte	0x51
 1473 03c3 02       		.uleb128 0x2
ARM GAS  /tmp/cc7cohkt.s 			page 28


 1474 03c4 08       		.byte	0x8
 1475 03c5 85       		.byte	0x85
 1476 03c6 15       		.uleb128 0x15
 1477 03c7 01       		.uleb128 0x1
 1478 03c8 50       		.byte	0x50
 1479 03c9 05       		.uleb128 0x5
 1480 03ca 03       		.byte	0x3
 1481 03cb 00000000 		.4byte	.LC0
 1482 03cf 00       		.byte	0
 1483 03d0 00       		.byte	0
 1484 03d1 07       		.uleb128 0x7
 1485 03d2 8A020000 		.4byte	0x28a
 1486 03d6 E1030000 		.4byte	0x3e1
 1487 03da 08       		.uleb128 0x8
 1488 03db C7000000 		.4byte	0xc7
 1489 03df 13       		.byte	0x13
 1490 03e0 00       		.byte	0
 1491 03e1 05       		.uleb128 0x5
 1492 03e2 D1030000 		.4byte	0x3d1
 1493 03e6 16       		.uleb128 0x16
 1494 03e7 EE030000 		.4byte	.LASF50
 1495 03eb 01       		.byte	0x1
 1496 03ec 91       		.byte	0x91
 1497 03ed 00000000 		.4byte	.LFB1
 1498 03f1 3C000000 		.4byte	.LFE1-.LFB1
 1499 03f5 01       		.uleb128 0x1
 1500 03f6 9C       		.byte	0x9c
 1501 03f7 5E040000 		.4byte	0x45e
 1502 03fb 17       		.uleb128 0x17
 1503 03fc 55000000 		.4byte	.LASF40
 1504 0400 01       		.byte	0x1
 1505 0401 91       		.byte	0x91
 1506 0402 74020000 		.4byte	0x274
 1507 0406 45010000 		.4byte	.LLST6
 1508 040a 17       		.uleb128 0x17
 1509 040b D6010000 		.4byte	.LASF51
 1510 040f 01       		.byte	0x1
 1511 0410 91       		.byte	0x91
 1512 0411 81000000 		.4byte	0x81
 1513 0415 66010000 		.4byte	.LLST7
 1514 0419 1B       		.uleb128 0x1b
 1515 041a 6900     		.ascii	"i\000"
 1516 041c 01       		.byte	0x1
 1517 041d 93       		.byte	0x93
 1518 041e 8C000000 		.4byte	0x8c
 1519 0422 00       		.byte	0
 1520 0423 19       		.uleb128 0x19
 1521 0424 1A030000 		.4byte	.LASF48
 1522 0428 6E040000 		.4byte	0x46e
 1523 042c 05       		.uleb128 0x5
 1524 042d 03       		.byte	0x3
 1525 042e 00000000 		.4byte	__func__.4855
 1526 0432 14       		.uleb128 0x14
 1527 0433 30000000 		.4byte	.LVL25
 1528 0437 6B0B0000 		.4byte	0xb6b
 1529 043b 15       		.uleb128 0x15
 1530 043c 01       		.uleb128 0x1
ARM GAS  /tmp/cc7cohkt.s 			page 29


 1531 043d 53       		.byte	0x53
 1532 043e 05       		.uleb128 0x5
 1533 043f 03       		.byte	0x3
 1534 0440 50000000 		.4byte	.LC4
 1535 0444 15       		.uleb128 0x15
 1536 0445 01       		.uleb128 0x1
 1537 0446 52       		.byte	0x52
 1538 0447 05       		.uleb128 0x5
 1539 0448 03       		.byte	0x3
 1540 0449 00000000 		.4byte	.LANCHOR2
 1541 044d 15       		.uleb128 0x15
 1542 044e 01       		.uleb128 0x1
 1543 044f 51       		.byte	0x51
 1544 0450 02       		.uleb128 0x2
 1545 0451 08       		.byte	0x8
 1546 0452 A8       		.byte	0xa8
 1547 0453 15       		.uleb128 0x15
 1548 0454 01       		.uleb128 0x1
 1549 0455 50       		.byte	0x50
 1550 0456 05       		.uleb128 0x5
 1551 0457 03       		.byte	0x3
 1552 0458 00000000 		.4byte	.LC0
 1553 045c 00       		.byte	0
 1554 045d 00       		.byte	0
 1555 045e 07       		.uleb128 0x7
 1556 045f 8A020000 		.4byte	0x28a
 1557 0463 6E040000 		.4byte	0x46e
 1558 0467 08       		.uleb128 0x8
 1559 0468 C7000000 		.4byte	0xc7
 1560 046c 12       		.byte	0x12
 1561 046d 00       		.byte	0
 1562 046e 05       		.uleb128 0x5
 1563 046f 5E040000 		.4byte	0x45e
 1564 0473 16       		.uleb128 0x16
 1565 0474 3D030000 		.4byte	.LASF52
 1566 0478 01       		.byte	0x1
 1567 0479 AF       		.byte	0xaf
 1568 047a 00000000 		.4byte	.LFB2
 1569 047e 24000000 		.4byte	.LFE2-.LFB2
 1570 0482 01       		.uleb128 0x1
 1571 0483 9C       		.byte	0x9c
 1572 0484 D2040000 		.4byte	0x4d2
 1573 0488 17       		.uleb128 0x17
 1574 0489 55000000 		.4byte	.LASF40
 1575 048d 01       		.byte	0x1
 1576 048e AF       		.byte	0xaf
 1577 048f 74020000 		.4byte	0x274
 1578 0493 87010000 		.4byte	.LLST8
 1579 0497 19       		.uleb128 0x19
 1580 0498 1A030000 		.4byte	.LASF48
 1581 049c E2040000 		.4byte	0x4e2
 1582 04a0 05       		.uleb128 0x5
 1583 04a1 03       		.byte	0x3
 1584 04a2 00000000 		.4byte	__func__.4859
 1585 04a6 14       		.uleb128 0x14
 1586 04a7 16000000 		.4byte	.LVL28
 1587 04ab 6B0B0000 		.4byte	0xb6b
ARM GAS  /tmp/cc7cohkt.s 			page 30


 1588 04af 15       		.uleb128 0x15
 1589 04b0 01       		.uleb128 0x1
 1590 04b1 53       		.byte	0x53
 1591 04b2 05       		.uleb128 0x5
 1592 04b3 03       		.byte	0x3
 1593 04b4 30000000 		.4byte	.LC1
 1594 04b8 15       		.uleb128 0x15
 1595 04b9 01       		.uleb128 0x1
 1596 04ba 52       		.byte	0x52
 1597 04bb 05       		.uleb128 0x5
 1598 04bc 03       		.byte	0x3
 1599 04bd 00000000 		.4byte	.LANCHOR3
 1600 04c1 15       		.uleb128 0x15
 1601 04c2 01       		.uleb128 0x1
 1602 04c3 51       		.byte	0x51
 1603 04c4 02       		.uleb128 0x2
 1604 04c5 08       		.byte	0x8
 1605 04c6 B1       		.byte	0xb1
 1606 04c7 15       		.uleb128 0x15
 1607 04c8 01       		.uleb128 0x1
 1608 04c9 50       		.byte	0x50
 1609 04ca 05       		.uleb128 0x5
 1610 04cb 03       		.byte	0x3
 1611 04cc 00000000 		.4byte	.LC0
 1612 04d0 00       		.byte	0
 1613 04d1 00       		.byte	0
 1614 04d2 07       		.uleb128 0x7
 1615 04d3 8A020000 		.4byte	0x28a
 1616 04d7 E2040000 		.4byte	0x4e2
 1617 04db 08       		.uleb128 0x8
 1618 04dc C7000000 		.4byte	0xc7
 1619 04e0 08       		.byte	0x8
 1620 04e1 00       		.byte	0
 1621 04e2 05       		.uleb128 0x5
 1622 04e3 D2040000 		.4byte	0x4d2
 1623 04e7 16       		.uleb128 0x16
 1624 04e8 07020000 		.4byte	.LASF53
 1625 04ec 01       		.byte	0x1
 1626 04ed BF       		.byte	0xbf
 1627 04ee 00000000 		.4byte	.LFB3
 1628 04f2 74000000 		.4byte	.LFE3-.LFB3
 1629 04f6 01       		.uleb128 0x1
 1630 04f7 9C       		.byte	0x9c
 1631 04f8 00060000 		.4byte	0x600
 1632 04fc 17       		.uleb128 0x17
 1633 04fd 55000000 		.4byte	.LASF40
 1634 0501 01       		.byte	0x1
 1635 0502 C0       		.byte	0xc0
 1636 0503 74020000 		.4byte	0x274
 1637 0507 A8010000 		.4byte	.LLST9
 1638 050b 17       		.uleb128 0x17
 1639 050c 15020000 		.4byte	.LASF54
 1640 0510 01       		.byte	0x1
 1641 0511 C1       		.byte	0xc1
 1642 0512 81000000 		.4byte	0x81
 1643 0516 14020000 		.4byte	.LLST10
 1644 051a 17       		.uleb128 0x17
ARM GAS  /tmp/cc7cohkt.s 			page 31


 1645 051b 85010000 		.4byte	.LASF55
 1646 051f 01       		.byte	0x1
 1647 0520 C2       		.byte	0xc2
 1648 0521 8C000000 		.4byte	0x8c
 1649 0525 99020000 		.4byte	.LLST11
 1650 0529 17       		.uleb128 0x17
 1651 052a 5C020000 		.4byte	.LASF56
 1652 052e 01       		.byte	0x1
 1653 052f C3       		.byte	0xc3
 1654 0530 81000000 		.4byte	0x81
 1655 0534 05030000 		.4byte	.LLST12
 1656 0538 19       		.uleb128 0x19
 1657 0539 1A030000 		.4byte	.LASF48
 1658 053d 00060000 		.4byte	0x600
 1659 0541 05       		.uleb128 0x5
 1660 0542 03       		.byte	0x3
 1661 0543 00000000 		.4byte	__func__.4866
 1662 0547 1A       		.uleb128 0x1a
 1663 0548 36000000 		.4byte	.LVL37
 1664 054c 6B0B0000 		.4byte	0xb6b
 1665 0550 76050000 		.4byte	0x576
 1666 0554 15       		.uleb128 0x15
 1667 0555 01       		.uleb128 0x1
 1668 0556 53       		.byte	0x53
 1669 0557 05       		.uleb128 0x5
 1670 0558 03       		.byte	0x3
 1671 0559 30000000 		.4byte	.LC1
 1672 055d 15       		.uleb128 0x15
 1673 055e 01       		.uleb128 0x1
 1674 055f 52       		.byte	0x52
 1675 0560 05       		.uleb128 0x5
 1676 0561 03       		.byte	0x3
 1677 0562 00000000 		.4byte	.LANCHOR4
 1678 0566 15       		.uleb128 0x15
 1679 0567 01       		.uleb128 0x1
 1680 0568 51       		.byte	0x51
 1681 0569 02       		.uleb128 0x2
 1682 056a 08       		.byte	0x8
 1683 056b C5       		.byte	0xc5
 1684 056c 15       		.uleb128 0x15
 1685 056d 01       		.uleb128 0x1
 1686 056e 50       		.byte	0x50
 1687 056f 05       		.uleb128 0x5
 1688 0570 03       		.byte	0x3
 1689 0571 00000000 		.4byte	.LC0
 1690 0575 00       		.byte	0
 1691 0576 1A       		.uleb128 0x1a
 1692 0577 42000000 		.4byte	.LVL42
 1693 057b 6B0B0000 		.4byte	0xb6b
 1694 057f A5050000 		.4byte	0x5a5
 1695 0583 15       		.uleb128 0x15
 1696 0584 01       		.uleb128 0x1
 1697 0585 53       		.byte	0x53
 1698 0586 05       		.uleb128 0x5
 1699 0587 03       		.byte	0x3
 1700 0588 B8000000 		.4byte	.LC7
 1701 058c 15       		.uleb128 0x15
ARM GAS  /tmp/cc7cohkt.s 			page 32


 1702 058d 01       		.uleb128 0x1
 1703 058e 52       		.byte	0x52
 1704 058f 05       		.uleb128 0x5
 1705 0590 03       		.byte	0x3
 1706 0591 00000000 		.4byte	.LANCHOR4
 1707 0595 15       		.uleb128 0x15
 1708 0596 01       		.uleb128 0x1
 1709 0597 51       		.byte	0x51
 1710 0598 02       		.uleb128 0x2
 1711 0599 08       		.byte	0x8
 1712 059a C8       		.byte	0xc8
 1713 059b 15       		.uleb128 0x15
 1714 059c 01       		.uleb128 0x1
 1715 059d 50       		.byte	0x50
 1716 059e 05       		.uleb128 0x5
 1717 059f 03       		.byte	0x3
 1718 05a0 00000000 		.4byte	.LC0
 1719 05a4 00       		.byte	0
 1720 05a5 1A       		.uleb128 0x1a
 1721 05a6 4E000000 		.4byte	.LVL47
 1722 05aa 6B0B0000 		.4byte	0xb6b
 1723 05ae D4050000 		.4byte	0x5d4
 1724 05b2 15       		.uleb128 0x15
 1725 05b3 01       		.uleb128 0x1
 1726 05b4 53       		.byte	0x53
 1727 05b5 05       		.uleb128 0x5
 1728 05b6 03       		.byte	0x3
 1729 05b7 98000000 		.4byte	.LC6
 1730 05bb 15       		.uleb128 0x15
 1731 05bc 01       		.uleb128 0x1
 1732 05bd 52       		.byte	0x52
 1733 05be 05       		.uleb128 0x5
 1734 05bf 03       		.byte	0x3
 1735 05c0 00000000 		.4byte	.LANCHOR4
 1736 05c4 15       		.uleb128 0x15
 1737 05c5 01       		.uleb128 0x1
 1738 05c6 51       		.byte	0x51
 1739 05c7 02       		.uleb128 0x2
 1740 05c8 08       		.byte	0x8
 1741 05c9 C7       		.byte	0xc7
 1742 05ca 15       		.uleb128 0x15
 1743 05cb 01       		.uleb128 0x1
 1744 05cc 50       		.byte	0x50
 1745 05cd 05       		.uleb128 0x5
 1746 05ce 03       		.byte	0x3
 1747 05cf 00000000 		.4byte	.LC0
 1748 05d3 00       		.byte	0
 1749 05d4 14       		.uleb128 0x14
 1750 05d5 5A000000 		.4byte	.LVL52
 1751 05d9 6B0B0000 		.4byte	0xb6b
 1752 05dd 15       		.uleb128 0x15
 1753 05de 01       		.uleb128 0x1
 1754 05df 53       		.byte	0x53
 1755 05e0 05       		.uleb128 0x5
 1756 05e1 03       		.byte	0x3
 1757 05e2 80000000 		.4byte	.LC5
 1758 05e6 15       		.uleb128 0x15
ARM GAS  /tmp/cc7cohkt.s 			page 33


 1759 05e7 01       		.uleb128 0x1
 1760 05e8 52       		.byte	0x52
 1761 05e9 05       		.uleb128 0x5
 1762 05ea 03       		.byte	0x3
 1763 05eb 00000000 		.4byte	.LANCHOR4
 1764 05ef 15       		.uleb128 0x15
 1765 05f0 01       		.uleb128 0x1
 1766 05f1 51       		.byte	0x51
 1767 05f2 02       		.uleb128 0x2
 1768 05f3 08       		.byte	0x8
 1769 05f4 C6       		.byte	0xc6
 1770 05f5 15       		.uleb128 0x15
 1771 05f6 01       		.uleb128 0x1
 1772 05f7 50       		.byte	0x50
 1773 05f8 05       		.uleb128 0x5
 1774 05f9 03       		.byte	0x3
 1775 05fa 00000000 		.4byte	.LC0
 1776 05fe 00       		.byte	0
 1777 05ff 00       		.byte	0
 1778 0600 05       		.uleb128 0x5
 1779 0601 7A020000 		.4byte	0x27a
 1780 0605 1C       		.uleb128 0x1c
 1781 0606 E3010000 		.4byte	.LASF58
 1782 060a 01       		.byte	0x1
 1783 060b DC       		.byte	0xdc
 1784 060c 81000000 		.4byte	0x81
 1785 0610 00000000 		.4byte	.LFB4
 1786 0614 24000000 		.4byte	.LFE4-.LFB4
 1787 0618 01       		.uleb128 0x1
 1788 0619 9C       		.byte	0x9c
 1789 061a 68060000 		.4byte	0x668
 1790 061e 17       		.uleb128 0x17
 1791 061f 55000000 		.4byte	.LASF40
 1792 0623 01       		.byte	0x1
 1793 0624 DC       		.byte	0xdc
 1794 0625 74020000 		.4byte	0x274
 1795 0629 8A030000 		.4byte	.LLST13
 1796 062d 19       		.uleb128 0x19
 1797 062e 1A030000 		.4byte	.LASF48
 1798 0632 78060000 		.4byte	0x678
 1799 0636 05       		.uleb128 0x5
 1800 0637 03       		.byte	0x3
 1801 0638 00000000 		.4byte	__func__.4870
 1802 063c 14       		.uleb128 0x14
 1803 063d 16000000 		.4byte	.LVL57
 1804 0641 6B0B0000 		.4byte	0xb6b
 1805 0645 15       		.uleb128 0x15
 1806 0646 01       		.uleb128 0x1
 1807 0647 53       		.byte	0x53
 1808 0648 05       		.uleb128 0x5
 1809 0649 03       		.byte	0x3
 1810 064a 30000000 		.4byte	.LC1
 1811 064e 15       		.uleb128 0x15
 1812 064f 01       		.uleb128 0x1
 1813 0650 52       		.byte	0x52
 1814 0651 05       		.uleb128 0x5
 1815 0652 03       		.byte	0x3
ARM GAS  /tmp/cc7cohkt.s 			page 34


 1816 0653 00000000 		.4byte	.LANCHOR5
 1817 0657 15       		.uleb128 0x15
 1818 0658 01       		.uleb128 0x1
 1819 0659 51       		.byte	0x51
 1820 065a 02       		.uleb128 0x2
 1821 065b 08       		.byte	0x8
 1822 065c DE       		.byte	0xde
 1823 065d 15       		.uleb128 0x15
 1824 065e 01       		.uleb128 0x1
 1825 065f 50       		.byte	0x50
 1826 0660 05       		.uleb128 0x5
 1827 0661 03       		.byte	0x3
 1828 0662 00000000 		.4byte	.LC0
 1829 0666 00       		.byte	0
 1830 0667 00       		.byte	0
 1831 0668 07       		.uleb128 0x7
 1832 0669 8A020000 		.4byte	0x28a
 1833 066d 78060000 		.4byte	0x678
 1834 0671 08       		.uleb128 0x8
 1835 0672 C7000000 		.4byte	0xc7
 1836 0676 0C       		.byte	0xc
 1837 0677 00       		.byte	0
 1838 0678 05       		.uleb128 0x5
 1839 0679 68060000 		.4byte	0x668
 1840 067d 11       		.uleb128 0x11
 1841 067e 44020000 		.4byte	0x244
 1842 0682 00000000 		.4byte	.LFB5
 1843 0686 0C000000 		.4byte	.LFE5-.LFB5
 1844 068a 01       		.uleb128 0x1
 1845 068b 9C       		.byte	0x9c
 1846 068c BF060000 		.4byte	0x6bf
 1847 0690 1D       		.uleb128 0x1d
 1848 0691 50020000 		.4byte	0x250
 1849 0695 C4030000 		.4byte	.LLST14
 1850 0699 1D       		.uleb128 0x1d
 1851 069a 5B020000 		.4byte	0x25b
 1852 069e E5030000 		.4byte	.LLST15
 1853 06a2 13       		.uleb128 0x13
 1854 06a3 66020000 		.4byte	0x266
 1855 06a7 05       		.uleb128 0x5
 1856 06a8 03       		.byte	0x3
 1857 06a9 00000000 		.4byte	__func__.4875
 1858 06ad 14       		.uleb128 0x14
 1859 06ae 0C000000 		.4byte	.LVL59
 1860 06b2 96020000 		.4byte	0x296
 1861 06b6 1E       		.uleb128 0x1e
 1862 06b7 50020000 		.4byte	0x250
 1863 06bb 01       		.uleb128 0x1
 1864 06bc 30       		.byte	0x30
 1865 06bd 00       		.byte	0
 1866 06be 00       		.byte	0
 1867 06bf 16       		.uleb128 0x16
 1868 06c0 99030000 		.4byte	.LASF57
 1869 06c4 01       		.byte	0x1
 1870 06c5 FD       		.byte	0xfd
 1871 06c6 00000000 		.4byte	.LFB6
 1872 06ca 78000000 		.4byte	.LFE6-.LFB6
ARM GAS  /tmp/cc7cohkt.s 			page 35


 1873 06ce 01       		.uleb128 0x1
 1874 06cf 9C       		.byte	0x9c
 1875 06d0 2A080000 		.4byte	0x82a
 1876 06d4 17       		.uleb128 0x17
 1877 06d5 55000000 		.4byte	.LASF40
 1878 06d9 01       		.byte	0x1
 1879 06da FE       		.byte	0xfe
 1880 06db 74020000 		.4byte	0x274
 1881 06df 06040000 		.4byte	.LLST16
 1882 06e3 17       		.uleb128 0x17
 1883 06e4 15020000 		.4byte	.LASF54
 1884 06e8 01       		.byte	0x1
 1885 06e9 FF       		.byte	0xff
 1886 06ea 81000000 		.4byte	0x81
 1887 06ee 72040000 		.4byte	.LLST17
 1888 06f2 1F       		.uleb128 0x1f
 1889 06f3 85010000 		.4byte	.LASF55
 1890 06f7 01       		.byte	0x1
 1891 06f8 0001     		.2byte	0x100
 1892 06fa 8C000000 		.4byte	0x8c
 1893 06fe F7040000 		.4byte	.LLST18
 1894 0702 1F       		.uleb128 0x1f
 1895 0703 5C020000 		.4byte	.LASF56
 1896 0707 01       		.byte	0x1
 1897 0708 0101     		.2byte	0x101
 1898 070a 81000000 		.4byte	0x81
 1899 070e 63050000 		.4byte	.LLST19
 1900 0712 1F       		.uleb128 0x1f
 1901 0713 2F020000 		.4byte	.LASF41
 1902 0717 01       		.byte	0x1
 1903 0718 0201     		.2byte	0x102
 1904 071a 81000000 		.4byte	0x81
 1905 071e E8050000 		.4byte	.LLST20
 1906 0722 19       		.uleb128 0x19
 1907 0723 1A030000 		.4byte	.LASF48
 1908 0727 3A080000 		.4byte	0x83a
 1909 072b 05       		.uleb128 0x5
 1910 072c 03       		.byte	0x3
 1911 072d 00000000 		.4byte	__func__.4883
 1912 0731 20       		.uleb128 0x20
 1913 0732 44020000 		.4byte	0x244
 1914 0736 24000000 		.4byte	.LBB4
 1915 073a 04000000 		.4byte	.LBE4-.LBB4
 1916 073e 01       		.byte	0x1
 1917 073f 1201     		.2byte	0x112
 1918 0741 6D070000 		.4byte	0x76d
 1919 0745 1D       		.uleb128 0x1d
 1920 0746 5B020000 		.4byte	0x25b
 1921 074a 08060000 		.4byte	.LLST21
 1922 074e 1D       		.uleb128 0x1d
 1923 074f 50020000 		.4byte	0x250
 1924 0753 1B060000 		.4byte	.LLST22
 1925 0757 21       		.uleb128 0x21
 1926 0758 24000000 		.4byte	.LBB5
 1927 075c 04000000 		.4byte	.LBE5-.LBB5
 1928 0760 13       		.uleb128 0x13
 1929 0761 66020000 		.4byte	0x266
ARM GAS  /tmp/cc7cohkt.s 			page 36


 1930 0765 05       		.uleb128 0x5
 1931 0766 03       		.byte	0x3
 1932 0767 00000000 		.4byte	__func__.4875
 1933 076b 00       		.byte	0
 1934 076c 00       		.byte	0
 1935 076d 1A       		.uleb128 0x1a
 1936 076e 36000000 		.4byte	.LVL69
 1937 0772 6B0B0000 		.4byte	0xb6b
 1938 0776 9D070000 		.4byte	0x79d
 1939 077a 15       		.uleb128 0x15
 1940 077b 01       		.uleb128 0x1
 1941 077c 53       		.byte	0x53
 1942 077d 05       		.uleb128 0x5
 1943 077e 03       		.byte	0x3
 1944 077f 30000000 		.4byte	.LC1
 1945 0783 15       		.uleb128 0x15
 1946 0784 01       		.uleb128 0x1
 1947 0785 52       		.byte	0x52
 1948 0786 05       		.uleb128 0x5
 1949 0787 03       		.byte	0x3
 1950 0788 00000000 		.4byte	.LANCHOR6
 1951 078c 15       		.uleb128 0x15
 1952 078d 01       		.uleb128 0x1
 1953 078e 51       		.byte	0x51
 1954 078f 03       		.uleb128 0x3
 1955 0790 0A       		.byte	0xa
 1956 0791 0401     		.2byte	0x104
 1957 0793 15       		.uleb128 0x15
 1958 0794 01       		.uleb128 0x1
 1959 0795 50       		.byte	0x50
 1960 0796 05       		.uleb128 0x5
 1961 0797 03       		.byte	0x3
 1962 0798 00000000 		.4byte	.LC0
 1963 079c 00       		.byte	0
 1964 079d 1A       		.uleb128 0x1a
 1965 079e 44000000 		.4byte	.LVL74
 1966 07a2 6B0B0000 		.4byte	0xb6b
 1967 07a6 CD070000 		.4byte	0x7cd
 1968 07aa 15       		.uleb128 0x15
 1969 07ab 01       		.uleb128 0x1
 1970 07ac 53       		.byte	0x53
 1971 07ad 05       		.uleb128 0x5
 1972 07ae 03       		.byte	0x3
 1973 07af B8000000 		.4byte	.LC7
 1974 07b3 15       		.uleb128 0x15
 1975 07b4 01       		.uleb128 0x1
 1976 07b5 52       		.byte	0x52
 1977 07b6 05       		.uleb128 0x5
 1978 07b7 03       		.byte	0x3
 1979 07b8 00000000 		.4byte	.LANCHOR6
 1980 07bc 15       		.uleb128 0x15
 1981 07bd 01       		.uleb128 0x1
 1982 07be 51       		.byte	0x51
 1983 07bf 03       		.uleb128 0x3
 1984 07c0 0A       		.byte	0xa
 1985 07c1 0701     		.2byte	0x107
 1986 07c3 15       		.uleb128 0x15
ARM GAS  /tmp/cc7cohkt.s 			page 37


 1987 07c4 01       		.uleb128 0x1
 1988 07c5 50       		.byte	0x50
 1989 07c6 05       		.uleb128 0x5
 1990 07c7 03       		.byte	0x3
 1991 07c8 00000000 		.4byte	.LC0
 1992 07cc 00       		.byte	0
 1993 07cd 1A       		.uleb128 0x1a
 1994 07ce 52000000 		.4byte	.LVL79
 1995 07d2 6B0B0000 		.4byte	0xb6b
 1996 07d6 FD070000 		.4byte	0x7fd
 1997 07da 15       		.uleb128 0x15
 1998 07db 01       		.uleb128 0x1
 1999 07dc 53       		.byte	0x53
 2000 07dd 05       		.uleb128 0x5
 2001 07de 03       		.byte	0x3
 2002 07df 98000000 		.4byte	.LC6
 2003 07e3 15       		.uleb128 0x15
 2004 07e4 01       		.uleb128 0x1
 2005 07e5 52       		.byte	0x52
 2006 07e6 05       		.uleb128 0x5
 2007 07e7 03       		.byte	0x3
 2008 07e8 00000000 		.4byte	.LANCHOR6
 2009 07ec 15       		.uleb128 0x15
 2010 07ed 01       		.uleb128 0x1
 2011 07ee 51       		.byte	0x51
 2012 07ef 03       		.uleb128 0x3
 2013 07f0 0A       		.byte	0xa
 2014 07f1 0601     		.2byte	0x106
 2015 07f3 15       		.uleb128 0x15
 2016 07f4 01       		.uleb128 0x1
 2017 07f5 50       		.byte	0x50
 2018 07f6 05       		.uleb128 0x5
 2019 07f7 03       		.byte	0x3
 2020 07f8 00000000 		.4byte	.LC0
 2021 07fc 00       		.byte	0
 2022 07fd 14       		.uleb128 0x14
 2023 07fe 60000000 		.4byte	.LVL84
 2024 0802 6B0B0000 		.4byte	0xb6b
 2025 0806 15       		.uleb128 0x15
 2026 0807 01       		.uleb128 0x1
 2027 0808 53       		.byte	0x53
 2028 0809 05       		.uleb128 0x5
 2029 080a 03       		.byte	0x3
 2030 080b 80000000 		.4byte	.LC5
 2031 080f 15       		.uleb128 0x15
 2032 0810 01       		.uleb128 0x1
 2033 0811 52       		.byte	0x52
 2034 0812 05       		.uleb128 0x5
 2035 0813 03       		.byte	0x3
 2036 0814 00000000 		.4byte	.LANCHOR6
 2037 0818 15       		.uleb128 0x15
 2038 0819 01       		.uleb128 0x1
 2039 081a 51       		.byte	0x51
 2040 081b 03       		.uleb128 0x3
 2041 081c 0A       		.byte	0xa
 2042 081d 0501     		.2byte	0x105
 2043 081f 15       		.uleb128 0x15
ARM GAS  /tmp/cc7cohkt.s 			page 38


 2044 0820 01       		.uleb128 0x1
 2045 0821 50       		.byte	0x50
 2046 0822 05       		.uleb128 0x5
 2047 0823 03       		.byte	0x3
 2048 0824 00000000 		.4byte	.LC0
 2049 0828 00       		.byte	0
 2050 0829 00       		.byte	0
 2051 082a 07       		.uleb128 0x7
 2052 082b 8A020000 		.4byte	0x28a
 2053 082f 3A080000 		.4byte	0x83a
 2054 0833 08       		.uleb128 0x8
 2055 0834 C7000000 		.4byte	0xc7
 2056 0838 0E       		.byte	0xe
 2057 0839 00       		.byte	0
 2058 083a 05       		.uleb128 0x5
 2059 083b 2A080000 		.4byte	0x82a
 2060 083f 22       		.uleb128 0x22
 2061 0840 6B020000 		.4byte	.LASF59
 2062 0844 01       		.byte	0x1
 2063 0845 1B01     		.2byte	0x11b
 2064 0847 81000000 		.4byte	0x81
 2065 084b 00000000 		.4byte	.LFB7
 2066 084f 08000000 		.4byte	.LFE7-.LFB7
 2067 0853 01       		.uleb128 0x1
 2068 0854 9C       		.byte	0x9c
 2069 0855 6A080000 		.4byte	0x86a
 2070 0859 1F       		.uleb128 0x1f
 2071 085a 55000000 		.4byte	.LASF40
 2072 085e 01       		.byte	0x1
 2073 085f 1B01     		.2byte	0x11b
 2074 0861 74020000 		.4byte	0x274
 2075 0865 2E060000 		.4byte	.LLST23
 2076 0869 00       		.byte	0
 2077 086a 22       		.uleb128 0x22
 2078 086b D5020000 		.4byte	.LASF60
 2079 086f 01       		.byte	0x1
 2080 0870 2601     		.2byte	0x126
 2081 0872 81000000 		.4byte	0x81
 2082 0876 00000000 		.4byte	.LFB8
 2083 087a 08000000 		.4byte	.LFE8-.LFB8
 2084 087e 01       		.uleb128 0x1
 2085 087f 9C       		.byte	0x9c
 2086 0880 95080000 		.4byte	0x895
 2087 0884 1F       		.uleb128 0x1f
 2088 0885 55000000 		.4byte	.LASF40
 2089 0889 01       		.byte	0x1
 2090 088a 2601     		.2byte	0x126
 2091 088c 74020000 		.4byte	0x274
 2092 0890 4F060000 		.4byte	.LLST24
 2093 0894 00       		.byte	0
 2094 0895 22       		.uleb128 0x22
 2095 0896 65000000 		.4byte	.LASF61
 2096 089a 01       		.byte	0x1
 2097 089b 3101     		.2byte	0x131
 2098 089d 81000000 		.4byte	0x81
 2099 08a1 00000000 		.4byte	.LFB9
 2100 08a5 08000000 		.4byte	.LFE9-.LFB9
ARM GAS  /tmp/cc7cohkt.s 			page 39


 2101 08a9 01       		.uleb128 0x1
 2102 08aa 9C       		.byte	0x9c
 2103 08ab C0080000 		.4byte	0x8c0
 2104 08af 1F       		.uleb128 0x1f
 2105 08b0 55000000 		.4byte	.LASF40
 2106 08b4 01       		.byte	0x1
 2107 08b5 3101     		.2byte	0x131
 2108 08b7 74020000 		.4byte	0x274
 2109 08bb 70060000 		.4byte	.LLST25
 2110 08bf 00       		.byte	0
 2111 08c0 23       		.uleb128 0x23
 2112 08c1 C3010000 		.4byte	.LASF62
 2113 08c5 01       		.byte	0x1
 2114 08c6 3B01     		.2byte	0x13b
 2115 08c8 00000000 		.4byte	.LFB10
 2116 08cc 40000000 		.4byte	.LFE10-.LFB10
 2117 08d0 01       		.uleb128 0x1
 2118 08d1 9C       		.byte	0x9c
 2119 08d2 62090000 		.4byte	0x962
 2120 08d6 1F       		.uleb128 0x1f
 2121 08d7 55000000 		.4byte	.LASF40
 2122 08db 01       		.byte	0x1
 2123 08dc 3B01     		.2byte	0x13b
 2124 08de 74020000 		.4byte	0x274
 2125 08e2 91060000 		.4byte	.LLST26
 2126 08e6 1F       		.uleb128 0x1f
 2127 08e7 4E030000 		.4byte	.LASF63
 2128 08eb 01       		.byte	0x1
 2129 08ec 3B01     		.2byte	0x13b
 2130 08ee 8C000000 		.4byte	0x8c
 2131 08f2 CB060000 		.4byte	.LLST27
 2132 08f6 19       		.uleb128 0x19
 2133 08f7 1A030000 		.4byte	.LASF48
 2134 08fb 62090000 		.4byte	0x962
 2135 08ff 05       		.uleb128 0x5
 2136 0900 03       		.byte	0x3
 2137 0901 00000000 		.4byte	__func__.4897
 2138 0905 1A       		.uleb128 0x1a
 2139 0906 20000000 		.4byte	.LVL94
 2140 090a 6B0B0000 		.4byte	0xb6b
 2141 090e 35090000 		.4byte	0x935
 2142 0912 15       		.uleb128 0x15
 2143 0913 01       		.uleb128 0x1
 2144 0914 53       		.byte	0x53
 2145 0915 05       		.uleb128 0x5
 2146 0916 03       		.byte	0x3
 2147 0917 30000000 		.4byte	.LC1
 2148 091b 15       		.uleb128 0x15
 2149 091c 01       		.uleb128 0x1
 2150 091d 52       		.byte	0x52
 2151 091e 05       		.uleb128 0x5
 2152 091f 03       		.byte	0x3
 2153 0920 00000000 		.4byte	.LANCHOR7
 2154 0924 15       		.uleb128 0x15
 2155 0925 01       		.uleb128 0x1
 2156 0926 51       		.byte	0x51
 2157 0927 03       		.uleb128 0x3
ARM GAS  /tmp/cc7cohkt.s 			page 40


 2158 0928 0A       		.byte	0xa
 2159 0929 3D01     		.2byte	0x13d
 2160 092b 15       		.uleb128 0x15
 2161 092c 01       		.uleb128 0x1
 2162 092d 50       		.byte	0x50
 2163 092e 05       		.uleb128 0x5
 2164 092f 03       		.byte	0x3
 2165 0930 00000000 		.4byte	.LC0
 2166 0934 00       		.byte	0
 2167 0935 14       		.uleb128 0x14
 2168 0936 2E000000 		.4byte	.LVL97
 2169 093a 6B0B0000 		.4byte	0xb6b
 2170 093e 15       		.uleb128 0x15
 2171 093f 01       		.uleb128 0x1
 2172 0940 53       		.byte	0x53
 2173 0941 05       		.uleb128 0x5
 2174 0942 03       		.byte	0x3
 2175 0943 C4000000 		.4byte	.LC8
 2176 0947 15       		.uleb128 0x15
 2177 0948 01       		.uleb128 0x1
 2178 0949 52       		.byte	0x52
 2179 094a 05       		.uleb128 0x5
 2180 094b 03       		.byte	0x3
 2181 094c 00000000 		.4byte	.LANCHOR7
 2182 0950 15       		.uleb128 0x15
 2183 0951 01       		.uleb128 0x1
 2184 0952 51       		.byte	0x51
 2185 0953 03       		.uleb128 0x3
 2186 0954 0A       		.byte	0xa
 2187 0955 3E01     		.2byte	0x13e
 2188 0957 15       		.uleb128 0x15
 2189 0958 01       		.uleb128 0x1
 2190 0959 50       		.byte	0x50
 2191 095a 05       		.uleb128 0x5
 2192 095b 03       		.byte	0x3
 2193 095c 00000000 		.4byte	.LC0
 2194 0960 00       		.byte	0
 2195 0961 00       		.byte	0
 2196 0962 05       		.uleb128 0x5
 2197 0963 68060000 		.4byte	0x668
 2198 0967 23       		.uleb128 0x23
 2199 0968 9F010000 		.4byte	.LASF64
 2200 096c 01       		.byte	0x1
 2201 096d 4801     		.2byte	0x148
 2202 096f 00000000 		.4byte	.LFB11
 2203 0973 40000000 		.4byte	.LFE11-.LFB11
 2204 0977 01       		.uleb128 0x1
 2205 0978 9C       		.byte	0x9c
 2206 0979 090A0000 		.4byte	0xa09
 2207 097d 1F       		.uleb128 0x1f
 2208 097e 55000000 		.4byte	.LASF40
 2209 0982 01       		.byte	0x1
 2210 0983 4801     		.2byte	0x148
 2211 0985 74020000 		.4byte	0x274
 2212 0989 05070000 		.4byte	.LLST28
 2213 098d 1F       		.uleb128 0x1f
 2214 098e 4E030000 		.4byte	.LASF63
ARM GAS  /tmp/cc7cohkt.s 			page 41


 2215 0992 01       		.byte	0x1
 2216 0993 4801     		.2byte	0x148
 2217 0995 8C000000 		.4byte	0x8c
 2218 0999 3F070000 		.4byte	.LLST29
 2219 099d 19       		.uleb128 0x19
 2220 099e 1A030000 		.4byte	.LASF48
 2221 09a2 090A0000 		.4byte	0xa09
 2222 09a6 05       		.uleb128 0x5
 2223 09a7 03       		.byte	0x3
 2224 09a8 00000000 		.4byte	__func__.4902
 2225 09ac 1A       		.uleb128 0x1a
 2226 09ad 20000000 		.4byte	.LVL101
 2227 09b1 6B0B0000 		.4byte	0xb6b
 2228 09b5 DC090000 		.4byte	0x9dc
 2229 09b9 15       		.uleb128 0x15
 2230 09ba 01       		.uleb128 0x1
 2231 09bb 53       		.byte	0x53
 2232 09bc 05       		.uleb128 0x5
 2233 09bd 03       		.byte	0x3
 2234 09be 30000000 		.4byte	.LC1
 2235 09c2 15       		.uleb128 0x15
 2236 09c3 01       		.uleb128 0x1
 2237 09c4 52       		.byte	0x52
 2238 09c5 05       		.uleb128 0x5
 2239 09c6 03       		.byte	0x3
 2240 09c7 00000000 		.4byte	.LANCHOR8
 2241 09cb 15       		.uleb128 0x15
 2242 09cc 01       		.uleb128 0x1
 2243 09cd 51       		.byte	0x51
 2244 09ce 03       		.uleb128 0x3
 2245 09cf 0A       		.byte	0xa
 2246 09d0 4A01     		.2byte	0x14a
 2247 09d2 15       		.uleb128 0x15
 2248 09d3 01       		.uleb128 0x1
 2249 09d4 50       		.byte	0x50
 2250 09d5 05       		.uleb128 0x5
 2251 09d6 03       		.byte	0x3
 2252 09d7 00000000 		.4byte	.LC0
 2253 09db 00       		.byte	0
 2254 09dc 14       		.uleb128 0x14
 2255 09dd 2E000000 		.4byte	.LVL104
 2256 09e1 6B0B0000 		.4byte	0xb6b
 2257 09e5 15       		.uleb128 0x15
 2258 09e6 01       		.uleb128 0x1
 2259 09e7 53       		.byte	0x53
 2260 09e8 05       		.uleb128 0x5
 2261 09e9 03       		.byte	0x3
 2262 09ea C4000000 		.4byte	.LC8
 2263 09ee 15       		.uleb128 0x15
 2264 09ef 01       		.uleb128 0x1
 2265 09f0 52       		.byte	0x52
 2266 09f1 05       		.uleb128 0x5
 2267 09f2 03       		.byte	0x3
 2268 09f3 00000000 		.4byte	.LANCHOR8
 2269 09f7 15       		.uleb128 0x15
 2270 09f8 01       		.uleb128 0x1
 2271 09f9 51       		.byte	0x51
ARM GAS  /tmp/cc7cohkt.s 			page 42


 2272 09fa 03       		.uleb128 0x3
 2273 09fb 0A       		.byte	0xa
 2274 09fc 4B01     		.2byte	0x14b
 2275 09fe 15       		.uleb128 0x15
 2276 09ff 01       		.uleb128 0x1
 2277 0a00 50       		.byte	0x50
 2278 0a01 05       		.uleb128 0x5
 2279 0a02 03       		.byte	0x3
 2280 0a03 00000000 		.4byte	.LC0
 2281 0a07 00       		.byte	0
 2282 0a08 00       		.byte	0
 2283 0a09 05       		.uleb128 0x5
 2284 0a0a 7A020000 		.4byte	0x27a
 2285 0a0e 22       		.uleb128 0x22
 2286 0a0f F0010000 		.4byte	.LASF65
 2287 0a13 01       		.byte	0x1
 2288 0a14 5701     		.2byte	0x157
 2289 0a16 8C000000 		.4byte	0x8c
 2290 0a1a 00000000 		.4byte	.LFB12
 2291 0a1e 24000000 		.4byte	.LFE12-.LFB12
 2292 0a22 01       		.uleb128 0x1
 2293 0a23 9C       		.byte	0x9c
 2294 0a24 740A0000 		.4byte	0xa74
 2295 0a28 1F       		.uleb128 0x1f
 2296 0a29 55000000 		.4byte	.LASF40
 2297 0a2d 01       		.byte	0x1
 2298 0a2e 5701     		.2byte	0x157
 2299 0a30 74020000 		.4byte	0x274
 2300 0a34 79070000 		.4byte	.LLST30
 2301 0a38 19       		.uleb128 0x19
 2302 0a39 1A030000 		.4byte	.LASF48
 2303 0a3d 740A0000 		.4byte	0xa74
 2304 0a41 05       		.uleb128 0x5
 2305 0a42 03       		.byte	0x3
 2306 0a43 00000000 		.4byte	__func__.4906
 2307 0a47 14       		.uleb128 0x14
 2308 0a48 16000000 		.4byte	.LVL109
 2309 0a4c 6B0B0000 		.4byte	0xb6b
 2310 0a50 15       		.uleb128 0x15
 2311 0a51 01       		.uleb128 0x1
 2312 0a52 53       		.byte	0x53
 2313 0a53 05       		.uleb128 0x5
 2314 0a54 03       		.byte	0x3
 2315 0a55 30000000 		.4byte	.LC1
 2316 0a59 15       		.uleb128 0x15
 2317 0a5a 01       		.uleb128 0x1
 2318 0a5b 52       		.byte	0x52
 2319 0a5c 05       		.uleb128 0x5
 2320 0a5d 03       		.byte	0x3
 2321 0a5e 00000000 		.4byte	.LANCHOR9
 2322 0a62 15       		.uleb128 0x15
 2323 0a63 01       		.uleb128 0x1
 2324 0a64 51       		.byte	0x51
 2325 0a65 03       		.uleb128 0x3
 2326 0a66 0A       		.byte	0xa
 2327 0a67 5901     		.2byte	0x159
 2328 0a69 15       		.uleb128 0x15
ARM GAS  /tmp/cc7cohkt.s 			page 43


 2329 0a6a 01       		.uleb128 0x1
 2330 0a6b 50       		.byte	0x50
 2331 0a6c 05       		.uleb128 0x5
 2332 0a6d 03       		.byte	0x3
 2333 0a6e 00000000 		.4byte	.LC0
 2334 0a72 00       		.byte	0
 2335 0a73 00       		.byte	0
 2336 0a74 05       		.uleb128 0x5
 2337 0a75 7A020000 		.4byte	0x27a
 2338 0a79 22       		.uleb128 0x22
 2339 0a7a 39000000 		.4byte	.LASF66
 2340 0a7e 01       		.byte	0x1
 2341 0a7f 6501     		.2byte	0x165
 2342 0a81 8C000000 		.4byte	0x8c
 2343 0a85 00000000 		.4byte	.LFB13
 2344 0a89 28000000 		.4byte	.LFE13-.LFB13
 2345 0a8d 01       		.uleb128 0x1
 2346 0a8e 9C       		.byte	0x9c
 2347 0a8f EF0A0000 		.4byte	0xaef
 2348 0a93 1F       		.uleb128 0x1f
 2349 0a94 55000000 		.4byte	.LASF40
 2350 0a98 01       		.byte	0x1
 2351 0a99 6501     		.2byte	0x165
 2352 0a9b 74020000 		.4byte	0x274
 2353 0a9f B3070000 		.4byte	.LLST31
 2354 0aa3 24       		.uleb128 0x24
 2355 0aa4 F5020000 		.4byte	.LASF67
 2356 0aa8 01       		.byte	0x1
 2357 0aa9 6701     		.2byte	0x167
 2358 0aab 8C000000 		.4byte	0x8c
 2359 0aaf ED070000 		.4byte	.LLST32
 2360 0ab3 19       		.uleb128 0x19
 2361 0ab4 1A030000 		.4byte	.LASF48
 2362 0ab8 EF0A0000 		.4byte	0xaef
 2363 0abc 05       		.uleb128 0x5
 2364 0abd 03       		.byte	0x3
 2365 0abe 00000000 		.4byte	__func__.4911
 2366 0ac2 14       		.uleb128 0x14
 2367 0ac3 1A000000 		.4byte	.LVL116
 2368 0ac7 6B0B0000 		.4byte	0xb6b
 2369 0acb 15       		.uleb128 0x15
 2370 0acc 01       		.uleb128 0x1
 2371 0acd 53       		.byte	0x53
 2372 0ace 05       		.uleb128 0x5
 2373 0acf 03       		.byte	0x3
 2374 0ad0 30000000 		.4byte	.LC1
 2375 0ad4 15       		.uleb128 0x15
 2376 0ad5 01       		.uleb128 0x1
 2377 0ad6 52       		.byte	0x52
 2378 0ad7 05       		.uleb128 0x5
 2379 0ad8 03       		.byte	0x3
 2380 0ad9 00000000 		.4byte	.LANCHOR10
 2381 0add 15       		.uleb128 0x15
 2382 0ade 01       		.uleb128 0x1
 2383 0adf 51       		.byte	0x51
 2384 0ae0 03       		.uleb128 0x3
 2385 0ae1 0A       		.byte	0xa
ARM GAS  /tmp/cc7cohkt.s 			page 44


 2386 0ae2 6901     		.2byte	0x169
 2387 0ae4 15       		.uleb128 0x15
 2388 0ae5 01       		.uleb128 0x1
 2389 0ae6 50       		.byte	0x50
 2390 0ae7 05       		.uleb128 0x5
 2391 0ae8 03       		.byte	0x3
 2392 0ae9 00000000 		.4byte	.LC0
 2393 0aed 00       		.byte	0
 2394 0aee 00       		.byte	0
 2395 0aef 05       		.uleb128 0x5
 2396 0af0 D1030000 		.4byte	0x3d1
 2397 0af4 23       		.uleb128 0x23
 2398 0af5 BE030000 		.4byte	.LASF68
 2399 0af9 01       		.byte	0x1
 2400 0afa 7601     		.2byte	0x176
 2401 0afc 00000000 		.4byte	.LFB14
 2402 0b00 28000000 		.4byte	.LFE14-.LFB14
 2403 0b04 01       		.uleb128 0x1
 2404 0b05 9C       		.byte	0x9c
 2405 0b06 560B0000 		.4byte	0xb56
 2406 0b0a 1F       		.uleb128 0x1f
 2407 0b0b 55000000 		.4byte	.LASF40
 2408 0b0f 01       		.byte	0x1
 2409 0b10 7601     		.2byte	0x176
 2410 0b12 74020000 		.4byte	0x274
 2411 0b16 1B080000 		.4byte	.LLST33
 2412 0b1a 19       		.uleb128 0x19
 2413 0b1b 1A030000 		.4byte	.LASF48
 2414 0b1f 660B0000 		.4byte	0xb66
 2415 0b23 05       		.uleb128 0x5
 2416 0b24 03       		.byte	0x3
 2417 0b25 00000000 		.4byte	__func__.4915
 2418 0b29 14       		.uleb128 0x14
 2419 0b2a 1C000000 		.4byte	.LVL119
 2420 0b2e 6B0B0000 		.4byte	0xb6b
 2421 0b32 15       		.uleb128 0x15
 2422 0b33 01       		.uleb128 0x1
 2423 0b34 53       		.byte	0x53
 2424 0b35 05       		.uleb128 0x5
 2425 0b36 03       		.byte	0x3
 2426 0b37 30000000 		.4byte	.LC1
 2427 0b3b 15       		.uleb128 0x15
 2428 0b3c 01       		.uleb128 0x1
 2429 0b3d 52       		.byte	0x52
 2430 0b3e 05       		.uleb128 0x5
 2431 0b3f 03       		.byte	0x3
 2432 0b40 00000000 		.4byte	.LANCHOR11
 2433 0b44 15       		.uleb128 0x15
 2434 0b45 01       		.uleb128 0x1
 2435 0b46 51       		.byte	0x51
 2436 0b47 03       		.uleb128 0x3
 2437 0b48 0A       		.byte	0xa
 2438 0b49 7801     		.2byte	0x178
 2439 0b4b 15       		.uleb128 0x15
 2440 0b4c 01       		.uleb128 0x1
 2441 0b4d 50       		.byte	0x50
 2442 0b4e 05       		.uleb128 0x5
ARM GAS  /tmp/cc7cohkt.s 			page 45


 2443 0b4f 03       		.byte	0x3
 2444 0b50 00000000 		.4byte	.LC0
 2445 0b54 00       		.byte	0
 2446 0b55 00       		.byte	0
 2447 0b56 07       		.uleb128 0x7
 2448 0b57 8A020000 		.4byte	0x28a
 2449 0b5b 660B0000 		.4byte	0xb66
 2450 0b5f 08       		.uleb128 0x8
 2451 0b60 C7000000 		.4byte	0xc7
 2452 0b64 15       		.byte	0x15
 2453 0b65 00       		.byte	0
 2454 0b66 05       		.uleb128 0x5
 2455 0b67 560B0000 		.4byte	0xb56
 2456 0b6b 25       		.uleb128 0x25
 2457 0b6c B0030000 		.4byte	.LASF70
 2458 0b70 05       		.byte	0x5
 2459 0b71 29       		.byte	0x29
 2460 0b72 8B0B0000 		.4byte	0xb8b
 2461 0b76 26       		.uleb128 0x26
 2462 0b77 8B0B0000 		.4byte	0xb8b
 2463 0b7b 26       		.uleb128 0x26
 2464 0b7c 73000000 		.4byte	0x73
 2465 0b80 26       		.uleb128 0x26
 2466 0b81 8B0B0000 		.4byte	0xb8b
 2467 0b85 26       		.uleb128 0x26
 2468 0b86 8B0B0000 		.4byte	0xb8b
 2469 0b8a 00       		.byte	0
 2470 0b8b 10       		.uleb128 0x10
 2471 0b8c 04       		.byte	0x4
 2472 0b8d 910B0000 		.4byte	0xb91
 2473 0b91 05       		.uleb128 0x5
 2474 0b92 8A020000 		.4byte	0x28a
 2475 0b96 00       		.byte	0
 2476              		.section	.debug_abbrev,"",%progbits
 2477              	.Ldebug_abbrev0:
 2478 0000 01       		.uleb128 0x1
 2479 0001 11       		.uleb128 0x11
 2480 0002 01       		.byte	0x1
 2481 0003 25       		.uleb128 0x25
 2482 0004 0E       		.uleb128 0xe
 2483 0005 13       		.uleb128 0x13
 2484 0006 0B       		.uleb128 0xb
 2485 0007 03       		.uleb128 0x3
 2486 0008 0E       		.uleb128 0xe
 2487 0009 1B       		.uleb128 0x1b
 2488 000a 0E       		.uleb128 0xe
 2489 000b 55       		.uleb128 0x55
 2490 000c 17       		.uleb128 0x17
 2491 000d 11       		.uleb128 0x11
 2492 000e 01       		.uleb128 0x1
 2493 000f 10       		.uleb128 0x10
 2494 0010 17       		.uleb128 0x17
 2495 0011 00       		.byte	0
 2496 0012 00       		.byte	0
 2497 0013 02       		.uleb128 0x2
 2498 0014 24       		.uleb128 0x24
 2499 0015 00       		.byte	0
ARM GAS  /tmp/cc7cohkt.s 			page 46


 2500 0016 0B       		.uleb128 0xb
 2501 0017 0B       		.uleb128 0xb
 2502 0018 3E       		.uleb128 0x3e
 2503 0019 0B       		.uleb128 0xb
 2504 001a 03       		.uleb128 0x3
 2505 001b 0E       		.uleb128 0xe
 2506 001c 00       		.byte	0
 2507 001d 00       		.byte	0
 2508 001e 03       		.uleb128 0x3
 2509 001f 16       		.uleb128 0x16
 2510 0020 00       		.byte	0
 2511 0021 03       		.uleb128 0x3
 2512 0022 0E       		.uleb128 0xe
 2513 0023 3A       		.uleb128 0x3a
 2514 0024 0B       		.uleb128 0xb
 2515 0025 3B       		.uleb128 0x3b
 2516 0026 0B       		.uleb128 0xb
 2517 0027 49       		.uleb128 0x49
 2518 0028 13       		.uleb128 0x13
 2519 0029 00       		.byte	0
 2520 002a 00       		.byte	0
 2521 002b 04       		.uleb128 0x4
 2522 002c 24       		.uleb128 0x24
 2523 002d 00       		.byte	0
 2524 002e 0B       		.uleb128 0xb
 2525 002f 0B       		.uleb128 0xb
 2526 0030 3E       		.uleb128 0x3e
 2527 0031 0B       		.uleb128 0xb
 2528 0032 03       		.uleb128 0x3
 2529 0033 08       		.uleb128 0x8
 2530 0034 00       		.byte	0
 2531 0035 00       		.byte	0
 2532 0036 05       		.uleb128 0x5
 2533 0037 26       		.uleb128 0x26
 2534 0038 00       		.byte	0
 2535 0039 49       		.uleb128 0x49
 2536 003a 13       		.uleb128 0x13
 2537 003b 00       		.byte	0
 2538 003c 00       		.byte	0
 2539 003d 06       		.uleb128 0x6
 2540 003e 35       		.uleb128 0x35
 2541 003f 00       		.byte	0
 2542 0040 49       		.uleb128 0x49
 2543 0041 13       		.uleb128 0x13
 2544 0042 00       		.byte	0
 2545 0043 00       		.byte	0
 2546 0044 07       		.uleb128 0x7
 2547 0045 01       		.uleb128 0x1
 2548 0046 01       		.byte	0x1
 2549 0047 49       		.uleb128 0x49
 2550 0048 13       		.uleb128 0x13
 2551 0049 01       		.uleb128 0x1
 2552 004a 13       		.uleb128 0x13
 2553 004b 00       		.byte	0
 2554 004c 00       		.byte	0
 2555 004d 08       		.uleb128 0x8
 2556 004e 21       		.uleb128 0x21
ARM GAS  /tmp/cc7cohkt.s 			page 47


 2557 004f 00       		.byte	0
 2558 0050 49       		.uleb128 0x49
 2559 0051 13       		.uleb128 0x13
 2560 0052 2F       		.uleb128 0x2f
 2561 0053 0B       		.uleb128 0xb
 2562 0054 00       		.byte	0
 2563 0055 00       		.byte	0
 2564 0056 09       		.uleb128 0x9
 2565 0057 13       		.uleb128 0x13
 2566 0058 01       		.byte	0x1
 2567 0059 0B       		.uleb128 0xb
 2568 005a 05       		.uleb128 0x5
 2569 005b 3A       		.uleb128 0x3a
 2570 005c 0B       		.uleb128 0xb
 2571 005d 3B       		.uleb128 0x3b
 2572 005e 05       		.uleb128 0x5
 2573 005f 01       		.uleb128 0x1
 2574 0060 13       		.uleb128 0x13
 2575 0061 00       		.byte	0
 2576 0062 00       		.byte	0
 2577 0063 0A       		.uleb128 0xa
 2578 0064 0D       		.uleb128 0xd
 2579 0065 00       		.byte	0
 2580 0066 03       		.uleb128 0x3
 2581 0067 0E       		.uleb128 0xe
 2582 0068 3A       		.uleb128 0x3a
 2583 0069 0B       		.uleb128 0xb
 2584 006a 3B       		.uleb128 0x3b
 2585 006b 05       		.uleb128 0x5
 2586 006c 49       		.uleb128 0x49
 2587 006d 13       		.uleb128 0x13
 2588 006e 38       		.uleb128 0x38
 2589 006f 0B       		.uleb128 0xb
 2590 0070 00       		.byte	0
 2591 0071 00       		.byte	0
 2592 0072 0B       		.uleb128 0xb
 2593 0073 0D       		.uleb128 0xd
 2594 0074 00       		.byte	0
 2595 0075 03       		.uleb128 0x3
 2596 0076 0E       		.uleb128 0xe
 2597 0077 3A       		.uleb128 0x3a
 2598 0078 0B       		.uleb128 0xb
 2599 0079 3B       		.uleb128 0x3b
 2600 007a 05       		.uleb128 0x5
 2601 007b 49       		.uleb128 0x49
 2602 007c 13       		.uleb128 0x13
 2603 007d 38       		.uleb128 0x38
 2604 007e 05       		.uleb128 0x5
 2605 007f 00       		.byte	0
 2606 0080 00       		.byte	0
 2607 0081 0C       		.uleb128 0xc
 2608 0082 16       		.uleb128 0x16
 2609 0083 00       		.byte	0
 2610 0084 03       		.uleb128 0x3
 2611 0085 08       		.uleb128 0x8
 2612 0086 3A       		.uleb128 0x3a
 2613 0087 0B       		.uleb128 0xb
ARM GAS  /tmp/cc7cohkt.s 			page 48


 2614 0088 3B       		.uleb128 0x3b
 2615 0089 05       		.uleb128 0x5
 2616 008a 49       		.uleb128 0x49
 2617 008b 13       		.uleb128 0x13
 2618 008c 00       		.byte	0
 2619 008d 00       		.byte	0
 2620 008e 0D       		.uleb128 0xd
 2621 008f 2E       		.uleb128 0x2e
 2622 0090 01       		.byte	0x1
 2623 0091 3F       		.uleb128 0x3f
 2624 0092 19       		.uleb128 0x19
 2625 0093 03       		.uleb128 0x3
 2626 0094 0E       		.uleb128 0xe
 2627 0095 3A       		.uleb128 0x3a
 2628 0096 0B       		.uleb128 0xb
 2629 0097 3B       		.uleb128 0x3b
 2630 0098 0B       		.uleb128 0xb
 2631 0099 27       		.uleb128 0x27
 2632 009a 19       		.uleb128 0x19
 2633 009b 20       		.uleb128 0x20
 2634 009c 0B       		.uleb128 0xb
 2635 009d 01       		.uleb128 0x1
 2636 009e 13       		.uleb128 0x13
 2637 009f 00       		.byte	0
 2638 00a0 00       		.byte	0
 2639 00a1 0E       		.uleb128 0xe
 2640 00a2 05       		.uleb128 0x5
 2641 00a3 00       		.byte	0
 2642 00a4 03       		.uleb128 0x3
 2643 00a5 0E       		.uleb128 0xe
 2644 00a6 3A       		.uleb128 0x3a
 2645 00a7 0B       		.uleb128 0xb
 2646 00a8 3B       		.uleb128 0x3b
 2647 00a9 0B       		.uleb128 0xb
 2648 00aa 49       		.uleb128 0x49
 2649 00ab 13       		.uleb128 0x13
 2650 00ac 00       		.byte	0
 2651 00ad 00       		.byte	0
 2652 00ae 0F       		.uleb128 0xf
 2653 00af 34       		.uleb128 0x34
 2654 00b0 00       		.byte	0
 2655 00b1 03       		.uleb128 0x3
 2656 00b2 0E       		.uleb128 0xe
 2657 00b3 49       		.uleb128 0x49
 2658 00b4 13       		.uleb128 0x13
 2659 00b5 34       		.uleb128 0x34
 2660 00b6 19       		.uleb128 0x19
 2661 00b7 1C       		.uleb128 0x1c
 2662 00b8 0E       		.uleb128 0xe
 2663 00b9 00       		.byte	0
 2664 00ba 00       		.byte	0
 2665 00bb 10       		.uleb128 0x10
 2666 00bc 0F       		.uleb128 0xf
 2667 00bd 00       		.byte	0
 2668 00be 0B       		.uleb128 0xb
 2669 00bf 0B       		.uleb128 0xb
 2670 00c0 49       		.uleb128 0x49
ARM GAS  /tmp/cc7cohkt.s 			page 49


 2671 00c1 13       		.uleb128 0x13
 2672 00c2 00       		.byte	0
 2673 00c3 00       		.byte	0
 2674 00c4 11       		.uleb128 0x11
 2675 00c5 2E       		.uleb128 0x2e
 2676 00c6 01       		.byte	0x1
 2677 00c7 31       		.uleb128 0x31
 2678 00c8 13       		.uleb128 0x13
 2679 00c9 11       		.uleb128 0x11
 2680 00ca 01       		.uleb128 0x1
 2681 00cb 12       		.uleb128 0x12
 2682 00cc 06       		.uleb128 0x6
 2683 00cd 40       		.uleb128 0x40
 2684 00ce 18       		.uleb128 0x18
 2685 00cf 9742     		.uleb128 0x2117
 2686 00d1 19       		.uleb128 0x19
 2687 00d2 01       		.uleb128 0x1
 2688 00d3 13       		.uleb128 0x13
 2689 00d4 00       		.byte	0
 2690 00d5 00       		.byte	0
 2691 00d6 12       		.uleb128 0x12
 2692 00d7 05       		.uleb128 0x5
 2693 00d8 00       		.byte	0
 2694 00d9 31       		.uleb128 0x31
 2695 00da 13       		.uleb128 0x13
 2696 00db 02       		.uleb128 0x2
 2697 00dc 18       		.uleb128 0x18
 2698 00dd 00       		.byte	0
 2699 00de 00       		.byte	0
 2700 00df 13       		.uleb128 0x13
 2701 00e0 34       		.uleb128 0x34
 2702 00e1 00       		.byte	0
 2703 00e2 31       		.uleb128 0x31
 2704 00e3 13       		.uleb128 0x13
 2705 00e4 02       		.uleb128 0x2
 2706 00e5 18       		.uleb128 0x18
 2707 00e6 00       		.byte	0
 2708 00e7 00       		.byte	0
 2709 00e8 14       		.uleb128 0x14
 2710 00e9 898201   		.uleb128 0x4109
 2711 00ec 01       		.byte	0x1
 2712 00ed 11       		.uleb128 0x11
 2713 00ee 01       		.uleb128 0x1
 2714 00ef 31       		.uleb128 0x31
 2715 00f0 13       		.uleb128 0x13
 2716 00f1 00       		.byte	0
 2717 00f2 00       		.byte	0
 2718 00f3 15       		.uleb128 0x15
 2719 00f4 8A8201   		.uleb128 0x410a
 2720 00f7 00       		.byte	0
 2721 00f8 02       		.uleb128 0x2
 2722 00f9 18       		.uleb128 0x18
 2723 00fa 9142     		.uleb128 0x2111
 2724 00fc 18       		.uleb128 0x18
 2725 00fd 00       		.byte	0
 2726 00fe 00       		.byte	0
 2727 00ff 16       		.uleb128 0x16
ARM GAS  /tmp/cc7cohkt.s 			page 50


 2728 0100 2E       		.uleb128 0x2e
 2729 0101 01       		.byte	0x1
 2730 0102 3F       		.uleb128 0x3f
 2731 0103 19       		.uleb128 0x19
 2732 0104 03       		.uleb128 0x3
 2733 0105 0E       		.uleb128 0xe
 2734 0106 3A       		.uleb128 0x3a
 2735 0107 0B       		.uleb128 0xb
 2736 0108 3B       		.uleb128 0x3b
 2737 0109 0B       		.uleb128 0xb
 2738 010a 27       		.uleb128 0x27
 2739 010b 19       		.uleb128 0x19
 2740 010c 11       		.uleb128 0x11
 2741 010d 01       		.uleb128 0x1
 2742 010e 12       		.uleb128 0x12
 2743 010f 06       		.uleb128 0x6
 2744 0110 40       		.uleb128 0x40
 2745 0111 18       		.uleb128 0x18
 2746 0112 9742     		.uleb128 0x2117
 2747 0114 19       		.uleb128 0x19
 2748 0115 01       		.uleb128 0x1
 2749 0116 13       		.uleb128 0x13
 2750 0117 00       		.byte	0
 2751 0118 00       		.byte	0
 2752 0119 17       		.uleb128 0x17
 2753 011a 05       		.uleb128 0x5
 2754 011b 00       		.byte	0
 2755 011c 03       		.uleb128 0x3
 2756 011d 0E       		.uleb128 0xe
 2757 011e 3A       		.uleb128 0x3a
 2758 011f 0B       		.uleb128 0xb
 2759 0120 3B       		.uleb128 0x3b
 2760 0121 0B       		.uleb128 0xb
 2761 0122 49       		.uleb128 0x49
 2762 0123 13       		.uleb128 0x13
 2763 0124 02       		.uleb128 0x2
 2764 0125 17       		.uleb128 0x17
 2765 0126 00       		.byte	0
 2766 0127 00       		.byte	0
 2767 0128 18       		.uleb128 0x18
 2768 0129 34       		.uleb128 0x34
 2769 012a 00       		.byte	0
 2770 012b 03       		.uleb128 0x3
 2771 012c 0E       		.uleb128 0xe
 2772 012d 3A       		.uleb128 0x3a
 2773 012e 0B       		.uleb128 0xb
 2774 012f 3B       		.uleb128 0x3b
 2775 0130 0B       		.uleb128 0xb
 2776 0131 49       		.uleb128 0x49
 2777 0132 13       		.uleb128 0x13
 2778 0133 02       		.uleb128 0x2
 2779 0134 17       		.uleb128 0x17
 2780 0135 00       		.byte	0
 2781 0136 00       		.byte	0
 2782 0137 19       		.uleb128 0x19
 2783 0138 34       		.uleb128 0x34
 2784 0139 00       		.byte	0
ARM GAS  /tmp/cc7cohkt.s 			page 51


 2785 013a 03       		.uleb128 0x3
 2786 013b 0E       		.uleb128 0xe
 2787 013c 49       		.uleb128 0x49
 2788 013d 13       		.uleb128 0x13
 2789 013e 34       		.uleb128 0x34
 2790 013f 19       		.uleb128 0x19
 2791 0140 02       		.uleb128 0x2
 2792 0141 18       		.uleb128 0x18
 2793 0142 00       		.byte	0
 2794 0143 00       		.byte	0
 2795 0144 1A       		.uleb128 0x1a
 2796 0145 898201   		.uleb128 0x4109
 2797 0148 01       		.byte	0x1
 2798 0149 11       		.uleb128 0x11
 2799 014a 01       		.uleb128 0x1
 2800 014b 31       		.uleb128 0x31
 2801 014c 13       		.uleb128 0x13
 2802 014d 01       		.uleb128 0x1
 2803 014e 13       		.uleb128 0x13
 2804 014f 00       		.byte	0
 2805 0150 00       		.byte	0
 2806 0151 1B       		.uleb128 0x1b
 2807 0152 34       		.uleb128 0x34
 2808 0153 00       		.byte	0
 2809 0154 03       		.uleb128 0x3
 2810 0155 08       		.uleb128 0x8
 2811 0156 3A       		.uleb128 0x3a
 2812 0157 0B       		.uleb128 0xb
 2813 0158 3B       		.uleb128 0x3b
 2814 0159 0B       		.uleb128 0xb
 2815 015a 49       		.uleb128 0x49
 2816 015b 13       		.uleb128 0x13
 2817 015c 1C       		.uleb128 0x1c
 2818 015d 0B       		.uleb128 0xb
 2819 015e 00       		.byte	0
 2820 015f 00       		.byte	0
 2821 0160 1C       		.uleb128 0x1c
 2822 0161 2E       		.uleb128 0x2e
 2823 0162 01       		.byte	0x1
 2824 0163 3F       		.uleb128 0x3f
 2825 0164 19       		.uleb128 0x19
 2826 0165 03       		.uleb128 0x3
 2827 0166 0E       		.uleb128 0xe
 2828 0167 3A       		.uleb128 0x3a
 2829 0168 0B       		.uleb128 0xb
 2830 0169 3B       		.uleb128 0x3b
 2831 016a 0B       		.uleb128 0xb
 2832 016b 27       		.uleb128 0x27
 2833 016c 19       		.uleb128 0x19
 2834 016d 49       		.uleb128 0x49
 2835 016e 13       		.uleb128 0x13
 2836 016f 11       		.uleb128 0x11
 2837 0170 01       		.uleb128 0x1
 2838 0171 12       		.uleb128 0x12
 2839 0172 06       		.uleb128 0x6
 2840 0173 40       		.uleb128 0x40
 2841 0174 18       		.uleb128 0x18
ARM GAS  /tmp/cc7cohkt.s 			page 52


 2842 0175 9742     		.uleb128 0x2117
 2843 0177 19       		.uleb128 0x19
 2844 0178 01       		.uleb128 0x1
 2845 0179 13       		.uleb128 0x13
 2846 017a 00       		.byte	0
 2847 017b 00       		.byte	0
 2848 017c 1D       		.uleb128 0x1d
 2849 017d 05       		.uleb128 0x5
 2850 017e 00       		.byte	0
 2851 017f 31       		.uleb128 0x31
 2852 0180 13       		.uleb128 0x13
 2853 0181 02       		.uleb128 0x2
 2854 0182 17       		.uleb128 0x17
 2855 0183 00       		.byte	0
 2856 0184 00       		.byte	0
 2857 0185 1E       		.uleb128 0x1e
 2858 0186 8A8201   		.uleb128 0x410a
 2859 0189 00       		.byte	0
 2860 018a 31       		.uleb128 0x31
 2861 018b 13       		.uleb128 0x13
 2862 018c 9142     		.uleb128 0x2111
 2863 018e 18       		.uleb128 0x18
 2864 018f 00       		.byte	0
 2865 0190 00       		.byte	0
 2866 0191 1F       		.uleb128 0x1f
 2867 0192 05       		.uleb128 0x5
 2868 0193 00       		.byte	0
 2869 0194 03       		.uleb128 0x3
 2870 0195 0E       		.uleb128 0xe
 2871 0196 3A       		.uleb128 0x3a
 2872 0197 0B       		.uleb128 0xb
 2873 0198 3B       		.uleb128 0x3b
 2874 0199 05       		.uleb128 0x5
 2875 019a 49       		.uleb128 0x49
 2876 019b 13       		.uleb128 0x13
 2877 019c 02       		.uleb128 0x2
 2878 019d 17       		.uleb128 0x17
 2879 019e 00       		.byte	0
 2880 019f 00       		.byte	0
 2881 01a0 20       		.uleb128 0x20
 2882 01a1 1D       		.uleb128 0x1d
 2883 01a2 01       		.byte	0x1
 2884 01a3 31       		.uleb128 0x31
 2885 01a4 13       		.uleb128 0x13
 2886 01a5 11       		.uleb128 0x11
 2887 01a6 01       		.uleb128 0x1
 2888 01a7 12       		.uleb128 0x12
 2889 01a8 06       		.uleb128 0x6
 2890 01a9 58       		.uleb128 0x58
 2891 01aa 0B       		.uleb128 0xb
 2892 01ab 59       		.uleb128 0x59
 2893 01ac 05       		.uleb128 0x5
 2894 01ad 01       		.uleb128 0x1
 2895 01ae 13       		.uleb128 0x13
 2896 01af 00       		.byte	0
 2897 01b0 00       		.byte	0
 2898 01b1 21       		.uleb128 0x21
ARM GAS  /tmp/cc7cohkt.s 			page 53


 2899 01b2 0B       		.uleb128 0xb
 2900 01b3 01       		.byte	0x1
 2901 01b4 11       		.uleb128 0x11
 2902 01b5 01       		.uleb128 0x1
 2903 01b6 12       		.uleb128 0x12
 2904 01b7 06       		.uleb128 0x6
 2905 01b8 00       		.byte	0
 2906 01b9 00       		.byte	0
 2907 01ba 22       		.uleb128 0x22
 2908 01bb 2E       		.uleb128 0x2e
 2909 01bc 01       		.byte	0x1
 2910 01bd 3F       		.uleb128 0x3f
 2911 01be 19       		.uleb128 0x19
 2912 01bf 03       		.uleb128 0x3
 2913 01c0 0E       		.uleb128 0xe
 2914 01c1 3A       		.uleb128 0x3a
 2915 01c2 0B       		.uleb128 0xb
 2916 01c3 3B       		.uleb128 0x3b
 2917 01c4 05       		.uleb128 0x5
 2918 01c5 27       		.uleb128 0x27
 2919 01c6 19       		.uleb128 0x19
 2920 01c7 49       		.uleb128 0x49
 2921 01c8 13       		.uleb128 0x13
 2922 01c9 11       		.uleb128 0x11
 2923 01ca 01       		.uleb128 0x1
 2924 01cb 12       		.uleb128 0x12
 2925 01cc 06       		.uleb128 0x6
 2926 01cd 40       		.uleb128 0x40
 2927 01ce 18       		.uleb128 0x18
 2928 01cf 9742     		.uleb128 0x2117
 2929 01d1 19       		.uleb128 0x19
 2930 01d2 01       		.uleb128 0x1
 2931 01d3 13       		.uleb128 0x13
 2932 01d4 00       		.byte	0
 2933 01d5 00       		.byte	0
 2934 01d6 23       		.uleb128 0x23
 2935 01d7 2E       		.uleb128 0x2e
 2936 01d8 01       		.byte	0x1
 2937 01d9 3F       		.uleb128 0x3f
 2938 01da 19       		.uleb128 0x19
 2939 01db 03       		.uleb128 0x3
 2940 01dc 0E       		.uleb128 0xe
 2941 01dd 3A       		.uleb128 0x3a
 2942 01de 0B       		.uleb128 0xb
 2943 01df 3B       		.uleb128 0x3b
 2944 01e0 05       		.uleb128 0x5
 2945 01e1 27       		.uleb128 0x27
 2946 01e2 19       		.uleb128 0x19
 2947 01e3 11       		.uleb128 0x11
 2948 01e4 01       		.uleb128 0x1
 2949 01e5 12       		.uleb128 0x12
 2950 01e6 06       		.uleb128 0x6
 2951 01e7 40       		.uleb128 0x40
 2952 01e8 18       		.uleb128 0x18
 2953 01e9 9742     		.uleb128 0x2117
 2954 01eb 19       		.uleb128 0x19
 2955 01ec 01       		.uleb128 0x1
ARM GAS  /tmp/cc7cohkt.s 			page 54


 2956 01ed 13       		.uleb128 0x13
 2957 01ee 00       		.byte	0
 2958 01ef 00       		.byte	0
 2959 01f0 24       		.uleb128 0x24
 2960 01f1 34       		.uleb128 0x34
 2961 01f2 00       		.byte	0
 2962 01f3 03       		.uleb128 0x3
 2963 01f4 0E       		.uleb128 0xe
 2964 01f5 3A       		.uleb128 0x3a
 2965 01f6 0B       		.uleb128 0xb
 2966 01f7 3B       		.uleb128 0x3b
 2967 01f8 05       		.uleb128 0x5
 2968 01f9 49       		.uleb128 0x49
 2969 01fa 13       		.uleb128 0x13
 2970 01fb 02       		.uleb128 0x2
 2971 01fc 17       		.uleb128 0x17
 2972 01fd 00       		.byte	0
 2973 01fe 00       		.byte	0
 2974 01ff 25       		.uleb128 0x25
 2975 0200 2E       		.uleb128 0x2e
 2976 0201 01       		.byte	0x1
 2977 0202 3F       		.uleb128 0x3f
 2978 0203 19       		.uleb128 0x19
 2979 0204 03       		.uleb128 0x3
 2980 0205 0E       		.uleb128 0xe
 2981 0206 3A       		.uleb128 0x3a
 2982 0207 0B       		.uleb128 0xb
 2983 0208 3B       		.uleb128 0x3b
 2984 0209 0B       		.uleb128 0xb
 2985 020a 27       		.uleb128 0x27
 2986 020b 19       		.uleb128 0x19
 2987 020c 3C       		.uleb128 0x3c
 2988 020d 19       		.uleb128 0x19
 2989 020e 01       		.uleb128 0x1
 2990 020f 13       		.uleb128 0x13
 2991 0210 00       		.byte	0
 2992 0211 00       		.byte	0
 2993 0212 26       		.uleb128 0x26
 2994 0213 05       		.uleb128 0x5
 2995 0214 00       		.byte	0
 2996 0215 49       		.uleb128 0x49
 2997 0216 13       		.uleb128 0x13
 2998 0217 00       		.byte	0
 2999 0218 00       		.byte	0
 3000 0219 00       		.byte	0
 3001              		.section	.debug_loc,"",%progbits
 3002              	.Ldebug_loc0:
 3003              	.LLST0:
 3004 0000 00000000 		.4byte	.LVL2
 3005 0004 4C000000 		.4byte	.LVL13
 3006 0008 0100     		.2byte	0x1
 3007 000a 50       		.byte	0x50
 3008 000b 4C000000 		.4byte	.LVL13
 3009 000f 56000000 		.4byte	.LVL16
 3010 0013 0400     		.2byte	0x4
 3011 0015 F3       		.byte	0xf3
 3012 0016 01       		.uleb128 0x1
ARM GAS  /tmp/cc7cohkt.s 			page 55


 3013 0017 50       		.byte	0x50
 3014 0018 9F       		.byte	0x9f
 3015 0019 56000000 		.4byte	.LVL16
 3016 001d 58000000 		.4byte	.LVL17
 3017 0021 0100     		.2byte	0x1
 3018 0023 50       		.byte	0x50
 3019 0024 58000000 		.4byte	.LVL17
 3020 0028 74000000 		.4byte	.LFE0
 3021 002c 0400     		.2byte	0x4
 3022 002e F3       		.byte	0xf3
 3023 002f 01       		.uleb128 0x1
 3024 0030 50       		.byte	0x50
 3025 0031 9F       		.byte	0x9f
 3026 0032 00000000 		.4byte	0
 3027 0036 00000000 		.4byte	0
 3028              	.LLST1:
 3029 003a 00000000 		.4byte	.LVL2
 3030 003e 06000000 		.4byte	.LVL3
 3031 0042 0100     		.2byte	0x1
 3032 0044 51       		.byte	0x51
 3033 0045 06000000 		.4byte	.LVL3
 3034 0049 4A000000 		.4byte	.LVL12
 3035 004d 0400     		.2byte	0x4
 3036 004f F3       		.byte	0xf3
 3037 0050 01       		.uleb128 0x1
 3038 0051 51       		.byte	0x51
 3039 0052 9F       		.byte	0x9f
 3040 0053 4A000000 		.4byte	.LVL12
 3041 0057 4E000000 		.4byte	.LVL14
 3042 005b 0100     		.2byte	0x1
 3043 005d 51       		.byte	0x51
 3044 005e 4E000000 		.4byte	.LVL14
 3045 0062 74000000 		.4byte	.LFE0
 3046 0066 0400     		.2byte	0x4
 3047 0068 F3       		.byte	0xf3
 3048 0069 01       		.uleb128 0x1
 3049 006a 51       		.byte	0x51
 3050 006b 9F       		.byte	0x9f
 3051 006c 00000000 		.4byte	0
 3052 0070 00000000 		.4byte	0
 3053              	.LLST2:
 3054 0074 00000000 		.4byte	.LVL2
 3055 0078 0A000000 		.4byte	.LVL4
 3056 007c 0100     		.2byte	0x1
 3057 007e 52       		.byte	0x52
 3058 007f 0A000000 		.4byte	.LVL4
 3059 0083 4A000000 		.4byte	.LVL12
 3060 0087 0400     		.2byte	0x4
 3061 0089 F3       		.byte	0xf3
 3062 008a 01       		.uleb128 0x1
 3063 008b 52       		.byte	0x52
 3064 008c 9F       		.byte	0x9f
 3065 008d 4A000000 		.4byte	.LVL12
 3066 0091 50000000 		.4byte	.LVL15
 3067 0095 0100     		.2byte	0x1
 3068 0097 52       		.byte	0x52
 3069 0098 50000000 		.4byte	.LVL15
ARM GAS  /tmp/cc7cohkt.s 			page 56


 3070 009c 74000000 		.4byte	.LFE0
 3071 00a0 0400     		.2byte	0x4
 3072 00a2 F3       		.byte	0xf3
 3073 00a3 01       		.uleb128 0x1
 3074 00a4 52       		.byte	0x52
 3075 00a5 9F       		.byte	0x9f
 3076 00a6 00000000 		.4byte	0
 3077 00aa 00000000 		.4byte	0
 3078              	.LLST3:
 3079 00ae 00000000 		.4byte	.LVL2
 3080 00b2 24000000 		.4byte	.LVL5
 3081 00b6 0200     		.2byte	0x2
 3082 00b8 30       		.byte	0x30
 3083 00b9 9F       		.byte	0x9f
 3084 00ba 24000000 		.4byte	.LVL5
 3085 00be 40000000 		.4byte	.LVL10
 3086 00c2 0100     		.2byte	0x1
 3087 00c4 53       		.byte	0x53
 3088 00c5 4A000000 		.4byte	.LVL12
 3089 00c9 56000000 		.4byte	.LVL16
 3090 00cd 0200     		.2byte	0x2
 3091 00cf 30       		.byte	0x30
 3092 00d0 9F       		.byte	0x9f
 3093 00d1 56000000 		.4byte	.LVL16
 3094 00d5 5E000000 		.4byte	.LVL19
 3095 00d9 0100     		.2byte	0x1
 3096 00db 53       		.byte	0x53
 3097 00dc 00000000 		.4byte	0
 3098 00e0 00000000 		.4byte	0
 3099              	.LLST4:
 3100 00e4 28000000 		.4byte	.LVL6
 3101 00e8 2E000000 		.4byte	.LVL7
 3102 00ec 0100     		.2byte	0x1
 3103 00ee 51       		.byte	0x51
 3104 00ef 32000000 		.4byte	.LVL8
 3105 00f3 42000000 		.4byte	.LVL11
 3106 00f7 0100     		.2byte	0x1
 3107 00f9 51       		.byte	0x51
 3108 00fa 56000000 		.4byte	.LVL16
 3109 00fe 5A000000 		.4byte	.LVL18
 3110 0102 0100     		.2byte	0x1
 3111 0104 51       		.byte	0x51
 3112 0105 00000000 		.4byte	0
 3113 0109 00000000 		.4byte	0
 3114              	.LLST5:
 3115 010d 00000000 		.4byte	.LVL2
 3116 0111 36000000 		.4byte	.LVL9
 3117 0115 0200     		.2byte	0x2
 3118 0117 30       		.byte	0x30
 3119 0118 9F       		.byte	0x9f
 3120 0119 36000000 		.4byte	.LVL9
 3121 011d 4A000000 		.4byte	.LVL12
 3122 0121 0200     		.2byte	0x2
 3123 0123 31       		.byte	0x31
 3124 0124 9F       		.byte	0x9f
 3125 0125 4A000000 		.4byte	.LVL12
 3126 0129 56000000 		.4byte	.LVL16
ARM GAS  /tmp/cc7cohkt.s 			page 57


 3127 012d 0200     		.2byte	0x2
 3128 012f 30       		.byte	0x30
 3129 0130 9F       		.byte	0x9f
 3130 0131 56000000 		.4byte	.LVL16
 3131 0135 74000000 		.4byte	.LFE0
 3132 0139 0200     		.2byte	0x2
 3133 013b 31       		.byte	0x31
 3134 013c 9F       		.byte	0x9f
 3135 013d 00000000 		.4byte	0
 3136 0141 00000000 		.4byte	0
 3137              	.LLST6:
 3138 0145 00000000 		.4byte	.LVL21
 3139 0149 26000000 		.4byte	.LVL24
 3140 014d 0100     		.2byte	0x1
 3141 014f 50       		.byte	0x50
 3142 0150 26000000 		.4byte	.LVL24
 3143 0154 3C000000 		.4byte	.LFE1
 3144 0158 0400     		.2byte	0x4
 3145 015a F3       		.byte	0xf3
 3146 015b 01       		.uleb128 0x1
 3147 015c 50       		.byte	0x50
 3148 015d 9F       		.byte	0x9f
 3149 015e 00000000 		.4byte	0
 3150 0162 00000000 		.4byte	0
 3151              	.LLST7:
 3152 0166 00000000 		.4byte	.LVL21
 3153 016a 04000000 		.4byte	.LVL22
 3154 016e 0100     		.2byte	0x1
 3155 0170 51       		.byte	0x51
 3156 0171 04000000 		.4byte	.LVL22
 3157 0175 3C000000 		.4byte	.LFE1
 3158 0179 0400     		.2byte	0x4
 3159 017b F3       		.byte	0xf3
 3160 017c 01       		.uleb128 0x1
 3161 017d 51       		.byte	0x51
 3162 017e 9F       		.byte	0x9f
 3163 017f 00000000 		.4byte	0
 3164 0183 00000000 		.4byte	0
 3165              	.LLST8:
 3166 0187 00000000 		.4byte	.LVL26
 3167 018b 0C000000 		.4byte	.LVL27
 3168 018f 0100     		.2byte	0x1
 3169 0191 50       		.byte	0x50
 3170 0192 0C000000 		.4byte	.LVL27
 3171 0196 24000000 		.4byte	.LFE2
 3172 019a 0400     		.2byte	0x4
 3173 019c F3       		.byte	0xf3
 3174 019d 01       		.uleb128 0x1
 3175 019e 50       		.byte	0x50
 3176 019f 9F       		.byte	0x9f
 3177 01a0 00000000 		.4byte	0
 3178 01a4 00000000 		.4byte	0
 3179              	.LLST9:
 3180 01a8 00000000 		.4byte	.LVL29
 3181 01ac 2C000000 		.4byte	.LVL33
 3182 01b0 0100     		.2byte	0x1
 3183 01b2 50       		.byte	0x50
ARM GAS  /tmp/cc7cohkt.s 			page 58


 3184 01b3 2C000000 		.4byte	.LVL33
 3185 01b7 36000000 		.4byte	.LVL37
 3186 01bb 0400     		.2byte	0x4
 3187 01bd F3       		.byte	0xf3
 3188 01be 01       		.uleb128 0x1
 3189 01bf 50       		.byte	0x50
 3190 01c0 9F       		.byte	0x9f
 3191 01c1 36000000 		.4byte	.LVL37
 3192 01c5 38000000 		.4byte	.LVL38
 3193 01c9 0100     		.2byte	0x1
 3194 01cb 50       		.byte	0x50
 3195 01cc 38000000 		.4byte	.LVL38
 3196 01d0 42000000 		.4byte	.LVL42
 3197 01d4 0400     		.2byte	0x4
 3198 01d6 F3       		.byte	0xf3
 3199 01d7 01       		.uleb128 0x1
 3200 01d8 50       		.byte	0x50
 3201 01d9 9F       		.byte	0x9f
 3202 01da 42000000 		.4byte	.LVL42
 3203 01de 44000000 		.4byte	.LVL43
 3204 01e2 0100     		.2byte	0x1
 3205 01e4 50       		.byte	0x50
 3206 01e5 44000000 		.4byte	.LVL43
 3207 01e9 4E000000 		.4byte	.LVL47
 3208 01ed 0400     		.2byte	0x4
 3209 01ef F3       		.byte	0xf3
 3210 01f0 01       		.uleb128 0x1
 3211 01f1 50       		.byte	0x50
 3212 01f2 9F       		.byte	0x9f
 3213 01f3 4E000000 		.4byte	.LVL47
 3214 01f7 50000000 		.4byte	.LVL48
 3215 01fb 0100     		.2byte	0x1
 3216 01fd 50       		.byte	0x50
 3217 01fe 50000000 		.4byte	.LVL48
 3218 0202 74000000 		.4byte	.LFE3
 3219 0206 0400     		.2byte	0x4
 3220 0208 F3       		.byte	0xf3
 3221 0209 01       		.uleb128 0x1
 3222 020a 50       		.byte	0x50
 3223 020b 9F       		.byte	0x9f
 3224 020c 00000000 		.4byte	0
 3225 0210 00000000 		.4byte	0
 3226              	.LLST10:
 3227 0214 00000000 		.4byte	.LVL29
 3228 0218 1C000000 		.4byte	.LVL31
 3229 021c 0100     		.2byte	0x1
 3230 021e 51       		.byte	0x51
 3231 021f 1C000000 		.4byte	.LVL31
 3232 0223 2A000000 		.4byte	.LVL32
 3233 0227 0400     		.2byte	0x4
 3234 0229 F3       		.byte	0xf3
 3235 022a 01       		.uleb128 0x1
 3236 022b 51       		.byte	0x51
 3237 022c 9F       		.byte	0x9f
 3238 022d 2A000000 		.4byte	.LVL32
 3239 0231 2E000000 		.4byte	.LVL34
 3240 0235 0100     		.2byte	0x1
ARM GAS  /tmp/cc7cohkt.s 			page 59


 3241 0237 51       		.byte	0x51
 3242 0238 2E000000 		.4byte	.LVL34
 3243 023c 36000000 		.4byte	.LVL37
 3244 0240 0400     		.2byte	0x4
 3245 0242 F3       		.byte	0xf3
 3246 0243 01       		.uleb128 0x1
 3247 0244 51       		.byte	0x51
 3248 0245 9F       		.byte	0x9f
 3249 0246 36000000 		.4byte	.LVL37
 3250 024a 3A000000 		.4byte	.LVL39
 3251 024e 0100     		.2byte	0x1
 3252 0250 51       		.byte	0x51
 3253 0251 3A000000 		.4byte	.LVL39
 3254 0255 42000000 		.4byte	.LVL42
 3255 0259 0400     		.2byte	0x4
 3256 025b F3       		.byte	0xf3
 3257 025c 01       		.uleb128 0x1
 3258 025d 51       		.byte	0x51
 3259 025e 9F       		.byte	0x9f
 3260 025f 42000000 		.4byte	.LVL42
 3261 0263 46000000 		.4byte	.LVL44
 3262 0267 0100     		.2byte	0x1
 3263 0269 51       		.byte	0x51
 3264 026a 46000000 		.4byte	.LVL44
 3265 026e 4E000000 		.4byte	.LVL47
 3266 0272 0400     		.2byte	0x4
 3267 0274 F3       		.byte	0xf3
 3268 0275 01       		.uleb128 0x1
 3269 0276 51       		.byte	0x51
 3270 0277 9F       		.byte	0x9f
 3271 0278 4E000000 		.4byte	.LVL47
 3272 027c 52000000 		.4byte	.LVL49
 3273 0280 0100     		.2byte	0x1
 3274 0282 51       		.byte	0x51
 3275 0283 52000000 		.4byte	.LVL49
 3276 0287 74000000 		.4byte	.LFE3
 3277 028b 0400     		.2byte	0x4
 3278 028d F3       		.byte	0xf3
 3279 028e 01       		.uleb128 0x1
 3280 028f 51       		.byte	0x51
 3281 0290 9F       		.byte	0x9f
 3282 0291 00000000 		.4byte	0
 3283 0295 00000000 		.4byte	0
 3284              	.LLST11:
 3285 0299 00000000 		.4byte	.LVL29
 3286 029d 30000000 		.4byte	.LVL35
 3287 02a1 0100     		.2byte	0x1
 3288 02a3 52       		.byte	0x52
 3289 02a4 30000000 		.4byte	.LVL35
 3290 02a8 36000000 		.4byte	.LVL37
 3291 02ac 0400     		.2byte	0x4
 3292 02ae F3       		.byte	0xf3
 3293 02af 01       		.uleb128 0x1
 3294 02b0 52       		.byte	0x52
 3295 02b1 9F       		.byte	0x9f
 3296 02b2 36000000 		.4byte	.LVL37
 3297 02b6 3C000000 		.4byte	.LVL40
ARM GAS  /tmp/cc7cohkt.s 			page 60


 3298 02ba 0100     		.2byte	0x1
 3299 02bc 52       		.byte	0x52
 3300 02bd 3C000000 		.4byte	.LVL40
 3301 02c1 42000000 		.4byte	.LVL42
 3302 02c5 0400     		.2byte	0x4
 3303 02c7 F3       		.byte	0xf3
 3304 02c8 01       		.uleb128 0x1
 3305 02c9 52       		.byte	0x52
 3306 02ca 9F       		.byte	0x9f
 3307 02cb 42000000 		.4byte	.LVL42
 3308 02cf 48000000 		.4byte	.LVL45
 3309 02d3 0100     		.2byte	0x1
 3310 02d5 52       		.byte	0x52
 3311 02d6 48000000 		.4byte	.LVL45
 3312 02da 4E000000 		.4byte	.LVL47
 3313 02de 0400     		.2byte	0x4
 3314 02e0 F3       		.byte	0xf3
 3315 02e1 01       		.uleb128 0x1
 3316 02e2 52       		.byte	0x52
 3317 02e3 9F       		.byte	0x9f
 3318 02e4 4E000000 		.4byte	.LVL47
 3319 02e8 54000000 		.4byte	.LVL50
 3320 02ec 0100     		.2byte	0x1
 3321 02ee 52       		.byte	0x52
 3322 02ef 54000000 		.4byte	.LVL50
 3323 02f3 74000000 		.4byte	.LFE3
 3324 02f7 0400     		.2byte	0x4
 3325 02f9 F3       		.byte	0xf3
 3326 02fa 01       		.uleb128 0x1
 3327 02fb 52       		.byte	0x52
 3328 02fc 9F       		.byte	0x9f
 3329 02fd 00000000 		.4byte	0
 3330 0301 00000000 		.4byte	0
 3331              	.LLST12:
 3332 0305 00000000 		.4byte	.LVL29
 3333 0309 14000000 		.4byte	.LVL30
 3334 030d 0100     		.2byte	0x1
 3335 030f 53       		.byte	0x53
 3336 0310 14000000 		.4byte	.LVL30
 3337 0314 2A000000 		.4byte	.LVL32
 3338 0318 0400     		.2byte	0x4
 3339 031a F3       		.byte	0xf3
 3340 031b 01       		.uleb128 0x1
 3341 031c 53       		.byte	0x53
 3342 031d 9F       		.byte	0x9f
 3343 031e 2A000000 		.4byte	.LVL32
 3344 0322 32000000 		.4byte	.LVL36
 3345 0326 0100     		.2byte	0x1
 3346 0328 53       		.byte	0x53
 3347 0329 32000000 		.4byte	.LVL36
 3348 032d 36000000 		.4byte	.LVL37
 3349 0331 0400     		.2byte	0x4
 3350 0333 F3       		.byte	0xf3
 3351 0334 01       		.uleb128 0x1
 3352 0335 53       		.byte	0x53
 3353 0336 9F       		.byte	0x9f
 3354 0337 36000000 		.4byte	.LVL37
ARM GAS  /tmp/cc7cohkt.s 			page 61


 3355 033b 3E000000 		.4byte	.LVL41
 3356 033f 0100     		.2byte	0x1
 3357 0341 53       		.byte	0x53
 3358 0342 3E000000 		.4byte	.LVL41
 3359 0346 42000000 		.4byte	.LVL42
 3360 034a 0400     		.2byte	0x4
 3361 034c F3       		.byte	0xf3
 3362 034d 01       		.uleb128 0x1
 3363 034e 53       		.byte	0x53
 3364 034f 9F       		.byte	0x9f
 3365 0350 42000000 		.4byte	.LVL42
 3366 0354 4A000000 		.4byte	.LVL46
 3367 0358 0100     		.2byte	0x1
 3368 035a 53       		.byte	0x53
 3369 035b 4A000000 		.4byte	.LVL46
 3370 035f 4E000000 		.4byte	.LVL47
 3371 0363 0400     		.2byte	0x4
 3372 0365 F3       		.byte	0xf3
 3373 0366 01       		.uleb128 0x1
 3374 0367 53       		.byte	0x53
 3375 0368 9F       		.byte	0x9f
 3376 0369 4E000000 		.4byte	.LVL47
 3377 036d 56000000 		.4byte	.LVL51
 3378 0371 0100     		.2byte	0x1
 3379 0373 53       		.byte	0x53
 3380 0374 56000000 		.4byte	.LVL51
 3381 0378 74000000 		.4byte	.LFE3
 3382 037c 0400     		.2byte	0x4
 3383 037e F3       		.byte	0xf3
 3384 037f 01       		.uleb128 0x1
 3385 0380 53       		.byte	0x53
 3386 0381 9F       		.byte	0x9f
 3387 0382 00000000 		.4byte	0
 3388 0386 00000000 		.4byte	0
 3389              	.LLST13:
 3390 038a 00000000 		.4byte	.LVL53
 3391 038e 04000000 		.4byte	.LVL54
 3392 0392 0100     		.2byte	0x1
 3393 0394 50       		.byte	0x50
 3394 0395 04000000 		.4byte	.LVL54
 3395 0399 08000000 		.4byte	.LVL55
 3396 039d 0400     		.2byte	0x4
 3397 039f F3       		.byte	0xf3
 3398 03a0 01       		.uleb128 0x1
 3399 03a1 50       		.byte	0x50
 3400 03a2 9F       		.byte	0x9f
 3401 03a3 08000000 		.4byte	.LVL55
 3402 03a7 0C000000 		.4byte	.LVL56
 3403 03ab 0100     		.2byte	0x1
 3404 03ad 50       		.byte	0x50
 3405 03ae 0C000000 		.4byte	.LVL56
 3406 03b2 24000000 		.4byte	.LFE4
 3407 03b6 0400     		.2byte	0x4
 3408 03b8 F3       		.byte	0xf3
 3409 03b9 01       		.uleb128 0x1
 3410 03ba 50       		.byte	0x50
 3411 03bb 9F       		.byte	0x9f
ARM GAS  /tmp/cc7cohkt.s 			page 62


 3412 03bc 00000000 		.4byte	0
 3413 03c0 00000000 		.4byte	0
 3414              	.LLST14:
 3415 03c4 00000000 		.4byte	.LVL58
 3416 03c8 0B000000 		.4byte	.LVL59-1
 3417 03cc 0100     		.2byte	0x1
 3418 03ce 50       		.byte	0x50
 3419 03cf 0B000000 		.4byte	.LVL59-1
 3420 03d3 0C000000 		.4byte	.LFE5
 3421 03d7 0400     		.2byte	0x4
 3422 03d9 F3       		.byte	0xf3
 3423 03da 01       		.uleb128 0x1
 3424 03db 50       		.byte	0x50
 3425 03dc 9F       		.byte	0x9f
 3426 03dd 00000000 		.4byte	0
 3427 03e1 00000000 		.4byte	0
 3428              	.LLST15:
 3429 03e5 00000000 		.4byte	.LVL58
 3430 03e9 0B000000 		.4byte	.LVL59-1
 3431 03ed 0100     		.2byte	0x1
 3432 03ef 51       		.byte	0x51
 3433 03f0 0B000000 		.4byte	.LVL59-1
 3434 03f4 0C000000 		.4byte	.LFE5
 3435 03f8 0400     		.2byte	0x4
 3436 03fa F3       		.byte	0xf3
 3437 03fb 01       		.uleb128 0x1
 3438 03fc 51       		.byte	0x51
 3439 03fd 9F       		.byte	0x9f
 3440 03fe 00000000 		.4byte	0
 3441 0402 00000000 		.4byte	0
 3442              	.LLST16:
 3443 0406 00000000 		.4byte	.LVL60
 3444 040a 2A000000 		.4byte	.LVL65
 3445 040e 0100     		.2byte	0x1
 3446 0410 50       		.byte	0x50
 3447 0411 2A000000 		.4byte	.LVL65
 3448 0415 36000000 		.4byte	.LVL69
 3449 0419 0400     		.2byte	0x4
 3450 041b F3       		.byte	0xf3
 3451 041c 01       		.uleb128 0x1
 3452 041d 50       		.byte	0x50
 3453 041e 9F       		.byte	0x9f
 3454 041f 36000000 		.4byte	.LVL69
 3455 0423 38000000 		.4byte	.LVL70
 3456 0427 0100     		.2byte	0x1
 3457 0429 50       		.byte	0x50
 3458 042a 38000000 		.4byte	.LVL70
 3459 042e 44000000 		.4byte	.LVL74
 3460 0432 0400     		.2byte	0x4
 3461 0434 F3       		.byte	0xf3
 3462 0435 01       		.uleb128 0x1
 3463 0436 50       		.byte	0x50
 3464 0437 9F       		.byte	0x9f
 3465 0438 44000000 		.4byte	.LVL74
 3466 043c 46000000 		.4byte	.LVL75
 3467 0440 0100     		.2byte	0x1
 3468 0442 50       		.byte	0x50
ARM GAS  /tmp/cc7cohkt.s 			page 63


 3469 0443 46000000 		.4byte	.LVL75
 3470 0447 52000000 		.4byte	.LVL79
 3471 044b 0400     		.2byte	0x4
 3472 044d F3       		.byte	0xf3
 3473 044e 01       		.uleb128 0x1
 3474 044f 50       		.byte	0x50
 3475 0450 9F       		.byte	0x9f
 3476 0451 52000000 		.4byte	.LVL79
 3477 0455 54000000 		.4byte	.LVL80
 3478 0459 0100     		.2byte	0x1
 3479 045b 50       		.byte	0x50
 3480 045c 54000000 		.4byte	.LVL80
 3481 0460 78000000 		.4byte	.LFE6
 3482 0464 0400     		.2byte	0x4
 3483 0466 F3       		.byte	0xf3
 3484 0467 01       		.uleb128 0x1
 3485 0468 50       		.byte	0x50
 3486 0469 9F       		.byte	0x9f
 3487 046a 00000000 		.4byte	0
 3488 046e 00000000 		.4byte	0
 3489              	.LLST17:
 3490 0472 00000000 		.4byte	.LVL60
 3491 0476 1C000000 		.4byte	.LVL62
 3492 047a 0100     		.2byte	0x1
 3493 047c 51       		.byte	0x51
 3494 047d 1C000000 		.4byte	.LVL62
 3495 0481 28000000 		.4byte	.LVL64
 3496 0485 0400     		.2byte	0x4
 3497 0487 F3       		.byte	0xf3
 3498 0488 01       		.uleb128 0x1
 3499 0489 51       		.byte	0x51
 3500 048a 9F       		.byte	0x9f
 3501 048b 28000000 		.4byte	.LVL64
 3502 048f 2E000000 		.4byte	.LVL66
 3503 0493 0100     		.2byte	0x1
 3504 0495 51       		.byte	0x51
 3505 0496 2E000000 		.4byte	.LVL66
 3506 049a 36000000 		.4byte	.LVL69
 3507 049e 0400     		.2byte	0x4
 3508 04a0 F3       		.byte	0xf3
 3509 04a1 01       		.uleb128 0x1
 3510 04a2 51       		.byte	0x51
 3511 04a3 9F       		.byte	0x9f
 3512 04a4 36000000 		.4byte	.LVL69
 3513 04a8 3C000000 		.4byte	.LVL71
 3514 04ac 0100     		.2byte	0x1
 3515 04ae 51       		.byte	0x51
 3516 04af 3C000000 		.4byte	.LVL71
 3517 04b3 44000000 		.4byte	.LVL74
 3518 04b7 0400     		.2byte	0x4
 3519 04b9 F3       		.byte	0xf3
 3520 04ba 01       		.uleb128 0x1
 3521 04bb 51       		.byte	0x51
 3522 04bc 9F       		.byte	0x9f
 3523 04bd 44000000 		.4byte	.LVL74
 3524 04c1 4A000000 		.4byte	.LVL76
 3525 04c5 0100     		.2byte	0x1
ARM GAS  /tmp/cc7cohkt.s 			page 64


 3526 04c7 51       		.byte	0x51
 3527 04c8 4A000000 		.4byte	.LVL76
 3528 04cc 52000000 		.4byte	.LVL79
 3529 04d0 0400     		.2byte	0x4
 3530 04d2 F3       		.byte	0xf3
 3531 04d3 01       		.uleb128 0x1
 3532 04d4 51       		.byte	0x51
 3533 04d5 9F       		.byte	0x9f
 3534 04d6 52000000 		.4byte	.LVL79
 3535 04da 58000000 		.4byte	.LVL81
 3536 04de 0100     		.2byte	0x1
 3537 04e0 51       		.byte	0x51
 3538 04e1 58000000 		.4byte	.LVL81
 3539 04e5 78000000 		.4byte	.LFE6
 3540 04e9 0400     		.2byte	0x4
 3541 04eb F3       		.byte	0xf3
 3542 04ec 01       		.uleb128 0x1
 3543 04ed 51       		.byte	0x51
 3544 04ee 9F       		.byte	0x9f
 3545 04ef 00000000 		.4byte	0
 3546 04f3 00000000 		.4byte	0
 3547              	.LLST18:
 3548 04f7 00000000 		.4byte	.LVL60
 3549 04fb 30000000 		.4byte	.LVL67
 3550 04ff 0100     		.2byte	0x1
 3551 0501 52       		.byte	0x52
 3552 0502 30000000 		.4byte	.LVL67
 3553 0506 36000000 		.4byte	.LVL69
 3554 050a 0400     		.2byte	0x4
 3555 050c F3       		.byte	0xf3
 3556 050d 01       		.uleb128 0x1
 3557 050e 52       		.byte	0x52
 3558 050f 9F       		.byte	0x9f
 3559 0510 36000000 		.4byte	.LVL69
 3560 0514 3E000000 		.4byte	.LVL72
 3561 0518 0100     		.2byte	0x1
 3562 051a 52       		.byte	0x52
 3563 051b 3E000000 		.4byte	.LVL72
 3564 051f 44000000 		.4byte	.LVL74
 3565 0523 0400     		.2byte	0x4
 3566 0525 F3       		.byte	0xf3
 3567 0526 01       		.uleb128 0x1
 3568 0527 52       		.byte	0x52
 3569 0528 9F       		.byte	0x9f
 3570 0529 44000000 		.4byte	.LVL74
 3571 052d 4C000000 		.4byte	.LVL77
 3572 0531 0100     		.2byte	0x1
 3573 0533 52       		.byte	0x52
 3574 0534 4C000000 		.4byte	.LVL77
 3575 0538 52000000 		.4byte	.LVL79
 3576 053c 0400     		.2byte	0x4
 3577 053e F3       		.byte	0xf3
 3578 053f 01       		.uleb128 0x1
 3579 0540 52       		.byte	0x52
 3580 0541 9F       		.byte	0x9f
 3581 0542 52000000 		.4byte	.LVL79
 3582 0546 5A000000 		.4byte	.LVL82
ARM GAS  /tmp/cc7cohkt.s 			page 65


 3583 054a 0100     		.2byte	0x1
 3584 054c 52       		.byte	0x52
 3585 054d 5A000000 		.4byte	.LVL82
 3586 0551 78000000 		.4byte	.LFE6
 3587 0555 0400     		.2byte	0x4
 3588 0557 F3       		.byte	0xf3
 3589 0558 01       		.uleb128 0x1
 3590 0559 52       		.byte	0x52
 3591 055a 9F       		.byte	0x9f
 3592 055b 00000000 		.4byte	0
 3593 055f 00000000 		.4byte	0
 3594              	.LLST19:
 3595 0563 00000000 		.4byte	.LVL60
 3596 0567 18000000 		.4byte	.LVL61
 3597 056b 0100     		.2byte	0x1
 3598 056d 53       		.byte	0x53
 3599 056e 18000000 		.4byte	.LVL61
 3600 0572 28000000 		.4byte	.LVL64
 3601 0576 0400     		.2byte	0x4
 3602 0578 F3       		.byte	0xf3
 3603 0579 01       		.uleb128 0x1
 3604 057a 53       		.byte	0x53
 3605 057b 9F       		.byte	0x9f
 3606 057c 28000000 		.4byte	.LVL64
 3607 0580 32000000 		.4byte	.LVL68
 3608 0584 0100     		.2byte	0x1
 3609 0586 53       		.byte	0x53
 3610 0587 32000000 		.4byte	.LVL68
 3611 058b 36000000 		.4byte	.LVL69
 3612 058f 0400     		.2byte	0x4
 3613 0591 F3       		.byte	0xf3
 3614 0592 01       		.uleb128 0x1
 3615 0593 53       		.byte	0x53
 3616 0594 9F       		.byte	0x9f
 3617 0595 36000000 		.4byte	.LVL69
 3618 0599 40000000 		.4byte	.LVL73
 3619 059d 0100     		.2byte	0x1
 3620 059f 53       		.byte	0x53
 3621 05a0 40000000 		.4byte	.LVL73
 3622 05a4 44000000 		.4byte	.LVL74
 3623 05a8 0400     		.2byte	0x4
 3624 05aa F3       		.byte	0xf3
 3625 05ab 01       		.uleb128 0x1
 3626 05ac 53       		.byte	0x53
 3627 05ad 9F       		.byte	0x9f
 3628 05ae 44000000 		.4byte	.LVL74
 3629 05b2 4E000000 		.4byte	.LVL78
 3630 05b6 0100     		.2byte	0x1
 3631 05b8 53       		.byte	0x53
 3632 05b9 4E000000 		.4byte	.LVL78
 3633 05bd 52000000 		.4byte	.LVL79
 3634 05c1 0400     		.2byte	0x4
 3635 05c3 F3       		.byte	0xf3
 3636 05c4 01       		.uleb128 0x1
 3637 05c5 53       		.byte	0x53
 3638 05c6 9F       		.byte	0x9f
 3639 05c7 52000000 		.4byte	.LVL79
ARM GAS  /tmp/cc7cohkt.s 			page 66


 3640 05cb 5C000000 		.4byte	.LVL83
 3641 05cf 0100     		.2byte	0x1
 3642 05d1 53       		.byte	0x53
 3643 05d2 5C000000 		.4byte	.LVL83
 3644 05d6 78000000 		.4byte	.LFE6
 3645 05da 0400     		.2byte	0x4
 3646 05dc F3       		.byte	0xf3
 3647 05dd 01       		.uleb128 0x1
 3648 05de 53       		.byte	0x53
 3649 05df 9F       		.byte	0x9f
 3650 05e0 00000000 		.4byte	0
 3651 05e4 00000000 		.4byte	0
 3652              	.LLST20:
 3653 05e8 00000000 		.4byte	.LVL60
 3654 05ec 28000000 		.4byte	.LVL64
 3655 05f0 0200     		.2byte	0x2
 3656 05f2 91       		.byte	0x91
 3657 05f3 00       		.sleb128 0
 3658 05f4 28000000 		.4byte	.LVL64
 3659 05f8 78000000 		.4byte	.LFE6
 3660 05fc 0200     		.2byte	0x2
 3661 05fe 91       		.byte	0x91
 3662 05ff 00       		.sleb128 0
 3663 0600 00000000 		.4byte	0
 3664 0604 00000000 		.4byte	0
 3665              	.LLST21:
 3666 0608 24000000 		.4byte	.LVL63
 3667 060c 28000000 		.4byte	.LVL64
 3668 0610 0100     		.2byte	0x1
 3669 0612 55       		.byte	0x55
 3670 0613 00000000 		.4byte	0
 3671 0617 00000000 		.4byte	0
 3672              	.LLST22:
 3673 061b 24000000 		.4byte	.LVL63
 3674 061f 28000000 		.4byte	.LVL64
 3675 0623 0100     		.2byte	0x1
 3676 0625 50       		.byte	0x50
 3677 0626 00000000 		.4byte	0
 3678 062a 00000000 		.4byte	0
 3679              	.LLST23:
 3680 062e 00000000 		.4byte	.LVL85
 3681 0632 02000000 		.4byte	.LVL86
 3682 0636 0100     		.2byte	0x1
 3683 0638 50       		.byte	0x50
 3684 0639 02000000 		.4byte	.LVL86
 3685 063d 08000000 		.4byte	.LFE7
 3686 0641 0400     		.2byte	0x4
 3687 0643 F3       		.byte	0xf3
 3688 0644 01       		.uleb128 0x1
 3689 0645 50       		.byte	0x50
 3690 0646 9F       		.byte	0x9f
 3691 0647 00000000 		.4byte	0
 3692 064b 00000000 		.4byte	0
 3693              	.LLST24:
 3694 064f 00000000 		.4byte	.LVL87
 3695 0653 02000000 		.4byte	.LVL88
 3696 0657 0100     		.2byte	0x1
ARM GAS  /tmp/cc7cohkt.s 			page 67


 3697 0659 50       		.byte	0x50
 3698 065a 02000000 		.4byte	.LVL88
 3699 065e 08000000 		.4byte	.LFE8
 3700 0662 0400     		.2byte	0x4
 3701 0664 F3       		.byte	0xf3
 3702 0665 01       		.uleb128 0x1
 3703 0666 50       		.byte	0x50
 3704 0667 9F       		.byte	0x9f
 3705 0668 00000000 		.4byte	0
 3706 066c 00000000 		.4byte	0
 3707              	.LLST25:
 3708 0670 00000000 		.4byte	.LVL89
 3709 0674 02000000 		.4byte	.LVL90
 3710 0678 0100     		.2byte	0x1
 3711 067a 50       		.byte	0x50
 3712 067b 02000000 		.4byte	.LVL90
 3713 067f 08000000 		.4byte	.LFE9
 3714 0683 0400     		.2byte	0x4
 3715 0685 F3       		.byte	0xf3
 3716 0686 01       		.uleb128 0x1
 3717 0687 50       		.byte	0x50
 3718 0688 9F       		.byte	0x9f
 3719 0689 00000000 		.4byte	0
 3720 068d 00000000 		.4byte	0
 3721              	.LLST26:
 3722 0691 00000000 		.4byte	.LVL91
 3723 0695 14000000 		.4byte	.LVL92
 3724 0699 0100     		.2byte	0x1
 3725 069b 50       		.byte	0x50
 3726 069c 14000000 		.4byte	.LVL92
 3727 06a0 20000000 		.4byte	.LVL94
 3728 06a4 0400     		.2byte	0x4
 3729 06a6 F3       		.byte	0xf3
 3730 06a7 01       		.uleb128 0x1
 3731 06a8 50       		.byte	0x50
 3732 06a9 9F       		.byte	0x9f
 3733 06aa 20000000 		.4byte	.LVL94
 3734 06ae 22000000 		.4byte	.LVL95
 3735 06b2 0100     		.2byte	0x1
 3736 06b4 50       		.byte	0x50
 3737 06b5 22000000 		.4byte	.LVL95
 3738 06b9 40000000 		.4byte	.LFE10
 3739 06bd 0400     		.2byte	0x4
 3740 06bf F3       		.byte	0xf3
 3741 06c0 01       		.uleb128 0x1
 3742 06c1 50       		.byte	0x50
 3743 06c2 9F       		.byte	0x9f
 3744 06c3 00000000 		.4byte	0
 3745 06c7 00000000 		.4byte	0
 3746              	.LLST27:
 3747 06cb 00000000 		.4byte	.LVL91
 3748 06cf 18000000 		.4byte	.LVL93
 3749 06d3 0100     		.2byte	0x1
 3750 06d5 51       		.byte	0x51
 3751 06d6 18000000 		.4byte	.LVL93
 3752 06da 20000000 		.4byte	.LVL94
 3753 06de 0400     		.2byte	0x4
ARM GAS  /tmp/cc7cohkt.s 			page 68


 3754 06e0 F3       		.byte	0xf3
 3755 06e1 01       		.uleb128 0x1
 3756 06e2 51       		.byte	0x51
 3757 06e3 9F       		.byte	0x9f
 3758 06e4 20000000 		.4byte	.LVL94
 3759 06e8 26000000 		.4byte	.LVL96
 3760 06ec 0100     		.2byte	0x1
 3761 06ee 51       		.byte	0x51
 3762 06ef 26000000 		.4byte	.LVL96
 3763 06f3 40000000 		.4byte	.LFE10
 3764 06f7 0400     		.2byte	0x4
 3765 06f9 F3       		.byte	0xf3
 3766 06fa 01       		.uleb128 0x1
 3767 06fb 51       		.byte	0x51
 3768 06fc 9F       		.byte	0x9f
 3769 06fd 00000000 		.4byte	0
 3770 0701 00000000 		.4byte	0
 3771              	.LLST28:
 3772 0705 00000000 		.4byte	.LVL98
 3773 0709 14000000 		.4byte	.LVL99
 3774 070d 0100     		.2byte	0x1
 3775 070f 50       		.byte	0x50
 3776 0710 14000000 		.4byte	.LVL99
 3777 0714 20000000 		.4byte	.LVL101
 3778 0718 0400     		.2byte	0x4
 3779 071a F3       		.byte	0xf3
 3780 071b 01       		.uleb128 0x1
 3781 071c 50       		.byte	0x50
 3782 071d 9F       		.byte	0x9f
 3783 071e 20000000 		.4byte	.LVL101
 3784 0722 22000000 		.4byte	.LVL102
 3785 0726 0100     		.2byte	0x1
 3786 0728 50       		.byte	0x50
 3787 0729 22000000 		.4byte	.LVL102
 3788 072d 40000000 		.4byte	.LFE11
 3789 0731 0400     		.2byte	0x4
 3790 0733 F3       		.byte	0xf3
 3791 0734 01       		.uleb128 0x1
 3792 0735 50       		.byte	0x50
 3793 0736 9F       		.byte	0x9f
 3794 0737 00000000 		.4byte	0
 3795 073b 00000000 		.4byte	0
 3796              	.LLST29:
 3797 073f 00000000 		.4byte	.LVL98
 3798 0743 18000000 		.4byte	.LVL100
 3799 0747 0100     		.2byte	0x1
 3800 0749 51       		.byte	0x51
 3801 074a 18000000 		.4byte	.LVL100
 3802 074e 20000000 		.4byte	.LVL101
 3803 0752 0400     		.2byte	0x4
 3804 0754 F3       		.byte	0xf3
 3805 0755 01       		.uleb128 0x1
 3806 0756 51       		.byte	0x51
 3807 0757 9F       		.byte	0x9f
 3808 0758 20000000 		.4byte	.LVL101
 3809 075c 26000000 		.4byte	.LVL103
 3810 0760 0100     		.2byte	0x1
ARM GAS  /tmp/cc7cohkt.s 			page 69


 3811 0762 51       		.byte	0x51
 3812 0763 26000000 		.4byte	.LVL103
 3813 0767 40000000 		.4byte	.LFE11
 3814 076b 0400     		.2byte	0x4
 3815 076d F3       		.byte	0xf3
 3816 076e 01       		.uleb128 0x1
 3817 076f 51       		.byte	0x51
 3818 0770 9F       		.byte	0x9f
 3819 0771 00000000 		.4byte	0
 3820 0775 00000000 		.4byte	0
 3821              	.LLST30:
 3822 0779 00000000 		.4byte	.LVL105
 3823 077d 04000000 		.4byte	.LVL106
 3824 0781 0100     		.2byte	0x1
 3825 0783 50       		.byte	0x50
 3826 0784 04000000 		.4byte	.LVL106
 3827 0788 06000000 		.4byte	.LVL107
 3828 078c 0400     		.2byte	0x4
 3829 078e F3       		.byte	0xf3
 3830 078f 01       		.uleb128 0x1
 3831 0790 50       		.byte	0x50
 3832 0791 9F       		.byte	0x9f
 3833 0792 06000000 		.4byte	.LVL107
 3834 0796 0A000000 		.4byte	.LVL108
 3835 079a 0100     		.2byte	0x1
 3836 079c 50       		.byte	0x50
 3837 079d 0A000000 		.4byte	.LVL108
 3838 07a1 24000000 		.4byte	.LFE12
 3839 07a5 0400     		.2byte	0x4
 3840 07a7 F3       		.byte	0xf3
 3841 07a8 01       		.uleb128 0x1
 3842 07a9 50       		.byte	0x50
 3843 07aa 9F       		.byte	0x9f
 3844 07ab 00000000 		.4byte	0
 3845 07af 00000000 		.4byte	0
 3846              	.LLST31:
 3847 07b3 00000000 		.4byte	.LVL110
 3848 07b7 08000000 		.4byte	.LVL112
 3849 07bb 0100     		.2byte	0x1
 3850 07bd 50       		.byte	0x50
 3851 07be 08000000 		.4byte	.LVL112
 3852 07c2 0C000000 		.4byte	.LVL114
 3853 07c6 0400     		.2byte	0x4
 3854 07c8 F3       		.byte	0xf3
 3855 07c9 01       		.uleb128 0x1
 3856 07ca 50       		.byte	0x50
 3857 07cb 9F       		.byte	0x9f
 3858 07cc 0C000000 		.4byte	.LVL114
 3859 07d0 0E000000 		.4byte	.LVL115
 3860 07d4 0100     		.2byte	0x1
 3861 07d6 50       		.byte	0x50
 3862 07d7 0E000000 		.4byte	.LVL115
 3863 07db 28000000 		.4byte	.LFE13
 3864 07df 0400     		.2byte	0x4
 3865 07e1 F3       		.byte	0xf3
 3866 07e2 01       		.uleb128 0x1
 3867 07e3 50       		.byte	0x50
ARM GAS  /tmp/cc7cohkt.s 			page 70


 3868 07e4 9F       		.byte	0x9f
 3869 07e5 00000000 		.4byte	0
 3870 07e9 00000000 		.4byte	0
 3871              	.LLST32:
 3872 07ed 06000000 		.4byte	.LVL111
 3873 07f1 08000000 		.4byte	.LVL112
 3874 07f5 0100     		.2byte	0x1
 3875 07f7 53       		.byte	0x53
 3876 07f8 08000000 		.4byte	.LVL112
 3877 07fc 0A000000 		.4byte	.LVL113
 3878 0800 0600     		.2byte	0x6
 3879 0802 70       		.byte	0x70
 3880 0803 00       		.sleb128 0
 3881 0804 73       		.byte	0x73
 3882 0805 00       		.sleb128 0
 3883 0806 1A       		.byte	0x1a
 3884 0807 9F       		.byte	0x9f
 3885 0808 0A000000 		.4byte	.LVL113
 3886 080c 0C000000 		.4byte	.LVL114
 3887 0810 0100     		.2byte	0x1
 3888 0812 50       		.byte	0x50
 3889 0813 00000000 		.4byte	0
 3890 0817 00000000 		.4byte	0
 3891              	.LLST33:
 3892 081b 00000000 		.4byte	.LVL117
 3893 081f 10000000 		.4byte	.LVL118
 3894 0823 0100     		.2byte	0x1
 3895 0825 50       		.byte	0x50
 3896 0826 10000000 		.4byte	.LVL118
 3897 082a 28000000 		.4byte	.LFE14
 3898 082e 0400     		.2byte	0x4
 3899 0830 F3       		.byte	0xf3
 3900 0831 01       		.uleb128 0x1
 3901 0832 50       		.byte	0x50
 3902 0833 9F       		.byte	0x9f
 3903 0834 00000000 		.4byte	0
 3904 0838 00000000 		.4byte	0
 3905              		.section	.debug_aranges,"",%progbits
 3906 0000 94000000 		.4byte	0x94
 3907 0004 0200     		.2byte	0x2
 3908 0006 00000000 		.4byte	.Ldebug_info0
 3909 000a 04       		.byte	0x4
 3910 000b 00       		.byte	0
 3911 000c 0000     		.2byte	0
 3912 000e 0000     		.2byte	0
 3913 0010 00000000 		.4byte	.LFB15
 3914 0014 1C000000 		.4byte	.LFE15-.LFB15
 3915 0018 00000000 		.4byte	.LFB0
 3916 001c 74000000 		.4byte	.LFE0-.LFB0
 3917 0020 00000000 		.4byte	.LFB1
 3918 0024 3C000000 		.4byte	.LFE1-.LFB1
 3919 0028 00000000 		.4byte	.LFB2
 3920 002c 24000000 		.4byte	.LFE2-.LFB2
 3921 0030 00000000 		.4byte	.LFB3
 3922 0034 74000000 		.4byte	.LFE3-.LFB3
 3923 0038 00000000 		.4byte	.LFB4
 3924 003c 24000000 		.4byte	.LFE4-.LFB4
ARM GAS  /tmp/cc7cohkt.s 			page 71


 3925 0040 00000000 		.4byte	.LFB5
 3926 0044 0C000000 		.4byte	.LFE5-.LFB5
 3927 0048 00000000 		.4byte	.LFB6
 3928 004c 78000000 		.4byte	.LFE6-.LFB6
 3929 0050 00000000 		.4byte	.LFB7
 3930 0054 08000000 		.4byte	.LFE7-.LFB7
 3931 0058 00000000 		.4byte	.LFB8
 3932 005c 08000000 		.4byte	.LFE8-.LFB8
 3933 0060 00000000 		.4byte	.LFB9
 3934 0064 08000000 		.4byte	.LFE9-.LFB9
 3935 0068 00000000 		.4byte	.LFB10
 3936 006c 40000000 		.4byte	.LFE10-.LFB10
 3937 0070 00000000 		.4byte	.LFB11
 3938 0074 40000000 		.4byte	.LFE11-.LFB11
 3939 0078 00000000 		.4byte	.LFB12
 3940 007c 24000000 		.4byte	.LFE12-.LFB12
 3941 0080 00000000 		.4byte	.LFB13
 3942 0084 28000000 		.4byte	.LFE13-.LFB13
 3943 0088 00000000 		.4byte	.LFB14
 3944 008c 28000000 		.4byte	.LFE14-.LFB14
 3945 0090 00000000 		.4byte	0
 3946 0094 00000000 		.4byte	0
 3947              		.section	.debug_ranges,"",%progbits
 3948              	.Ldebug_ranges0:
 3949 0000 00000000 		.4byte	.LFB15
 3950 0004 1C000000 		.4byte	.LFE15
 3951 0008 00000000 		.4byte	.LFB0
 3952 000c 74000000 		.4byte	.LFE0
 3953 0010 00000000 		.4byte	.LFB1
 3954 0014 3C000000 		.4byte	.LFE1
 3955 0018 00000000 		.4byte	.LFB2
 3956 001c 24000000 		.4byte	.LFE2
 3957 0020 00000000 		.4byte	.LFB3
 3958 0024 74000000 		.4byte	.LFE3
 3959 0028 00000000 		.4byte	.LFB4
 3960 002c 24000000 		.4byte	.LFE4
 3961 0030 00000000 		.4byte	.LFB5
 3962 0034 0C000000 		.4byte	.LFE5
 3963 0038 00000000 		.4byte	.LFB6
 3964 003c 78000000 		.4byte	.LFE6
 3965 0040 00000000 		.4byte	.LFB7
 3966 0044 08000000 		.4byte	.LFE7
 3967 0048 00000000 		.4byte	.LFB8
 3968 004c 08000000 		.4byte	.LFE8
 3969 0050 00000000 		.4byte	.LFB9
 3970 0054 08000000 		.4byte	.LFE9
 3971 0058 00000000 		.4byte	.LFB10
 3972 005c 40000000 		.4byte	.LFE10
 3973 0060 00000000 		.4byte	.LFB11
 3974 0064 40000000 		.4byte	.LFE11
 3975 0068 00000000 		.4byte	.LFB12
 3976 006c 24000000 		.4byte	.LFE12
 3977 0070 00000000 		.4byte	.LFB13
 3978 0074 28000000 		.4byte	.LFE13
 3979 0078 00000000 		.4byte	.LFB14
 3980 007c 28000000 		.4byte	.LFE14
 3981 0080 00000000 		.4byte	0
ARM GAS  /tmp/cc7cohkt.s 			page 72


 3982 0084 00000000 		.4byte	0
 3983              		.section	.debug_line,"",%progbits
 3984              	.Ldebug_line0:
 3985 0000 B5020000 		.section	.debug_str,"MS",%progbits,1
 3985      0200C600 
 3985      00000201 
 3985      FB0E0D00 
 3985      01010101 
 3986              	.LASF24:
 3987 0000 5457495F 		.ascii	"TWI_IER\000"
 3987      49455200 
 3988              	.LASF37:
 3989 0008 5457495F 		.ascii	"TWI_TNCR\000"
 3989      544E4352 
 3989      00
 3990              	.LASF69:
 3991 0011 5457495F 		.ascii	"TWI_WriteByte\000"
 3991      57726974 
 3991      65427974 
 3991      6500
 3992              	.LASF23:
 3993 001f 5457495F 		.ascii	"TWI_SR\000"
 3993      535200
 3994              	.LASF2:
 3995 0026 73686F72 		.ascii	"short int\000"
 3995      7420696E 
 3995      7400
 3996              	.LASF16:
 3997 0030 73697A65 		.ascii	"sizetype\000"
 3997      74797065 
 3997      00
 3998              	.LASF66:
 3999 0039 5457495F 		.ascii	"TWI_GetMaskedStatus\000"
 3999      4765744D 
 3999      61736B65 
 3999      64537461 
 3999      74757300 
 4000              	.LASF26:
 4001 004d 5457495F 		.ascii	"TWI_IMR\000"
 4001      494D5200 
 4002              	.LASF40:
 4003 0055 70547769 		.ascii	"pTwi\000"
 4003      00
 4004              	.LASF6:
 4005 005a 5F5F7569 		.ascii	"__uint32_t\000"
 4005      6E743332 
 4005      5F7400
 4006              	.LASF61:
 4007 0065 5457495F 		.ascii	"TWI_TransferComplete\000"
 4007      5472616E 
 4007      73666572 
 4007      436F6D70 
 4007      6C657465 
 4008              	.LASF73:
 4009 007a 2F686F6D 		.ascii	"/home/raparram/Escritorio/blinkSAM\000"
 4009      652F7261 
 4009      70617272 
ARM GAS  /tmp/cc7cohkt.s 			page 73


 4009      616D2F45 
 4009      73637269 
 4010              	.LASF71:
 4011 009d 474E5520 		.ascii	"GNU C 4.9.3 20150529 (prerelease) -mcpu=cortex-m3 -"
 4011      4320342E 
 4011      392E3320 
 4011      32303135 
 4011      30353239 
 4012 00d0 6D6E6F2D 		.ascii	"mno-thumb-interwork -mthumb -ggdb -O2 -std=gnu99 -f"
 4012      7468756D 
 4012      622D696E 
 4012      74657277 
 4012      6F726B20 
 4013 0103 6F6D6974 		.ascii	"omit-frame-pointer -falign-functions=16 -ffunction-"
 4013      2D667261 
 4013      6D652D70 
 4013      6F696E74 
 4013      6572202D 
 4014 0136 73656374 		.ascii	"sections -fdata-sections -fno-common\000"
 4014      696F6E73 
 4014      202D6664 
 4014      6174612D 
 4014      73656374 
 4015              	.LASF14:
 4016 015b 576F5265 		.ascii	"WoReg\000"
 4016      6700
 4017              	.LASF33:
 4018 0161 5457495F 		.ascii	"TWI_TCR\000"
 4018      54435200 
 4019              	.LASF22:
 4020 0169 52657365 		.ascii	"Reserved1\000"
 4020      72766564 
 4020      3100
 4021              	.LASF29:
 4022 0173 52657365 		.ascii	"Reserved2\000"
 4022      72766564 
 4022      3200
 4023              	.LASF11:
 4024 017d 75696E74 		.ascii	"uint8_t\000"
 4024      385F7400 
 4025              	.LASF55:
 4026 0185 69616464 		.ascii	"iaddress\000"
 4026      72657373 
 4026      00
 4027              	.LASF38:
 4028 018e 5457495F 		.ascii	"TWI_PTCR\000"
 4028      50544352 
 4028      00
 4029              	.LASF45:
 4030 0197 6477436B 		.ascii	"dwCkDiv\000"
 4030      44697600 
 4031              	.LASF64:
 4032 019f 5457495F 		.ascii	"TWI_DisableIt\000"
 4032      44697361 
 4032      626C6549 
 4032      7400
 4033              	.LASF46:
ARM GAS  /tmp/cc7cohkt.s 			page 74


 4034 01ad 6477436C 		.ascii	"dwClDiv\000"
 4034      44697600 
 4035              	.LASF8:
 4036 01b5 6C6F6E67 		.ascii	"long long int\000"
 4036      206C6F6E 
 4036      6720696E 
 4036      7400
 4037              	.LASF62:
 4038 01c3 5457495F 		.ascii	"TWI_EnableIt\000"
 4038      456E6162 
 4038      6C654974 
 4038      00
 4039              	.LASF44:
 4040 01d0 64774D43 		.ascii	"dwMCk\000"
 4040      6B00
 4041              	.LASF51:
 4042 01d6 736C6176 		.ascii	"slaveAddress\000"
 4042      65416464 
 4042      72657373 
 4042      00
 4043              	.LASF58:
 4044 01e3 5457495F 		.ascii	"TWI_ReadByte\000"
 4044      52656164 
 4044      42797465 
 4044      00
 4045              	.LASF65:
 4046 01f0 5457495F 		.ascii	"TWI_GetStatus\000"
 4046      47657453 
 4046      74617475 
 4046      7300
 4047              	.LASF4:
 4048 01fe 6C6F6E67 		.ascii	"long int\000"
 4048      20696E74 
 4048      00
 4049              	.LASF53:
 4050 0207 5457495F 		.ascii	"TWI_StartRead\000"
 4050      53746172 
 4050      74526561 
 4050      6400
 4051              	.LASF54:
 4052 0215 61646472 		.ascii	"address\000"
 4052      65737300 
 4053              	.LASF5:
 4054 021d 5F5F7569 		.ascii	"__uint8_t\000"
 4054      6E74385F 
 4054      7400
 4055              	.LASF31:
 4056 0227 5457495F 		.ascii	"TWI_RCR\000"
 4056      52435200 
 4057              	.LASF41:
 4058 022f 62797465 		.ascii	"byte\000"
 4058      00
 4059              	.LASF49:
 4060 0234 5457495F 		.ascii	"TWI_ConfigureMaster\000"
 4060      436F6E66 
 4060      69677572 
 4060      654D6173 
ARM GAS  /tmp/cc7cohkt.s 			page 75


 4060      74657200 
 4061              	.LASF13:
 4062 0248 526F5265 		.ascii	"RoReg\000"
 4062      6700
 4063              	.LASF1:
 4064 024e 756E7369 		.ascii	"unsigned char\000"
 4064      676E6564 
 4064      20636861 
 4064      7200
 4065              	.LASF56:
 4066 025c 6973697A 		.ascii	"isize\000"
 4066      6500
 4067              	.LASF36:
 4068 0262 5457495F 		.ascii	"TWI_TNPR\000"
 4068      544E5052 
 4068      00
 4069              	.LASF59:
 4070 026b 5457495F 		.ascii	"TWI_ByteReceived\000"
 4070      42797465 
 4070      52656365 
 4070      69766564 
 4070      00
 4071              	.LASF35:
 4072 027c 5457495F 		.ascii	"TWI_RNCR\000"
 4072      524E4352 
 4072      00
 4073              	.LASF15:
 4074 0285 52775265 		.ascii	"RwReg\000"
 4074      6700
 4075              	.LASF0:
 4076 028b 7369676E 		.ascii	"signed char\000"
 4076      65642063 
 4076      68617200 
 4077              	.LASF9:
 4078 0297 6C6F6E67 		.ascii	"long long unsigned int\000"
 4078      206C6F6E 
 4078      6720756E 
 4078      7369676E 
 4078      65642069 
 4079              	.LASF28:
 4080 02ae 5457495F 		.ascii	"TWI_THR\000"
 4080      54485200 
 4081              	.LASF12:
 4082 02b6 75696E74 		.ascii	"uint32_t\000"
 4082      33325F74 
 4082      00
 4083              	.LASF10:
 4084 02bf 756E7369 		.ascii	"unsigned int\000"
 4084      676E6564 
 4084      20696E74 
 4084      00
 4085              	.LASF39:
 4086 02cc 5457495F 		.ascii	"TWI_PTSR\000"
 4086      50545352 
 4086      00
 4087              	.LASF60:
 4088 02d5 5457495F 		.ascii	"TWI_ByteSent\000"
ARM GAS  /tmp/cc7cohkt.s 			page 76


 4088      42797465 
 4088      53656E74 
 4088      00
 4089              	.LASF3:
 4090 02e2 73686F72 		.ascii	"short unsigned int\000"
 4090      7420756E 
 4090      7369676E 
 4090      65642069 
 4090      6E7400
 4091              	.LASF67:
 4092 02f5 73746174 		.ascii	"status\000"
 4092      757300
 4093              	.LASF42:
 4094 02fc 63686172 		.ascii	"char\000"
 4094      00
 4095              	.LASF21:
 4096 0301 5457495F 		.ascii	"TWI_CWGR\000"
 4096      43574752 
 4096      00
 4097              	.LASF32:
 4098 030a 5457495F 		.ascii	"TWI_TPR\000"
 4098      54505200 
 4099              	.LASF18:
 4100 0312 5457495F 		.ascii	"TWI_MMR\000"
 4100      4D4D5200 
 4101              	.LASF48:
 4102 031a 5F5F6675 		.ascii	"__func__\000"
 4102      6E635F5F 
 4102      00
 4103              	.LASF25:
 4104 0323 5457495F 		.ascii	"TWI_IDR\000"
 4104      49445200 
 4105              	.LASF7:
 4106 032b 6C6F6E67 		.ascii	"long unsigned int\000"
 4106      20756E73 
 4106      69676E65 
 4106      6420696E 
 4106      7400
 4107              	.LASF52:
 4108 033d 5457495F 		.ascii	"TWI_Stop\000"
 4108      53746F70 
 4108      00
 4109              	.LASF27:
 4110 0346 5457495F 		.ascii	"TWI_RHR\000"
 4110      52485200 
 4111              	.LASF63:
 4112 034e 736F7572 		.ascii	"sources\000"
 4112      63657300 
 4113              	.LASF72:
 4114 0356 43686962 		.ascii	"ChibiOS//os/hal/platforms/AT91SAM3S/atmel_twi.c\000"
 4114      694F532F 
 4114      2F6F732F 
 4114      68616C2F 
 4114      706C6174 
 4115              	.LASF47:
 4116 0386 64774F6B 		.ascii	"dwOk\000"
 4116      00
ARM GAS  /tmp/cc7cohkt.s 			page 77


 4117              	.LASF43:
 4118 038b 64775477 		.ascii	"dwTwCk\000"
 4118      436B00
 4119              	.LASF17:
 4120 0392 5457495F 		.ascii	"TWI_CR\000"
 4120      435200
 4121              	.LASF57:
 4122 0399 5457495F 		.ascii	"TWI_StartWrite\000"
 4122      53746172 
 4122      74577269 
 4122      746500
 4123              	.LASF30:
 4124 03a8 5457495F 		.ascii	"TWI_RPR\000"
 4124      52505200 
 4125              	.LASF70:
 4126 03b0 5F5F6173 		.ascii	"__assert_func\000"
 4126      73657274 
 4126      5F66756E 
 4126      6300
 4127              	.LASF68:
 4128 03be 5457495F 		.ascii	"TWI_SendSTOPCondition\000"
 4128      53656E64 
 4128      53544F50 
 4128      436F6E64 
 4128      6974696F 
 4129              	.LASF20:
 4130 03d4 5457495F 		.ascii	"TWI_IADR\000"
 4130      49414452 
 4130      00
 4131              	.LASF34:
 4132 03dd 5457495F 		.ascii	"TWI_RNPR\000"
 4132      524E5052 
 4132      00
 4133              	.LASF19:
 4134 03e6 5457495F 		.ascii	"TWI_SMR\000"
 4134      534D5200 
 4135              	.LASF50:
 4136 03ee 5457495F 		.ascii	"TWI_ConfigureSlave\000"
 4136      436F6E66 
 4136      69677572 
 4136      65536C61 
 4136      766500
 4137              		.ident	"GCC: (15:4.9.3+svn231177-1) 4.9.3 20150529 (prerelease)"
ARM GAS  /tmp/cc7cohkt.s 			page 78


DEFINED SYMBOLS
                            *ABS*:0000000000000000 atmel_twi.c
     /tmp/cc7cohkt.s:19     .text.unlikely.TWI_WriteByte.part.0:0000000000000000 $t
     /tmp/cc7cohkt.s:23     .text.unlikely.TWI_WriteByte.part.0:0000000000000000 TWI_WriteByte.part.0
     /tmp/cc7cohkt.s:46     .text.unlikely.TWI_WriteByte.part.0:0000000000000010 $d
     /tmp/cc7cohkt.s:53     .text.TWI_ConfigureMaster:0000000000000000 $t
     /tmp/cc7cohkt.s:59     .text.TWI_ConfigureMaster:0000000000000000 TWI_ConfigureMaster
     /tmp/cc7cohkt.s:162    .text.TWI_ConfigureMaster:0000000000000064 $d
     /tmp/cc7cohkt.s:170    .text.TWI_ConfigureSlave:0000000000000000 $t
     /tmp/cc7cohkt.s:176    .text.TWI_ConfigureSlave:0000000000000000 TWI_ConfigureSlave
     /tmp/cc7cohkt.s:231    .text.TWI_ConfigureSlave:0000000000000030 $d
     /tmp/cc7cohkt.s:238    .text.TWI_Stop:0000000000000000 $t
     /tmp/cc7cohkt.s:244    .text.TWI_Stop:0000000000000000 TWI_Stop
     /tmp/cc7cohkt.s:273    .text.TWI_Stop:0000000000000018 $d
     /tmp/cc7cohkt.s:280    .text.TWI_StartRead:0000000000000000 $t
     /tmp/cc7cohkt.s:286    .text.TWI_StartRead:0000000000000000 TWI_StartRead
     /tmp/cc7cohkt.s:379    .text.TWI_StartRead:000000000000005c $d
     /tmp/cc7cohkt.s:389    .text.TWI_ReadByte:0000000000000000 $t
     /tmp/cc7cohkt.s:395    .text.TWI_ReadByte:0000000000000000 TWI_ReadByte
     /tmp/cc7cohkt.s:428    .text.TWI_ReadByte:0000000000000018 $d
     /tmp/cc7cohkt.s:435    .text.TWI_WriteByte:0000000000000000 $t
     /tmp/cc7cohkt.s:441    .text.TWI_WriteByte:0000000000000000 TWI_WriteByte
     /tmp/cc7cohkt.s:465    .text.TWI_StartWrite:0000000000000000 $t
     /tmp/cc7cohkt.s:471    .text.TWI_StartWrite:0000000000000000 TWI_StartWrite
     /tmp/cc7cohkt.s:571    .text.TWI_StartWrite:0000000000000060 $d
     /tmp/cc7cohkt.s:581    .text.TWI_ByteReceived:0000000000000000 $t
     /tmp/cc7cohkt.s:587    .text.TWI_ByteReceived:0000000000000000 TWI_ByteReceived
     /tmp/cc7cohkt.s:605    .text.TWI_ByteSent:0000000000000000 $t
     /tmp/cc7cohkt.s:611    .text.TWI_ByteSent:0000000000000000 TWI_ByteSent
     /tmp/cc7cohkt.s:629    .text.TWI_TransferComplete:0000000000000000 $t
     /tmp/cc7cohkt.s:635    .text.TWI_TransferComplete:0000000000000000 TWI_TransferComplete
     /tmp/cc7cohkt.s:653    .text.TWI_EnableIt:0000000000000000 $t
     /tmp/cc7cohkt.s:659    .text.TWI_EnableIt:0000000000000000 TWI_EnableIt
     /tmp/cc7cohkt.s:702    .text.TWI_EnableIt:0000000000000030 $d
     /tmp/cc7cohkt.s:710    .text.TWI_DisableIt:0000000000000000 $t
     /tmp/cc7cohkt.s:716    .text.TWI_DisableIt:0000000000000000 TWI_DisableIt
     /tmp/cc7cohkt.s:759    .text.TWI_DisableIt:0000000000000030 $d
     /tmp/cc7cohkt.s:767    .text.TWI_GetStatus:0000000000000000 $t
     /tmp/cc7cohkt.s:773    .text.TWI_GetStatus:0000000000000000 TWI_GetStatus
     /tmp/cc7cohkt.s:805    .text.TWI_GetStatus:0000000000000018 $d
     /tmp/cc7cohkt.s:812    .text.TWI_GetMaskedStatus:0000000000000000 $t
     /tmp/cc7cohkt.s:818    .text.TWI_GetMaskedStatus:0000000000000000 TWI_GetMaskedStatus
     /tmp/cc7cohkt.s:854    .text.TWI_GetMaskedStatus:000000000000001c $d
     /tmp/cc7cohkt.s:861    .text.TWI_SendSTOPCondition:0000000000000000 $t
     /tmp/cc7cohkt.s:867    .text.TWI_SendSTOPCondition:0000000000000000 TWI_SendSTOPCondition
     /tmp/cc7cohkt.s:897    .text.TWI_SendSTOPCondition:000000000000001c $d
     /tmp/cc7cohkt.s:904    .rodata.__func__.4883:0000000000000000 $d
     /tmp/cc7cohkt.s:908    .rodata.__func__.4883:0000000000000000 __func__.4883
     /tmp/cc7cohkt.s:911    .rodata.__func__.4915:0000000000000000 $d
     /tmp/cc7cohkt.s:915    .rodata.__func__.4915:0000000000000000 __func__.4915
     /tmp/cc7cohkt.s:918    .rodata.__func__.4911:0000000000000000 $d
     /tmp/cc7cohkt.s:922    .rodata.__func__.4911:0000000000000000 __func__.4911
     /tmp/cc7cohkt.s:925    .rodata.__func__.4840:0000000000000000 $d
     /tmp/cc7cohkt.s:929    .rodata.__func__.4840:0000000000000000 __func__.4840
     /tmp/cc7cohkt.s:932    .rodata.__func__.4897:0000000000000000 $d
     /tmp/cc7cohkt.s:936    .rodata.__func__.4897:0000000000000000 __func__.4897
     /tmp/cc7cohkt.s:939    .rodata.__func__.4902:0000000000000000 $d
ARM GAS  /tmp/cc7cohkt.s 			page 79


     /tmp/cc7cohkt.s:943    .rodata.__func__.4902:0000000000000000 __func__.4902
     /tmp/cc7cohkt.s:946    .rodata.str1.4:0000000000000000 $d
     /tmp/cc7cohkt.s:972    .rodata.__func__.4855:0000000000000000 $d
     /tmp/cc7cohkt.s:976    .rodata.__func__.4855:0000000000000000 __func__.4855
     /tmp/cc7cohkt.s:979    .rodata.__func__.4906:0000000000000000 $d
     /tmp/cc7cohkt.s:983    .rodata.__func__.4906:0000000000000000 __func__.4906
     /tmp/cc7cohkt.s:986    .rodata.__func__.4859:0000000000000000 $d
     /tmp/cc7cohkt.s:990    .rodata.__func__.4859:0000000000000000 __func__.4859
     /tmp/cc7cohkt.s:993    .rodata.__func__.4870:0000000000000000 $d
     /tmp/cc7cohkt.s:997    .rodata.__func__.4870:0000000000000000 __func__.4870
     /tmp/cc7cohkt.s:1000   .rodata.__func__.4866:0000000000000000 $d
     /tmp/cc7cohkt.s:1004   .rodata.__func__.4866:0000000000000000 __func__.4866
     /tmp/cc7cohkt.s:1007   .rodata.__func__.4875:0000000000000000 $d
     /tmp/cc7cohkt.s:1011   .rodata.__func__.4875:0000000000000000 __func__.4875
                     .debug_frame:0000000000000010 $d

UNDEFINED SYMBOLS
__assert_func
