ARM GAS  /tmp/ccOcrNIh.s 			page 1


   1              		.syntax unified
   2              		.cpu cortex-m3
   3              		.fpu softvfp
   4              		.eabi_attribute 20, 1
   5              		.eabi_attribute 21, 1
   6              		.eabi_attribute 23, 3
   7              		.eabi_attribute 24, 1
   8              		.eabi_attribute 25, 1
   9              		.eabi_attribute 26, 1
  10              		.eabi_attribute 30, 2
  11              		.eabi_attribute 34, 1
  12              		.eabi_attribute 18, 4
  13              		.thumb
  14              		.file	"atmel_adc.c"
  15              		.text
  16              	.Ltext0:
  17              		.cfi_sections	.debug_frame
  18              		.section	.text.calcul_startup,"ax",%progbits
  19              		.align	2
  20              		.p2align 4,,15
  21              		.thumb
  22              		.thumb_func
  23              		.type	calcul_startup, %function
  24              	calcul_startup:
  25              	.LFB43:
  26              		.file 1 "../../os/hal/platforms/AT91SAM3S/atmel_adc.c"
  27              		.loc 1 133 0
  28              		.cfi_startproc
  29              		@ args = 0, pretend = 0, frame = 0
  30              		@ frame_needed = 0, uses_anonymous_args = 0
  31              		@ link register save eliminated.
  32              	.LVL0:
  33              		.loc 1 136 0
  34 0000 18B3     		cbz	r0, .L2
  35              		.loc 1 138 0
  36 0002 0128     		cmp	r0, #1
  37 0004 22D0     		beq	.L5
  38              		.loc 1 140 0
  39 0006 0228     		cmp	r0, #2
  40 0008 22D0     		beq	.L6
  41              		.loc 1 142 0
  42 000a 0328     		cmp	r0, #3
  43 000c 22D0     		beq	.L7
  44              		.loc 1 144 0
  45 000e 0428     		cmp	r0, #4
  46 0010 24D0     		beq	.L8
  47              		.loc 1 146 0
  48 0012 0528     		cmp	r0, #5
  49 0014 20D0     		beq	.L9
  50              		.loc 1 148 0
  51 0016 0628     		cmp	r0, #6
  52 0018 22D0     		beq	.L10
  53              		.loc 1 150 0
  54 001a 0728     		cmp	r0, #7
  55 001c 22D0     		beq	.L11
  56              		.loc 1 152 0
  57 001e 0828     		cmp	r0, #8
ARM GAS  /tmp/ccOcrNIh.s 			page 2


  58 0020 22D0     		beq	.L12
  59              		.loc 1 154 0
  60 0022 0928     		cmp	r0, #9
  61 0024 23D0     		beq	.L13
  62              		.loc 1 156 0
  63 0026 0A28     		cmp	r0, #10
  64 0028 24D0     		beq	.L14
  65              		.loc 1 158 0
  66 002a 0B28     		cmp	r0, #11
  67 002c 25D0     		beq	.L15
  68              		.loc 1 160 0
  69 002e 0C28     		cmp	r0, #12
  70 0030 26D0     		beq	.L16
  71              		.loc 1 162 0
  72 0032 0D28     		cmp	r0, #13
  73 0034 07D0     		beq	.L17
  74              	.LVL1:
  75              	.LBB4:
  76              	.LBB5:
  77              		.loc 1 164 0
  78 0036 0E28     		cmp	r0, #14
  79 0038 25D0     		beq	.L18
  80              		.loc 1 166 0
  81 003a 0F28     		cmp	r0, #15
  82              		.loc 1 134 0
  83 003c 0CBF     		ite	eq
  84 003e 4FF47070 		moveq	r0, #960
  85 0042 0020     		movne	r0, #0
  86              	.LVL2:
  87 0044 7047     		bx	lr
  88              	.LVL3:
  89              	.L17:
  90              	.LBE5:
  91              	.LBE4:
  92              		.loc 1 163 0
  93 0046 4FF45070 		mov	r0, #832
  94              	.LVL4:
  95              	.L2:
  96              		.loc 1 170 0
  97 004a 7047     		bx	lr
  98              	.LVL5:
  99              	.L5:
 100              		.loc 1 139 0
 101 004c 0820     		movs	r0, #8
 102              	.LVL6:
 103 004e 7047     		bx	lr
 104              	.LVL7:
 105              	.L6:
 106              		.loc 1 141 0
 107 0050 1020     		movs	r0, #16
 108              	.LVL8:
 109 0052 7047     		bx	lr
 110              	.LVL9:
 111              	.L7:
 112              		.loc 1 143 0
 113 0054 1820     		movs	r0, #24
 114              	.LVL10:
ARM GAS  /tmp/ccOcrNIh.s 			page 3


 115 0056 7047     		bx	lr
 116              	.LVL11:
 117              	.L9:
 118              		.loc 1 147 0
 119 0058 5020     		movs	r0, #80
 120              	.LVL12:
 121 005a 7047     		bx	lr
 122              	.LVL13:
 123              	.L8:
 124              		.loc 1 145 0
 125 005c 4020     		movs	r0, #64
 126              	.LVL14:
 127 005e 7047     		bx	lr
 128              	.LVL15:
 129              	.L10:
 130              		.loc 1 149 0
 131 0060 6020     		movs	r0, #96
 132              	.LVL16:
 133 0062 7047     		bx	lr
 134              	.LVL17:
 135              	.L11:
 136              		.loc 1 151 0
 137 0064 7020     		movs	r0, #112
 138              	.LVL18:
 139 0066 7047     		bx	lr
 140              	.LVL19:
 141              	.L12:
 142              		.loc 1 153 0
 143 0068 4FF40070 		mov	r0, #512
 144              	.LVL20:
 145 006c 7047     		bx	lr
 146              	.LVL21:
 147              	.L13:
 148              		.loc 1 155 0
 149 006e 4FF41070 		mov	r0, #576
 150              	.LVL22:
 151 0072 7047     		bx	lr
 152              	.LVL23:
 153              	.L14:
 154              		.loc 1 157 0
 155 0074 4FF42070 		mov	r0, #640
 156              	.LVL24:
 157 0078 7047     		bx	lr
 158              	.LVL25:
 159              	.L15:
 160              		.loc 1 159 0
 161 007a 4FF43070 		mov	r0, #704
 162              	.LVL26:
 163 007e 7047     		bx	lr
 164              	.LVL27:
 165              	.L16:
 166              		.loc 1 161 0
 167 0080 4FF44070 		mov	r0, #768
 168              	.LVL28:
 169 0084 7047     		bx	lr
 170              	.LVL29:
 171              	.L18:
ARM GAS  /tmp/ccOcrNIh.s 			page 4


 172              	.LBB7:
 173              	.LBB6:
 174              		.loc 1 165 0
 175 0086 4FF46070 		mov	r0, #896
 176              	.LVL30:
 177 008a 7047     		bx	lr
 178              	.LBE6:
 179              	.LBE7:
 180              		.cfi_endproc
 181              	.LFE43:
 182              		.size	calcul_startup, .-calcul_startup
 183 008c AFF30080 		.section	.text.ADC_Initialize,"ax",%progbits
 184              		.align	2
 185              		.p2align 4,,15
 186              		.global	ADC_Initialize
 187              		.thumb
 188              		.thumb_func
 189              		.type	ADC_Initialize, %function
 190              	ADC_Initialize:
 191              	.LFB36:
 192              		.loc 1 62 0
 193              		.cfi_startproc
 194              		@ args = 0, pretend = 0, frame = 0
 195              		@ frame_needed = 0, uses_anonymous_args = 0
 196              		@ link register save eliminated.
 197              	.LVL31:
 198 0000 70B4     		push	{r4, r5, r6}
 199              		.cfi_def_cfa_offset 12
 200              		.cfi_offset 4, -12
 201              		.cfi_offset 5, -8
 202              		.cfi_offset 6, -4
 203              		.loc 1 64 0
 204 0002 084B     		ldr	r3, .L22
 205 0004 0849     		ldr	r1, .L22+4
 206              		.loc 1 66 0
 207 0006 094A     		ldr	r2, .L22+8
 208              		.loc 1 65 0
 209 0008 4FF00056 		mov	r6, #536870912
 210              		.loc 1 69 0
 211 000c 0125     		movs	r5, #1
 212              		.loc 1 73 0
 213 000e 0024     		movs	r4, #0
 214              		.loc 1 64 0
 215 0010 C3F8E410 		str	r1, [r3, #228]
 216              		.loc 1 65 0
 217 0014 1E61     		str	r6, [r3, #16]
 218              		.loc 1 66 0
 219 0016 C3F8E420 		str	r2, [r3, #228]
 220              		.loc 1 69 0
 221 001a 0560     		str	r5, [r0]
 222              		.loc 1 73 0
 223 001c 4460     		str	r4, [r0, #4]
 224              		.loc 1 74 0
 225 001e 70BC     		pop	{r4, r5, r6}
 226 0020 7047     		bx	lr
 227              	.L23:
 228 0022 00BF     		.align	2
ARM GAS  /tmp/ccOcrNIh.s 			page 5


 229              	.L22:
 230 0024 00040E40 		.word	1074660352
 231 0028 00434D50 		.word	1347240704
 232 002c 01434D50 		.word	1347240705
 233              		.cfi_endproc
 234              	.LFE36:
 235              		.size	ADC_Initialize, .-ADC_Initialize
 236              		.section	.text.ADC_CfgTiming,"ax",%progbits
 237              		.align	2
 238              		.p2align 4,,15
 239              		.global	ADC_CfgTiming
 240              		.thumb
 241              		.thumb_func
 242              		.type	ADC_CfgTiming, %function
 243              	ADC_CfgTiming:
 244              	.LFB37:
 245              		.loc 1 80 0
 246              		.cfi_startproc
 247              		@ args = 0, pretend = 0, frame = 0
 248              		@ frame_needed = 0, uses_anonymous_args = 0
 249              		@ link register save eliminated.
 250              	.LVL32:
 251              		.loc 1 81 0
 252 0000 0906     		lsls	r1, r1, #24
 253              	.LVL33:
 254 0002 01F07061 		and	r1, r1, #251658240
 255 0006 4160     		str	r1, [r0, #4]
 256 0008 7047     		bx	lr
 257              		.cfi_endproc
 258              	.LFE37:
 259              		.size	ADC_CfgTiming, .-ADC_CfgTiming
 260 000a 00BFAFF3 		.section	.text.ADC_cfgFrequency,"ax",%progbits
 260      0080
 261              		.align	2
 262              		.p2align 4,,15
 263              		.global	ADC_cfgFrequency
 264              		.thumb
 265              		.thumb_func
 266              		.type	ADC_cfgFrequency, %function
 267              	ADC_cfgFrequency:
 268              	.LFB38:
 269              		.loc 1 88 0
 270              		.cfi_startproc
 271              		@ args = 0, pretend = 0, frame = 0
 272              		@ frame_needed = 0, uses_anonymous_args = 0
 273              		@ link register save eliminated.
 274              	.LVL34:
 275              		.loc 1 89 0
 276 0000 4368     		ldr	r3, [r0, #4]
 277              		.loc 1 90 0
 278 0002 0904     		lsls	r1, r1, #16
 279              	.LVL35:
 280 0004 01F47021 		and	r1, r1, #983040
 281              		.loc 1 89 0
 282 0008 1202     		lsls	r2, r2, #8
 283              	.LVL36:
 284 000a 92B2     		uxth	r2, r2
ARM GAS  /tmp/ccOcrNIh.s 			page 6


 285              		.loc 1 90 0
 286 000c 0B43     		orrs	r3, r3, r1
 287              		.loc 1 89 0
 288 000e 1343     		orrs	r3, r3, r2
 289 0010 4360     		str	r3, [r0, #4]
 290 0012 7047     		bx	lr
 291              		.cfi_endproc
 292              	.LFE38:
 293              		.size	ADC_cfgFrequency, .-ADC_cfgFrequency
 294 0014 AFF30080 		.section	.text.ADC_CfgTrigering,"ax",%progbits
 294      AFF30080 
 294      AFF30080 
 295              		.align	2
 296              		.p2align 4,,15
 297              		.global	ADC_CfgTrigering
 298              		.thumb
 299              		.thumb_func
 300              		.type	ADC_CfgTrigering, %function
 301              	ADC_CfgTrigering:
 302              	.LFB39:
 303              		.loc 1 97 0
 304              		.cfi_startproc
 305              		@ args = 0, pretend = 0, frame = 0
 306              		@ frame_needed = 0, uses_anonymous_args = 0
 307              		@ link register save eliminated.
 308              	.LVL37:
 309 0000 10B4     		push	{r4}
 310              		.cfi_def_cfa_offset 4
 311              		.cfi_offset 4, -4
 312              		.loc 1 100 0
 313 0002 DB01     		lsls	r3, r3, #7
 314              	.LVL38:
 315              		.loc 1 98 0
 316 0004 4468     		ldr	r4, [r0, #4]
 317              		.loc 1 100 0
 318 0006 DBB2     		uxtb	r3, r3
 319              		.loc 1 99 0
 320 0008 1C43     		orrs	r4, r4, r3
 321              		.loc 1 98 0
 322 000a 01F00101 		and	r1, r1, #1
 323              	.LVL39:
 324              		.loc 1 99 0
 325 000e 5200     		lsls	r2, r2, #1
 326              	.LVL40:
 327              		.loc 1 100 0
 328 0010 2143     		orrs	r1, r1, r4
 329              		.loc 1 99 0
 330 0012 02F00E02 		and	r2, r2, #14
 331              		.loc 1 98 0
 332 0016 1143     		orrs	r1, r1, r2
 333 0018 4160     		str	r1, [r0, #4]
 334              		.loc 1 101 0
 335 001a 5DF8044B 		ldr	r4, [sp], #4
 336 001e 7047     		bx	lr
 337              		.cfi_endproc
 338              	.LFE39:
 339              		.size	ADC_CfgTrigering, .-ADC_CfgTrigering
ARM GAS  /tmp/ccOcrNIh.s 			page 7


 340              		.section	.text.ADC_CfgLowRes,"ax",%progbits
 341              		.align	2
 342              		.p2align 4,,15
 343              		.global	ADC_CfgLowRes
 344              		.thumb
 345              		.thumb_func
 346              		.type	ADC_CfgLowRes, %function
 347              	ADC_CfgLowRes:
 348              	.LFB40:
 349              		.loc 1 107 0
 350              		.cfi_startproc
 351              		@ args = 0, pretend = 0, frame = 0
 352              		@ frame_needed = 0, uses_anonymous_args = 0
 353              		@ link register save eliminated.
 354              	.LVL41:
 355              		.loc 1 108 0
 356 0000 4268     		ldr	r2, [r0, #4]
 357 0002 0901     		lsls	r1, r1, #4
 358              	.LVL42:
 359 0004 01F01003 		and	r3, r1, #16
 360 0008 1343     		orrs	r3, r3, r2
 361 000a 4360     		str	r3, [r0, #4]
 362 000c 7047     		bx	lr
 363              		.cfi_endproc
 364              	.LFE40:
 365              		.size	ADC_CfgLowRes, .-ADC_CfgLowRes
 366 000e 00BF     		.section	.text.ADC_CfgPowerSave,"ax",%progbits
 367              		.align	2
 368              		.p2align 4,,15
 369              		.global	ADC_CfgPowerSave
 370              		.thumb
 371              		.thumb_func
 372              		.type	ADC_CfgPowerSave, %function
 373              	ADC_CfgPowerSave:
 374              	.LFB41:
 375              		.loc 1 115 0
 376              		.cfi_startproc
 377              		@ args = 0, pretend = 0, frame = 0
 378              		@ frame_needed = 0, uses_anonymous_args = 0
 379              		@ link register save eliminated.
 380              	.LVL43:
 381              		.loc 1 116 0
 382 0000 4368     		ldr	r3, [r0, #4]
 383              		.loc 1 117 0
 384 0002 9201     		lsls	r2, r2, #6
 385              	.LVL44:
 386 0004 02F04002 		and	r2, r2, #64
 387              		.loc 1 116 0
 388 0008 4901     		lsls	r1, r1, #5
 389              	.LVL45:
 390 000a 01F02001 		and	r1, r1, #32
 391              		.loc 1 117 0
 392 000e 1343     		orrs	r3, r3, r2
 393              		.loc 1 116 0
 394 0010 0B43     		orrs	r3, r3, r1
 395 0012 4360     		str	r3, [r0, #4]
 396 0014 7047     		bx	lr
ARM GAS  /tmp/ccOcrNIh.s 			page 8


 397              		.cfi_endproc
 398              	.LFE41:
 399              		.size	ADC_CfgPowerSave, .-ADC_CfgPowerSave
 400 0016 00BFAFF3 		.section	.text.ADC_CfgChannelMode,"ax",%progbits
 400      0080AFF3 
 400      0080
 401              		.align	2
 402              		.p2align 4,,15
 403              		.global	ADC_CfgChannelMode
 404              		.thumb
 405              		.thumb_func
 406              		.type	ADC_CfgChannelMode, %function
 407              	ADC_CfgChannelMode:
 408              	.LFB42:
 409              		.loc 1 124 0
 410              		.cfi_startproc
 411              		@ args = 0, pretend = 0, frame = 0
 412              		@ frame_needed = 0, uses_anonymous_args = 0
 413              		@ link register save eliminated.
 414              	.LVL46:
 415              		.loc 1 125 0
 416 0000 4368     		ldr	r3, [r0, #4]
 417 0002 43EAC171 		orr	r1, r3, r1, lsl #31
 418              	.LVL47:
 419 0006 4160     		str	r1, [r0, #4]
 420 0008 7047     		bx	lr
 421              		.cfi_endproc
 422              	.LFE42:
 423              		.size	ADC_CfgChannelMode, .-ADC_CfgChannelMode
 424              		.section	.text.ADC_check,"ax",%progbits
 425              		.align	2
 426              		.p2align 4,,15
 427              		.global	ADC_check
 428              		.thumb
 429              		.thumb_func
 430              		.type	ADC_check, %function
 431              	ADC_check:
 432              	.LFB44:
 433              		.loc 1 176 0
 434              		.cfi_startproc
 435              		@ args = 0, pretend = 0, frame = 0
 436              		@ frame_needed = 0, uses_anonymous_args = 0
 437              	.LVL48:
 438 0000 70B5     		push	{r4, r5, r6, lr}
 439              		.cfi_def_cfa_offset 16
 440              		.cfi_offset 4, -16
 441              		.cfi_offset 5, -12
 442              		.cfi_offset 6, -8
 443              		.cfi_offset 14, -4
 444              		.loc 1 182 0
 445 0002 4468     		ldr	r4, [r0, #4]
 446              	.LVL49:
 447              		.loc 1 176 0
 448 0004 0546     		mov	r5, r0
 449              		.loc 1 182 0
 450 0006 C4F30724 		ubfx	r4, r4, #8, #8
 451              	.LVL50:
ARM GAS  /tmp/ccOcrNIh.s 			page 9


 452              		.loc 1 183 0
 453 000a 0134     		adds	r4, r4, #1
 454 000c 6400     		lsls	r4, r4, #1
 455 000e B1FBF4F4 		udiv	r4, r1, r4
 456              	.LVL51:
 457              		.loc 1 184 0
 458 0012 3348     		ldr	r0, .L53
 459              	.LVL52:
 460 0014 2246     		mov	r2, r4
 461 0016 3349     		ldr	r1, .L53+4
 462              	.LVL53:
 463 0018 FFF7FEFF 		bl	chprintf
 464              	.LVL54:
 465              		.loc 1 186 0
 466 001c 002C     		cmp	r4, #0
 467 001e 50D0     		beq	.L48
 468              		.loc 1 190 0
 469 0020 314A     		ldr	r2, .L53+8
 470 0022 9442     		cmp	r4, r2
 471 0024 2CD8     		bhi	.L49
 472              	.L32:
 473              		.loc 1 195 0
 474 0026 6868     		ldr	r0, [r5, #4]
 475              		.loc 1 196 0
 476 0028 6B68     		ldr	r3, [r5, #4]
 477              		.loc 1 195 0
 478 002a C0F30346 		ubfx	r6, r0, #16, #4
 479              	.LVL55:
 480              		.loc 1 196 0
 481 002e 9806     		lsls	r0, r3, #26
 482 0030 0CD4     		bmi	.L33
 483              		.loc 1 199 0
 484 0032 2E4B     		ldr	r3, .L53+12
 485 0034 04EB8404 		add	r4, r4, r4, lsl #2
 486              	.LVL56:
 487 0038 E400     		lsls	r4, r4, #3
 488              		.loc 1 213 0
 489 003a 3046     		mov	r0, r6
 490              		.loc 1 199 0
 491 003c A3FB0414 		umull	r1, r4, r3, r4
 492              		.loc 1 213 0
 493 0040 FFF7FEFF 		bl	calcul_startup
 494              	.LVL57:
 495 0044 A40C     		lsrs	r4, r4, #18
 496 0046 8442     		cmp	r4, r0
 497 0048 12D8     		bhi	.L50
 498              	.L30:
 499 004a 70BD     		pop	{r4, r5, r6, pc}
 500              	.LVL58:
 501              	.L33:
 502              		.loc 1 206 0
 503 004c 6B68     		ldr	r3, [r5, #4]
 504 004e 1906     		lsls	r1, r3, #24
 505 0050 3DD4     		bmi	.L51
 506              		.loc 1 210 0
 507 0052 6B68     		ldr	r3, [r5, #4]
 508 0054 5A06     		lsls	r2, r3, #25
ARM GAS  /tmp/ccOcrNIh.s 			page 10


 509 0056 18D4     		bmi	.L37
 510              	.L52:
 511              		.loc 1 213 0
 512 0058 244B     		ldr	r3, .L53+12
 513 005a 04EB8404 		add	r4, r4, r4, lsl #2
 514              	.LVL59:
 515 005e E400     		lsls	r4, r4, #3
 516 0060 3046     		mov	r0, r6
 517 0062 A3FB0424 		umull	r2, r4, r3, r4
 518 0066 FFF7FEFF 		bl	calcul_startup
 519              	.LVL60:
 520 006a A40C     		lsrs	r4, r4, #18
 521 006c 8442     		cmp	r4, r0
 522 006e ECD9     		bls	.L30
 523              	.L50:
 524              		.loc 1 215 0
 525 0070 2246     		mov	r2, r4
 526 0072 0346     		mov	r3, r0
 527 0074 1E49     		ldr	r1, .L53+16
 528 0076 1A48     		ldr	r0, .L53
 529              		.loc 1 234 0
 530 0078 BDE87040 		pop	{r4, r5, r6, lr}
 531              	.LVL61:
 532              		.loc 1 215 0
 533 007c FFF7FEBF 		b	chprintf
 534              	.LVL62:
 535              	.L49:
 536              		.loc 1 192 0
 537 0080 1748     		ldr	r0, .L53
 538 0082 1C49     		ldr	r1, .L53+20
 539 0084 FFF7FEFF 		bl	chprintf
 540              	.LVL63:
 541 0088 CDE7     		b	.L32
 542              	.LVL64:
 543              	.L37:
 544              		.loc 1 220 0
 545 008a 6B68     		ldr	r3, [r5, #4]
 546 008c 5B06     		lsls	r3, r3, #25
 547 008e DCD5     		bpl	.L30
 548              		.loc 1 223 0
 549 0090 3046     		mov	r0, r6
 550 0092 FFF7FEFF 		bl	calcul_startup
 551              	.LVL65:
 552 0096 04EB4402 		add	r2, r4, r4, lsl #1
 553 009a 144B     		ldr	r3, .L53+12
 554 009c 9200     		lsls	r2, r2, #2
 555 009e A3FB0212 		umull	r1, r2, r3, r2
 556 00a2 B0EB924F 		cmp	r0, r2, lsr #18
 557 00a6 D0D2     		bcs	.L30
 558              		.loc 1 225 0
 559 00a8 04EB8404 		add	r4, r4, r4, lsl #2
 560              	.LVL66:
 561 00ac E200     		lsls	r2, r4, #3
 562 00ae A3FB0212 		umull	r1, r2, r3, r2
 563              		.loc 1 234 0
 564 00b2 BDE87040 		pop	{r4, r5, r6, lr}
 565              	.LVL67:
ARM GAS  /tmp/ccOcrNIh.s 			page 11


 566              		.loc 1 225 0
 567 00b6 0346     		mov	r3, r0
 568 00b8 920C     		lsrs	r2, r2, #18
 569 00ba 0948     		ldr	r0, .L53
 570 00bc 0C49     		ldr	r1, .L53+16
 571 00be FFF7FEBF 		b	chprintf
 572              	.LVL68:
 573              	.L48:
 574              		.loc 1 188 0
 575 00c2 0748     		ldr	r0, .L53
 576 00c4 0C49     		ldr	r1, .L53+24
 577 00c6 0122     		movs	r2, #1
 578 00c8 FFF7FEFF 		bl	chprintf
 579              	.LVL69:
 580 00cc ABE7     		b	.L32
 581              	.LVL70:
 582              	.L51:
 583              		.loc 1 208 0
 584 00ce 0448     		ldr	r0, .L53
 585 00d0 0A49     		ldr	r1, .L53+28
 586 00d2 FFF7FEFF 		bl	chprintf
 587              	.LVL71:
 588              		.loc 1 210 0
 589 00d6 6B68     		ldr	r3, [r5, #4]
 590 00d8 5A06     		lsls	r2, r3, #25
 591 00da D6D4     		bmi	.L37
 592 00dc BCE7     		b	.L52
 593              	.L54:
 594 00de 00BF     		.align	2
 595              	.L53:
 596 00e0 00000000 		.word	SD2
 597 00e4 00000000 		.word	.LC0
 598 00e8 00127A00 		.word	8000000
 599 00ec 83DE1B43 		.word	1125899907
 600 00f0 90000000 		.word	.LC3
 601 00f4 58000000 		.word	.LC2
 602 00f8 20000000 		.word	.LC1
 603 00fc C0000000 		.word	.LC4
 604              		.cfi_endproc
 605              	.LFE44:
 606              		.size	ADC_check, .-ADC_check
 607              		.section	.text.ADC_GetConvertedData,"ax",%progbits
 608              		.align	2
 609              		.p2align 4,,15
 610              		.global	ADC_GetConvertedData
 611              		.thumb
 612              		.thumb_func
 613              		.type	ADC_GetConvertedData, %function
 614              	ADC_GetConvertedData:
 615              	.LFB45:
 616              		.loc 1 245 0
 617              		.cfi_startproc
 618              		@ args = 0, pretend = 0, frame = 0
 619              		@ frame_needed = 0, uses_anonymous_args = 0
 620              		@ link register save eliminated.
 621              	.LVL72:
 622              		.loc 1 249 0
ARM GAS  /tmp/ccOcrNIh.s 			page 12


 623 0000 0F29     		cmp	r1, #15
 624              		.loc 1 251 0
 625 0002 9ABF     		itte	ls
 626 0004 1431     		addls	r1, r1, #20
 627              	.LVL73:
 628 0006 50F82100 		ldrls	r0, [r0, r1, lsl #2]
 629              	.LVL74:
 630              		.loc 1 246 0
 631 000a 0020     		movhi	r0, #0
 632              	.LVL75:
 633              		.loc 1 255 0
 634 000c 7047     		bx	lr
 635              		.cfi_endproc
 636              	.LFE45:
 637              		.size	ADC_GetConvertedData, .-ADC_GetConvertedData
 638 000e 00BF     		.section	.text.ADC_SetCompareChannel,"ax",%progbits
 639              		.align	2
 640              		.p2align 4,,15
 641              		.global	ADC_SetCompareChannel
 642              		.thumb
 643              		.thumb_func
 644              		.type	ADC_SetCompareChannel, %function
 645              	ADC_SetCompareChannel:
 646              	.LFB46:
 647              		.loc 1 263 0
 648              		.cfi_startproc
 649              		@ args = 0, pretend = 0, frame = 0
 650              		@ frame_needed = 0, uses_anonymous_args = 0
 651              	.LVL76:
 652              		.loc 1 264 0
 653 0000 1029     		cmp	r1, #16
 654              		.loc 1 263 0
 655 0002 08B5     		push	{r3, lr}
 656              		.cfi_def_cfa_offset 8
 657              		.cfi_offset 3, -8
 658              		.cfi_offset 14, -4
 659              		.loc 1 264 0
 660 0004 11D8     		bhi	.L62
 661              		.loc 1 268 0
 662 0006 036C     		ldr	r3, [r0, #64]
 663              		.loc 1 266 0
 664 0008 03D1     		bne	.L63
 665              		.loc 1 274 0
 666 000a 43F40073 		orr	r3, r3, #512
 667 000e 0364     		str	r3, [r0, #64]
 668 0010 08BD     		pop	{r3, pc}
 669              	.L63:
 670              		.loc 1 268 0
 671 0012 23F40073 		bic	r3, r3, #512
 672 0016 0364     		str	r3, [r0, #64]
 673              		.loc 1 269 0
 674 0018 036C     		ldr	r3, [r0, #64]
 675 001a 23F0F003 		bic	r3, r3, #240
 676 001e 0364     		str	r3, [r0, #64]
 677              		.loc 1 270 0
 678 0020 036C     		ldr	r3, [r0, #64]
 679 0022 43EA0111 		orr	r1, r3, r1, lsl #4
ARM GAS  /tmp/ccOcrNIh.s 			page 13


 680              	.LVL77:
 681 0026 0164     		str	r1, [r0, #64]
 682 0028 08BD     		pop	{r3, pc}
 683              	.LVL78:
 684              	.L62:
 685              		.loc 1 264 0 discriminator 1
 686 002a 0348     		ldr	r0, .L64
 687              	.LVL79:
 688 002c 4FF48471 		mov	r1, #264
 689              	.LVL80:
 690 0030 024A     		ldr	r2, .L64+4
 691 0032 034B     		ldr	r3, .L64+8
 692 0034 FFF7FEFF 		bl	__assert_func
 693              	.LVL81:
 694              	.L65:
 695              		.align	2
 696              	.L64:
 697 0038 E4000000 		.word	.LC5
 698 003c 00000000 		.word	.LANCHOR0
 699 0040 14010000 		.word	.LC6
 700              		.cfi_endproc
 701              	.LFE46:
 702              		.size	ADC_SetCompareChannel, .-ADC_SetCompareChannel
 703 0044 AFF30080 		.section	.text.ADC_SetCompareMode,"ax",%progbits
 703      AFF30080 
 703      AFF30080 
 704              		.align	2
 705              		.p2align 4,,15
 706              		.global	ADC_SetCompareMode
 707              		.thumb
 708              		.thumb_func
 709              		.type	ADC_SetCompareMode, %function
 710              	ADC_SetCompareMode:
 711              	.LFB47:
 712              		.loc 1 284 0
 713              		.cfi_startproc
 714              		@ args = 0, pretend = 0, frame = 0
 715              		@ frame_needed = 0, uses_anonymous_args = 0
 716              		@ link register save eliminated.
 717              	.LVL82:
 718              		.loc 1 285 0
 719 0000 036C     		ldr	r3, [r0, #64]
 720              		.loc 1 286 0
 721 0002 01F00301 		and	r1, r1, #3
 722              	.LVL83:
 723              		.loc 1 285 0
 724 0006 23F00303 		bic	r3, r3, #3
 725 000a 0364     		str	r3, [r0, #64]
 726              		.loc 1 286 0
 727 000c 036C     		ldr	r3, [r0, #64]
 728 000e 1943     		orrs	r1, r1, r3
 729 0010 0164     		str	r1, [r0, #64]
 730 0012 7047     		bx	lr
 731              		.cfi_endproc
 732              	.LFE47:
 733              		.size	ADC_SetCompareMode, .-ADC_SetCompareMode
 734 0014 AFF30080 		.section	.text.ADC_SetComparisonWindow,"ax",%progbits
ARM GAS  /tmp/ccOcrNIh.s 			page 14


 734      AFF30080 
 734      AFF30080 
 735              		.align	2
 736              		.p2align 4,,15
 737              		.global	ADC_SetComparisonWindow
 738              		.thumb
 739              		.thumb_func
 740              		.type	ADC_SetComparisonWindow, %function
 741              	ADC_SetComparisonWindow:
 742              	.LFB48:
 743              		.loc 1 295 0
 744              		.cfi_startproc
 745              		@ args = 0, pretend = 0, frame = 0
 746              		@ frame_needed = 0, uses_anonymous_args = 0
 747              		@ link register save eliminated.
 748              	.LVL84:
 749              		.loc 1 296 0
 750 0000 4164     		str	r1, [r0, #68]
 751 0002 7047     		bx	lr
 752              		.cfi_endproc
 753              	.LFE48:
 754              		.size	ADC_SetComparisonWindow, .-ADC_SetComparisonWindow
 755 0004 AFF30080 		.section	.text.ADC_IsInterruptMasked,"ax",%progbits
 755      AFF30080 
 755      AFF30080 
 756              		.align	2
 757              		.p2align 4,,15
 758              		.global	ADC_IsInterruptMasked
 759              		.thumb
 760              		.thumb_func
 761              		.type	ADC_IsInterruptMasked, %function
 762              	ADC_IsInterruptMasked:
 763              	.LFB49:
 764              		.loc 1 308 0
 765              		.cfi_startproc
 766              		@ args = 0, pretend = 0, frame = 0
 767              		@ frame_needed = 0, uses_anonymous_args = 0
 768              		@ link register save eliminated.
 769              	.LVL85:
 770              		.loc 1 309 0
 771 0000 C06A     		ldr	r0, [r0, #44]
 772              	.LVL86:
 773              		.loc 1 310 0
 774 0002 0840     		ands	r0, r0, r1
 775 0004 7047     		bx	lr
 776              		.cfi_endproc
 777              	.LFE49:
 778              		.size	ADC_IsInterruptMasked, .-ADC_IsInterruptMasked
 779 0006 00BFAFF3 		.section	.text.ADC_IsStatusSet,"ax",%progbits
 779      0080AFF3 
 779      0080
 780              		.align	2
 781              		.p2align 4,,15
 782              		.global	ADC_IsStatusSet
 783              		.thumb
 784              		.thumb_func
 785              		.type	ADC_IsStatusSet, %function
ARM GAS  /tmp/ccOcrNIh.s 			page 15


 786              	ADC_IsStatusSet:
 787              	.LFB50:
 788              		.loc 1 321 0
 789              		.cfi_startproc
 790              		@ args = 0, pretend = 0, frame = 0
 791              		@ frame_needed = 0, uses_anonymous_args = 0
 792              		@ link register save eliminated.
 793              	.LVL87:
 794              		.loc 1 322 0
 795 0000 006B     		ldr	r0, [r0, #48]
 796              	.LVL88:
 797              		.loc 1 323 0
 798 0002 0840     		ands	r0, r0, r1
 799 0004 7047     		bx	lr
 800              		.cfi_endproc
 801              	.LFE50:
 802              		.size	ADC_IsStatusSet, .-ADC_IsStatusSet
 803 0006 00BFAFF3 		.section	.text.ADC_IsChannelInterruptStatusSet,"ax",%progbits
 803      0080AFF3 
 803      0080
 804              		.align	2
 805              		.p2align 4,,15
 806              		.global	ADC_IsChannelInterruptStatusSet
 807              		.thumb
 808              		.thumb_func
 809              		.type	ADC_IsChannelInterruptStatusSet, %function
 810              	ADC_IsChannelInterruptStatusSet:
 811              	.LFB51:
 812              		.loc 1 334 0
 813              		.cfi_startproc
 814              		@ args = 0, pretend = 0, frame = 0
 815              		@ frame_needed = 0, uses_anonymous_args = 0
 816              		@ link register save eliminated.
 817              	.LVL89:
 818              		.loc 1 337 0
 819 0000 0123     		movs	r3, #1
 820 0002 03FA01F1 		lsl	r1, r3, r1
 821              	.LVL90:
 822 0006 0840     		ands	r0, r0, r1
 823              	.LVL91:
 824              		.loc 1 347 0
 825 0008 0B1A     		subs	r3, r1, r0
 826 000a 5842     		rsbs	r0, r3, #0
 827 000c 5841     		adcs	r0, r0, r3
 828 000e 7047     		bx	lr
 829              		.cfi_endproc
 830              	.LFE51:
 831              		.size	ADC_IsChannelInterruptStatusSet, .-ADC_IsChannelInterruptStatusSet
 832              		.section	.text.ADC_ReadBuffer,"ax",%progbits
 833              		.align	2
 834              		.p2align 4,,15
 835              		.global	ADC_ReadBuffer
 836              		.thumb
 837              		.thumb_func
 838              		.type	ADC_ReadBuffer, %function
 839              	ADC_ReadBuffer:
 840              	.LFB52:
ARM GAS  /tmp/ccOcrNIh.s 			page 16


 841              		.loc 1 357 0
 842              		.cfi_startproc
 843              		@ args = 0, pretend = 0, frame = 0
 844              		@ frame_needed = 0, uses_anonymous_args = 0
 845              		@ link register save eliminated.
 846              	.LVL92:
 847 0000 0346     		mov	r3, r0
 848              		.loc 1 359 0
 849 0002 D0F80401 		ldr	r0, [r0, #260]
 850              	.LVL93:
 851              		.loc 1 357 0
 852 0006 10B4     		push	{r4}
 853              		.cfi_def_cfa_offset 4
 854              		.cfi_offset 4, -4
 855              		.loc 1 359 0
 856 0008 10B9     		cbnz	r0, .L72
 857              		.loc 1 359 0 is_stmt 0 discriminator 1
 858 000a D3F81401 		ldr	r0, [r3, #276]
 859 000e 70B1     		cbz	r0, .L75
 860              	.L72:
 861              		.loc 1 370 0 is_stmt 1
 862 0010 D3F81401 		ldr	r0, [r3, #276]
 863 0014 38B9     		cbnz	r0, .L74
 864              		.loc 1 372 0
 865 0016 C3F81011 		str	r1, [r3, #272]
 866              		.loc 1 375 0
 867 001a 0120     		movs	r0, #1
 868              		.loc 1 373 0
 869 001c C3F81421 		str	r2, [r3, #276]
 870              		.loc 1 382 0
 871 0020 5DF8044B 		ldr	r4, [sp], #4
 872 0024 7047     		bx	lr
 873              	.L74:
 874              		.loc 1 379 0
 875 0026 0020     		movs	r0, #0
 876              		.loc 1 382 0
 877 0028 5DF8044B 		ldr	r4, [sp], #4
 878 002c 7047     		bx	lr
 879              	.L75:
 880              		.loc 1 363 0
 881 002e 0124     		movs	r4, #1
 882              		.loc 1 361 0
 883 0030 C3F80011 		str	r1, [r3, #256]
 884              		.loc 1 365 0
 885 0034 2046     		mov	r0, r4
 886              		.loc 1 362 0
 887 0036 C3F80421 		str	r2, [r3, #260]
 888              		.loc 1 363 0
 889 003a C3F82041 		str	r4, [r3, #288]
 890              		.loc 1 382 0
 891 003e 5DF8044B 		ldr	r4, [sp], #4
 892 0042 7047     		bx	lr
 893              		.cfi_endproc
 894              	.LFE52:
 895              		.size	ADC_ReadBuffer, .-ADC_ReadBuffer
 896 0044 AFF30080 		.section	.rodata.str1.4,"aMS",%progbits,1
 896      AFF30080 
ARM GAS  /tmp/ccOcrNIh.s 			page 17


 896      AFF30080 
 897              		.align	2
 898              	.LC0:
 899 0000 41444320 		.ascii	"ADC clock frequency =  %d Hz\015\012\000"
 899      636C6F63 
 899      6B206672 
 899      65717565 
 899      6E637920 
 900 001f 00       		.space	1
 901              	.LC1:
 902 0020 61646320 		.ascii	"adc frequency too low (out of specification: %d Hz)"
 902      66726571 
 902      75656E63 
 902      7920746F 
 902      6F206C6F 
 903 0053 0D0A00   		.ascii	"\015\012\000"
 904 0056 0000     		.space	2
 905              	.LC2:
 906 0058 61646320 		.ascii	"adc frequency too high (out of specification: %d Hz"
 906      66726571 
 906      75656E63 
 906      7920746F 
 906      6F206869 
 907 008b 290D0A00 		.ascii	")\015\012\000"
 908 008f 00       		.space	1
 909              	.LC3:
 910 0090 53746172 		.ascii	"Startup time too small: %d, programmed: %d\015\012\000"
 910      74757020 
 910      74696D65 
 910      20746F6F 
 910      20736D61 
 911 00bd 000000   		.space	3
 912              	.LC4:
 913 00c0 46726565 		.ascii	"FreeRun forbidden in sleep mode\012\015\000"
 913      52756E20 
 913      666F7262 
 913      69646465 
 913      6E20696E 
 914 00e2 0000     		.space	2
 915              	.LC5:
 916 00e4 2E2E2F2E 		.ascii	"../../os/hal/platforms/AT91SAM3S/atmel_adc.c\000"
 916      2E2F6F73 
 916      2F68616C 
 916      2F706C61 
 916      74666F72 
 917 0111 000000   		.space	3
 918              	.LC6:
 919 0114 64774368 		.ascii	"dwChannel <= 16\000"
 919      616E6E65 
 919      6C203C3D 
 919      20313600 
 920              		.section	.rodata.__func__.6017,"a",%progbits
 921              		.align	2
 922              		.set	.LANCHOR0,. + 0
 923              		.type	__func__.6017, %object
 924              		.size	__func__.6017, 22
 925              	__func__.6017:
ARM GAS  /tmp/ccOcrNIh.s 			page 18


 926 0000 4144435F 		.ascii	"ADC_SetCompareChannel\000"
 926      53657443 
 926      6F6D7061 
 926      72654368 
 926      616E6E65 
 927 0016 0000     		.text
 928              	.Letext0:
 929              		.file 2 "/usr/local/gcc-arm-none-eabi-4_8-2014q2/lib/gcc/arm-none-eabi/4.8.4/include/stddef.h"
 930              		.file 3 "/usr/local/gcc-arm-none-eabi-4_8-2014q2/arm-none-eabi/include/machine/_default_types.h"
 931              		.file 4 "/usr/local/gcc-arm-none-eabi-4_8-2014q2/arm-none-eabi/include/stdint.h"
 932              		.file 5 "../../os/ports/GCC/ARMCMx/chtypes.h"
 933              		.file 6 "../../os/kernel/include/chlists.h"
 934              		.file 7 "../../os/kernel/include/chthreads.h"
 935              		.file 8 "../../os/ports/GCC/ARMCMx/chcore_v7m.h"
 936              		.file 9 "../../os/kernel/include/chmtx.h"
 937              		.file 10 "../../os/kernel/include/chevents.h"
 938              		.file 11 "../../os/kernel/include/chqueues.h"
 939              		.file 12 "../../os/kernel/include/chioch.h"
 940              		.file 13 "../../os/hal/platforms/AT91SAM3S/at91lib/SAM3S.h"
 941              		.file 14 "../../os/hal/include/serial.h"
 942              		.file 15 "../../os/hal/platforms/AT91SAM3S/core_cm3.h"
 943              		.file 16 "../../os/hal/platforms/AT91SAM3S/serial_lld.h"
 944              		.file 17 "../../os/various/chprintf.h"
 945              		.file 18 "/usr/local/gcc-arm-none-eabi-4_8-2014q2/arm-none-eabi/include/assert.h"