ARM GAS  /tmp/ccWSrABR.s 			page 1


   1              		.syntax unified
   2              		.cpu cortex-m3
   3              		.fpu softvfp
   4              		.eabi_attribute 20, 1
   5              		.eabi_attribute 21, 1
   6              		.eabi_attribute 23, 3
   7              		.eabi_attribute 24, 1
   8              		.eabi_attribute 25, 1
   9              		.eabi_attribute 26, 1
  10              		.eabi_attribute 30, 2
  11              		.eabi_attribute 34, 1
  12              		.eabi_attribute 18, 4
  13              		.thumb
  14              		.file	"atmel_spi.c"
  15              		.text
  16              	.Ltext0:
  17              		.cfi_sections	.debug_frame
  18              		.section	.text.SPI_Enable,"ax",%progbits
  19              		.align	2
  20              		.p2align 4,,15
  21              		.global	SPI_Enable
  22              		.thumb
  23              		.thumb_func
  24              		.type	SPI_Enable, %function
  25              	SPI_Enable:
  26              	.LFB0:
  27              		.file 1 "ChibiOS//os/hal/platforms/AT91SAM3S/atmel_spi.c"
  28              		.loc 1 85 0
  29              		.cfi_startproc
  30              		@ args = 0, pretend = 0, frame = 0
  31              		@ frame_needed = 0, uses_anonymous_args = 0
  32              		@ link register save eliminated.
  33              	.LVL0:
  34              		.loc 1 86 0
  35 0000 0123     		movs	r3, #1
  36 0002 0360     		str	r3, [r0]
  37 0004 7047     		bx	lr
  38              		.cfi_endproc
  39              	.LFE0:
  40              		.size	SPI_Enable, .-SPI_Enable
  41 0006 00BF     		.section	.text.SPI_Disable,"ax",%progbits
  42              		.align	2
  43              		.p2align 4,,15
  44              		.global	SPI_Disable
  45              		.thumb
  46              		.thumb_func
  47              		.type	SPI_Disable, %function
  48              	SPI_Disable:
  49              	.LFB1:
  50              		.loc 1 95 0
  51              		.cfi_startproc
  52              		@ args = 0, pretend = 0, frame = 0
  53              		@ frame_needed = 0, uses_anonymous_args = 0
  54              		@ link register save eliminated.
  55              	.LVL1:
  56              		.loc 1 96 0
  57 0000 0223     		movs	r3, #2
ARM GAS  /tmp/ccWSrABR.s 			page 2


  58 0002 0360     		str	r3, [r0]
  59 0004 7047     		bx	lr
  60              		.cfi_endproc
  61              	.LFE1:
  62              		.size	SPI_Disable, .-SPI_Disable
  63 0006 00BF     		.section	.text.SPI_EnableIt,"ax",%progbits
  64              		.align	2
  65              		.p2align 4,,15
  66              		.global	SPI_EnableIt
  67              		.thumb
  68              		.thumb_func
  69              		.type	SPI_EnableIt, %function
  70              	SPI_EnableIt:
  71              	.LFB2:
  72              		.loc 1 106 0
  73              		.cfi_startproc
  74              		@ args = 0, pretend = 0, frame = 0
  75              		@ frame_needed = 0, uses_anonymous_args = 0
  76              		@ link register save eliminated.
  77              	.LVL2:
  78              		.loc 1 107 0
  79 0000 4161     		str	r1, [r0, #20]
  80 0002 7047     		bx	lr
  81              		.cfi_endproc
  82              	.LFE2:
  83              		.size	SPI_EnableIt, .-SPI_EnableIt
  84              		.section	.text.SPI_DisableIt,"ax",%progbits
  85              		.align	2
  86              		.p2align 4,,15
  87              		.global	SPI_DisableIt
  88              		.thumb
  89              		.thumb_func
  90              		.type	SPI_DisableIt, %function
  91              	SPI_DisableIt:
  92              	.LFB3:
  93              		.loc 1 117 0
  94              		.cfi_startproc
  95              		@ args = 0, pretend = 0, frame = 0
  96              		@ frame_needed = 0, uses_anonymous_args = 0
  97              		@ link register save eliminated.
  98              	.LVL3:
  99              		.loc 1 118 0
 100 0000 8161     		str	r1, [r0, #24]
 101 0002 7047     		bx	lr
 102              		.cfi_endproc
 103              	.LFE3:
 104              		.size	SPI_DisableIt, .-SPI_DisableIt
 105              		.section	.text.SPI_Configure,"ax",%progbits
 106              		.align	2
 107              		.p2align 4,,15
 108              		.global	SPI_Configure
 109              		.thumb
 110              		.thumb_func
 111              		.type	SPI_Configure, %function
 112              	SPI_Configure:
 113              	.LFB4:
 114              		.loc 1 130 0
ARM GAS  /tmp/ccWSrABR.s 			page 3


 115              		.cfi_startproc
 116              		@ args = 0, pretend = 0, frame = 0
 117              		@ frame_needed = 0, uses_anonymous_args = 0
 118              	.LVL4:
 119 0000 38B5     		push	{r3, r4, r5, lr}
 120              		.cfi_def_cfa_offset 16
 121              		.cfi_offset 3, -16
 122              		.cfi_offset 4, -12
 123              		.cfi_offset 5, -8
 124              		.cfi_offset 14, -4
 125              		.loc 1 130 0
 126 0002 0446     		mov	r4, r0
 127 0004 1546     		mov	r5, r2
 128              		.loc 1 131 0
 129 0006 0846     		mov	r0, r1
 130              	.LVL5:
 131 0008 FFF7FEFF 		bl	PMC_EnablePeripheral
 132              	.LVL6:
 133              		.loc 1 135 0
 134 000c 8023     		movs	r3, #128
 135              		.loc 1 132 0
 136 000e 0222     		movs	r2, #2
 137 0010 2260     		str	r2, [r4]
 138              		.loc 1 135 0
 139 0012 2360     		str	r3, [r4]
 140              		.loc 1 136 0
 141 0014 2360     		str	r3, [r4]
 142              		.loc 1 137 0
 143 0016 6560     		str	r5, [r4, #4]
 144 0018 38BD     		pop	{r3, r4, r5, pc}
 145              		.cfi_endproc
 146              	.LFE4:
 147              		.size	SPI_Configure, .-SPI_Configure
 148 001a 00BF     		.section	.text.SPI_ConfigureNPCS,"ax",%progbits
 149              		.align	2
 150              		.p2align 4,,15
 151              		.global	SPI_ConfigureNPCS
 152              		.thumb
 153              		.thumb_func
 154              		.type	SPI_ConfigureNPCS, %function
 155              	SPI_ConfigureNPCS:
 156              	.LFB5:
 157              		.loc 1 150 0
 158              		.cfi_startproc
 159              		@ args = 0, pretend = 0, frame = 0
 160              		@ frame_needed = 0, uses_anonymous_args = 0
 161              		@ link register save eliminated.
 162              	.LVL7:
 163              		.loc 1 151 0
 164 0000 0C31     		adds	r1, r1, #12
 165              	.LVL8:
 166 0002 40F82120 		str	r2, [r0, r1, lsl #2]
 167 0006 7047     		bx	lr
 168              		.cfi_endproc
 169              	.LFE5:
 170              		.size	SPI_ConfigureNPCS, .-SPI_ConfigureNPCS
 171              		.section	.text.SPI_GetStatus,"ax",%progbits
ARM GAS  /tmp/ccWSrABR.s 			page 4


 172              		.align	2
 173              		.p2align 4,,15
 174              		.global	SPI_GetStatus
 175              		.thumb
 176              		.thumb_func
 177              		.type	SPI_GetStatus, %function
 178              	SPI_GetStatus:
 179              	.LFB6:
 180              		.loc 1 162 0
 181              		.cfi_startproc
 182              		@ args = 0, pretend = 0, frame = 0
 183              		@ frame_needed = 0, uses_anonymous_args = 0
 184              		@ link register save eliminated.
 185              	.LVL9:
 186              		.loc 1 163 0
 187 0000 0069     		ldr	r0, [r0, #16]
 188              	.LVL10:
 189              		.loc 1 164 0
 190 0002 7047     		bx	lr
 191              		.cfi_endproc
 192              	.LFE6:
 193              		.size	SPI_GetStatus, .-SPI_GetStatus
 194              		.section	.text.SPI_Read,"ax",%progbits
 195              		.align	2
 196              		.p2align 4,,15
 197              		.global	SPI_Read
 198              		.thumb
 199              		.thumb_func
 200              		.type	SPI_Read, %function
 201              	SPI_Read:
 202              	.LFB7:
 203              		.loc 1 175 0
 204              		.cfi_startproc
 205              		@ args = 0, pretend = 0, frame = 0
 206              		@ frame_needed = 0, uses_anonymous_args = 0
 207              		@ link register save eliminated.
 208              	.LVL11:
 209              	.L10:
 210              		.loc 1 176 0 discriminator 1
 211 0000 0369     		ldr	r3, [r0, #16]
 212 0002 DB07     		lsls	r3, r3, #31
 213 0004 FCD5     		bpl	.L10
 214              		.loc 1 178 0
 215 0006 8068     		ldr	r0, [r0, #8]
 216              	.LVL12:
 217              		.loc 1 179 0
 218 0008 80B2     		uxth	r0, r0
 219 000a 7047     		bx	lr
 220              		.cfi_endproc
 221              	.LFE7:
 222              		.size	SPI_Read, .-SPI_Read
 223              		.section	.text.SPI_Write,"ax",%progbits
 224              		.align	2
 225              		.p2align 4,,15
 226              		.global	SPI_Write
 227              		.thumb
 228              		.thumb_func
ARM GAS  /tmp/ccWSrABR.s 			page 5


 229              		.type	SPI_Write, %function
 230              	SPI_Write:
 231              	.LFB8:
 232              		.loc 1 191 0
 233              		.cfi_startproc
 234              		@ args = 0, pretend = 0, frame = 0
 235              		@ frame_needed = 0, uses_anonymous_args = 0
 236              	.LVL13:
 237 0000 38B5     		push	{r3, r4, r5, lr}
 238              		.cfi_def_cfa_offset 16
 239              		.cfi_offset 3, -16
 240              		.cfi_offset 4, -12
 241              		.cfi_offset 5, -8
 242              		.cfi_offset 14, -4
 243 0002 0446     		mov	r4, r0
 244 0004 1546     		mov	r5, r2
 245              	.LVL14:
 246              	.L15:
 247              		.loc 1 193 0 discriminator 1
 248 0006 2369     		ldr	r3, [r4, #16]
 249 0008 9A05     		lsls	r2, r3, #22
 250 000a FCD5     		bpl	.L15
 251              		.loc 1 194 0
 252 000c 0846     		mov	r0, r1
 253              	.LVL15:
 254 000e FFF7FEFF 		bl	SPI_PCS
 255              	.LVL16:
 256 0012 2843     		orrs	r0, r0, r5
 257 0014 E060     		str	r0, [r4, #12]
 258              	.L16:
 259              		.loc 1 195 0 discriminator 1
 260 0016 2369     		ldr	r3, [r4, #16]
 261 0018 9B07     		lsls	r3, r3, #30
 262 001a FCD5     		bpl	.L16
 263              		.loc 1 196 0
 264 001c 38BD     		pop	{r3, r4, r5, pc}
 265              		.cfi_endproc
 266              	.LFE8:
 267              		.size	SPI_Write, .-SPI_Write
 268 001e 00BF     		.section	.text.SPI_IsFinished,"ax",%progbits
 269              		.align	2
 270              		.p2align 4,,15
 271              		.global	SPI_IsFinished
 272              		.thumb
 273              		.thumb_func
 274              		.type	SPI_IsFinished, %function
 275              	SPI_IsFinished:
 276              	.LFB9:
 277              		.loc 1 207 0
 278              		.cfi_startproc
 279              		@ args = 0, pretend = 0, frame = 0
 280              		@ frame_needed = 0, uses_anonymous_args = 0
 281              		@ link register save eliminated.
 282              	.LVL17:
 283              		.loc 1 208 0
 284 0000 0069     		ldr	r0, [r0, #16]
 285              	.LVL18:
ARM GAS  /tmp/ccWSrABR.s 			page 6


 286              		.loc 1 209 0
 287 0002 C0F34020 		ubfx	r0, r0, #9, #1
 288 0006 7047     		bx	lr
 289              		.cfi_endproc
 290              	.LFE9:
 291              		.size	SPI_IsFinished, .-SPI_IsFinished
 292              		.section	.text.SPI_PdcEnableTx,"ax",%progbits
 293              		.align	2
 294              		.p2align 4,,15
 295              		.global	SPI_PdcEnableTx
 296              		.thumb
 297              		.thumb_func
 298              		.type	SPI_PdcEnableTx, %function
 299              	SPI_PdcEnableTx:
 300              	.LFB10:
 301              		.loc 1 216 0
 302              		.cfi_startproc
 303              		@ args = 0, pretend = 0, frame = 0
 304              		@ frame_needed = 0, uses_anonymous_args = 0
 305              		@ link register save eliminated.
 306              	.LVL19:
 307              		.loc 1 217 0
 308 0000 4FF48073 		mov	r3, #256
 309 0004 C0F82031 		str	r3, [r0, #288]
 310 0008 7047     		bx	lr
 311              		.cfi_endproc
 312              	.LFE10:
 313              		.size	SPI_PdcEnableTx, .-SPI_PdcEnableTx
 314 000a 00BF     		.section	.text.SPI_PdcDisableTx,"ax",%progbits
 315              		.align	2
 316              		.p2align 4,,15
 317              		.global	SPI_PdcDisableTx
 318              		.thumb
 319              		.thumb_func
 320              		.type	SPI_PdcDisableTx, %function
 321              	SPI_PdcDisableTx:
 322              	.LFB11:
 323              		.loc 1 225 0
 324              		.cfi_startproc
 325              		@ args = 0, pretend = 0, frame = 0
 326              		@ frame_needed = 0, uses_anonymous_args = 0
 327              		@ link register save eliminated.
 328              	.LVL20:
 329              		.loc 1 226 0
 330 0000 4FF40073 		mov	r3, #512
 331 0004 C0F82031 		str	r3, [r0, #288]
 332 0008 7047     		bx	lr
 333              		.cfi_endproc
 334              	.LFE11:
 335              		.size	SPI_PdcDisableTx, .-SPI_PdcDisableTx
 336 000a 00BF     		.section	.text.SPI_PdcEnableRx,"ax",%progbits
 337              		.align	2
 338              		.p2align 4,,15
 339              		.global	SPI_PdcEnableRx
 340              		.thumb
 341              		.thumb_func
 342              		.type	SPI_PdcEnableRx, %function
ARM GAS  /tmp/ccWSrABR.s 			page 7


 343              	SPI_PdcEnableRx:
 344              	.LFB12:
 345              		.loc 1 234 0
 346              		.cfi_startproc
 347              		@ args = 0, pretend = 0, frame = 0
 348              		@ frame_needed = 0, uses_anonymous_args = 0
 349              		@ link register save eliminated.
 350              	.LVL21:
 351              		.loc 1 235 0
 352 0000 0123     		movs	r3, #1
 353 0002 C0F82031 		str	r3, [r0, #288]
 354 0006 7047     		bx	lr
 355              		.cfi_endproc
 356              	.LFE12:
 357              		.size	SPI_PdcEnableRx, .-SPI_PdcEnableRx
 358              		.section	.text.SPI_PdcDisableRx,"ax",%progbits
 359              		.align	2
 360              		.p2align 4,,15
 361              		.global	SPI_PdcDisableRx
 362              		.thumb
 363              		.thumb_func
 364              		.type	SPI_PdcDisableRx, %function
 365              	SPI_PdcDisableRx:
 366              	.LFB13:
 367              		.loc 1 243 0
 368              		.cfi_startproc
 369              		@ args = 0, pretend = 0, frame = 0
 370              		@ frame_needed = 0, uses_anonymous_args = 0
 371              		@ link register save eliminated.
 372              	.LVL22:
 373              		.loc 1 244 0
 374 0000 0223     		movs	r3, #2
 375 0002 C0F82031 		str	r3, [r0, #288]
 376 0006 7047     		bx	lr
 377              		.cfi_endproc
 378              	.LFE13:
 379              		.size	SPI_PdcDisableRx, .-SPI_PdcDisableRx
 380              		.section	.text.SPI_PdcSetTx,"ax",%progbits
 381              		.align	2
 382              		.p2align 4,,15
 383              		.global	SPI_PdcSetTx
 384              		.thumb
 385              		.thumb_func
 386              		.type	SPI_PdcSetTx, %function
 387              	SPI_PdcSetTx:
 388              	.LFB14:
 389              		.loc 1 257 0
 390              		.cfi_startproc
 391              		@ args = 4, pretend = 0, frame = 0
 392              		@ frame_needed = 0, uses_anonymous_args = 0
 393              		@ link register save eliminated.
 394              	.LVL23:
 395 0000 10B4     		push	{r4}
 396              		.cfi_def_cfa_offset 4
 397              		.cfi_offset 4, -4
 398              		.loc 1 257 0
 399 0002 019C     		ldr	r4, [sp, #4]
ARM GAS  /tmp/ccWSrABR.s 			page 8


 400              		.loc 1 258 0
 401 0004 C0F80811 		str	r1, [r0, #264]
 402              		.loc 1 259 0
 403 0008 C0F80C21 		str	r2, [r0, #268]
 404              		.loc 1 260 0
 405 000c C0F81831 		str	r3, [r0, #280]
 406              		.loc 1 261 0
 407 0010 C0F81C41 		str	r4, [r0, #284]
 408              		.loc 1 262 0
 409 0014 5DF8044B 		ldr	r4, [sp], #4
 410              		.cfi_restore 4
 411              		.cfi_def_cfa_offset 0
 412              	.LVL24:
 413 0018 7047     		bx	lr
 414              		.cfi_endproc
 415              	.LFE14:
 416              		.size	SPI_PdcSetTx, .-SPI_PdcSetTx
 417 001a 00BF     		.section	.text.SPI_PdcSetRx,"ax",%progbits
 418              		.align	2
 419              		.p2align 4,,15
 420              		.global	SPI_PdcSetRx
 421              		.thumb
 422              		.thumb_func
 423              		.type	SPI_PdcSetRx, %function
 424              	SPI_PdcSetRx:
 425              	.LFB15:
 426              		.loc 1 274 0
 427              		.cfi_startproc
 428              		@ args = 4, pretend = 0, frame = 0
 429              		@ frame_needed = 0, uses_anonymous_args = 0
 430              		@ link register save eliminated.
 431              	.LVL25:
 432 0000 10B4     		push	{r4}
 433              		.cfi_def_cfa_offset 4
 434              		.cfi_offset 4, -4
 435              		.loc 1 274 0
 436 0002 019C     		ldr	r4, [sp, #4]
 437              		.loc 1 275 0
 438 0004 C0F80011 		str	r1, [r0, #256]
 439              		.loc 1 276 0
 440 0008 C0F80421 		str	r2, [r0, #260]
 441              		.loc 1 277 0
 442 000c C0F81031 		str	r3, [r0, #272]
 443              		.loc 1 278 0
 444 0010 C0F81441 		str	r4, [r0, #276]
 445              		.loc 1 279 0
 446 0014 5DF8044B 		ldr	r4, [sp], #4
 447              		.cfi_restore 4
 448              		.cfi_def_cfa_offset 0
 449              	.LVL26:
 450 0018 7047     		bx	lr
 451              		.cfi_endproc
 452              	.LFE15:
 453              		.size	SPI_PdcSetRx, .-SPI_PdcSetRx
 454 001a 00BF     		.section	.text.SPI_WriteBuffer,"ax",%progbits
 455              		.align	2
 456              		.p2align 4,,15
ARM GAS  /tmp/ccWSrABR.s 			page 9


 457              		.global	SPI_WriteBuffer
 458              		.thumb
 459              		.thumb_func
 460              		.type	SPI_WriteBuffer, %function
 461              	SPI_WriteBuffer:
 462              	.LFB16:
 463              		.loc 1 290 0
 464              		.cfi_startproc
 465              		@ args = 0, pretend = 0, frame = 0
 466              		@ frame_needed = 0, uses_anonymous_args = 0
 467              		@ link register save eliminated.
 468              	.LVL27:
 469 0000 0346     		mov	r3, r0
 470              		.loc 1 292 0
 471 0002 D0F80C01 		ldr	r0, [r0, #268]
 472              	.LVL28:
 473 0006 50B1     		cbz	r0, .L37
 474              		.loc 1 303 0
 475 0008 D3F81C01 		ldr	r0, [r3, #284]
 476 000c 28B9     		cbnz	r0, .L34
 477              		.loc 1 305 0
 478 000e C3F81811 		str	r1, [r3, #280]
 479              		.loc 1 308 0
 480 0012 0120     		movs	r0, #1
 481              		.loc 1 306 0
 482 0014 C3F81C21 		str	r2, [r3, #284]
 483              		.loc 1 308 0
 484 0018 7047     		bx	lr
 485              	.L34:
 486              		.loc 1 313 0
 487 001a 0020     		movs	r0, #0
 488 001c 7047     		bx	lr
 489              	.L37:
 490              		.loc 1 290 0
 491 001e 10B4     		push	{r4}
 492              		.cfi_def_cfa_offset 4
 493              		.cfi_offset 4, -4
 494              		.loc 1 296 0
 495 0020 4FF48074 		mov	r4, #256
 496              		.loc 1 294 0
 497 0024 C3F80811 		str	r1, [r3, #264]
 498              		.loc 1 298 0
 499 0028 0120     		movs	r0, #1
 500              		.loc 1 295 0
 501 002a C3F80C21 		str	r2, [r3, #268]
 502              		.loc 1 296 0
 503 002e C3F82041 		str	r4, [r3, #288]
 504              		.loc 1 314 0
 505 0032 5DF8044B 		ldr	r4, [sp], #4
 506              		.cfi_restore 4
 507              		.cfi_def_cfa_offset 0
 508 0036 7047     		bx	lr
 509              		.cfi_endproc
 510              	.LFE16:
 511              		.size	SPI_WriteBuffer, .-SPI_WriteBuffer
 512              		.section	.text.SPI_ReadBuffer,"ax",%progbits
 513              		.align	2
ARM GAS  /tmp/ccWSrABR.s 			page 10


 514              		.p2align 4,,15
 515              		.global	SPI_ReadBuffer
 516              		.thumb
 517              		.thumb_func
 518              		.type	SPI_ReadBuffer, %function
 519              	SPI_ReadBuffer:
 520              	.LFB17:
 521              		.loc 1 325 0
 522              		.cfi_startproc
 523              		@ args = 0, pretend = 0, frame = 0
 524              		@ frame_needed = 0, uses_anonymous_args = 0
 525              		@ link register save eliminated.
 526              	.LVL29:
 527 0000 0346     		mov	r3, r0
 528              		.loc 1 327 0
 529 0002 D0F80401 		ldr	r0, [r0, #260]
 530              	.LVL30:
 531 0006 50B1     		cbz	r0, .L44
 532              		.loc 1 338 0
 533 0008 D3F81401 		ldr	r0, [r3, #276]
 534 000c 28B9     		cbnz	r0, .L41
 535              		.loc 1 340 0
 536 000e C3F81011 		str	r1, [r3, #272]
 537              		.loc 1 342 0
 538 0012 0120     		movs	r0, #1
 539              		.loc 1 341 0
 540 0014 C3F81421 		str	r2, [r3, #276]
 541              		.loc 1 342 0
 542 0018 7047     		bx	lr
 543              	.L41:
 544              		.loc 1 347 0
 545 001a 0020     		movs	r0, #0
 546 001c 7047     		bx	lr
 547              	.L44:
 548              		.loc 1 325 0
 549 001e 10B4     		push	{r4}
 550              		.cfi_def_cfa_offset 4
 551              		.cfi_offset 4, -4
 552              		.loc 1 331 0
 553 0020 0124     		movs	r4, #1
 554              		.loc 1 329 0
 555 0022 C3F80011 		str	r1, [r3, #256]
 556              		.loc 1 333 0
 557 0026 2046     		mov	r0, r4
 558              		.loc 1 330 0
 559 0028 C3F80421 		str	r2, [r3, #260]
 560              		.loc 1 331 0
 561 002c C3F82041 		str	r4, [r3, #288]
 562              		.loc 1 348 0
 563 0030 5DF8044B 		ldr	r4, [sp], #4
 564              		.cfi_restore 4
 565              		.cfi_def_cfa_offset 0
 566 0034 7047     		bx	lr
 567              		.cfi_endproc
 568              	.LFE17:
 569              		.size	SPI_ReadBuffer, .-SPI_ReadBuffer
 570 0036 00BF     		.text
ARM GAS  /tmp/ccWSrABR.s 			page 11


 571              	.Letext0:
 572              		.file 2 "/usr/include/newlib/machine/_default_types.h"
 573              		.file 3 "/usr/include/newlib/sys/_stdint.h"
 574              		.file 4 "ChibiOS//os/hal/platforms/AT91SAM3S/SAM3S.h"