ARM GAS  /tmp/ccOcrNIh.s 			page 1


   1              		.syntax unified
   2              		.cpu cortex-m3
   3              		.fpu softvfp
   4              		.eabi_attribute 20, 1
   5              		.eabi_attribute 21, 1
   6              		.eabi_attribute 23, 3
   7              		.eabi_attribute 24, 1
   8              		.eabi_attribute 25, 1
   9              		.eabi_attribute 26, 1
  10              		.eabi_attribute 30, 2
  11              		.eabi_attribute 34, 1
  12              		.eabi_attribute 18, 4
  13              		.thumb
  14              		.file	"atmel_adc.c"
  15              		.text
  16              	.Ltext0:
  17              		.cfi_sections	.debug_frame
  18              		.section	.text.calcul_startup,"ax",%progbits
  19              		.align	2
  20              		.p2align 4,,15
  21              		.thumb
  22              		.thumb_func
  23              		.type	calcul_startup, %function
  24              	calcul_startup:
  25              	.LFB43:
  26              		.file 1 "../../os/hal/platforms/AT91SAM3S/atmel_adc.c"
  27              		.loc 1 133 0
  28              		.cfi_startproc
  29              		@ args = 0, pretend = 0, frame = 0
  30              		@ frame_needed = 0, uses_anonymous_args = 0
  31              		@ link register save eliminated.
  32              	.LVL0:
  33              		.loc 1 136 0
  34 0000 18B3     		cbz	r0, .L2
  35              		.loc 1 138 0
  36 0002 0128     		cmp	r0, #1
  37 0004 22D0     		beq	.L5
  38              		.loc 1 140 0
  39 0006 0228     		cmp	r0, #2
  40 0008 22D0     		beq	.L6
  41              		.loc 1 142 0
  42 000a 0328     		cmp	r0, #3
  43 000c 22D0     		beq	.L7
  44              		.loc 1 144 0
  45 000e 0428     		cmp	r0, #4
  46 0010 24D0     		beq	.L8
  47              		.loc 1 146 0
  48 0012 0528     		cmp	r0, #5
  49 0014 20D0     		beq	.L9
  50              		.loc 1 148 0
  51 0016 0628     		cmp	r0, #6
  52 0018 22D0     		beq	.L10
  53              		.loc 1 150 0
  54 001a 0728     		cmp	r0, #7
  55 001c 22D0     		beq	.L11
  56              		.loc 1 152 0
  57 001e 0828     		cmp	r0, #8
ARM GAS  /tmp/ccOcrNIh.s 			page 2


  58 0020 22D0     		beq	.L12
  59              		.loc 1 154 0
  60 0022 0928     		cmp	r0, #9
  61 0024 23D0     		beq	.L13
  62              		.loc 1 156 0
  63 0026 0A28     		cmp	r0, #10
  64 0028 24D0     		beq	.L14
  65              		.loc 1 158 0
  66 002a 0B28     		cmp	r0, #11
  67 002c 25D0     		beq	.L15
  68              		.loc 1 160 0
  69 002e 0C28     		cmp	r0, #12
  70 0030 26D0     		beq	.L16
  71              		.loc 1 162 0
  72 0032 0D28     		cmp	r0, #13
  73 0034 07D0     		beq	.L17
  74              	.LVL1:
  75              	.LBB4:
  76              	.LBB5:
  77              		.loc 1 164 0
  78 0036 0E28     		cmp	r0, #14
  79 0038 25D0     		beq	.L18
  80              		.loc 1 166 0
  81 003a 0F28     		cmp	r0, #15
  82              		.loc 1 134 0
  83 003c 0CBF     		ite	eq
  84 003e 4FF47070 		moveq	r0, #960
  85 0042 0020     		movne	r0, #0
  86              	.LVL2:
  87 0044 7047     		bx	lr
  88              	.LVL3:
  89              	.L17:
  90              	.LBE5:
  91              	.LBE4:
  92              		.loc 1 163 0
  93 0046 4FF45070 		mov	r0, #832
  94              	.LVL4:
  95              	.L2:
  96              		.loc 1 170 0
  97 004a 7047     		bx	lr
  98              	.LVL5:
  99              	.L5:
 100              		.loc 1 139 0
 101 004c 0820     		movs	r0, #8
 102              	.LVL6:
 103 004e 7047     		bx	lr
 104              	.LVL7:
 105              	.L6:
 106              		.loc 1 141 0
 107 0050 1020     		movs	r0, #16
 108              	.LVL8:
 109 0052 7047     		bx	lr
 110              	.LVL9:
 111              	.L7:
 112              		.loc 1 143 0
 113 0054 1820     		movs	r0, #24
 114              	.LVL10:
ARM GAS  /tmp/ccOcrNIh.s 			page 3


 115 0056 7047     		bx	lr
 116              	.LVL11:
 117              	.L9:
 118              		.loc 1 147 0
 119 0058 5020     		movs	r0, #80
 120              	.LVL12:
 121 005a 7047     		bx	lr
 122              	.LVL13:
 123              	.L8:
 124              		.loc 1 145 0
 125 005c 4020     		movs	r0, #64
 126              	.LVL14:
 127 005e 7047     		bx	lr
 128              	.LVL15:
 129              	.L10:
 130              		.loc 1 149 0
 131 0060 6020     		movs	r0, #96
 132              	.LVL16:
 133 0062 7047     		bx	lr
 134              	.LVL17:
 135              	.L11:
 136              		.loc 1 151 0
 137 0064 7020     		movs	r0, #112
 138              	.LVL18:
 139 0066 7047     		bx	lr
 140              	.LVL19:
 141              	.L12:
 142              		.loc 1 153 0
 143 0068 4FF40070 		mov	r0, #512
 144              	.LVL20:
 145 006c 7047     		bx	lr
 146              	.LVL21:
 147              	.L13:
 148              		.loc 1 155 0
 149 006e 4FF41070 		mov	r0, #576
 150              	.LVL22:
 151 0072 7047     		bx	lr
 152              	.LVL23:
 153              	.L14:
 154              		.loc 1 157 0
 155 0074 4FF42070 		mov	r0, #640
 156              	.LVL24:
 157 0078 7047     		bx	lr
 158              	.LVL25:
 159              	.L15:
 160              		.loc 1 159 0
 161 007a 4FF43070 		mov	r0, #704
 162              	.LVL26:
 163 007e 7047     		bx	lr
 164              	.LVL27:
 165              	.L16:
 166              		.loc 1 161 0
 167 0080 4FF44070 		mov	r0, #768
 168              	.LVL28:
 169 0084 7047     		bx	lr
 170              	.LVL29:
 171              	.L18:
ARM GAS  /tmp/ccOcrNIh.s 			page 4


 172              	.LBB7:
 173              	.LBB6:
 174              		.loc 1 165 0
 175 0086 4FF46070 		mov	r0, #896
 176              	.LVL30:
 177 008a 7047     		bx	lr
 178              	.LBE6:
 179              	.LBE7:
 180              		.cfi_endproc
 181              	.LFE43:
 182              		.size	calcul_startup, .-calcul_startup
 183 008c AFF30080 		.section	.text.ADC_Initialize,"ax",%progbits
 184              		.align	2
 185              		.p2align 4,,15
 186              		.global	ADC_Initialize
 187              		.thumb
 188              		.thumb_func
 189              		.type	ADC_Initialize, %function
 190              	ADC_Initialize:
 191              	.LFB36:
 192              		.loc 1 62 0
 193              		.cfi_startproc
 194              		@ args = 0, pretend = 0, frame = 0
 195              		@ frame_needed = 0, uses_anonymous_args = 0
 196              		@ link register save eliminated.
 197              	.LVL31:
 198 0000 70B4     		push	{r4, r5, r6}
 199              		.cfi_def_cfa_offset 12
 200              		.cfi_offset 4, -12
 201              		.cfi_offset 5, -8
 202              		.cfi_offset 6, -4
 203              		.loc 1 64 0
 204 0002 084B     		ldr	r3, .L22
 205 0004 0849     		ldr	r1, .L22+4
 206              		.loc 1 66 0
 207 0006 094A     		ldr	r2, .L22+8
 208              		.loc 1 65 0
 209 0008 4FF00056 		mov	r6, #536870912
 210              		.loc 1 69 0
 211 000c 0125     		movs	r5, #1
 212              		.loc 1 73 0
 213 000e 0024     		movs	r4, #0
 214              		.loc 1 64 0
 215 0010 C3F8E410 		str	r1, [r3, #228]
 216              		.loc 1 65 0
 217 0014 1E61     		str	r6, [r3, #16]
 218              		.loc 1 66 0
 219 0016 C3F8E420 		str	r2, [r3, #228]
 220              		.loc 1 69 0
 221 001a 0560     		str	r5, [r0]
 222              		.loc 1 73 0
 223 001c 4460     		str	r4, [r0, #4]
 224              		.loc 1 74 0
 225 001e 70BC     		pop	{r4, r5, r6}
 226 0020 7047     		bx	lr
 227              	.L23:
 228 0022 00BF     		.align	2
ARM GAS  /tmp/ccOcrNIh.s 			page 5


 229              	.L22:
 230 0024 00040E40 		.word	1074660352
 231 0028 00434D50 		.word	1347240704
 232 002c 01434D50 		.word	1347240705
 233              		.cfi_endproc
 234              	.LFE36:
 235              		.size	ADC_Initialize, .-ADC_Initialize
 236              		.section	.text.ADC_CfgTiming,"ax",%progbits
 237              		.align	2
 238              		.p2align 4,,15
 239              		.global	ADC_CfgTiming
 240              		.thumb
 241              		.thumb_func
 242              		.type	ADC_CfgTiming, %function
 243              	ADC_CfgTiming:
 244              	.LFB37:
 245              		.loc 1 80 0
 246              		.cfi_startproc
 247              		@ args = 0, pretend = 0, frame = 0
 248              		@ frame_needed = 0, uses_anonymous_args = 0
 249              		@ link register save eliminated.
 250              	.LVL32:
 251              		.loc 1 81 0
 252 0000 0906     		lsls	r1, r1, #24
 253              	.LVL33:
 254 0002 01F07061 		and	r1, r1, #251658240
 255 0006 4160     		str	r1, [r0, #4]
 256 0008 7047     		bx	lr
 257              		.cfi_endproc
 258              	.LFE37:
 259              		.size	ADC_CfgTiming, .-ADC_CfgTiming
 260 000a 00BFAFF3 		.section	.text.ADC_cfgFrequency,"ax",%progbits
 260      0080
 261              		.align	2
 262              		.p2align 4,,15
 263              		.global	ADC_cfgFrequency
 264              		.thumb
 265              		.thumb_func
 266              		.type	ADC_cfgFrequency, %function
 267              	ADC_cfgFrequency:
 268              	.LFB38:
 269              		.loc 1 88 0
 270              		.cfi_startproc
 271              		@ args = 0, pretend = 0, frame = 0
 272              		@ frame_needed = 0, uses_anonymous_args = 0
 273              		@ link register save eliminated.
 274              	.LVL34:
 275              		.loc 1 89 0
 276 0000 4368     		ldr	r3, [r0, #4]
 277              		.loc 1 90 0
 278 0002 0904     		lsls	r1, r1, #16
 279              	.LVL35:
 280 0004 01F47021 		and	r1, r1, #983040
 281              		.loc 1 89 0
 282 0008 1202     		lsls	r2, r2, #8
 283              	.LVL36:
 284 000a 92B2     		uxth	r2, r2
ARM GAS  /tmp/ccOcrNIh.s 			page 6


 285              		.loc 1 90 0
 286 000c 0B43     		orrs	r3, r3, r1
 287              		.loc 1 89 0
 288 000e 1343     		orrs	r3, r3, r2
 289 0010 4360     		str	r3, [r0, #4]
 290 0012 7047     		bx	lr
 291              		.cfi_endproc
 292              	.LFE38:
 293              		.size	ADC_cfgFrequency, .-ADC_cfgFrequency
 294 0014 AFF30080 		.section	.text.ADC_CfgTrigering,"ax",%progbits
 294      AFF30080 
 294      AFF30080 
 295              		.align	2
 296              		.p2align 4,,15
 297              		.global	ADC_CfgTrigering
 298              		.thumb
 299              		.thumb_func
 300              		.type	ADC_CfgTrigering, %function
 301              	ADC_CfgTrigering:
 302              	.LFB39:
 303              		.loc 1 97 0
 304              		.cfi_startproc
 305              		@ args = 0, pretend = 0, frame = 0
 306              		@ frame_needed = 0, uses_anonymous_args = 0
 307              		@ link register save eliminated.
 308              	.LVL37:
 309 0000 10B4     		push	{r4}
 310              		.cfi_def_cfa_offset 4
 311              		.cfi_offset 4, -4
 312              		.loc 1 100 0
 313 0002 DB01     		lsls	r3, r3, #7
 314              	.LVL38:
 315              		.loc 1 98 0
 316 0004 4468     		ldr	r4, [r0, #4]
 317              		.loc 1 100 0
 318 0006 DBB2     		uxtb	r3, r3
 319              		.loc 1 99 0
 320 0008 1C43     		orrs	r4, r4, r3
 321              		.loc 1 98 0
 322 000a 01F00101 		and	r1, r1, #1
 323              	.LVL39:
 324              		.loc 1 99 0
 325 000e 5200     		lsls	r2, r2, #1
 326              	.LVL40:
 327              		.loc 1 100 0
 328 0010 2143     		orrs	r1, r1, r4
 329              		.loc 1 99 0
 330 0012 02F00E02 		and	r2, r2, #14
 331              		.loc 1 98 0
 332 0016 1143     		orrs	r1, r1, r2
 333 0018 4160     		str	r1, [r0, #4]
 334              		.loc 1 101 0
 335 001a 5DF8044B 		ldr	r4, [sp], #4
 336 001e 7047     		bx	lr
 337              		.cfi_endproc
 338              	.LFE39:
 339              		.size	ADC_CfgTrigering, .-ADC_CfgTrigering
ARM GAS  /tmp/ccOcrNIh.s 			page 7


 340              		.section	.text.ADC_CfgLowRes,"ax",%progbits
 341              		.align	2
 342              		.p2align 4,,15
 343              		.global	ADC_CfgLowRes
 344              		.thumb
 345              		.thumb_func
 346              		.type	ADC_CfgLowRes, %function
 347              	ADC_CfgLowRes:
 348              	.LFB40:
 349              		.loc 1 107 0
 350              		.cfi_startproc
 351              		@ args = 0, pretend = 0, frame = 0
 352              		@ frame_needed = 0, uses_anonymous_args = 0
 353              		@ link register save eliminated.
 354              	.LVL41:
 355              		.loc 1 108 0
 356 0000 4268     		ldr	r2, [r0, #4]
 357 0002 0901     		lsls	r1, r1, #4
 358              	.LVL42:
 359 0004 01F01003 		and	r3, r1, #16
 360 0008 1343     		orrs	r3, r3, r2
 361 000a 4360     		str	r3, [r0, #4]
 362 000c 7047     		bx	lr
 363              		.cfi_endproc
 364              	.LFE40:
 365              		.size	ADC_CfgLowRes, .-ADC_CfgLowRes
 366 000e 00BF     		.section	.text.ADC_CfgPowerSave,"ax",%progbits
 367              		.align	2
 368              		.p2align 4,,15
 369              		.global	ADC_CfgPowerSave
 370              		.thumb
 371              		.thumb_func
 372              		.type	ADC_CfgPowerSave, %function
 373              	ADC_CfgPowerSave:
 374              	.LFB41:
 375              		.loc 1 115 0
 376              		.cfi_startproc
 377              		@ args = 0, pretend = 0, frame = 0
 378              		@ frame_needed = 0, uses_anonymous_args = 0
 379              		@ link register save eliminated.
 380              	.LVL43:
 381              		.loc 1 116 0
 382 0000 4368     		ldr	r3, [r0, #4]
 383              		.loc 1 117 0
 384 0002 9201     		lsls	r2, r2, #6
 385              	.LVL44:
 386 0004 02F04002 		and	r2, r2, #64
 387              		.loc 1 116 0
 388 0008 4901     		lsls	r1, r1, #5
 389              	.LVL45:
 390 000a 01F02001 		and	r1, r1, #32
 391              		.loc 1 117 0
 392 000e 1343     		orrs	r3, r3, r2
 393              		.loc 1 116 0
 394 0010 0B43     		orrs	r3, r3, r1
 395 0012 4360     		str	r3, [r0, #4]
 396 0014 7047     		bx	lr
ARM GAS  /tmp/ccOcrNIh.s 			page 8


 397              		.cfi_endproc
 398              	.LFE41:
 399              		.size	ADC_CfgPowerSave, .-ADC_CfgPowerSave
 400 0016 00BFAFF3 		.section	.text.ADC_CfgChannelMode,"ax",%progbits
 400      0080AFF3 
 400      0080
 401              		.align	2
 402              		.p2align 4,,15
 403              		.global	ADC_CfgChannelMode
 404              		.thumb
 405              		.thumb_func
 406              		.type	ADC_CfgChannelMode, %function
 407              	ADC_CfgChannelMode:
 408              	.LFB42:
 409              		.loc 1 124 0
 410              		.cfi_startproc
 411              		@ args = 0, pretend = 0, frame = 0
 412              		@ frame_needed = 0, uses_anonymous_args = 0
 413              		@ link register save eliminated.
 414              	.LVL46:
 415              		.loc 1 125 0
 416 0000 4368     		ldr	r3, [r0, #4]
 417 0002 43EAC171 		orr	r1, r3, r1, lsl #31
 418              	.LVL47:
 419 0006 4160     		str	r1, [r0, #4]
 420 0008 7047     		bx	lr
 421              		.cfi_endproc
 422              	.LFE42:
 423              		.size	ADC_CfgChannelMode, .-ADC_CfgChannelMode
 424              		.section	.text.ADC_check,"ax",%progbits
 425              		.align	2
 426              		.p2align 4,,15
 427              		.global	ADC_check
 428              		.thumb
 429              		.thumb_func
 430              		.type	ADC_check, %function
 431              	ADC_check:
 432              	.LFB44:
 433              		.loc 1 176 0
 434              		.cfi_startproc
 435              		@ args = 0, pretend = 0, frame = 0
 436              		@ frame_needed = 0, uses_anonymous_args = 0
 437              	.LVL48:
 438 0000 70B5     		push	{r4, r5, r6, lr}
 439              		.cfi_def_cfa_offset 16
 440              		.cfi_offset 4, -16
 441              		.cfi_offset 5, -12
 442              		.cfi_offset 6, -8
 443              		.cfi_offset 14, -4
 444              		.loc 1 182 0
 445 0002 4468     		ldr	r4, [r0, #4]
 446              	.LVL49:
 447              		.loc 1 176 0
 448 0004 0546     		mov	r5, r0
 449              		.loc 1 182 0
 450 0006 C4F30724 		ubfx	r4, r4, #8, #8
 451              	.LVL50:
ARM GAS  /tmp/ccOcrNIh.s 			page 9


 452              		.loc 1 183 0
 453 000a 0134     		adds	r4, r4, #1
 454 000c 6400     		lsls	r4, r4, #1
 455 000e B1FBF4F4 		udiv	r4, r1, r4
 456              	.LVL51:
 457              		.loc 1 184 0
 458 0012 3348     		ldr	r0, .L53
 459              	.LVL52:
 460 0014 2246     		mov	r2, r4
 461 0016 3349     		ldr	r1, .L53+4
 462              	.LVL53:
 463 0018 FFF7FEFF 		bl	chprintf
 464              	.LVL54:
 465              		.loc 1 186 0
 466 001c 002C     		cmp	r4, #0
 467 001e 50D0     		beq	.L48
 468              		.loc 1 190 0
 469 0020 314A     		ldr	r2, .L53+8
 470 0022 9442     		cmp	r4, r2
 471 0024 2CD8     		bhi	.L49
 472              	.L32:
 473              		.loc 1 195 0
 474 0026 6868     		ldr	r0, [r5, #4]
 475              		.loc 1 196 0
 476 0028 6B68     		ldr	r3, [r5, #4]
 477              		.loc 1 195 0
 478 002a C0F30346 		ubfx	r6, r0, #16, #4
 479              	.LVL55:
 480              		.loc 1 196 0
 481 002e 9806     		lsls	r0, r3, #26
 482 0030 0CD4     		bmi	.L33
 483              		.loc 1 199 0
 484 0032 2E4B     		ldr	r3, .L53+12
 485 0034 04EB8404 		add	r4, r4, r4, lsl #2
 486              	.LVL56:
 487 0038 E400     		lsls	r4, r4, #3
 488              		.loc 1 213 0
 489 003a 3046     		mov	r0, r6
 490              		.loc 1 199 0
 491 003c A3FB0414 		umull	r1, r4, r3, r4
 492              		.loc 1 213 0
 493 0040 FFF7FEFF 		bl	calcul_startup
 494              	.LVL57:
 495 0044 A40C     		lsrs	r4, r4, #18
 496 0046 8442     		cmp	r4, r0
 497 0048 12D8     		bhi	.L50
 498              	.L30:
 499 004a 70BD     		pop	{r4, r5, r6, pc}
 500              	.LVL58:
 501              	.L33:
 502              		.loc 1 206 0
 503 004c 6B68     		ldr	r3, [r5, #4]
 504 004e 1906     		lsls	r1, r3, #24
 505 0050 3DD4     		bmi	.L51
 506              		.loc 1 210 0
 507 0052 6B68     		ldr	r3, [r5, #4]
 508 0054 5A06     		lsls	r2, r3, #25
ARM GAS  /tmp/ccOcrNIh.s 			page 10


 509 0056 18D4     		bmi	.L37
 510              	.L52:
 511              		.loc 1 213 0
 512 0058 244B     		ldr	r3, .L53+12
 513 005a 04EB8404 		add	r4, r4, r4, lsl #2
 514              	.LVL59:
 515 005e E400     		lsls	r4, r4, #3
 516 0060 3046     		mov	r0, r6
 517 0062 A3FB0424 		umull	r2, r4, r3, r4
 518 0066 FFF7FEFF 		bl	calcul_startup
 519              	.LVL60:
 520 006a A40C     		lsrs	r4, r4, #18
 521 006c 8442     		cmp	r4, r0
 522 006e ECD9     		bls	.L30
 523              	.L50:
 524              		.loc 1 215 0
 525 0070 2246     		mov	r2, r4
 526 0072 0346     		mov	r3, r0
 527 0074 1E49     		ldr	r1, .L53+16
 528 0076 1A48     		ldr	r0, .L53
 529              		.loc 1 234 0
 530 0078 BDE87040 		pop	{r4, r5, r6, lr}
 531              	.LVL61:
 532              		.loc 1 215 0
 533 007c FFF7FEBF 		b	chprintf
 534              	.LVL62:
 535              	.L49:
 536              		.loc 1 192 0
 537 0080 1748     		ldr	r0, .L53
 538 0082 1C49     		ldr	r1, .L53+20
 539 0084 FFF7FEFF 		bl	chprintf
 540              	.LVL63:
 541 0088 CDE7     		b	.L32
 542              	.LVL64:
 543              	.L37:
 544              		.loc 1 220 0
 545 008a 6B68     		ldr	r3, [r5, #4]
 546 008c 5B06     		lsls	r3, r3, #25
 547 008e DCD5     		bpl	.L30
 548              		.loc 1 223 0
 549 0090 3046     		mov	r0, r6
 550 0092 FFF7FEFF 		bl	calcul_startup
 551              	.LVL65:
 552 0096 04EB4402 		add	r2, r4, r4, lsl #1
 553 009a 144B     		ldr	r3, .L53+12
 554 009c 9200     		lsls	r2, r2, #2
 555 009e A3FB0212 		umull	r1, r2, r3, r2
 556 00a2 B0EB924F 		cmp	r0, r2, lsr #18
 557 00a6 D0D2     		bcs	.L30
 558              		.loc 1 225 0
 559 00a8 04EB8404 		add	r4, r4, r4, lsl #2
 560              	.LVL66:
 561 00ac E200     		lsls	r2, r4, #3
 562 00ae A3FB0212 		umull	r1, r2, r3, r2
 563              		.loc 1 234 0
 564 00b2 BDE87040 		pop	{r4, r5, r6, lr}
 565              	.LVL67:
ARM GAS  /tmp/ccOcrNIh.s 			page 11


 566              		.loc 1 225 0
 567 00b6 0346     		mov	r3, r0
 568 00b8 920C     		lsrs	r2, r2, #18
 569 00ba 0948     		ldr	r0, .L53
 570 00bc 0C49     		ldr	r1, .L53+16
 571 00be FFF7FEBF 		b	chprintf
 572              	.LVL68:
 573              	.L48:
 574              		.loc 1 188 0
 575 00c2 0748     		ldr	r0, .L53
 576 00c4 0C49     		ldr	r1, .L53+24
 577 00c6 0122     		movs	r2, #1
 578 00c8 FFF7FEFF 		bl	chprintf
 579              	.LVL69:
 580 00cc ABE7     		b	.L32
 581              	.LVL70:
 582              	.L51:
 583              		.loc 1 208 0
 584 00ce 0448     		ldr	r0, .L53
 585 00d0 0A49     		ldr	r1, .L53+28
 586 00d2 FFF7FEFF 		bl	chprintf
 587              	.LVL71:
 588              		.loc 1 210 0
 589 00d6 6B68     		ldr	r3, [r5, #4]
 590 00d8 5A06     		lsls	r2, r3, #25
 591 00da D6D4     		bmi	.L37
 592 00dc BCE7     		b	.L52
 593              	.L54:
 594 00de 00BF     		.align	2
 595              	.L53:
 596 00e0 00000000 		.word	SD2
 597 00e4 00000000 		.word	.LC0
 598 00e8 00127A00 		.word	8000000
 599 00ec 83DE1B43 		.word	1125899907
 600 00f0 90000000 		.word	.LC3
 601 00f4 58000000 		.word	.LC2
 602 00f8 20000000 		.word	.LC1
 603 00fc C0000000 		.word	.LC4
 604              		.cfi_endproc
 605              	.LFE44:
 606              		.size	ADC_check, .-ADC_check
 607              		.section	.text.ADC_GetConvertedData,"ax",%progbits
 608              		.align	2
 609              		.p2align 4,,15
 610              		.global	ADC_GetConvertedData
 611              		.thumb
 612              		.thumb_func
 613              		.type	ADC_GetConvertedData, %function
 614              	ADC_GetConvertedData:
 615              	.LFB45:
 616              		.loc 1 245 0
 617              		.cfi_startproc
 618              		@ args = 0, pretend = 0, frame = 0
 619              		@ frame_needed = 0, uses_anonymous_args = 0
 620              		@ link register save eliminated.
 621              	.LVL72:
 622              		.loc 1 249 0
ARM GAS  /tmp/ccOcrNIh.s 			page 12


 623 0000 0F29     		cmp	r1, #15
 624              		.loc 1 251 0
 625 0002 9ABF     		itte	ls
 626 0004 1431     		addls	r1, r1, #20
 627              	.LVL73:
 628 0006 50F82100 		ldrls	r0, [r0, r1, lsl #2]
 629              	.LVL74:
 630              		.loc 1 246 0
 631 000a 0020     		movhi	r0, #0
 632              	.LVL75:
 633              		.loc 1 255 0
 634 000c 7047     		bx	lr
 635              		.cfi_endproc
 636              	.LFE45:
 637              		.size	ADC_GetConvertedData, .-ADC_GetConvertedData
 638 000e 00BF     		.section	.text.ADC_SetCompareChannel,"ax",%progbits
 639              		.align	2
 640              		.p2align 4,,15
 641              		.global	ADC_SetCompareChannel
 642              		.thumb
 643              		.thumb_func
 644              		.type	ADC_SetCompareChannel, %function
 645              	ADC_SetCompareChannel:
 646              	.LFB46:
 647              		.loc 1 263 0
 648              		.cfi_startproc
 649              		@ args = 0, pretend = 0, frame = 0
 650              		@ frame_needed = 0, uses_anonymous_args = 0
 651              	.LVL76:
 652              		.loc 1 264 0
 653 0000 1029     		cmp	r1, #16
 654              		.loc 1 263 0
 655 0002 08B5     		push	{r3, lr}
 656              		.cfi_def_cfa_offset 8
 657              		.cfi_offset 3, -8
 658              		.cfi_offset 14, -4
 659              		.loc 1 264 0
 660 0004 11D8     		bhi	.L62
 661              		.loc 1 268 0
 662 0006 036C     		ldr	r3, [r0, #64]
 663              		.loc 1 266 0
 664 0008 03D1     		bne	.L63
 665              		.loc 1 274 0
 666 000a 43F40073 		orr	r3, r3, #512
 667 000e 0364     		str	r3, [r0, #64]
 668 0010 08BD     		pop	{r3, pc}
 669              	.L63:
 670              		.loc 1 268 0
 671 0012 23F40073 		bic	r3, r3, #512
 672 0016 0364     		str	r3, [r0, #64]
 673              		.loc 1 269 0
 674 0018 036C     		ldr	r3, [r0, #64]
 675 001a 23F0F003 		bic	r3, r3, #240
 676 001e 0364     		str	r3, [r0, #64]
 677              		.loc 1 270 0
 678 0020 036C     		ldr	r3, [r0, #64]
 679 0022 43EA0111 		orr	r1, r3, r1, lsl #4
ARM GAS  /tmp/ccOcrNIh.s 			page 13


 680              	.LVL77:
 681 0026 0164     		str	r1, [r0, #64]
 682 0028 08BD     		pop	{r3, pc}
 683              	.LVL78:
 684              	.L62:
 685              		.loc 1 264 0 discriminator 1
 686 002a 0348     		ldr	r0, .L64
 687              	.LVL79:
 688 002c 4FF48471 		mov	r1, #264
 689              	.LVL80:
 690 0030 024A     		ldr	r2, .L64+4
 691 0032 034B     		ldr	r3, .L64+8
 692 0034 FFF7FEFF 		bl	__assert_func
 693              	.LVL81:
 694              	.L65:
 695              		.align	2
 696              	.L64:
 697 0038 E4000000 		.word	.LC5
 698 003c 00000000 		.word	.LANCHOR0
 699 0040 14010000 		.word	.LC6
 700              		.cfi_endproc
 701              	.LFE46:
 702              		.size	ADC_SetCompareChannel, .-ADC_SetCompareChannel
 703 0044 AFF30080 		.section	.text.ADC_SetCompareMode,"ax",%progbits
 703      AFF30080 
 703      AFF30080 
 704              		.align	2
 705              		.p2align 4,,15
 706              		.global	ADC_SetCompareMode
 707              		.thumb
 708              		.thumb_func
 709              		.type	ADC_SetCompareMode, %function
 710              	ADC_SetCompareMode:
 711              	.LFB47:
 712              		.loc 1 284 0
 713              		.cfi_startproc
 714              		@ args = 0, pretend = 0, frame = 0
 715              		@ frame_needed = 0, uses_anonymous_args = 0
 716              		@ link register save eliminated.
 717              	.LVL82:
 718              		.loc 1 285 0
 719 0000 036C     		ldr	r3, [r0, #64]
 720              		.loc 1 286 0
 721 0002 01F00301 		and	r1, r1, #3
 722              	.LVL83:
 723              		.loc 1 285 0
 724 0006 23F00303 		bic	r3, r3, #3
 725 000a 0364     		str	r3, [r0, #64]
 726              		.loc 1 286 0
 727 000c 036C     		ldr	r3, [r0, #64]
 728 000e 1943     		orrs	r1, r1, r3
 729 0010 0164     		str	r1, [r0, #64]
 730 0012 7047     		bx	lr
 731              		.cfi_endproc
 732              	.LFE47:
 733              		.size	ADC_SetCompareMode, .-ADC_SetCompareMode
 734 0014 AFF30080 		.section	.text.ADC_SetComparisonWindow,"ax",%progbits
ARM GAS  /tmp/ccOcrNIh.s 			page 14


 734      AFF30080 
 734      AFF30080 
 735              		.align	2
 736              		.p2align 4,,15
 737              		.global	ADC_SetComparisonWindow
 738              		.thumb
 739              		.thumb_func
 740              		.type	ADC_SetComparisonWindow, %function
 741              	ADC_SetComparisonWindow:
 742              	.LFB48:
 743              		.loc 1 295 0
 744              		.cfi_startproc
 745              		@ args = 0, pretend = 0, frame = 0
 746              		@ frame_needed = 0, uses_anonymous_args = 0
 747              		@ link register save eliminated.
 748              	.LVL84:
 749              		.loc 1 296 0
 750 0000 4164     		str	r1, [r0, #68]
 751 0002 7047     		bx	lr
 752              		.cfi_endproc
 753              	.LFE48:
 754              		.size	ADC_SetComparisonWindow, .-ADC_SetComparisonWindow
 755 0004 AFF30080 		.section	.text.ADC_IsInterruptMasked,"ax",%progbits
 755      AFF30080 
 755      AFF30080 
 756              		.align	2
 757              		.p2align 4,,15
 758              		.global	ADC_IsInterruptMasked
 759              		.thumb
 760              		.thumb_func
 761              		.type	ADC_IsInterruptMasked, %function
 762              	ADC_IsInterruptMasked:
 763              	.LFB49:
 764              		.loc 1 308 0
 765              		.cfi_startproc
 766              		@ args = 0, pretend = 0, frame = 0
 767              		@ frame_needed = 0, uses_anonymous_args = 0
 768              		@ link register save eliminated.
 769              	.LVL85:
 770              		.loc 1 309 0
 771 0000 C06A     		ldr	r0, [r0, #44]
 772              	.LVL86:
 773              		.loc 1 310 0
 774 0002 0840     		ands	r0, r0, r1
 775 0004 7047     		bx	lr
 776              		.cfi_endproc
 777              	.LFE49:
 778              		.size	ADC_IsInterruptMasked, .-ADC_IsInterruptMasked
 779 0006 00BFAFF3 		.section	.text.ADC_IsStatusSet,"ax",%progbits
 779      0080AFF3 
 779      0080
 780              		.align	2
 781              		.p2align 4,,15
 782              		.global	ADC_IsStatusSet
 783              		.thumb
 784              		.thumb_func
 785              		.type	ADC_IsStatusSet, %function
ARM GAS  /tmp/ccOcrNIh.s 			page 15


 786              	ADC_IsStatusSet:
 787              	.LFB50:
 788              		.loc 1 321 0
 789              		.cfi_startproc
 790              		@ args = 0, pretend = 0, frame = 0
 791              		@ frame_needed = 0, uses_anonymous_args = 0
 792              		@ link register save eliminated.
 793              	.LVL87:
 794              		.loc 1 322 0
 795 0000 006B     		ldr	r0, [r0, #48]
 796              	.LVL88:
 797              		.loc 1 323 0
 798 0002 0840     		ands	r0, r0, r1
 799 0004 7047     		bx	lr
 800              		.cfi_endproc
 801              	.LFE50:
 802              		.size	ADC_IsStatusSet, .-ADC_IsStatusSet
 803 0006 00BFAFF3 		.section	.text.ADC_IsChannelInterruptStatusSet,"ax",%progbits
 803      0080AFF3 
 803      0080
 804              		.align	2
 805              		.p2align 4,,15
 806              		.global	ADC_IsChannelInterruptStatusSet
 807              		.thumb
 808              		.thumb_func
 809              		.type	ADC_IsChannelInterruptStatusSet, %function
 810              	ADC_IsChannelInterruptStatusSet:
 811              	.LFB51:
 812              		.loc 1 334 0
 813              		.cfi_startproc
 814              		@ args = 0, pretend = 0, frame = 0
 815              		@ frame_needed = 0, uses_anonymous_args = 0
 816              		@ link register save eliminated.
 817              	.LVL89:
 818              		.loc 1 337 0
 819 0000 0123     		movs	r3, #1
 820 0002 03FA01F1 		lsl	r1, r3, r1
 821              	.LVL90:
 822 0006 0840     		ands	r0, r0, r1
 823              	.LVL91:
 824              		.loc 1 347 0
 825 0008 0B1A     		subs	r3, r1, r0
 826 000a 5842     		rsbs	r0, r3, #0
 827 000c 5841     		adcs	r0, r0, r3
 828 000e 7047     		bx	lr
 829              		.cfi_endproc
 830              	.LFE51:
 831              		.size	ADC_IsChannelInterruptStatusSet, .-ADC_IsChannelInterruptStatusSet
 832              		.section	.text.ADC_ReadBuffer,"ax",%progbits
 833              		.align	2
 834              		.p2align 4,,15
 835              		.global	ADC_ReadBuffer
 836              		.thumb
 837              		.thumb_func
 838              		.type	ADC_ReadBuffer, %function
 839              	ADC_ReadBuffer:
 840              	.LFB52:
ARM GAS  /tmp/ccOcrNIh.s 			page 16


 841              		.loc 1 357 0
 842              		.cfi_startproc
 843              		@ args = 0, pretend = 0, frame = 0
 844              		@ frame_needed = 0, uses_anonymous_args = 0
 845              		@ link register save eliminated.
 846              	.LVL92:
 847 0000 0346     		mov	r3, r0
 848              		.loc 1 359 0
 849 0002 D0F80401 		ldr	r0, [r0, #260]
 850              	.LVL93:
 851              		.loc 1 357 0
 852 0006 10B4     		push	{r4}
 853              		.cfi_def_cfa_offset 4
 854              		.cfi_offset 4, -4
 855              		.loc 1 359 0
 856 0008 10B9     		cbnz	r0, .L72
 857              		.loc 1 359 0 is_stmt 0 discriminator 1
 858 000a D3F81401 		ldr	r0, [r3, #276]
 859 000e 70B1     		cbz	r0, .L75
 860              	.L72:
 861              		.loc 1 370 0 is_stmt 1
 862 0010 D3F81401 		ldr	r0, [r3, #276]
 863 0014 38B9     		cbnz	r0, .L74
 864              		.loc 1 372 0
 865 0016 C3F81011 		str	r1, [r3, #272]
 866              		.loc 1 375 0
 867 001a 0120     		movs	r0, #1
 868              		.loc 1 373 0
 869 001c C3F81421 		str	r2, [r3, #276]
 870              		.loc 1 382 0
 871 0020 5DF8044B 		ldr	r4, [sp], #4
 872 0024 7047     		bx	lr
 873              	.L74:
 874              		.loc 1 379 0
 875 0026 0020     		movs	r0, #0
 876              		.loc 1 382 0
 877 0028 5DF8044B 		ldr	r4, [sp], #4
 878 002c 7047     		bx	lr
 879              	.L75:
 880              		.loc 1 363 0
 881 002e 0124     		movs	r4, #1
 882              		.loc 1 361 0
 883 0030 C3F80011 		str	r1, [r3, #256]
 884              		.loc 1 365 0
 885 0034 2046     		mov	r0, r4
 886              		.loc 1 362 0
 887 0036 C3F80421 		str	r2, [r3, #260]
 888              		.loc 1 363 0
 889 003a C3F82041 		str	r4, [r3, #288]
 890              		.loc 1 382 0
 891 003e 5DF8044B 		ldr	r4, [sp], #4
 892 0042 7047     		bx	lr
 893              		.cfi_endproc
 894              	.LFE52:
 895              		.size	ADC_ReadBuffer, .-ADC_ReadBuffer
 896 0044 AFF30080 		.section	.rodata.str1.4,"aMS",%progbits,1
 896      AFF30080 
ARM GAS  /tmp/ccOcrNIh.s 			page 17


 896      AFF30080 
 897              		.align	2
 898              	.LC0:
 899 0000 41444320 		.ascii	"ADC clock frequency =  %d Hz\015\012\000"
 899      636C6F63 
 899      6B206672 
 899      65717565 
 899      6E637920 
 900 001f 00       		.space	1
 901              	.LC1:
 902 0020 61646320 		.ascii	"adc frequency too low (out of specification: %d Hz)"
 902      66726571 
 902      75656E63 
 902      7920746F 
 902      6F206C6F 
 903 0053 0D0A00   		.ascii	"\015\012\000"
 904 0056 0000     		.space	2
 905              	.LC2:
 906 0058 61646320 		.ascii	"adc frequency too high (out of specification: %d Hz"
 906      66726571 
 906      75656E63 
 906      7920746F 
 906      6F206869 
 907 008b 290D0A00 		.ascii	")\015\012\000"
 908 008f 00       		.space	1
 909              	.LC3:
 910 0090 53746172 		.ascii	"Startup time too small: %d, programmed: %d\015\012\000"
 910      74757020 
 910      74696D65 
 910      20746F6F 
 910      20736D61 
 911 00bd 000000   		.space	3
 912              	.LC4:
 913 00c0 46726565 		.ascii	"FreeRun forbidden in sleep mode\012\015\000"
 913      52756E20 
 913      666F7262 
 913      69646465 
 913      6E20696E 
 914 00e2 0000     		.space	2
 915              	.LC5:
 916 00e4 2E2E2F2E 		.ascii	"../../os/hal/platforms/AT91SAM3S/atmel_adc.c\000"
 916      2E2F6F73 
 916      2F68616C 
 916      2F706C61 
 916      74666F72 
 917 0111 000000   		.space	3
 918              	.LC6:
 919 0114 64774368 		.ascii	"dwChannel <= 16\000"
 919      616E6E65 
 919      6C203C3D 
 919      20313600 
 920              		.section	.rodata.__func__.6017,"a",%progbits
 921              		.align	2
 922              		.set	.LANCHOR0,. + 0
 923              		.type	__func__.6017, %object
 924              		.size	__func__.6017, 22
 925              	__func__.6017:
ARM GAS  /tmp/ccOcrNIh.s 			page 18


 926 0000 4144435F 		.ascii	"ADC_SetCompareChannel\000"
 926      53657443 
 926      6F6D7061 
 926      72654368 
 926      616E6E65 
 927 0016 0000     		.text
 928              	.Letext0:
 929              		.file 2 "/usr/local/gcc-arm-none-eabi-4_8-2014q2/lib/gcc/arm-none-eabi/4.8.4/include/stddef.h"
 930              		.file 3 "/usr/local/gcc-arm-none-eabi-4_8-2014q2/arm-none-eabi/include/machine/_default_types.h"
 931              		.file 4 "/usr/local/gcc-arm-none-eabi-4_8-2014q2/arm-none-eabi/include/stdint.h"
 932              		.file 5 "../../os/ports/GCC/ARMCMx/chtypes.h"
 933              		.file 6 "../../os/kernel/include/chlists.h"
 934              		.file 7 "../../os/kernel/include/chthreads.h"
 935              		.file 8 "../../os/ports/GCC/ARMCMx/chcore_v7m.h"
 936              		.file 9 "../../os/kernel/include/chmtx.h"
 937              		.file 10 "../../os/kernel/include/chevents.h"
 938              		.file 11 "../../os/kernel/include/chqueues.h"
 939              		.file 12 "../../os/kernel/include/chioch.h"
 940              		.file 13 "../../os/hal/platforms/AT91SAM3S/at91lib/SAM3S.h"
 941              		.file 14 "../../os/hal/include/serial.h"
 942              		.file 15 "../../os/hal/platforms/AT91SAM3S/core_cm3.h"
 943              		.file 16 "../../os/hal/platforms/AT91SAM3S/serial_lld.h"
 944              		.file 17 "../../os/various/chprintf.h"
 945              		.file 18 "/usr/local/gcc-arm-none-eabi-4_8-2014q2/arm-none-eabi/include/assert.h"
 946              		.section	.debug_info,"",%progbits
 947              	.Ldebug_info0:
 948 0000 3E130000 		.4byte	0x133e
 949 0004 0400     		.2byte	0x4
 950 0006 00000000 		.4byte	.Ldebug_abbrev0
 951 000a 04       		.byte	0x4
 952 000b 01       		.uleb128 0x1
 953 000c 23080000 		.4byte	.LASF230
 954 0010 01       		.byte	0x1
 955 0011 00010000 		.4byte	.LASF231
 956 0015 69020000 		.4byte	.LASF232
 957 0019 18000000 		.4byte	.Ldebug_ranges0+0x18
 958 001d 00000000 		.4byte	0
 959 0021 00000000 		.4byte	.Ldebug_line0
 960 0025 02       		.uleb128 0x2
 961 0026 04       		.byte	0x4
 962 0027 05       		.byte	0x5
 963 0028 696E7400 		.ascii	"int\000"
 964 002c 03       		.uleb128 0x3
 965 002d 1C000000 		.4byte	.LASF2
 966 0031 02       		.byte	0x2
 967 0032 D4       		.byte	0xd4
 968 0033 37000000 		.4byte	0x37
 969 0037 04       		.uleb128 0x4
 970 0038 04       		.byte	0x4
 971 0039 07       		.byte	0x7
 972 003a 32050000 		.4byte	.LASF0
 973 003e 04       		.uleb128 0x4
 974 003f 01       		.byte	0x1
 975 0040 06       		.byte	0x6
 976 0041 4E020000 		.4byte	.LASF1
 977 0045 03       		.uleb128 0x3
 978 0046 70010000 		.4byte	.LASF3
ARM GAS  /tmp/ccOcrNIh.s 			page 19


 979 004a 03       		.byte	0x3
 980 004b 1C       		.byte	0x1c
 981 004c 50000000 		.4byte	0x50
 982 0050 04       		.uleb128 0x4
 983 0051 01       		.byte	0x1
 984 0052 08       		.byte	0x8
 985 0053 A9020000 		.4byte	.LASF4
 986 0057 03       		.uleb128 0x3
 987 0058 68060000 		.4byte	.LASF5
 988 005c 03       		.byte	0x3
 989 005d 25       		.byte	0x25
 990 005e 62000000 		.4byte	0x62
 991 0062 04       		.uleb128 0x4
 992 0063 02       		.byte	0x2
 993 0064 05       		.byte	0x5
 994 0065 17070000 		.4byte	.LASF6
 995 0069 04       		.uleb128 0x4
 996 006a 02       		.byte	0x2
 997 006b 07       		.byte	0x7
 998 006c 08090000 		.4byte	.LASF7
 999 0070 03       		.uleb128 0x3
 1000 0071 38090000 		.4byte	.LASF8
 1001 0075 03       		.byte	0x3
 1002 0076 37       		.byte	0x37
 1003 0077 7B000000 		.4byte	0x7b
 1004 007b 04       		.uleb128 0x4
 1005 007c 04       		.byte	0x4
 1006 007d 05       		.byte	0x5
 1007 007e B1010000 		.4byte	.LASF9
 1008 0082 03       		.uleb128 0x3
 1009 0083 8C040000 		.4byte	.LASF10
 1010 0087 03       		.byte	0x3
 1011 0088 38       		.byte	0x38
 1012 0089 8D000000 		.4byte	0x8d
 1013 008d 04       		.uleb128 0x4
 1014 008e 04       		.byte	0x4
 1015 008f 07       		.byte	0x7
 1016 0090 0B040000 		.4byte	.LASF11
 1017 0094 04       		.uleb128 0x4
 1018 0095 08       		.byte	0x8
 1019 0096 05       		.byte	0x5
 1020 0097 9D040000 		.4byte	.LASF12
 1021 009b 04       		.uleb128 0x4
 1022 009c 08       		.byte	0x8
 1023 009d 07       		.byte	0x7
 1024 009e 21060000 		.4byte	.LASF13
 1025 00a2 03       		.uleb128 0x3
 1026 00a3 61020000 		.4byte	.LASF14
 1027 00a7 04       		.byte	0x4
 1028 00a8 2A       		.byte	0x2a
 1029 00a9 45000000 		.4byte	0x45
 1030 00ad 03       		.uleb128 0x3
 1031 00ae 40070000 		.4byte	.LASF15
 1032 00b2 04       		.byte	0x4
 1033 00b3 35       		.byte	0x35
 1034 00b4 57000000 		.4byte	0x57
 1035 00b8 03       		.uleb128 0x3
ARM GAS  /tmp/ccOcrNIh.s 			page 20


 1036 00b9 5F000000 		.4byte	.LASF16
 1037 00bd 04       		.byte	0x4
 1038 00be 41       		.byte	0x41
 1039 00bf 70000000 		.4byte	0x70
 1040 00c3 03       		.uleb128 0x3
 1041 00c4 D5070000 		.4byte	.LASF17
 1042 00c8 04       		.byte	0x4
 1043 00c9 42       		.byte	0x42
 1044 00ca 82000000 		.4byte	0x82
 1045 00ce 03       		.uleb128 0x3
 1046 00cf FC070000 		.4byte	.LASF18
 1047 00d3 04       		.byte	0x4
 1048 00d4 6A       		.byte	0x6a
 1049 00d5 37000000 		.4byte	0x37
 1050 00d9 03       		.uleb128 0x3
 1051 00da 5E070000 		.4byte	.LASF19
 1052 00de 05       		.byte	0x5
 1053 00df 2E       		.byte	0x2e
 1054 00e0 B8000000 		.4byte	0xb8
 1055 00e4 03       		.uleb128 0x3
 1056 00e5 F3060000 		.4byte	.LASF20
 1057 00e9 05       		.byte	0x5
 1058 00ea 2F       		.byte	0x2f
 1059 00eb A2000000 		.4byte	0xa2
 1060 00ef 03       		.uleb128 0x3
 1061 00f0 E1010000 		.4byte	.LASF21
 1062 00f4 05       		.byte	0x5
 1063 00f5 30       		.byte	0x30
 1064 00f6 A2000000 		.4byte	0xa2
 1065 00fa 03       		.uleb128 0x3
 1066 00fb 9B070000 		.4byte	.LASF22
 1067 00ff 05       		.byte	0x5
 1068 0100 31       		.byte	0x31
 1069 0101 A2000000 		.4byte	0xa2
 1070 0105 03       		.uleb128 0x3
 1071 0106 3C000000 		.4byte	.LASF23
 1072 010a 05       		.byte	0x5
 1073 010b 32       		.byte	0x32
 1074 010c C3000000 		.4byte	0xc3
 1075 0110 03       		.uleb128 0x3
 1076 0111 40060000 		.4byte	.LASF24
 1077 0115 05       		.byte	0x5
 1078 0116 33       		.byte	0x33
 1079 0117 B8000000 		.4byte	0xb8
 1080 011b 03       		.uleb128 0x3
 1081 011c 95020000 		.4byte	.LASF25
 1082 0120 05       		.byte	0x5
 1083 0121 35       		.byte	0x35
 1084 0122 C3000000 		.4byte	0xc3
 1085 0126 03       		.uleb128 0x3
 1086 0127 2C000000 		.4byte	.LASF26
 1087 012b 05       		.byte	0x5
 1088 012c 36       		.byte	0x36
 1089 012d C3000000 		.4byte	0xc3
 1090 0131 03       		.uleb128 0x3
 1091 0132 74070000 		.4byte	.LASF27
 1092 0136 06       		.byte	0x6
ARM GAS  /tmp/ccOcrNIh.s 			page 21


 1093 0137 2A       		.byte	0x2a
 1094 0138 3C010000 		.4byte	0x13c
 1095 013c 05       		.uleb128 0x5
 1096 013d 74070000 		.4byte	.LASF27
 1097 0141 48       		.byte	0x48
 1098 0142 07       		.byte	0x7
 1099 0143 5E       		.byte	0x5e
 1100 0144 2D020000 		.4byte	0x22d
 1101 0148 06       		.uleb128 0x6
 1102 0149 BA010000 		.4byte	.LASF28
 1103 014d 07       		.byte	0x7
 1104 014e 5F       		.byte	0x5f
 1105 014f 4E020000 		.4byte	0x24e
 1106 0153 00       		.byte	0
 1107 0154 06       		.uleb128 0x6
 1108 0155 D2010000 		.4byte	.LASF29
 1109 0159 07       		.byte	0x7
 1110 015a 61       		.byte	0x61
 1111 015b 4E020000 		.4byte	0x24e
 1112 015f 04       		.byte	0x4
 1113 0160 06       		.uleb128 0x6
 1114 0161 05030000 		.4byte	.LASF30
 1115 0165 07       		.byte	0x7
 1116 0166 63       		.byte	0x63
 1117 0167 05010000 		.4byte	0x105
 1118 016b 08       		.byte	0x8
 1119 016c 06       		.uleb128 0x6
 1120 016d 36000000 		.4byte	.LASF31
 1121 0171 07       		.byte	0x7
 1122 0172 64       		.byte	0x64
 1123 0173 07030000 		.4byte	0x307
 1124 0177 0C       		.byte	0xc
 1125 0178 06       		.uleb128 0x6
 1126 0179 A9010000 		.4byte	.LASF32
 1127 017d 07       		.byte	0x7
 1128 017e 66       		.byte	0x66
 1129 017f 4E020000 		.4byte	0x24e
 1130 0183 10       		.byte	0x10
 1131 0184 06       		.uleb128 0x6
 1132 0185 38060000 		.4byte	.LASF33
 1133 0189 07       		.byte	0x7
 1134 018a 67       		.byte	0x67
 1135 018b 4E020000 		.4byte	0x24e
 1136 018f 14       		.byte	0x14
 1137 0190 06       		.uleb128 0x6
 1138 0191 9C090000 		.4byte	.LASF34
 1139 0195 07       		.byte	0x7
 1140 0196 6E       		.byte	0x6e
 1141 0197 16040000 		.4byte	0x416
 1142 019b 18       		.byte	0x18
 1143 019c 06       		.uleb128 0x6
 1144 019d 0A0A0000 		.4byte	.LASF35
 1145 01a1 07       		.byte	0x7
 1146 01a2 79       		.byte	0x79
 1147 01a3 EF000000 		.4byte	0xef
 1148 01a7 1C       		.byte	0x1c
 1149 01a8 06       		.uleb128 0x6
ARM GAS  /tmp/ccOcrNIh.s 			page 22


 1150 01a9 14050000 		.4byte	.LASF36
 1151 01ad 07       		.byte	0x7
 1152 01ae 7D       		.byte	0x7d
 1153 01af E4000000 		.4byte	0xe4
 1154 01b3 1D       		.byte	0x1d
 1155 01b4 06       		.uleb128 0x6
 1156 01b5 65050000 		.4byte	.LASF37
 1157 01b9 07       		.byte	0x7
 1158 01ba 82       		.byte	0x82
 1159 01bb FA000000 		.4byte	0xfa
 1160 01bf 1E       		.byte	0x1e
 1161 01c0 06       		.uleb128 0x6
 1162 01c1 A9050000 		.4byte	.LASF38
 1163 01c5 07       		.byte	0x7
 1164 01c6 89       		.byte	0x89
 1165 01c7 34030000 		.4byte	0x334
 1166 01cb 20       		.byte	0x20
 1167 01cc 07       		.uleb128 0x7
 1168 01cd 705F7500 		.ascii	"p_u\000"
 1169 01d1 07       		.byte	0x7
 1170 01d2 AE       		.byte	0xae
 1171 01d3 E1030000 		.4byte	0x3e1
 1172 01d7 24       		.byte	0x24
 1173 01d8 06       		.uleb128 0x6
 1174 01d9 04050000 		.4byte	.LASF39
 1175 01dd 07       		.byte	0x7
 1176 01de B3       		.byte	0xb3
 1177 01df 74020000 		.4byte	0x274
 1178 01e3 28       		.byte	0x28
 1179 01e4 06       		.uleb128 0x6
 1180 01e5 54000000 		.4byte	.LASF40
 1181 01e9 07       		.byte	0x7
 1182 01ea B9       		.byte	0xb9
 1183 01eb 54020000 		.4byte	0x254
 1184 01ef 2C       		.byte	0x2c
 1185 01f0 06       		.uleb128 0x6
 1186 01f1 E7090000 		.4byte	.LASF41
 1187 01f5 07       		.byte	0x7
 1188 01f6 BD       		.byte	0xbd
 1189 01f7 10010000 		.4byte	0x110
 1190 01fb 34       		.byte	0x34
 1191 01fc 06       		.uleb128 0x6
 1192 01fd C2030000 		.4byte	.LASF42
 1193 0201 07       		.byte	0x7
 1194 0202 C3       		.byte	0xc3
 1195 0203 1B010000 		.4byte	0x11b
 1196 0207 38       		.byte	0x38
 1197 0208 06       		.uleb128 0x6
 1198 0209 FE010000 		.4byte	.LASF43
 1199 020d 07       		.byte	0x7
 1200 020e CA       		.byte	0xca
 1201 020f 28040000 		.4byte	0x428
 1202 0213 3C       		.byte	0x3c
 1203 0214 06       		.uleb128 0x6
 1204 0215 BA050000 		.4byte	.LASF44
 1205 0219 07       		.byte	0x7
 1206 021a CE       		.byte	0xce
ARM GAS  /tmp/ccOcrNIh.s 			page 23


 1207 021b 05010000 		.4byte	0x105
 1208 021f 40       		.byte	0x40
 1209 0220 06       		.uleb128 0x6
 1210 0221 3F050000 		.4byte	.LASF45
 1211 0225 07       		.byte	0x7
 1212 0226 D4       		.byte	0xd4
 1213 0227 8A020000 		.4byte	0x28a
 1214 022b 44       		.byte	0x44
 1215 022c 00       		.byte	0
 1216 022d 08       		.uleb128 0x8
 1217 022e 08       		.byte	0x8
 1218 022f 06       		.byte	0x6
 1219 0230 61       		.byte	0x61
 1220 0231 4E020000 		.4byte	0x24e
 1221 0235 06       		.uleb128 0x6
 1222 0236 BA010000 		.4byte	.LASF28
 1223 023a 06       		.byte	0x6
 1224 023b 62       		.byte	0x62
 1225 023c 4E020000 		.4byte	0x24e
 1226 0240 00       		.byte	0
 1227 0241 06       		.uleb128 0x6
 1228 0242 D2010000 		.4byte	.LASF29
 1229 0246 06       		.byte	0x6
 1230 0247 64       		.byte	0x64
 1231 0248 4E020000 		.4byte	0x24e
 1232 024c 04       		.byte	0x4
 1233 024d 00       		.byte	0
 1234 024e 09       		.uleb128 0x9
 1235 024f 04       		.byte	0x4
 1236 0250 31010000 		.4byte	0x131
 1237 0254 03       		.uleb128 0x3
 1238 0255 E6070000 		.4byte	.LASF46
 1239 0259 06       		.byte	0x6
 1240 025a 66       		.byte	0x66
 1241 025b 2D020000 		.4byte	0x22d
 1242 025f 08       		.uleb128 0x8
 1243 0260 04       		.byte	0x4
 1244 0261 06       		.byte	0x6
 1245 0262 6B       		.byte	0x6b
 1246 0263 74020000 		.4byte	0x274
 1247 0267 06       		.uleb128 0x6
 1248 0268 BA010000 		.4byte	.LASF28
 1249 026c 06       		.byte	0x6
 1250 026d 6D       		.byte	0x6d
 1251 026e 4E020000 		.4byte	0x24e
 1252 0272 00       		.byte	0
 1253 0273 00       		.byte	0
 1254 0274 03       		.uleb128 0x3
 1255 0275 93050000 		.4byte	.LASF47
 1256 0279 06       		.byte	0x6
 1257 027a 70       		.byte	0x70
 1258 027b 5F020000 		.4byte	0x25f
 1259 027f 03       		.uleb128 0x3
 1260 0280 0F020000 		.4byte	.LASF48
 1261 0284 08       		.byte	0x8
 1262 0285 D7       		.byte	0xd7
 1263 0286 8A020000 		.4byte	0x28a
ARM GAS  /tmp/ccOcrNIh.s 			page 24


 1264 028a 0A       		.uleb128 0xa
 1265 028b 04       		.byte	0x4
 1266 028c 05       		.uleb128 0x5
 1267 028d BB030000 		.4byte	.LASF49
 1268 0291 24       		.byte	0x24
 1269 0292 08       		.byte	0x8
 1270 0293 FE       		.byte	0xfe
 1271 0294 07030000 		.4byte	0x307
 1272 0298 0B       		.uleb128 0xb
 1273 0299 723400   		.ascii	"r4\000"
 1274 029c 08       		.byte	0x8
 1275 029d 1101     		.2byte	0x111
 1276 029f 7F020000 		.4byte	0x27f
 1277 02a3 00       		.byte	0
 1278 02a4 0B       		.uleb128 0xb
 1279 02a5 723500   		.ascii	"r5\000"
 1280 02a8 08       		.byte	0x8
 1281 02a9 1201     		.2byte	0x112
 1282 02ab 7F020000 		.4byte	0x27f
 1283 02af 04       		.byte	0x4
 1284 02b0 0B       		.uleb128 0xb
 1285 02b1 723600   		.ascii	"r6\000"
 1286 02b4 08       		.byte	0x8
 1287 02b5 1301     		.2byte	0x113
 1288 02b7 7F020000 		.4byte	0x27f
 1289 02bb 08       		.byte	0x8
 1290 02bc 0B       		.uleb128 0xb
 1291 02bd 723700   		.ascii	"r7\000"
 1292 02c0 08       		.byte	0x8
 1293 02c1 1401     		.2byte	0x114
 1294 02c3 7F020000 		.4byte	0x27f
 1295 02c7 0C       		.byte	0xc
 1296 02c8 0B       		.uleb128 0xb
 1297 02c9 723800   		.ascii	"r8\000"
 1298 02cc 08       		.byte	0x8
 1299 02cd 1501     		.2byte	0x115
 1300 02cf 7F020000 		.4byte	0x27f
 1301 02d3 10       		.byte	0x10
 1302 02d4 0B       		.uleb128 0xb
 1303 02d5 723900   		.ascii	"r9\000"
 1304 02d8 08       		.byte	0x8
 1305 02d9 1601     		.2byte	0x116
 1306 02db 7F020000 		.4byte	0x27f
 1307 02df 14       		.byte	0x14
 1308 02e0 0B       		.uleb128 0xb
 1309 02e1 72313000 		.ascii	"r10\000"
 1310 02e5 08       		.byte	0x8
 1311 02e6 1701     		.2byte	0x117
 1312 02e8 7F020000 		.4byte	0x27f
 1313 02ec 18       		.byte	0x18
 1314 02ed 0B       		.uleb128 0xb
 1315 02ee 72313100 		.ascii	"r11\000"
 1316 02f2 08       		.byte	0x8
 1317 02f3 1801     		.2byte	0x118
 1318 02f5 7F020000 		.4byte	0x27f
 1319 02f9 1C       		.byte	0x1c
 1320 02fa 0B       		.uleb128 0xb
ARM GAS  /tmp/ccOcrNIh.s 			page 25


 1321 02fb 6C7200   		.ascii	"lr\000"
 1322 02fe 08       		.byte	0x8
 1323 02ff 1901     		.2byte	0x119
 1324 0301 7F020000 		.4byte	0x27f
 1325 0305 20       		.byte	0x20
 1326 0306 00       		.byte	0
 1327 0307 0C       		.uleb128 0xc
 1328 0308 A1020000 		.4byte	.LASF50
 1329 030c 04       		.byte	0x4
 1330 030d 08       		.byte	0x8
 1331 030e 2301     		.2byte	0x123
 1332 0310 22030000 		.4byte	0x322
 1333 0314 0B       		.uleb128 0xb
 1334 0315 72313300 		.ascii	"r13\000"
 1335 0319 08       		.byte	0x8
 1336 031a 2401     		.2byte	0x124
 1337 031c 22030000 		.4byte	0x322
 1338 0320 00       		.byte	0
 1339 0321 00       		.byte	0
 1340 0322 09       		.uleb128 0x9
 1341 0323 04       		.byte	0x4
 1342 0324 8C020000 		.4byte	0x28c
 1343 0328 0D       		.uleb128 0xd
 1344 0329 C3000000 		.4byte	0xc3
 1345 032d 04       		.uleb128 0x4
 1346 032e 04       		.byte	0x4
 1347 032f 07       		.byte	0x7
 1348 0330 23000000 		.4byte	.LASF51
 1349 0334 0D       		.uleb128 0xd
 1350 0335 26010000 		.4byte	0x126
 1351 0339 05       		.uleb128 0x5
 1352 033a 97040000 		.4byte	.LASF52
 1353 033e 10       		.byte	0x10
 1354 033f 09       		.byte	0x9
 1355 0340 2C       		.byte	0x2c
 1356 0341 6A030000 		.4byte	0x36a
 1357 0345 06       		.uleb128 0x6
 1358 0346 D5040000 		.4byte	.LASF53
 1359 034a 09       		.byte	0x9
 1360 034b 2D       		.byte	0x2d
 1361 034c 54020000 		.4byte	0x254
 1362 0350 00       		.byte	0
 1363 0351 06       		.uleb128 0x6
 1364 0352 5F010000 		.4byte	.LASF54
 1365 0356 09       		.byte	0x9
 1366 0357 2F       		.byte	0x2f
 1367 0358 4E020000 		.4byte	0x24e
 1368 035c 08       		.byte	0x8
 1369 035d 06       		.uleb128 0x6
 1370 035e A3090000 		.4byte	.LASF55
 1371 0362 09       		.byte	0x9
 1372 0363 31       		.byte	0x31
 1373 0364 6A030000 		.4byte	0x36a
 1374 0368 0C       		.byte	0xc
 1375 0369 00       		.byte	0
 1376 036a 09       		.uleb128 0x9
 1377 036b 04       		.byte	0x4
ARM GAS  /tmp/ccOcrNIh.s 			page 26


 1378 036c 39030000 		.4byte	0x339
 1379 0370 03       		.uleb128 0x3
 1380 0371 97040000 		.4byte	.LASF52
 1381 0375 09       		.byte	0x9
 1382 0376 33       		.byte	0x33
 1383 0377 39030000 		.4byte	0x339
 1384 037b 03       		.uleb128 0x3
 1385 037c A8070000 		.4byte	.LASF56
 1386 0380 0A       		.byte	0xa
 1387 0381 29       		.byte	0x29
 1388 0382 86030000 		.4byte	0x386
 1389 0386 05       		.uleb128 0x5
 1390 0387 A8070000 		.4byte	.LASF56
 1391 038b 0C       		.byte	0xc
 1392 038c 0A       		.byte	0xa
 1393 038d 2E       		.byte	0x2e
 1394 038e B7030000 		.4byte	0x3b7
 1395 0392 06       		.uleb128 0x6
 1396 0393 43040000 		.4byte	.LASF57
 1397 0397 0A       		.byte	0xa
 1398 0398 2F       		.byte	0x2f
 1399 0399 B7030000 		.4byte	0x3b7
 1400 039d 00       		.byte	0
 1401 039e 06       		.uleb128 0x6
 1402 039f ED090000 		.4byte	.LASF58
 1403 03a3 0A       		.byte	0xa
 1404 03a4 32       		.byte	0x32
 1405 03a5 4E020000 		.4byte	0x24e
 1406 03a9 04       		.byte	0x4
 1407 03aa 06       		.uleb128 0x6
 1408 03ab 62090000 		.4byte	.LASF59
 1409 03af 0A       		.byte	0xa
 1410 03b0 34       		.byte	0x34
 1411 03b1 1B010000 		.4byte	0x11b
 1412 03b5 08       		.byte	0x8
 1413 03b6 00       		.byte	0
 1414 03b7 09       		.uleb128 0x9
 1415 03b8 04       		.byte	0x4
 1416 03b9 7B030000 		.4byte	0x37b
 1417 03bd 05       		.uleb128 0x5
 1418 03be F6030000 		.4byte	.LASF60
 1419 03c2 04       		.byte	0x4
 1420 03c3 0A       		.byte	0xa
 1421 03c4 3C       		.byte	0x3c
 1422 03c5 D6030000 		.4byte	0x3d6
 1423 03c9 06       		.uleb128 0x6
 1424 03ca E4030000 		.4byte	.LASF61
 1425 03ce 0A       		.byte	0xa
 1426 03cf 3D       		.byte	0x3d
 1427 03d0 B7030000 		.4byte	0x3b7
 1428 03d4 00       		.byte	0
 1429 03d5 00       		.byte	0
 1430 03d6 03       		.uleb128 0x3
 1431 03d7 F6030000 		.4byte	.LASF60
 1432 03db 0A       		.byte	0xa
 1433 03dc 40       		.byte	0x40
 1434 03dd BD030000 		.4byte	0x3bd
ARM GAS  /tmp/ccOcrNIh.s 			page 27


 1435 03e1 0E       		.uleb128 0xe
 1436 03e2 04       		.byte	0x4
 1437 03e3 07       		.byte	0x7
 1438 03e4 90       		.byte	0x90
 1439 03e5 16040000 		.4byte	0x416
 1440 03e9 0F       		.uleb128 0xf
 1441 03ea 1C080000 		.4byte	.LASF62
 1442 03ee 07       		.byte	0x7
 1443 03ef 97       		.byte	0x97
 1444 03f0 10010000 		.4byte	0x110
 1445 03f4 0F       		.uleb128 0xf
 1446 03f5 67010000 		.4byte	.LASF63
 1447 03f9 07       		.byte	0x7
 1448 03fa 9E       		.byte	0x9e
 1449 03fb 10010000 		.4byte	0x110
 1450 03ff 0F       		.uleb128 0xf
 1451 0400 19030000 		.4byte	.LASF64
 1452 0404 07       		.byte	0x7
 1453 0405 A5       		.byte	0xa5
 1454 0406 8A020000 		.4byte	0x28a
 1455 040a 0F       		.uleb128 0xf
 1456 040b 5A020000 		.4byte	.LASF65
 1457 040f 07       		.byte	0x7
 1458 0410 AC       		.byte	0xac
 1459 0411 1B010000 		.4byte	0x11b
 1460 0415 00       		.byte	0
 1461 0416 09       		.uleb128 0x9
 1462 0417 04       		.byte	0x4
 1463 0418 1C040000 		.4byte	0x41c
 1464 041c 10       		.uleb128 0x10
 1465 041d 21040000 		.4byte	0x421
 1466 0421 04       		.uleb128 0x4
 1467 0422 01       		.byte	0x1
 1468 0423 08       		.byte	0x8
 1469 0424 00030000 		.4byte	.LASF66
 1470 0428 09       		.uleb128 0x9
 1471 0429 04       		.byte	0x4
 1472 042a 70030000 		.4byte	0x370
 1473 042e 03       		.uleb128 0x3
 1474 042f 0C030000 		.4byte	.LASF67
 1475 0433 0B       		.byte	0xb
 1476 0434 37       		.byte	0x37
 1477 0435 39040000 		.4byte	0x439
 1478 0439 05       		.uleb128 0x5
 1479 043a 0C030000 		.4byte	.LASF67
 1480 043e 20       		.byte	0x20
 1481 043f 0B       		.byte	0xb
 1482 0440 45       		.byte	0x45
 1483 0441 9A040000 		.4byte	0x49a
 1484 0445 06       		.uleb128 0x6
 1485 0446 A3060000 		.4byte	.LASF68
 1486 044a 0B       		.byte	0xb
 1487 044b 46       		.byte	0x46
 1488 044c 54020000 		.4byte	0x254
 1489 0450 00       		.byte	0
 1490 0451 06       		.uleb128 0x6
 1491 0452 EC030000 		.4byte	.LASF69
ARM GAS  /tmp/ccOcrNIh.s 			page 28


 1492 0456 0B       		.byte	0xb
 1493 0457 47       		.byte	0x47
 1494 0458 2C000000 		.4byte	0x2c
 1495 045c 08       		.byte	0x8
 1496 045d 06       		.uleb128 0x6
 1497 045e 8F010000 		.4byte	.LASF70
 1498 0462 0B       		.byte	0xb
 1499 0463 48       		.byte	0x48
 1500 0464 BC040000 		.4byte	0x4bc
 1501 0468 0C       		.byte	0xc
 1502 0469 06       		.uleb128 0x6
 1503 046a 7A010000 		.4byte	.LASF71
 1504 046e 0B       		.byte	0xb
 1505 046f 49       		.byte	0x49
 1506 0470 BC040000 		.4byte	0x4bc
 1507 0474 10       		.byte	0x10
 1508 0475 06       		.uleb128 0x6
 1509 0476 53040000 		.4byte	.LASF72
 1510 047a 0B       		.byte	0xb
 1511 047b 4B       		.byte	0x4b
 1512 047c BC040000 		.4byte	0x4bc
 1513 0480 14       		.byte	0x14
 1514 0481 06       		.uleb128 0x6
 1515 0482 C1010000 		.4byte	.LASF73
 1516 0486 0B       		.byte	0xb
 1517 0487 4C       		.byte	0x4c
 1518 0488 BC040000 		.4byte	0x4bc
 1519 048c 18       		.byte	0x18
 1520 048d 06       		.uleb128 0x6
 1521 048e A0010000 		.4byte	.LASF74
 1522 0492 0B       		.byte	0xb
 1523 0493 4D       		.byte	0x4d
 1524 0494 9A040000 		.4byte	0x49a
 1525 0498 1C       		.byte	0x1c
 1526 0499 00       		.byte	0
 1527 049a 03       		.uleb128 0x3
 1528 049b FA040000 		.4byte	.LASF75
 1529 049f 0B       		.byte	0xb
 1530 04a0 3A       		.byte	0x3a
 1531 04a1 A5040000 		.4byte	0x4a5
 1532 04a5 09       		.uleb128 0x9
 1533 04a6 04       		.byte	0x4
 1534 04a7 AB040000 		.4byte	0x4ab
 1535 04ab 11       		.uleb128 0x11
 1536 04ac B6040000 		.4byte	0x4b6
 1537 04b0 12       		.uleb128 0x12
 1538 04b1 B6040000 		.4byte	0x4b6
 1539 04b5 00       		.byte	0
 1540 04b6 09       		.uleb128 0x9
 1541 04b7 04       		.byte	0x4
 1542 04b8 2E040000 		.4byte	0x42e
 1543 04bc 09       		.uleb128 0x9
 1544 04bd 04       		.byte	0x4
 1545 04be A2000000 		.4byte	0xa2
 1546 04c2 03       		.uleb128 0x3
 1547 04c3 2D090000 		.4byte	.LASF76
 1548 04c7 0B       		.byte	0xb
ARM GAS  /tmp/ccOcrNIh.s 			page 29


 1549 04c8 76       		.byte	0x76
 1550 04c9 2E040000 		.4byte	0x42e
 1551 04cd 03       		.uleb128 0x3
 1552 04ce 34030000 		.4byte	.LASF77
 1553 04d2 0B       		.byte	0xb
 1554 04d3 E6       		.byte	0xe6
 1555 04d4 2E040000 		.4byte	0x42e
 1556 04d8 13       		.uleb128 0x13
 1557 04d9 2C000000 		.4byte	0x2c
 1558 04dd F1040000 		.4byte	0x4f1
 1559 04e1 12       		.uleb128 0x12
 1560 04e2 8A020000 		.4byte	0x28a
 1561 04e6 12       		.uleb128 0x12
 1562 04e7 F1040000 		.4byte	0x4f1
 1563 04eb 12       		.uleb128 0x12
 1564 04ec 2C000000 		.4byte	0x2c
 1565 04f0 00       		.byte	0
 1566 04f1 09       		.uleb128 0x9
 1567 04f2 04       		.byte	0x4
 1568 04f3 F7040000 		.4byte	0x4f7
 1569 04f7 10       		.uleb128 0x10
 1570 04f8 A2000000 		.4byte	0xa2
 1571 04fc 09       		.uleb128 0x9
 1572 04fd 04       		.byte	0x4
 1573 04fe D8040000 		.4byte	0x4d8
 1574 0502 13       		.uleb128 0x13
 1575 0503 2C000000 		.4byte	0x2c
 1576 0507 1B050000 		.4byte	0x51b
 1577 050b 12       		.uleb128 0x12
 1578 050c 8A020000 		.4byte	0x28a
 1579 0510 12       		.uleb128 0x12
 1580 0511 BC040000 		.4byte	0x4bc
 1581 0515 12       		.uleb128 0x12
 1582 0516 2C000000 		.4byte	0x2c
 1583 051a 00       		.byte	0
 1584 051b 09       		.uleb128 0x9
 1585 051c 04       		.byte	0x4
 1586 051d 02050000 		.4byte	0x502
 1587 0521 05       		.uleb128 0x5
 1588 0522 53090000 		.4byte	.LASF78
 1589 0526 20       		.byte	0x20
 1590 0527 0C       		.byte	0xc
 1591 0528 51       		.byte	0x51
 1592 0529 8E050000 		.4byte	0x58e
 1593 052d 06       		.uleb128 0x6
 1594 052e 95000000 		.4byte	.LASF79
 1595 0532 0C       		.byte	0xc
 1596 0533 52       		.byte	0x52
 1597 0534 FC040000 		.4byte	0x4fc
 1598 0538 00       		.byte	0
 1599 0539 06       		.uleb128 0x6
 1600 053a 25050000 		.4byte	.LASF80
 1601 053e 0C       		.byte	0xc
 1602 053f 52       		.byte	0x52
 1603 0540 1B050000 		.4byte	0x51b
 1604 0544 04       		.byte	0x4
 1605 0545 06       		.uleb128 0x6
ARM GAS  /tmp/ccOcrNIh.s 			page 30


 1606 0546 48030000 		.4byte	.LASF81
 1607 054a 0C       		.byte	0xc
 1608 054b 52       		.byte	0x52
 1609 054c 9D050000 		.4byte	0x59d
 1610 0550 08       		.byte	0x8
 1611 0551 06       		.uleb128 0x6
 1612 0552 C5050000 		.4byte	.LASF82
 1613 0556 0C       		.byte	0xc
 1614 0557 52       		.byte	0x52
 1615 0558 9D050000 		.4byte	0x59d
 1616 055c 0C       		.byte	0xc
 1617 055d 07       		.uleb128 0x7
 1618 055e 70757400 		.ascii	"put\000"
 1619 0562 0C       		.byte	0xc
 1620 0563 52       		.byte	0x52
 1621 0564 BC050000 		.4byte	0x5bc
 1622 0568 10       		.byte	0x10
 1623 0569 07       		.uleb128 0x7
 1624 056a 67657400 		.ascii	"get\000"
 1625 056e 0C       		.byte	0xc
 1626 056f 52       		.byte	0x52
 1627 0570 D6050000 		.4byte	0x5d6
 1628 0574 14       		.byte	0x14
 1629 0575 06       		.uleb128 0x6
 1630 0576 67000000 		.4byte	.LASF83
 1631 057a 0C       		.byte	0xc
 1632 057b 52       		.byte	0x52
 1633 057c FA050000 		.4byte	0x5fa
 1634 0580 18       		.byte	0x18
 1635 0581 06       		.uleb128 0x6
 1636 0582 89010000 		.4byte	.LASF84
 1637 0586 0C       		.byte	0xc
 1638 0587 52       		.byte	0x52
 1639 0588 1E060000 		.4byte	0x61e
 1640 058c 1C       		.byte	0x1c
 1641 058d 00       		.byte	0
 1642 058e 13       		.uleb128 0x13
 1643 058f D9000000 		.4byte	0xd9
 1644 0593 9D050000 		.4byte	0x59d
 1645 0597 12       		.uleb128 0x12
 1646 0598 8A020000 		.4byte	0x28a
 1647 059c 00       		.byte	0
 1648 059d 09       		.uleb128 0x9
 1649 059e 04       		.byte	0x4
 1650 059f 8E050000 		.4byte	0x58e
 1651 05a3 13       		.uleb128 0x13
 1652 05a4 10010000 		.4byte	0x110
 1653 05a8 BC050000 		.4byte	0x5bc
 1654 05ac 12       		.uleb128 0x12
 1655 05ad 8A020000 		.4byte	0x28a
 1656 05b1 12       		.uleb128 0x12
 1657 05b2 A2000000 		.4byte	0xa2
 1658 05b6 12       		.uleb128 0x12
 1659 05b7 26010000 		.4byte	0x126
 1660 05bb 00       		.byte	0
 1661 05bc 09       		.uleb128 0x9
 1662 05bd 04       		.byte	0x4
ARM GAS  /tmp/ccOcrNIh.s 			page 31


 1663 05be A3050000 		.4byte	0x5a3
 1664 05c2 13       		.uleb128 0x13
 1665 05c3 10010000 		.4byte	0x110
 1666 05c7 D6050000 		.4byte	0x5d6
 1667 05cb 12       		.uleb128 0x12
 1668 05cc 8A020000 		.4byte	0x28a
 1669 05d0 12       		.uleb128 0x12
 1670 05d1 26010000 		.4byte	0x126
 1671 05d5 00       		.byte	0
 1672 05d6 09       		.uleb128 0x9
 1673 05d7 04       		.byte	0x4
 1674 05d8 C2050000 		.4byte	0x5c2
 1675 05dc 13       		.uleb128 0x13
 1676 05dd 2C000000 		.4byte	0x2c
 1677 05e1 FA050000 		.4byte	0x5fa
 1678 05e5 12       		.uleb128 0x12
 1679 05e6 8A020000 		.4byte	0x28a
 1680 05ea 12       		.uleb128 0x12
 1681 05eb F1040000 		.4byte	0x4f1
 1682 05ef 12       		.uleb128 0x12
 1683 05f0 2C000000 		.4byte	0x2c
 1684 05f4 12       		.uleb128 0x12
 1685 05f5 26010000 		.4byte	0x126
 1686 05f9 00       		.byte	0
 1687 05fa 09       		.uleb128 0x9
 1688 05fb 04       		.byte	0x4
 1689 05fc DC050000 		.4byte	0x5dc
 1690 0600 13       		.uleb128 0x13
 1691 0601 2C000000 		.4byte	0x2c
 1692 0605 1E060000 		.4byte	0x61e
 1693 0609 12       		.uleb128 0x12
 1694 060a 8A020000 		.4byte	0x28a
 1695 060e 12       		.uleb128 0x12
 1696 060f BC040000 		.4byte	0x4bc
 1697 0613 12       		.uleb128 0x12
 1698 0614 2C000000 		.4byte	0x2c
 1699 0618 12       		.uleb128 0x12
 1700 0619 26010000 		.4byte	0x126
 1701 061d 00       		.byte	0
 1702 061e 09       		.uleb128 0x9
 1703 061f 04       		.byte	0x4
 1704 0620 00060000 		.4byte	0x600
 1705 0624 08       		.uleb128 0x8
 1706 0625 04       		.byte	0x4
 1707 0626 0C       		.byte	0xc
 1708 0627 5C       		.byte	0x5c
 1709 0628 39060000 		.4byte	0x639
 1710 062c 07       		.uleb128 0x7
 1711 062d 766D7400 		.ascii	"vmt\000"
 1712 0631 0C       		.byte	0xc
 1713 0632 5E       		.byte	0x5e
 1714 0633 39060000 		.4byte	0x639
 1715 0637 00       		.byte	0
 1716 0638 00       		.byte	0
 1717 0639 09       		.uleb128 0x9
 1718 063a 04       		.byte	0x4
 1719 063b 3F060000 		.4byte	0x63f
ARM GAS  /tmp/ccOcrNIh.s 			page 32


 1720 063f 10       		.uleb128 0x10
 1721 0640 21050000 		.4byte	0x521
 1722 0644 03       		.uleb128 0x3
 1723 0645 AA090000 		.4byte	.LASF85
 1724 0649 0C       		.byte	0xc
 1725 064a 60       		.byte	0x60
 1726 064b 24060000 		.4byte	0x624
 1727 064f 14       		.uleb128 0x14
 1728 0650 9F050000 		.4byte	.LASF86
 1729 0654 0C       		.byte	0xc
 1730 0655 0B01     		.2byte	0x10b
 1731 0657 CE000000 		.4byte	0xce
 1732 065b 13       		.uleb128 0x13
 1733 065c 4F060000 		.4byte	0x64f
 1734 0660 6A060000 		.4byte	0x66a
 1735 0664 12       		.uleb128 0x12
 1736 0665 8A020000 		.4byte	0x28a
 1737 0669 00       		.byte	0
 1738 066a 09       		.uleb128 0x9
 1739 066b 04       		.byte	0x4
 1740 066c 5B060000 		.4byte	0x65b
 1741 0670 03       		.uleb128 0x3
 1742 0671 21070000 		.4byte	.LASF87
 1743 0675 0D       		.byte	0xd
 1744 0676 35       		.byte	0x35
 1745 0677 7B060000 		.4byte	0x67b
 1746 067b 10       		.uleb128 0x10
 1747 067c 28030000 		.4byte	0x328
 1748 0680 03       		.uleb128 0x3
 1749 0681 86000000 		.4byte	.LASF88
 1750 0685 0D       		.byte	0xd
 1751 0686 39       		.byte	0x39
 1752 0687 28030000 		.4byte	0x328
 1753 068b 03       		.uleb128 0x3
 1754 068c 7B070000 		.4byte	.LASF89
 1755 0690 0D       		.byte	0xd
 1756 0691 3A       		.byte	0x3a
 1757 0692 28030000 		.4byte	0x328
 1758 0696 15       		.uleb128 0x15
 1759 0697 8B060000 		.4byte	0x68b
 1760 069b A6060000 		.4byte	0x6a6
 1761 069f 16       		.uleb128 0x16
 1762 06a0 2D030000 		.4byte	0x32d
 1763 06a4 12       		.byte	0x12
 1764 06a5 00       		.byte	0
 1765 06a6 17       		.uleb128 0x17
 1766 06a7 2801     		.2byte	0x128
 1767 06a9 0D       		.byte	0xd
 1768 06aa E9       		.byte	0xe9
 1769 06ab 78080000 		.4byte	0x878
 1770 06af 06       		.uleb128 0x6
 1771 06b0 6D070000 		.4byte	.LASF90
 1772 06b4 0D       		.byte	0xd
 1773 06b5 EA       		.byte	0xea
 1774 06b6 80060000 		.4byte	0x680
 1775 06ba 00       		.byte	0
 1776 06bb 06       		.uleb128 0x6
ARM GAS  /tmp/ccOcrNIh.s 			page 33


 1777 06bc 21020000 		.4byte	.LASF91
 1778 06c0 0D       		.byte	0xd
 1779 06c1 EB       		.byte	0xeb
 1780 06c2 8B060000 		.4byte	0x68b
 1781 06c6 04       		.byte	0x4
 1782 06c7 06       		.uleb128 0x6
 1783 06c8 8F060000 		.4byte	.LASF92
 1784 06cc 0D       		.byte	0xd
 1785 06cd EC       		.byte	0xec
 1786 06ce 8B060000 		.4byte	0x68b
 1787 06d2 08       		.byte	0x8
 1788 06d3 06       		.uleb128 0x6
 1789 06d4 99060000 		.4byte	.LASF93
 1790 06d8 0D       		.byte	0xd
 1791 06d9 ED       		.byte	0xed
 1792 06da 8B060000 		.4byte	0x68b
 1793 06de 0C       		.byte	0xc
 1794 06df 06       		.uleb128 0x6
 1795 06e0 24090000 		.4byte	.LASF94
 1796 06e4 0D       		.byte	0xd
 1797 06e5 EE       		.byte	0xee
 1798 06e6 80060000 		.4byte	0x680
 1799 06ea 10       		.byte	0x10
 1800 06eb 06       		.uleb128 0x6
 1801 06ec 13080000 		.4byte	.LASF95
 1802 06f0 0D       		.byte	0xd
 1803 06f1 EF       		.byte	0xef
 1804 06f2 80060000 		.4byte	0x680
 1805 06f6 14       		.byte	0x14
 1806 06f7 06       		.uleb128 0x6
 1807 06f8 02040000 		.4byte	.LASF96
 1808 06fc 0D       		.byte	0xd
 1809 06fd F0       		.byte	0xf0
 1810 06fe 70060000 		.4byte	0x670
 1811 0702 18       		.byte	0x18
 1812 0703 06       		.uleb128 0x6
 1813 0704 AD060000 		.4byte	.LASF97
 1814 0708 0D       		.byte	0xd
 1815 0709 F1       		.byte	0xf1
 1816 070a 88080000 		.4byte	0x888
 1817 070e 1C       		.byte	0x1c
 1818 070f 06       		.uleb128 0x6
 1819 0710 7E040000 		.4byte	.LASF98
 1820 0714 0D       		.byte	0xd
 1821 0715 F2       		.byte	0xf2
 1822 0716 70060000 		.4byte	0x670
 1823 071a 20       		.byte	0x20
 1824 071b 06       		.uleb128 0x6
 1825 071c 7D050000 		.4byte	.LASF99
 1826 0720 0D       		.byte	0xd
 1827 0721 F3       		.byte	0xf3
 1828 0722 80060000 		.4byte	0x680
 1829 0726 24       		.byte	0x24
 1830 0727 06       		.uleb128 0x6
 1831 0728 2A050000 		.4byte	.LASF100
 1832 072c 0D       		.byte	0xd
 1833 072d F4       		.byte	0xf4
ARM GAS  /tmp/ccOcrNIh.s 			page 34


 1834 072e 80060000 		.4byte	0x680
 1835 0732 28       		.byte	0x28
 1836 0733 06       		.uleb128 0x6
 1837 0734 65070000 		.4byte	.LASF101
 1838 0738 0D       		.byte	0xd
 1839 0739 F5       		.byte	0xf5
 1840 073a 70060000 		.4byte	0x670
 1841 073e 2C       		.byte	0x2c
 1842 073f 06       		.uleb128 0x6
 1843 0740 7E000000 		.4byte	.LASF102
 1844 0744 0D       		.byte	0xd
 1845 0745 F6       		.byte	0xf6
 1846 0746 70060000 		.4byte	0x670
 1847 074a 30       		.byte	0x30
 1848 074b 06       		.uleb128 0x6
 1849 074c B7060000 		.4byte	.LASF103
 1850 0750 0D       		.byte	0xd
 1851 0751 F7       		.byte	0xf7
 1852 0752 9D080000 		.4byte	0x89d
 1853 0756 34       		.byte	0x34
 1854 0757 06       		.uleb128 0x6
 1855 0758 55070000 		.4byte	.LASF104
 1856 075c 0D       		.byte	0xd
 1857 075d F8       		.byte	0xf8
 1858 075e 70060000 		.4byte	0x670
 1859 0762 3C       		.byte	0x3c
 1860 0763 06       		.uleb128 0x6
 1861 0764 76000000 		.4byte	.LASF105
 1862 0768 0D       		.byte	0xd
 1863 0769 F9       		.byte	0xf9
 1864 076a 8B060000 		.4byte	0x68b
 1865 076e 40       		.byte	0x40
 1866 076f 06       		.uleb128 0x6
 1867 0770 7E090000 		.4byte	.LASF106
 1868 0774 0D       		.byte	0xd
 1869 0775 FA       		.byte	0xfa
 1870 0776 8B060000 		.4byte	0x68b
 1871 077a 44       		.byte	0x44
 1872 077b 06       		.uleb128 0x6
 1873 077c 4B040000 		.4byte	.LASF107
 1874 0780 0D       		.byte	0xd
 1875 0781 FB       		.byte	0xfb
 1876 0782 8B060000 		.4byte	0x68b
 1877 0786 48       		.byte	0x48
 1878 0787 06       		.uleb128 0x6
 1879 0788 46060000 		.4byte	.LASF108
 1880 078c 0D       		.byte	0xd
 1881 078d FC       		.byte	0xfc
 1882 078e 8B060000 		.4byte	0x68b
 1883 0792 4C       		.byte	0x4c
 1884 0793 06       		.uleb128 0x6
 1885 0794 80030000 		.4byte	.LASF109
 1886 0798 0D       		.byte	0xd
 1887 0799 FD       		.byte	0xfd
 1888 079a B2080000 		.4byte	0x8b2
 1889 079e 50       		.byte	0x50
 1890 079f 06       		.uleb128 0x6
ARM GAS  /tmp/ccOcrNIh.s 			page 35


 1891 07a0 C1060000 		.4byte	.LASF110
 1892 07a4 0D       		.byte	0xd
 1893 07a5 FE       		.byte	0xfe
 1894 07a6 BC080000 		.4byte	0x8bc
 1895 07aa 90       		.byte	0x90
 1896 07ab 06       		.uleb128 0x6
 1897 07ac DE070000 		.4byte	.LASF111
 1898 07b0 0D       		.byte	0xd
 1899 07b1 FF       		.byte	0xff
 1900 07b2 8B060000 		.4byte	0x68b
 1901 07b6 94       		.byte	0x94
 1902 07b7 18       		.uleb128 0x18
 1903 07b8 CB060000 		.4byte	.LASF112
 1904 07bc 0D       		.byte	0xd
 1905 07bd 0001     		.2byte	0x100
 1906 07bf C1080000 		.4byte	0x8c1
 1907 07c3 98       		.byte	0x98
 1908 07c4 18       		.uleb128 0x18
 1909 07c5 1B090000 		.4byte	.LASF113
 1910 07c9 0D       		.byte	0xd
 1911 07ca 0101     		.2byte	0x101
 1912 07cc 8B060000 		.4byte	0x68b
 1913 07d0 E4       		.byte	0xe4
 1914 07d1 18       		.uleb128 0x18
 1915 07d2 80010000 		.4byte	.LASF114
 1916 07d6 0D       		.byte	0xd
 1917 07d7 0201     		.2byte	0x102
 1918 07d9 70060000 		.4byte	0x670
 1919 07dd E8       		.byte	0xe8
 1920 07de 18       		.uleb128 0x18
 1921 07df D5060000 		.4byte	.LASF115
 1922 07e3 0D       		.byte	0xd
 1923 07e4 0301     		.2byte	0x103
 1924 07e6 D6080000 		.4byte	0x8d6
 1925 07ea EC       		.byte	0xec
 1926 07eb 19       		.uleb128 0x19
 1927 07ec 87060000 		.4byte	.LASF116
 1928 07f0 0D       		.byte	0xd
 1929 07f1 0401     		.2byte	0x104
 1930 07f3 8B060000 		.4byte	0x68b
 1931 07f7 0001     		.2byte	0x100
 1932 07f9 19       		.uleb128 0x19
 1933 07fa 60030000 		.4byte	.LASF117
 1934 07fe 0D       		.byte	0xd
 1935 07ff 0501     		.2byte	0x105
 1936 0801 8B060000 		.4byte	0x68b
 1937 0805 0401     		.2byte	0x104
 1938 0807 19       		.uleb128 0x19
 1939 0808 D9010000 		.4byte	.LASF118
 1940 080c 0D       		.byte	0xd
 1941 080d 0601     		.2byte	0x106
 1942 080f 8B060000 		.4byte	0x68b
 1943 0813 0801     		.2byte	0x108
 1944 0815 19       		.uleb128 0x19
 1945 0816 60060000 		.4byte	.LASF119
 1946 081a 0D       		.byte	0xd
 1947 081b 0701     		.2byte	0x107
ARM GAS  /tmp/ccOcrNIh.s 			page 36


 1948 081d 8B060000 		.4byte	0x68b
 1949 0821 0C01     		.2byte	0x10c
 1950 0823 19       		.uleb128 0x19
 1951 0824 2D010000 		.4byte	.LASF120
 1952 0828 0D       		.byte	0xd
 1953 0829 0801     		.2byte	0x108
 1954 082b 8B060000 		.4byte	0x68b
 1955 082f 1001     		.2byte	0x110
 1956 0831 19       		.uleb128 0x19
 1957 0832 F5050000 		.4byte	.LASF121
 1958 0836 0D       		.byte	0xd
 1959 0837 0901     		.2byte	0x109
 1960 0839 8B060000 		.4byte	0x68b
 1961 083d 1401     		.2byte	0x114
 1962 083f 19       		.uleb128 0x19
 1963 0840 40010000 		.4byte	.LASF122
 1964 0844 0D       		.byte	0xd
 1965 0845 0A01     		.2byte	0x10a
 1966 0847 8B060000 		.4byte	0x68b
 1967 084b 1801     		.2byte	0x118
 1968 084d 19       		.uleb128 0x19
 1969 084e 0F060000 		.4byte	.LASF123
 1970 0852 0D       		.byte	0xd
 1971 0853 0B01     		.2byte	0x10b
 1972 0855 8B060000 		.4byte	0x68b
 1973 0859 1C01     		.2byte	0x11c
 1974 085b 19       		.uleb128 0x19
 1975 085c 8A070000 		.4byte	.LASF124
 1976 0860 0D       		.byte	0xd
 1977 0861 0C01     		.2byte	0x10c
 1978 0863 80060000 		.4byte	0x680
 1979 0867 2001     		.2byte	0x120
 1980 0869 19       		.uleb128 0x19
 1981 086a 57060000 		.4byte	.LASF125
 1982 086e 0D       		.byte	0xd
 1983 086f 0D01     		.2byte	0x10d
 1984 0871 70060000 		.4byte	0x670
 1985 0875 2401     		.2byte	0x124
 1986 0877 00       		.byte	0
 1987 0878 15       		.uleb128 0x15
 1988 0879 8B060000 		.4byte	0x68b
 1989 087d 88080000 		.4byte	0x888
 1990 0881 16       		.uleb128 0x16
 1991 0882 2D030000 		.4byte	0x32d
 1992 0886 00       		.byte	0
 1993 0887 00       		.byte	0
 1994 0888 0D       		.uleb128 0xd
 1995 0889 78080000 		.4byte	0x878
 1996 088d 15       		.uleb128 0x15
 1997 088e 8B060000 		.4byte	0x68b
 1998 0892 9D080000 		.4byte	0x89d
 1999 0896 16       		.uleb128 0x16
 2000 0897 2D030000 		.4byte	0x32d
 2001 089b 01       		.byte	0x1
 2002 089c 00       		.byte	0
 2003 089d 0D       		.uleb128 0xd
 2004 089e 8D080000 		.4byte	0x88d
ARM GAS  /tmp/ccOcrNIh.s 			page 37


 2005 08a2 15       		.uleb128 0x15
 2006 08a3 70060000 		.4byte	0x670
 2007 08a7 B2080000 		.4byte	0x8b2
 2008 08ab 16       		.uleb128 0x16
 2009 08ac 2D030000 		.4byte	0x32d
 2010 08b0 0F       		.byte	0xf
 2011 08b1 00       		.byte	0
 2012 08b2 10       		.uleb128 0x10
 2013 08b3 B7080000 		.4byte	0x8b7
 2014 08b7 0D       		.uleb128 0xd
 2015 08b8 A2080000 		.4byte	0x8a2
 2016 08bc 0D       		.uleb128 0xd
 2017 08bd 78080000 		.4byte	0x878
 2018 08c1 0D       		.uleb128 0xd
 2019 08c2 96060000 		.4byte	0x696
 2020 08c6 15       		.uleb128 0x15
 2021 08c7 8B060000 		.4byte	0x68b
 2022 08cb D6080000 		.4byte	0x8d6
 2023 08cf 16       		.uleb128 0x16
 2024 08d0 2D030000 		.4byte	0x32d
 2025 08d4 04       		.byte	0x4
 2026 08d5 00       		.byte	0
 2027 08d6 0D       		.uleb128 0xd
 2028 08d7 C6080000 		.4byte	0x8c6
 2029 08db 1A       		.uleb128 0x1a
 2030 08dc 41646300 		.ascii	"Adc\000"
 2031 08e0 0D       		.byte	0xd
 2032 08e1 0E01     		.2byte	0x10e
 2033 08e3 A6060000 		.4byte	0x6a6
 2034 08e7 1B       		.uleb128 0x1b
 2035 08e8 1401     		.2byte	0x114
 2036 08ea 0D       		.byte	0xd
 2037 08eb 3F0D     		.2byte	0xd3f
 2038 08ed B10A0000 		.4byte	0xab1
 2039 08f1 18       		.uleb128 0x18
 2040 08f2 B6090000 		.4byte	.LASF126
 2041 08f6 0D       		.byte	0xd
 2042 08f7 400D     		.2byte	0xd40
 2043 08f9 80060000 		.4byte	0x680
 2044 08fd 00       		.byte	0
 2045 08fe 18       		.uleb128 0x18
 2046 08ff 4A090000 		.4byte	.LASF127
 2047 0903 0D       		.byte	0xd
 2048 0904 410D     		.2byte	0xd41
 2049 0906 80060000 		.4byte	0x680
 2050 090a 04       		.byte	0x4
 2051 090b 18       		.uleb128 0x18
 2052 090c 5B040000 		.4byte	.LASF128
 2053 0910 0D       		.byte	0xd
 2054 0911 420D     		.2byte	0xd42
 2055 0913 70060000 		.4byte	0x670
 2056 0917 08       		.byte	0x8
 2057 0918 18       		.uleb128 0x18
 2058 0919 AD060000 		.4byte	.LASF97
 2059 091d 0D       		.byte	0xd
 2060 091e 430D     		.2byte	0xd43
 2061 0920 B10A0000 		.4byte	0xab1
ARM GAS  /tmp/ccOcrNIh.s 			page 38


 2062 0924 0C       		.byte	0xc
 2063 0925 18       		.uleb128 0x18
 2064 0926 EA010000 		.4byte	.LASF129
 2065 092a 0D       		.byte	0xd
 2066 092b 440D     		.2byte	0xd44
 2067 092d 80060000 		.4byte	0x680
 2068 0931 10       		.byte	0x10
 2069 0932 18       		.uleb128 0x18
 2070 0933 6A090000 		.4byte	.LASF130
 2071 0937 0D       		.byte	0xd
 2072 0938 450D     		.2byte	0xd45
 2073 093a 80060000 		.4byte	0x680
 2074 093e 14       		.byte	0x14
 2075 093f 18       		.uleb128 0x18
 2076 0940 CB040000 		.4byte	.LASF131
 2077 0944 0D       		.byte	0xd
 2078 0945 460D     		.2byte	0xd46
 2079 0947 70060000 		.4byte	0x670
 2080 094b 18       		.byte	0x18
 2081 094c 18       		.uleb128 0x18
 2082 094d B7060000 		.4byte	.LASF103
 2083 0951 0D       		.byte	0xd
 2084 0952 470D     		.2byte	0xd47
 2085 0954 B60A0000 		.4byte	0xab6
 2086 0958 1C       		.byte	0x1c
 2087 0959 18       		.uleb128 0x18
 2088 095a 18020000 		.4byte	.LASF132
 2089 095e 0D       		.byte	0xd
 2090 095f 480D     		.2byte	0xd48
 2091 0961 8B060000 		.4byte	0x68b
 2092 0965 20       		.byte	0x20
 2093 0966 18       		.uleb128 0x18
 2094 0967 56030000 		.4byte	.LASF133
 2095 096b 0D       		.byte	0xd
 2096 096c 490D     		.2byte	0xd49
 2097 096e 70060000 		.4byte	0x670
 2098 0972 24       		.byte	0x24
 2099 0973 18       		.uleb128 0x18
 2100 0974 DC090000 		.4byte	.LASF134
 2101 0978 0D       		.byte	0xd
 2102 0979 4A0D     		.2byte	0xd4a
 2103 097b 8B060000 		.4byte	0x68b
 2104 097f 28       		.byte	0x28
 2105 0980 18       		.uleb128 0x18
 2106 0981 44000000 		.4byte	.LASF135
 2107 0985 0D       		.byte	0xd
 2108 0986 4B0D     		.2byte	0xd4b
 2109 0988 8B060000 		.4byte	0x68b
 2110 098c 2C       		.byte	0x2c
 2111 098d 18       		.uleb128 0x18
 2112 098e C9010000 		.4byte	.LASF136
 2113 0992 0D       		.byte	0xd
 2114 0993 4C0D     		.2byte	0xd4c
 2115 0995 8B060000 		.4byte	0x68b
 2116 0999 30       		.byte	0x30
 2117 099a 18       		.uleb128 0x18
 2118 099b C1060000 		.4byte	.LASF110
ARM GAS  /tmp/ccOcrNIh.s 			page 39


 2119 099f 0D       		.byte	0xd
 2120 09a0 4D0D     		.2byte	0xd4d
 2121 09a2 BB0A0000 		.4byte	0xabb
 2122 09a6 34       		.byte	0x34
 2123 09a7 18       		.uleb128 0x18
 2124 09a8 6E000000 		.4byte	.LASF137
 2125 09ac 0D       		.byte	0xd
 2126 09ad 4E0D     		.2byte	0xd4e
 2127 09af 8B060000 		.4byte	0x68b
 2128 09b3 38       		.byte	0x38
 2129 09b4 18       		.uleb128 0x18
 2130 09b5 CB060000 		.4byte	.LASF112
 2131 09b9 0D       		.byte	0xd
 2132 09ba 4F0D     		.2byte	0xd4f
 2133 09bc C00A0000 		.4byte	0xac0
 2134 09c0 3C       		.byte	0x3c
 2135 09c1 18       		.uleb128 0x18
 2136 09c2 DD040000 		.4byte	.LASF138
 2137 09c6 0D       		.byte	0xd
 2138 09c7 500D     		.2byte	0xd50
 2139 09c9 D50A0000 		.4byte	0xad5
 2140 09cd 40       		.byte	0x40
 2141 09ce 18       		.uleb128 0x18
 2142 09cf D5060000 		.4byte	.LASF115
 2143 09d3 0D       		.byte	0xd
 2144 09d4 510D     		.2byte	0xd51
 2145 09d6 DA0A0000 		.4byte	0xada
 2146 09da 4C       		.byte	0x4c
 2147 09db 18       		.uleb128 0x18
 2148 09dc 72060000 		.4byte	.LASF139
 2149 09e0 0D       		.byte	0xd
 2150 09e1 520D     		.2byte	0xd52
 2151 09e3 80060000 		.4byte	0x680
 2152 09e7 60       		.byte	0x60
 2153 09e8 18       		.uleb128 0x18
 2154 09e9 98010000 		.4byte	.LASF140
 2155 09ed 0D       		.byte	0xd
 2156 09ee 530D     		.2byte	0xd53
 2157 09f0 80060000 		.4byte	0x680
 2158 09f4 64       		.byte	0x64
 2159 09f5 18       		.uleb128 0x18
 2160 09f6 4E070000 		.4byte	.LASF141
 2161 09fa 0D       		.byte	0xd
 2162 09fb 540D     		.2byte	0xd54
 2163 09fd 70060000 		.4byte	0x670
 2164 0a01 68       		.byte	0x68
 2165 0a02 18       		.uleb128 0x18
 2166 0a03 3B040000 		.4byte	.LASF142
 2167 0a07 0D       		.byte	0xd
 2168 0a08 550D     		.2byte	0xd55
 2169 0a0a 70060000 		.4byte	0x670
 2170 0a0e 6C       		.byte	0x6c
 2171 0a0f 18       		.uleb128 0x18
 2172 0a10 F3070000 		.4byte	.LASF143
 2173 0a14 0D       		.byte	0xd
 2174 0a15 560D     		.2byte	0xd56
 2175 0a17 8B060000 		.4byte	0x68b
ARM GAS  /tmp/ccOcrNIh.s 			page 40


 2176 0a1b 70       		.byte	0x70
 2177 0a1c 18       		.uleb128 0x18
 2178 0a1d 13000000 		.4byte	.LASF144
 2179 0a21 0D       		.byte	0xd
 2180 0a22 570D     		.2byte	0xd57
 2181 0a24 8B060000 		.4byte	0x68b
 2182 0a28 74       		.byte	0x74
 2183 0a29 18       		.uleb128 0x18
 2184 0a2a 1C050000 		.4byte	.LASF145
 2185 0a2e 0D       		.byte	0xd
 2186 0a2f 580D     		.2byte	0xd58
 2187 0a31 80060000 		.4byte	0x680
 2188 0a35 78       		.byte	0x78
 2189 0a36 18       		.uleb128 0x18
 2190 0a37 DF060000 		.4byte	.LASF146
 2191 0a3b 0D       		.byte	0xd
 2192 0a3c 590D     		.2byte	0xd59
 2193 0a3e EF0A0000 		.4byte	0xaef
 2194 0a42 7C       		.byte	0x7c
 2195 0a43 18       		.uleb128 0x18
 2196 0a44 B6070000 		.4byte	.LASF147
 2197 0a48 0D       		.byte	0xd
 2198 0a49 5A0D     		.2byte	0xd5a
 2199 0a4b 8B060000 		.4byte	0x68b
 2200 0a4f E4       		.byte	0xe4
 2201 0a50 18       		.uleb128 0x18
 2202 0a51 F7000000 		.4byte	.LASF148
 2203 0a55 0D       		.byte	0xd
 2204 0a56 5B0D     		.2byte	0xd5b
 2205 0a58 70060000 		.4byte	0x670
 2206 0a5c E8       		.byte	0xe8
 2207 0a5d 18       		.uleb128 0x18
 2208 0a5e E9060000 		.4byte	.LASF149
 2209 0a62 0D       		.byte	0xd
 2210 0a63 5C0D     		.2byte	0xd5c
 2211 0a65 F40A0000 		.4byte	0xaf4
 2212 0a69 EC       		.byte	0xec
 2213 0a6a 19       		.uleb128 0x19
 2214 0a6b F4010000 		.4byte	.LASF150
 2215 0a6f 0D       		.byte	0xd
 2216 0a70 5D0D     		.2byte	0xd5d
 2217 0a72 80060000 		.4byte	0x680
 2218 0a76 0001     		.2byte	0x100
 2219 0a78 19       		.uleb128 0x19
 2220 0a79 74090000 		.4byte	.LASF151
 2221 0a7d 0D       		.byte	0xd
 2222 0a7e 5E0D     		.2byte	0xd5e
 2223 0a80 80060000 		.4byte	0x680
 2224 0a84 0401     		.2byte	0x104
 2225 0a86 19       		.uleb128 0x19
 2226 0a87 BF090000 		.4byte	.LASF152
 2227 0a8b 0D       		.byte	0xd
 2228 0a8c 5F0D     		.2byte	0xd5f
 2229 0a8e 70060000 		.4byte	0x670
 2230 0a92 0801     		.2byte	0x108
 2231 0a94 19       		.uleb128 0x19
 2232 0a95 ED000000 		.4byte	.LASF153
ARM GAS  /tmp/ccOcrNIh.s 			page 41


 2233 0a99 0D       		.byte	0xd
 2234 0a9a 600D     		.2byte	0xd60
 2235 0a9c F90A0000 		.4byte	0xaf9
 2236 0aa0 0C01     		.2byte	0x10c
 2237 0aa2 19       		.uleb128 0x19
 2238 0aa3 40030000 		.4byte	.LASF154
 2239 0aa7 0D       		.byte	0xd
 2240 0aa8 610D     		.2byte	0xd61
 2241 0aaa 8B060000 		.4byte	0x68b
 2242 0aae 1001     		.2byte	0x110
 2243 0ab0 00       		.byte	0
 2244 0ab1 0D       		.uleb128 0xd
 2245 0ab2 78080000 		.4byte	0x878
 2246 0ab6 0D       		.uleb128 0xd
 2247 0ab7 78080000 		.4byte	0x878
 2248 0abb 0D       		.uleb128 0xd
 2249 0abc 78080000 		.4byte	0x878
 2250 0ac0 0D       		.uleb128 0xd
 2251 0ac1 78080000 		.4byte	0x878
 2252 0ac5 15       		.uleb128 0x15
 2253 0ac6 8B060000 		.4byte	0x68b
 2254 0aca D50A0000 		.4byte	0xad5
 2255 0ace 16       		.uleb128 0x16
 2256 0acf 2D030000 		.4byte	0x32d
 2257 0ad3 02       		.byte	0x2
 2258 0ad4 00       		.byte	0
 2259 0ad5 0D       		.uleb128 0xd
 2260 0ad6 C50A0000 		.4byte	0xac5
 2261 0ada 0D       		.uleb128 0xd
 2262 0adb C6080000 		.4byte	0x8c6
 2263 0adf 15       		.uleb128 0x15
 2264 0ae0 8B060000 		.4byte	0x68b
 2265 0ae4 EF0A0000 		.4byte	0xaef
 2266 0ae8 16       		.uleb128 0x16
 2267 0ae9 2D030000 		.4byte	0x32d
 2268 0aed 19       		.byte	0x19
 2269 0aee 00       		.byte	0
 2270 0aef 0D       		.uleb128 0xd
 2271 0af0 DF0A0000 		.4byte	0xadf
 2272 0af4 0D       		.uleb128 0xd
 2273 0af5 C6080000 		.4byte	0x8c6
 2274 0af9 0D       		.uleb128 0xd
 2275 0afa 78080000 		.4byte	0x878
 2276 0afe 1A       		.uleb128 0x1a
 2277 0aff 506D6300 		.ascii	"Pmc\000"
 2278 0b03 0D       		.byte	0xd
 2279 0b04 620D     		.2byte	0xd62
 2280 0b06 E7080000 		.4byte	0x8e7
 2281 0b0a 1B       		.uleb128 0x1b
 2282 0b0b 2801     		.2byte	0x128
 2283 0b0d 0D       		.byte	0xd
 2284 0b0e 0817     		.2byte	0x1708
 2285 0b10 230C0000 		.4byte	0xc23
 2286 0b14 18       		.uleb128 0x18
 2287 0b15 F8020000 		.4byte	.LASF155
 2288 0b19 0D       		.byte	0xd
 2289 0b1a 0917     		.2byte	0x1709
ARM GAS  /tmp/ccOcrNIh.s 			page 42


 2290 0b1c 80060000 		.4byte	0x680
 2291 0b20 00       		.byte	0
 2292 0b21 18       		.uleb128 0x18
 2293 0b22 93070000 		.4byte	.LASF156
 2294 0b26 0D       		.byte	0xd
 2295 0b27 0A17     		.2byte	0x170a
 2296 0b29 8B060000 		.4byte	0x68b
 2297 0b2d 04       		.byte	0x4
 2298 0b2e 18       		.uleb128 0x18
 2299 0b2f C9000000 		.4byte	.LASF157
 2300 0b33 0D       		.byte	0xd
 2301 0b34 0B17     		.2byte	0x170b
 2302 0b36 80060000 		.4byte	0x680
 2303 0b3a 08       		.byte	0x8
 2304 0b3b 18       		.uleb128 0x18
 2305 0b3c 18060000 		.4byte	.LASF158
 2306 0b40 0D       		.byte	0xd
 2307 0b41 0C17     		.2byte	0x170c
 2308 0b43 80060000 		.4byte	0x680
 2309 0b47 0C       		.byte	0xc
 2310 0b48 18       		.uleb128 0x18
 2311 0b49 72030000 		.4byte	.LASF159
 2312 0b4d 0D       		.byte	0xd
 2313 0b4e 0D17     		.2byte	0x170d
 2314 0b50 70060000 		.4byte	0x670
 2315 0b54 10       		.byte	0x10
 2316 0b55 18       		.uleb128 0x18
 2317 0b56 AE000000 		.4byte	.LASF160
 2318 0b5a 0D       		.byte	0xd
 2319 0b5b 0E17     		.2byte	0x170e
 2320 0b5d 70060000 		.4byte	0x670
 2321 0b61 14       		.byte	0x14
 2322 0b62 18       		.uleb128 0x18
 2323 0b63 D3090000 		.4byte	.LASF161
 2324 0b67 0D       		.byte	0xd
 2325 0b68 0F17     		.2byte	0x170f
 2326 0b6a 70060000 		.4byte	0x670
 2327 0b6e 18       		.byte	0x18
 2328 0b6f 18       		.uleb128 0x18
 2329 0b70 DB030000 		.4byte	.LASF162
 2330 0b74 0D       		.byte	0xd
 2331 0b75 1017     		.2byte	0x1710
 2332 0b77 80060000 		.4byte	0x680
 2333 0b7b 1C       		.byte	0x1c
 2334 0b7c 18       		.uleb128 0x18
 2335 0b7d DB000000 		.4byte	.LASF163
 2336 0b81 0D       		.byte	0xd
 2337 0b82 1117     		.2byte	0x1711
 2338 0b84 8B060000 		.4byte	0x68b
 2339 0b88 20       		.byte	0x20
 2340 0b89 18       		.uleb128 0x18
 2341 0b8a AD060000 		.4byte	.LASF97
 2342 0b8e 0D       		.byte	0xd
 2343 0b8f 1217     		.2byte	0x1712
 2344 0b91 330C0000 		.4byte	0xc33
 2345 0b95 24       		.byte	0x24
 2346 0b96 19       		.uleb128 0x19
ARM GAS  /tmp/ccOcrNIh.s 			page 43


 2347 0b97 DA020000 		.4byte	.LASF164
 2348 0b9b 0D       		.byte	0xd
 2349 0b9c 1317     		.2byte	0x1713
 2350 0b9e 8B060000 		.4byte	0x68b
 2351 0ba2 0001     		.2byte	0x100
 2352 0ba4 19       		.uleb128 0x19
 2353 0ba5 27070000 		.4byte	.LASF165
 2354 0ba9 0D       		.byte	0xd
 2355 0baa 1417     		.2byte	0x1714
 2356 0bac 8B060000 		.4byte	0x68b
 2357 0bb0 0401     		.2byte	0x104
 2358 0bb2 19       		.uleb128 0x19
 2359 0bb3 D3050000 		.4byte	.LASF166
 2360 0bb7 0D       		.byte	0xd
 2361 0bb8 1517     		.2byte	0x1715
 2362 0bba 8B060000 		.4byte	0x68b
 2363 0bbe 0801     		.2byte	0x108
 2364 0bc0 19       		.uleb128 0x19
 2365 0bc1 B7020000 		.4byte	.LASF167
 2366 0bc5 0D       		.byte	0xd
 2367 0bc6 1617     		.2byte	0x1716
 2368 0bc8 8B060000 		.4byte	0x68b
 2369 0bcc 0C01     		.2byte	0x10c
 2370 0bce 19       		.uleb128 0x19
 2371 0bcf 68030000 		.4byte	.LASF168
 2372 0bd3 0D       		.byte	0xd
 2373 0bd4 1717     		.2byte	0x1717
 2374 0bd6 8B060000 		.4byte	0x68b
 2375 0bda 1001     		.2byte	0x110
 2376 0bdc 19       		.uleb128 0x19
 2377 0bdd 05060000 		.4byte	.LASF169
 2378 0be1 0D       		.byte	0xd
 2379 0be2 1817     		.2byte	0x1718
 2380 0be4 8B060000 		.4byte	0x68b
 2381 0be8 1401     		.2byte	0x114
 2382 0bea 19       		.uleb128 0x19
 2383 0beb 88030000 		.4byte	.LASF170
 2384 0bef 0D       		.byte	0xd
 2385 0bf0 1917     		.2byte	0x1719
 2386 0bf2 8B060000 		.4byte	0x68b
 2387 0bf6 1801     		.2byte	0x118
 2388 0bf8 19       		.uleb128 0x19
 2389 0bf9 C9090000 		.4byte	.LASF171
 2390 0bfd 0D       		.byte	0xd
 2391 0bfe 1A17     		.2byte	0x171a
 2392 0c00 8B060000 		.4byte	0x68b
 2393 0c04 1C01     		.2byte	0x11c
 2394 0c06 19       		.uleb128 0x19
 2395 0c07 36010000 		.4byte	.LASF172
 2396 0c0b 0D       		.byte	0xd
 2397 0c0c 1B17     		.2byte	0x171b
 2398 0c0e 80060000 		.4byte	0x680
 2399 0c12 2001     		.2byte	0x120
 2400 0c14 19       		.uleb128 0x19
 2401 0c15 B0050000 		.4byte	.LASF173
 2402 0c19 0D       		.byte	0xd
 2403 0c1a 1C17     		.2byte	0x171c
ARM GAS  /tmp/ccOcrNIh.s 			page 44


 2404 0c1c 70060000 		.4byte	0x670
 2405 0c20 2401     		.2byte	0x124
 2406 0c22 00       		.byte	0
 2407 0c23 15       		.uleb128 0x15
 2408 0c24 8B060000 		.4byte	0x68b
 2409 0c28 330C0000 		.4byte	0xc33
 2410 0c2c 16       		.uleb128 0x16
 2411 0c2d 2D030000 		.4byte	0x32d
 2412 0c31 36       		.byte	0x36
 2413 0c32 00       		.byte	0
 2414 0c33 0D       		.uleb128 0xd
 2415 0c34 230C0000 		.4byte	0xc23
 2416 0c38 14       		.uleb128 0x14
 2417 0c39 7B030000 		.4byte	.LASF174
 2418 0c3d 0D       		.byte	0xd
 2419 0c3e 1D17     		.2byte	0x171d
 2420 0c40 0A0B0000 		.4byte	0xb0a
 2421 0c44 1C       		.uleb128 0x1c
 2422 0c45 01       		.byte	0x1
 2423 0c46 0E       		.byte	0xe
 2424 0c47 64       		.byte	0x64
 2425 0c48 5F0C0000 		.4byte	0xc5f
 2426 0c4c 1D       		.uleb128 0x1d
 2427 0c4d D0020000 		.4byte	.LASF175
 2428 0c51 00       		.sleb128 0
 2429 0c52 1D       		.uleb128 0x1d
 2430 0c53 42090000 		.4byte	.LASF176
 2431 0c57 01       		.sleb128 1
 2432 0c58 1D       		.uleb128 0x1d
 2433 0c59 05070000 		.4byte	.LASF177
 2434 0c5d 02       		.sleb128 2
 2435 0c5e 00       		.byte	0
 2436 0c5f 03       		.uleb128 0x3
 2437 0c60 FB060000 		.4byte	.LASF178
 2438 0c64 0E       		.byte	0xe
 2439 0c65 68       		.byte	0x68
 2440 0c66 440C0000 		.4byte	0xc44
 2441 0c6a 03       		.uleb128 0x3
 2442 0c6b 7A060000 		.4byte	.LASF179
 2443 0c6f 0E       		.byte	0xe
 2444 0c70 6D       		.byte	0x6d
 2445 0c71 750C0000 		.4byte	0xc75
 2446 0c75 05       		.uleb128 0x5
 2447 0c76 7A060000 		.4byte	.LASF179
 2448 0c7a 74       		.byte	0x74
 2449 0c7b 0E       		.byte	0xe
 2450 0c7c 87       		.byte	0x87
 2451 0c7d EC0C0000 		.4byte	0xcec
 2452 0c81 07       		.uleb128 0x7
 2453 0c82 766D7400 		.ascii	"vmt\000"
 2454 0c86 0E       		.byte	0xe
 2455 0c87 89       		.byte	0x89
 2456 0c88 650D0000 		.4byte	0xd65
 2457 0c8c 00       		.byte	0
 2458 0c8d 06       		.uleb128 0x6
 2459 0c8e 0E050000 		.4byte	.LASF180
 2460 0c92 0E       		.byte	0xe
ARM GAS  /tmp/ccOcrNIh.s 			page 45


 2461 0c93 8A       		.byte	0x8a
 2462 0c94 D6030000 		.4byte	0x3d6
 2463 0c98 04       		.byte	0x4
 2464 0c99 06       		.uleb128 0x6
 2465 0c9a 2E030000 		.4byte	.LASF181
 2466 0c9e 0E       		.byte	0xe
 2467 0c9f 8A       		.byte	0x8a
 2468 0ca0 4F060000 		.4byte	0x64f
 2469 0ca4 08       		.byte	0x8
 2470 0ca5 06       		.uleb128 0x6
 2471 0ca6 48070000 		.4byte	.LASF182
 2472 0caa 0E       		.byte	0xe
 2473 0cab 8A       		.byte	0x8a
 2474 0cac 5F0C0000 		.4byte	0xc5f
 2475 0cb0 0C       		.byte	0xc
 2476 0cb1 06       		.uleb128 0x6
 2477 0cb2 FE050000 		.4byte	.LASF183
 2478 0cb6 0E       		.byte	0xe
 2479 0cb7 8A       		.byte	0x8a
 2480 0cb8 C2040000 		.4byte	0x4c2
 2481 0cbc 10       		.byte	0x10
 2482 0cbd 06       		.uleb128 0x6
 2483 0cbe 08020000 		.4byte	.LASF184
 2484 0cc2 0E       		.byte	0xe
 2485 0cc3 8A       		.byte	0x8a
 2486 0cc4 CD040000 		.4byte	0x4cd
 2487 0cc8 30       		.byte	0x30
 2488 0cc9 07       		.uleb128 0x7
 2489 0cca 696200   		.ascii	"ib\000"
 2490 0ccd 0E       		.byte	0xe
 2491 0cce 8A       		.byte	0x8a
 2492 0ccf 700D0000 		.4byte	0xd70
 2493 0cd3 50       		.byte	0x50
 2494 0cd4 07       		.uleb128 0x7
 2495 0cd5 6F6200   		.ascii	"ob\000"
 2496 0cd8 0E       		.byte	0xe
 2497 0cd9 8A       		.byte	0x8a
 2498 0cda 700D0000 		.4byte	0xd70
 2499 0cde 60       		.byte	0x60
 2500 0cdf 06       		.uleb128 0x6
 2501 0ce0 3B070000 		.4byte	.LASF185
 2502 0ce4 0E       		.byte	0xe
 2503 0ce5 8A       		.byte	0x8a
 2504 0ce6 800D0000 		.4byte	0xd80
 2505 0cea 70       		.byte	0x70
 2506 0ceb 00       		.byte	0
 2507 0cec 05       		.uleb128 0x5
 2508 0ced 6E040000 		.4byte	.LASF186
 2509 0cf1 24       		.byte	0x24
 2510 0cf2 0E       		.byte	0xe
 2511 0cf3 7C       		.byte	0x7c
 2512 0cf4 650D0000 		.4byte	0xd65
 2513 0cf8 06       		.uleb128 0x6
 2514 0cf9 95000000 		.4byte	.LASF79
 2515 0cfd 0E       		.byte	0xe
 2516 0cfe 7D       		.byte	0x7d
 2517 0cff FC040000 		.4byte	0x4fc
ARM GAS  /tmp/ccOcrNIh.s 			page 46


 2518 0d03 00       		.byte	0
 2519 0d04 06       		.uleb128 0x6
 2520 0d05 25050000 		.4byte	.LASF80
 2521 0d09 0E       		.byte	0xe
 2522 0d0a 7D       		.byte	0x7d
 2523 0d0b 1B050000 		.4byte	0x51b
 2524 0d0f 04       		.byte	0x4
 2525 0d10 06       		.uleb128 0x6
 2526 0d11 48030000 		.4byte	.LASF81
 2527 0d15 0E       		.byte	0xe
 2528 0d16 7D       		.byte	0x7d
 2529 0d17 9D050000 		.4byte	0x59d
 2530 0d1b 08       		.byte	0x8
 2531 0d1c 06       		.uleb128 0x6
 2532 0d1d C5050000 		.4byte	.LASF82
 2533 0d21 0E       		.byte	0xe
 2534 0d22 7D       		.byte	0x7d
 2535 0d23 9D050000 		.4byte	0x59d
 2536 0d27 0C       		.byte	0xc
 2537 0d28 07       		.uleb128 0x7
 2538 0d29 70757400 		.ascii	"put\000"
 2539 0d2d 0E       		.byte	0xe
 2540 0d2e 7D       		.byte	0x7d
 2541 0d2f BC050000 		.4byte	0x5bc
 2542 0d33 10       		.byte	0x10
 2543 0d34 07       		.uleb128 0x7
 2544 0d35 67657400 		.ascii	"get\000"
 2545 0d39 0E       		.byte	0xe
 2546 0d3a 7D       		.byte	0x7d
 2547 0d3b D6050000 		.4byte	0x5d6
 2548 0d3f 14       		.byte	0x14
 2549 0d40 06       		.uleb128 0x6
 2550 0d41 67000000 		.4byte	.LASF83
 2551 0d45 0E       		.byte	0xe
 2552 0d46 7D       		.byte	0x7d
 2553 0d47 FA050000 		.4byte	0x5fa
 2554 0d4b 18       		.byte	0x18
 2555 0d4c 06       		.uleb128 0x6
 2556 0d4d 89010000 		.4byte	.LASF84
 2557 0d51 0E       		.byte	0xe
 2558 0d52 7D       		.byte	0x7d
 2559 0d53 1E060000 		.4byte	0x61e
 2560 0d57 1C       		.byte	0x1c
 2561 0d58 06       		.uleb128 0x6
 2562 0d59 81070000 		.4byte	.LASF187
 2563 0d5d 0E       		.byte	0xe
 2564 0d5e 7D       		.byte	0x7d
 2565 0d5f 6A060000 		.4byte	0x66a
 2566 0d63 20       		.byte	0x20
 2567 0d64 00       		.byte	0
 2568 0d65 09       		.uleb128 0x9
 2569 0d66 04       		.byte	0x4
 2570 0d67 6B0D0000 		.4byte	0xd6b
 2571 0d6b 10       		.uleb128 0x10
 2572 0d6c EC0C0000 		.4byte	0xcec
 2573 0d70 15       		.uleb128 0x15
 2574 0d71 A2000000 		.4byte	0xa2
ARM GAS  /tmp/ccOcrNIh.s 			page 47


 2575 0d75 800D0000 		.4byte	0xd80
 2576 0d79 16       		.uleb128 0x16
 2577 0d7a 2D030000 		.4byte	0x32d
 2578 0d7e 0F       		.byte	0xf
 2579 0d7f 00       		.byte	0
 2580 0d80 09       		.uleb128 0x9
 2581 0d81 04       		.byte	0x4
 2582 0d82 380C0000 		.4byte	0xc38
 2583 0d86 1E       		.uleb128 0x1e
 2584 0d87 2C040000 		.4byte	.LASF233
 2585 0d8b 01       		.byte	0x1
 2586 0d8c 84       		.byte	0x84
 2587 0d8d C3000000 		.4byte	0xc3
 2588 0d91 01       		.byte	0x1
 2589 0d92 AD0D0000 		.4byte	0xdad
 2590 0d96 1F       		.uleb128 0x1f
 2591 0d97 DC050000 		.4byte	.LASF193
 2592 0d9b 01       		.byte	0x1
 2593 0d9c 84       		.byte	0x84
 2594 0d9d C3000000 		.4byte	0xc3
 2595 0da1 20       		.uleb128 0x20
 2596 0da2 9B000000 		.4byte	.LASF212
 2597 0da6 01       		.byte	0x1
 2598 0da7 86       		.byte	0x86
 2599 0da8 C3000000 		.4byte	0xc3
 2600 0dac 00       		.byte	0
 2601 0dad 21       		.uleb128 0x21
 2602 0dae 860D0000 		.4byte	0xd86
 2603 0db2 00000000 		.4byte	.LFB43
 2604 0db6 8C000000 		.4byte	.LFE43-.LFB43
 2605 0dba 01       		.uleb128 0x1
 2606 0dbb 9C       		.byte	0x9c
 2607 0dbc ED0D0000 		.4byte	0xded
 2608 0dc0 22       		.uleb128 0x22
 2609 0dc1 960D0000 		.4byte	0xd96
 2610 0dc5 00000000 		.4byte	.LLST0
 2611 0dc9 23       		.uleb128 0x23
 2612 0dca A10D0000 		.4byte	0xda1
 2613 0dce 7F010000 		.4byte	.LLST1
 2614 0dd2 24       		.uleb128 0x24
 2615 0dd3 00000000 		.4byte	.Ldebug_ranges0+0
 2616 0dd7 22       		.uleb128 0x22
 2617 0dd8 960D0000 		.4byte	0xd96
 2618 0ddc AA010000 		.4byte	.LLST2
 2619 0de0 24       		.uleb128 0x24
 2620 0de1 00000000 		.4byte	.Ldebug_ranges0+0
 2621 0de5 25       		.uleb128 0x25
 2622 0de6 A10D0000 		.4byte	0xda1
 2623 0dea 00       		.byte	0
 2624 0deb 00       		.byte	0
 2625 0dec 00       		.byte	0
 2626 0ded 26       		.uleb128 0x26
 2627 0dee 86090000 		.4byte	.LASF188
 2628 0df2 01       		.byte	0x1
 2629 0df3 3D       		.byte	0x3d
 2630 0df4 00000000 		.4byte	.LFB36
 2631 0df8 30000000 		.4byte	.LFE36-.LFB36
ARM GAS  /tmp/ccOcrNIh.s 			page 48


 2632 0dfc 01       		.uleb128 0x1
 2633 0dfd 9C       		.byte	0x9c
 2634 0dfe 100E0000 		.4byte	0xe10
 2635 0e02 27       		.uleb128 0x27
 2636 0e03 A9000000 		.4byte	.LASF190
 2637 0e07 01       		.byte	0x1
 2638 0e08 3D       		.byte	0x3d
 2639 0e09 100E0000 		.4byte	0xe10
 2640 0e0d 01       		.uleb128 0x1
 2641 0e0e 50       		.byte	0x50
 2642 0e0f 00       		.byte	0
 2643 0e10 09       		.uleb128 0x9
 2644 0e11 04       		.byte	0x4
 2645 0e12 DB080000 		.4byte	0x8db
 2646 0e16 26       		.uleb128 0x26
 2647 0e17 20030000 		.4byte	.LASF189
 2648 0e1b 01       		.byte	0x1
 2649 0e1c 4F       		.byte	0x4f
 2650 0e1d 00000000 		.4byte	.LFB37
 2651 0e21 0A000000 		.4byte	.LFE37-.LFB37
 2652 0e25 01       		.uleb128 0x1
 2653 0e26 9C       		.byte	0x9c
 2654 0e27 480E0000 		.4byte	0xe48
 2655 0e2b 27       		.uleb128 0x27
 2656 0e2c A9000000 		.4byte	.LASF190
 2657 0e30 01       		.byte	0x1
 2658 0e31 4F       		.byte	0x4f
 2659 0e32 100E0000 		.4byte	0xe10
 2660 0e36 01       		.uleb128 0x1
 2661 0e37 50       		.byte	0x50
 2662 0e38 28       		.uleb128 0x28
 2663 0e39 0A080000 		.4byte	.LASF191
 2664 0e3d 01       		.byte	0x1
 2665 0e3e 4F       		.byte	0x4f
 2666 0e3f C3000000 		.4byte	0xc3
 2667 0e43 E4010000 		.4byte	.LLST3
 2668 0e47 00       		.byte	0
 2669 0e48 26       		.uleb128 0x26
 2670 0e49 E4050000 		.4byte	.LASF192
 2671 0e4d 01       		.byte	0x1
 2672 0e4e 57       		.byte	0x57
 2673 0e4f 00000000 		.4byte	.LFB38
 2674 0e53 14000000 		.4byte	.LFE38-.LFB38
 2675 0e57 01       		.uleb128 0x1
 2676 0e58 9C       		.byte	0x9c
 2677 0e59 890E0000 		.4byte	0xe89
 2678 0e5d 27       		.uleb128 0x27
 2679 0e5e A9000000 		.4byte	.LASF190
 2680 0e62 01       		.byte	0x1
 2681 0e63 57       		.byte	0x57
 2682 0e64 100E0000 		.4byte	0xe10
 2683 0e68 01       		.uleb128 0x1
 2684 0e69 50       		.byte	0x50
 2685 0e6a 28       		.uleb128 0x28
 2686 0e6b DC050000 		.4byte	.LASF193
 2687 0e6f 01       		.byte	0x1
 2688 0e70 57       		.byte	0x57
ARM GAS  /tmp/ccOcrNIh.s 			page 49


 2689 0e71 C3000000 		.4byte	0xc3
 2690 0e75 05020000 		.4byte	.LLST4
 2691 0e79 28       		.uleb128 0x28
 2692 0e7a E5000000 		.4byte	.LASF194
 2693 0e7e 01       		.byte	0x1
 2694 0e7f 57       		.byte	0x57
 2695 0e80 C3000000 		.4byte	0xc3
 2696 0e84 26020000 		.4byte	.LLST5
 2697 0e88 00       		.byte	0
 2698 0e89 26       		.uleb128 0x26
 2699 0e8a 92030000 		.4byte	.LASF195
 2700 0e8e 01       		.byte	0x1
 2701 0e8f 60       		.byte	0x60
 2702 0e90 00000000 		.4byte	.LFB39
 2703 0e94 20000000 		.4byte	.LFE39-.LFB39
 2704 0e98 01       		.uleb128 0x1
 2705 0e99 9C       		.byte	0x9c
 2706 0e9a D90E0000 		.4byte	0xed9
 2707 0e9e 27       		.uleb128 0x27
 2708 0e9f A9000000 		.4byte	.LASF190
 2709 0ea3 01       		.byte	0x1
 2710 0ea4 60       		.byte	0x60
 2711 0ea5 100E0000 		.4byte	0xe10
 2712 0ea9 01       		.uleb128 0x1
 2713 0eaa 50       		.byte	0x50
 2714 0eab 28       		.uleb128 0x28
 2715 0eac 5F050000 		.4byte	.LASF196
 2716 0eb0 01       		.byte	0x1
 2717 0eb1 60       		.byte	0x60
 2718 0eb2 C3000000 		.4byte	0xc3
 2719 0eb6 47020000 		.4byte	.LLST6
 2720 0eba 28       		.uleb128 0x28
 2721 0ebb 47020000 		.4byte	.LASF197
 2722 0ebf 01       		.byte	0x1
 2723 0ec0 60       		.byte	0x60
 2724 0ec1 C3000000 		.4byte	0xc3
 2725 0ec5 68020000 		.4byte	.LLST7
 2726 0ec9 28       		.uleb128 0x28
 2727 0eca 1D040000 		.4byte	.LASF198
 2728 0ece 01       		.byte	0x1
 2729 0ecf 60       		.byte	0x60
 2730 0ed0 C3000000 		.4byte	0xc3
 2731 0ed4 89020000 		.4byte	.LLST8
 2732 0ed8 00       		.byte	0
 2733 0ed9 26       		.uleb128 0x26
 2734 0eda 85050000 		.4byte	.LASF199
 2735 0ede 01       		.byte	0x1
 2736 0edf 6A       		.byte	0x6a
 2737 0ee0 00000000 		.4byte	.LFB40
 2738 0ee4 0E000000 		.4byte	.LFE40-.LFB40
 2739 0ee8 01       		.uleb128 0x1
 2740 0ee9 9C       		.byte	0x9c
 2741 0eea 0B0F0000 		.4byte	0xf0b
 2742 0eee 27       		.uleb128 0x27
 2743 0eef A9000000 		.4byte	.LASF190
 2744 0ef3 01       		.byte	0x1
 2745 0ef4 6A       		.byte	0x6a
ARM GAS  /tmp/ccOcrNIh.s 			page 50


 2746 0ef5 100E0000 		.4byte	0xe10
 2747 0ef9 01       		.uleb128 0x1
 2748 0efa 50       		.byte	0x50
 2749 0efb 28       		.uleb128 0x28
 2750 0efc 30070000 		.4byte	.LASF200
 2751 0f00 01       		.byte	0x1
 2752 0f01 6A       		.byte	0x6a
 2753 0f02 C3000000 		.4byte	0xc3
 2754 0f06 AA020000 		.4byte	.LLST9
 2755 0f0a 00       		.byte	0
 2756 0f0b 26       		.uleb128 0x26
 2757 0f0c F9090000 		.4byte	.LASF201
 2758 0f10 01       		.byte	0x1
 2759 0f11 72       		.byte	0x72
 2760 0f12 00000000 		.4byte	.LFB41
 2761 0f16 16000000 		.4byte	.LFE41-.LFB41
 2762 0f1a 01       		.uleb128 0x1
 2763 0f1b 9C       		.byte	0x9c
 2764 0f1c 4C0F0000 		.4byte	0xf4c
 2765 0f20 27       		.uleb128 0x27
 2766 0f21 A9000000 		.4byte	.LASF190
 2767 0f25 01       		.byte	0x1
 2768 0f26 72       		.byte	0x72
 2769 0f27 100E0000 		.4byte	0xe10
 2770 0f2b 01       		.uleb128 0x1
 2771 0f2c 50       		.byte	0x50
 2772 0f2d 28       		.uleb128 0x28
 2773 0f2e AC030000 		.4byte	.LASF202
 2774 0f32 01       		.byte	0x1
 2775 0f33 72       		.byte	0x72
 2776 0f34 C3000000 		.4byte	0xc3
 2777 0f38 CB020000 		.4byte	.LLST10
 2778 0f3c 28       		.uleb128 0x28
 2779 0f3d 87040000 		.4byte	.LASF203
 2780 0f41 01       		.byte	0x1
 2781 0f42 72       		.byte	0x72
 2782 0f43 C3000000 		.4byte	0xc3
 2783 0f47 EC020000 		.4byte	.LLST11
 2784 0f4b 00       		.byte	0
 2785 0f4c 26       		.uleb128 0x26
 2786 0f4d 00000000 		.4byte	.LASF204
 2787 0f51 01       		.byte	0x1
 2788 0f52 7B       		.byte	0x7b
 2789 0f53 00000000 		.4byte	.LFB42
 2790 0f57 0A000000 		.4byte	.LFE42-.LFB42
 2791 0f5b 01       		.uleb128 0x1
 2792 0f5c 9C       		.byte	0x9c
 2793 0f5d 7E0F0000 		.4byte	0xf7e
 2794 0f61 27       		.uleb128 0x27
 2795 0f62 A9000000 		.4byte	.LASF190
 2796 0f66 01       		.byte	0x1
 2797 0f67 7B       		.byte	0x7b
 2798 0f68 100E0000 		.4byte	0xe10
 2799 0f6c 01       		.uleb128 0x1
 2800 0f6d 50       		.byte	0x50
 2801 0f6e 28       		.uleb128 0x28
 2802 0f6f 4F000000 		.4byte	.LASF205
ARM GAS  /tmp/ccOcrNIh.s 			page 51


 2803 0f73 01       		.byte	0x1
 2804 0f74 7B       		.byte	0x7b
 2805 0f75 C3000000 		.4byte	0xc3
 2806 0f79 0D030000 		.4byte	.LLST12
 2807 0f7d 00       		.byte	0
 2808 0f7e 26       		.uleb128 0x26
 2809 0f7f 6C050000 		.4byte	.LASF206
 2810 0f83 01       		.byte	0x1
 2811 0f84 AF       		.byte	0xaf
 2812 0f85 00000000 		.4byte	.LFB44
 2813 0f89 00010000 		.4byte	.LFE44-.LFB44
 2814 0f8d 01       		.uleb128 0x1
 2815 0f8e 9C       		.byte	0x9c
 2816 0f8f AC100000 		.4byte	0x10ac
 2817 0f93 28       		.uleb128 0x28
 2818 0f94 A9000000 		.4byte	.LASF190
 2819 0f98 01       		.byte	0x1
 2820 0f99 AF       		.byte	0xaf
 2821 0f9a 100E0000 		.4byte	0xe10
 2822 0f9e 2E030000 		.4byte	.LLST13
 2823 0fa2 28       		.uleb128 0x28
 2824 0fa3 0E070000 		.4byte	.LASF207
 2825 0fa7 01       		.byte	0x1
 2826 0fa8 AF       		.byte	0xaf
 2827 0fa9 C3000000 		.4byte	0xc3
 2828 0fad 7E030000 		.4byte	.LLST14
 2829 0fb1 29       		.uleb128 0x29
 2830 0fb2 4E060000 		.4byte	.LASF208
 2831 0fb6 01       		.byte	0x1
 2832 0fb7 B1       		.byte	0xb1
 2833 0fb8 C3000000 		.4byte	0xc3
 2834 0fbc 9F030000 		.4byte	.LLST15
 2835 0fc0 29       		.uleb128 0x29
 2836 0fc1 E5000000 		.4byte	.LASF194
 2837 0fc5 01       		.byte	0x1
 2838 0fc6 B2       		.byte	0xb2
 2839 0fc7 C3000000 		.4byte	0xc3
 2840 0fcb D3030000 		.4byte	.LLST16
 2841 0fcf 29       		.uleb128 0x29
 2842 0fd0 DC050000 		.4byte	.LASF193
 2843 0fd4 01       		.byte	0x1
 2844 0fd5 B3       		.byte	0xb3
 2845 0fd6 C3000000 		.4byte	0xc3
 2846 0fda EE030000 		.4byte	.LLST17
 2847 0fde 2A       		.uleb128 0x2a
 2848 0fdf 1C000000 		.4byte	.LVL54
 2849 0fe3 08130000 		.4byte	0x1308
 2850 0fe7 FB0F0000 		.4byte	0xffb
 2851 0feb 2B       		.uleb128 0x2b
 2852 0fec 01       		.uleb128 0x1
 2853 0fed 52       		.byte	0x52
 2854 0fee 02       		.uleb128 0x2
 2855 0fef 74       		.byte	0x74
 2856 0ff0 00       		.sleb128 0
 2857 0ff1 2B       		.uleb128 0x2b
 2858 0ff2 01       		.uleb128 0x1
 2859 0ff3 51       		.byte	0x51
ARM GAS  /tmp/ccOcrNIh.s 			page 52


 2860 0ff4 05       		.uleb128 0x5
 2861 0ff5 03       		.byte	0x3
 2862 0ff6 00000000 		.4byte	.LC0
 2863 0ffa 00       		.byte	0
 2864 0ffb 2A       		.uleb128 0x2a
 2865 0ffc 44000000 		.4byte	.LVL57
 2866 1000 860D0000 		.4byte	0xd86
 2867 1004 0F100000 		.4byte	0x100f
 2868 1008 2B       		.uleb128 0x2b
 2869 1009 01       		.uleb128 0x1
 2870 100a 50       		.byte	0x50
 2871 100b 02       		.uleb128 0x2
 2872 100c 76       		.byte	0x76
 2873 100d 00       		.sleb128 0
 2874 100e 00       		.byte	0
 2875 100f 2A       		.uleb128 0x2a
 2876 1010 6A000000 		.4byte	.LVL60
 2877 1014 860D0000 		.4byte	0xd86
 2878 1018 23100000 		.4byte	0x1023
 2879 101c 2B       		.uleb128 0x2b
 2880 101d 01       		.uleb128 0x1
 2881 101e 50       		.byte	0x50
 2882 101f 02       		.uleb128 0x2
 2883 1020 76       		.byte	0x76
 2884 1021 00       		.sleb128 0
 2885 1022 00       		.byte	0
 2886 1023 2C       		.uleb128 0x2c
 2887 1024 80000000 		.4byte	.LVL62
 2888 1028 08130000 		.4byte	0x1308
 2889 102c 3A100000 		.4byte	0x103a
 2890 1030 2B       		.uleb128 0x2b
 2891 1031 01       		.uleb128 0x1
 2892 1032 51       		.byte	0x51
 2893 1033 05       		.uleb128 0x5
 2894 1034 03       		.byte	0x3
 2895 1035 90000000 		.4byte	.LC3
 2896 1039 00       		.byte	0
 2897 103a 2A       		.uleb128 0x2a
 2898 103b 88000000 		.4byte	.LVL63
 2899 103f 08130000 		.4byte	0x1308
 2900 1043 51100000 		.4byte	0x1051
 2901 1047 2B       		.uleb128 0x2b
 2902 1048 01       		.uleb128 0x1
 2903 1049 51       		.byte	0x51
 2904 104a 05       		.uleb128 0x5
 2905 104b 03       		.byte	0x3
 2906 104c 58000000 		.4byte	.LC2
 2907 1050 00       		.byte	0
 2908 1051 2A       		.uleb128 0x2a
 2909 1052 96000000 		.4byte	.LVL65
 2910 1056 860D0000 		.4byte	0xd86
 2911 105a 65100000 		.4byte	0x1065
 2912 105e 2B       		.uleb128 0x2b
 2913 105f 01       		.uleb128 0x1
 2914 1060 50       		.byte	0x50
 2915 1061 02       		.uleb128 0x2
 2916 1062 76       		.byte	0x76
ARM GAS  /tmp/ccOcrNIh.s 			page 53


 2917 1063 00       		.sleb128 0
 2918 1064 00       		.byte	0
 2919 1065 2C       		.uleb128 0x2c
 2920 1066 C2000000 		.4byte	.LVL68
 2921 106a 08130000 		.4byte	0x1308
 2922 106e 7C100000 		.4byte	0x107c
 2923 1072 2B       		.uleb128 0x2b
 2924 1073 01       		.uleb128 0x1
 2925 1074 51       		.byte	0x51
 2926 1075 05       		.uleb128 0x5
 2927 1076 03       		.byte	0x3
 2928 1077 90000000 		.4byte	.LC3
 2929 107b 00       		.byte	0
 2930 107c 2A       		.uleb128 0x2a
 2931 107d CC000000 		.4byte	.LVL69
 2932 1081 08130000 		.4byte	0x1308
 2933 1085 98100000 		.4byte	0x1098
 2934 1089 2B       		.uleb128 0x2b
 2935 108a 01       		.uleb128 0x1
 2936 108b 52       		.byte	0x52
 2937 108c 01       		.uleb128 0x1
 2938 108d 31       		.byte	0x31
 2939 108e 2B       		.uleb128 0x2b
 2940 108f 01       		.uleb128 0x1
 2941 1090 51       		.byte	0x51
 2942 1091 05       		.uleb128 0x5
 2943 1092 03       		.byte	0x3
 2944 1093 20000000 		.4byte	.LC1
 2945 1097 00       		.byte	0
 2946 1098 2D       		.uleb128 0x2d
 2947 1099 D6000000 		.4byte	.LVL71
 2948 109d 08130000 		.4byte	0x1308
 2949 10a1 2B       		.uleb128 0x2b
 2950 10a2 01       		.uleb128 0x1
 2951 10a3 51       		.byte	0x51
 2952 10a4 05       		.uleb128 0x5
 2953 10a5 03       		.byte	0x3
 2954 10a6 C0000000 		.4byte	.LC4
 2955 10aa 00       		.byte	0
 2956 10ab 00       		.byte	0
 2957 10ac 2E       		.uleb128 0x2e
 2958 10ad E3020000 		.4byte	.LASF218
 2959 10b1 01       		.byte	0x1
 2960 10b2 F4       		.byte	0xf4
 2961 10b3 C3000000 		.4byte	0xc3
 2962 10b7 00000000 		.4byte	.LFB45
 2963 10bb 0E000000 		.4byte	.LFE45-.LFB45
 2964 10bf 01       		.uleb128 0x1
 2965 10c0 9C       		.byte	0x9c
 2966 10c1 F3100000 		.4byte	0x10f3
 2967 10c5 28       		.uleb128 0x28
 2968 10c6 A9000000 		.4byte	.LASF190
 2969 10ca 01       		.byte	0x1
 2970 10cb F4       		.byte	0xf4
 2971 10cc 100E0000 		.4byte	0xe10
 2972 10d0 17040000 		.4byte	.LLST18
 2973 10d4 28       		.uleb128 0x28
ARM GAS  /tmp/ccOcrNIh.s 			page 54


 2974 10d5 64040000 		.4byte	.LASF209
 2975 10d9 01       		.byte	0x1
 2976 10da F4       		.byte	0xf4
 2977 10db C3000000 		.4byte	0xc3
 2978 10df 38040000 		.4byte	.LLST19
 2979 10e3 29       		.uleb128 0x29
 2980 10e4 76050000 		.4byte	.LASF210
 2981 10e8 01       		.byte	0x1
 2982 10e9 F6       		.byte	0xf6
 2983 10ea C3000000 		.4byte	0xc3
 2984 10ee 59040000 		.4byte	.LLST20
 2985 10f2 00       		.byte	0
 2986 10f3 2F       		.uleb128 0x2f
 2987 10f4 BF070000 		.4byte	.LASF211
 2988 10f8 01       		.byte	0x1
 2989 10f9 0601     		.2byte	0x106
 2990 10fb 00000000 		.4byte	.LFB46
 2991 10ff 44000000 		.4byte	.LFE46-.LFB46
 2992 1103 01       		.uleb128 0x1
 2993 1104 9C       		.byte	0x9c
 2994 1105 65110000 		.4byte	0x1165
 2995 1109 30       		.uleb128 0x30
 2996 110a A9000000 		.4byte	.LASF190
 2997 110e 01       		.byte	0x1
 2998 110f 0601     		.2byte	0x106
 2999 1111 100E0000 		.4byte	0xe10
 3000 1115 78040000 		.4byte	.LLST21
 3001 1119 30       		.uleb128 0x30
 3002 111a 64040000 		.4byte	.LASF209
 3003 111e 01       		.byte	0x1
 3004 111f 0601     		.2byte	0x106
 3005 1121 C3000000 		.4byte	0xc3
 3006 1125 99040000 		.4byte	.LLST22
 3007 1129 31       		.uleb128 0x31
 3008 112a 8C000000 		.4byte	.LASF213
 3009 112e 75110000 		.4byte	0x1175
 3010 1132 05       		.uleb128 0x5
 3011 1133 03       		.byte	0x3
 3012 1134 00000000 		.4byte	__func__.6017
 3013 1138 2D       		.uleb128 0x2d
 3014 1139 38000000 		.4byte	.LVL81
 3015 113d 25130000 		.4byte	0x1325
 3016 1141 2B       		.uleb128 0x2b
 3017 1142 01       		.uleb128 0x1
 3018 1143 53       		.byte	0x53
 3019 1144 05       		.uleb128 0x5
 3020 1145 03       		.byte	0x3
 3021 1146 14010000 		.4byte	.LC6
 3022 114a 2B       		.uleb128 0x2b
 3023 114b 01       		.uleb128 0x1
 3024 114c 52       		.byte	0x52
 3025 114d 05       		.uleb128 0x5
 3026 114e 03       		.byte	0x3
 3027 114f 00000000 		.4byte	.LANCHOR0
 3028 1153 2B       		.uleb128 0x2b
 3029 1154 01       		.uleb128 0x1
 3030 1155 51       		.byte	0x51
ARM GAS  /tmp/ccOcrNIh.s 			page 55


 3031 1156 03       		.uleb128 0x3
 3032 1157 0A       		.byte	0xa
 3033 1158 0801     		.2byte	0x108
 3034 115a 2B       		.uleb128 0x2b
 3035 115b 01       		.uleb128 0x1
 3036 115c 50       		.byte	0x50
 3037 115d 05       		.uleb128 0x5
 3038 115e 03       		.byte	0x3
 3039 115f E4000000 		.4byte	.LC5
 3040 1163 00       		.byte	0
 3041 1164 00       		.byte	0
 3042 1165 15       		.uleb128 0x15
 3043 1166 21040000 		.4byte	0x421
 3044 116a 75110000 		.4byte	0x1175
 3045 116e 16       		.uleb128 0x16
 3046 116f 2D030000 		.4byte	0x32d
 3047 1173 15       		.byte	0x15
 3048 1174 00       		.byte	0
 3049 1175 10       		.uleb128 0x10
 3050 1176 65110000 		.4byte	0x1165
 3051 117a 2F       		.uleb128 0x2f
 3052 117b B6000000 		.4byte	.LASF214
 3053 117f 01       		.byte	0x1
 3054 1180 1B01     		.2byte	0x11b
 3055 1182 00000000 		.4byte	.LFB47
 3056 1186 14000000 		.4byte	.LFE47-.LFB47
 3057 118a 01       		.uleb128 0x1
 3058 118b 9C       		.byte	0x9c
 3059 118c AF110000 		.4byte	0x11af
 3060 1190 32       		.uleb128 0x32
 3061 1191 A9000000 		.4byte	.LASF190
 3062 1195 01       		.byte	0x1
 3063 1196 1B01     		.2byte	0x11b
 3064 1198 100E0000 		.4byte	0xe10
 3065 119c 01       		.uleb128 0x1
 3066 119d 50       		.byte	0x50
 3067 119e 30       		.uleb128 0x30
 3068 119f 25040000 		.4byte	.LASF215
 3069 11a3 01       		.byte	0x1
 3070 11a4 1B01     		.2byte	0x11b
 3071 11a6 C3000000 		.4byte	0xc3
 3072 11aa D3040000 		.4byte	.LLST23
 3073 11ae 00       		.byte	0
 3074 11af 2F       		.uleb128 0x2f
 3075 11b0 47050000 		.4byte	.LASF216
 3076 11b4 01       		.byte	0x1
 3077 11b5 2601     		.2byte	0x126
 3078 11b7 00000000 		.4byte	.LFB48
 3079 11bb 04000000 		.4byte	.LFE48-.LFB48
 3080 11bf 01       		.uleb128 0x1
 3081 11c0 9C       		.byte	0x9c
 3082 11c1 E2110000 		.4byte	0x11e2
 3083 11c5 32       		.uleb128 0x32
 3084 11c6 A9000000 		.4byte	.LASF190
 3085 11ca 01       		.byte	0x1
 3086 11cb 2601     		.2byte	0x126
 3087 11cd 100E0000 		.4byte	0xe10
ARM GAS  /tmp/ccOcrNIh.s 			page 56


 3088 11d1 01       		.uleb128 0x1
 3089 11d2 50       		.byte	0x50
 3090 11d3 32       		.uleb128 0x32
 3091 11d4 E5040000 		.4byte	.LASF217
 3092 11d8 01       		.byte	0x1
 3093 11d9 2601     		.2byte	0x126
 3094 11db C3000000 		.4byte	0xc3
 3095 11df 01       		.uleb128 0x1
 3096 11e0 51       		.byte	0x51
 3097 11e1 00       		.byte	0
 3098 11e2 33       		.uleb128 0x33
 3099 11e3 49010000 		.4byte	.LASF219
 3100 11e7 01       		.byte	0x1
 3101 11e8 3301     		.2byte	0x133
 3102 11ea C3000000 		.4byte	0xc3
 3103 11ee 00000000 		.4byte	.LFB49
 3104 11f2 06000000 		.4byte	.LFE49-.LFB49
 3105 11f6 01       		.uleb128 0x1
 3106 11f7 9C       		.byte	0x9c
 3107 11f8 1B120000 		.4byte	0x121b
 3108 11fc 30       		.uleb128 0x30
 3109 11fd A9000000 		.4byte	.LASF190
 3110 1201 01       		.byte	0x1
 3111 1202 3301     		.2byte	0x133
 3112 1204 100E0000 		.4byte	0xe10
 3113 1208 F4040000 		.4byte	.LLST24
 3114 120c 32       		.uleb128 0x32
 3115 120d 40020000 		.4byte	.LASF220
 3116 1211 01       		.byte	0x1
 3117 1212 3301     		.2byte	0x133
 3118 1214 C3000000 		.4byte	0xc3
 3119 1218 01       		.uleb128 0x1
 3120 1219 51       		.byte	0x51
 3121 121a 00       		.byte	0
 3122 121b 33       		.uleb128 0x33
 3123 121c C0020000 		.4byte	.LASF221
 3124 1220 01       		.byte	0x1
 3125 1221 4001     		.2byte	0x140
 3126 1223 C3000000 		.4byte	0xc3
 3127 1227 00000000 		.4byte	.LFB50
 3128 122b 06000000 		.4byte	.LFE50-.LFB50
 3129 122f 01       		.uleb128 0x1
 3130 1230 9C       		.byte	0x9c
 3131 1231 54120000 		.4byte	0x1254
 3132 1235 30       		.uleb128 0x30
 3133 1236 A9000000 		.4byte	.LASF190
 3134 123a 01       		.byte	0x1
 3135 123b 4001     		.2byte	0x140
 3136 123d 100E0000 		.4byte	0xe10
 3137 1241 15050000 		.4byte	.LLST25
 3138 1245 32       		.uleb128 0x32
 3139 1246 40020000 		.4byte	.LASF220
 3140 124a 01       		.byte	0x1
 3141 124b 4001     		.2byte	0x140
 3142 124d C3000000 		.4byte	0xc3
 3143 1251 01       		.uleb128 0x1
 3144 1252 51       		.byte	0x51
ARM GAS  /tmp/ccOcrNIh.s 			page 57


 3145 1253 00       		.byte	0
 3146 1254 33       		.uleb128 0x33
 3147 1255 AB040000 		.4byte	.LASF222
 3148 1259 01       		.byte	0x1
 3149 125a 4D01     		.2byte	0x14d
 3150 125c C3000000 		.4byte	0xc3
 3151 1260 00000000 		.4byte	.LFB51
 3152 1264 10000000 		.4byte	.LFE51-.LFB51
 3153 1268 01       		.uleb128 0x1
 3154 1269 9C       		.byte	0x9c
 3155 126a 9F120000 		.4byte	0x129f
 3156 126e 30       		.uleb128 0x30
 3157 126f B2030000 		.4byte	.LASF223
 3158 1273 01       		.byte	0x1
 3159 1274 4D01     		.2byte	0x14d
 3160 1276 C3000000 		.4byte	0xc3
 3161 127a 36050000 		.4byte	.LLST26
 3162 127e 30       		.uleb128 0x30
 3163 127f 64040000 		.4byte	.LASF209
 3164 1283 01       		.byte	0x1
 3165 1284 4D01     		.2byte	0x14d
 3166 1286 C3000000 		.4byte	0xc3
 3167 128a 57050000 		.4byte	.LLST27
 3168 128e 34       		.uleb128 0x34
 3169 128f 37020000 		.4byte	.LASF224
 3170 1293 01       		.byte	0x1
 3171 1294 4F01     		.2byte	0x14f
 3172 1296 C3000000 		.4byte	0xc3
 3173 129a 78050000 		.4byte	.LLST28
 3174 129e 00       		.byte	0
 3175 129f 33       		.uleb128 0x33
 3176 12a0 28020000 		.4byte	.LASF225
 3177 12a4 01       		.byte	0x1
 3178 12a5 6401     		.2byte	0x164
 3179 12a7 C3000000 		.4byte	0xc3
 3180 12ab 00000000 		.4byte	.LFB52
 3181 12af 44000000 		.4byte	.LFE52-.LFB52
 3182 12b3 01       		.uleb128 0x1
 3183 12b4 9C       		.byte	0x9c
 3184 12b5 E6120000 		.4byte	0x12e6
 3185 12b9 30       		.uleb128 0x30
 3186 12ba A3070000 		.4byte	.LASF226
 3187 12be 01       		.byte	0x1
 3188 12bf 6401     		.2byte	0x164
 3189 12c1 100E0000 		.4byte	0xe10
 3190 12c5 AD050000 		.4byte	.LLST29
 3191 12c9 32       		.uleb128 0x32
 3192 12ca D2000000 		.4byte	.LASF227
 3193 12ce 01       		.byte	0x1
 3194 12cf 6401     		.2byte	0x164
 3195 12d1 E6120000 		.4byte	0x12e6
 3196 12d5 01       		.uleb128 0x1
 3197 12d6 51       		.byte	0x51
 3198 12d7 32       		.uleb128 0x32
 3199 12d8 95090000 		.4byte	.LASF228
 3200 12dc 01       		.byte	0x1
 3201 12dd 6401     		.2byte	0x164
ARM GAS  /tmp/ccOcrNIh.s 			page 58


 3202 12df C3000000 		.4byte	0xc3
 3203 12e3 01       		.uleb128 0x1
 3204 12e4 52       		.byte	0x52
 3205 12e5 00       		.byte	0
 3206 12e6 09       		.uleb128 0x9
 3207 12e7 04       		.byte	0x4
 3208 12e8 AD000000 		.4byte	0xad
 3209 12ec 35       		.uleb128 0x35
 3210 12ed ED040000 		.4byte	.LASF229
 3211 12f1 0F       		.byte	0xf
 3212 12f2 CE06     		.2byte	0x6ce
 3213 12f4 F8120000 		.4byte	0x12f8
 3214 12f8 0D       		.uleb128 0xd
 3215 12f9 25000000 		.4byte	0x25
 3216 12fd 36       		.uleb128 0x36
 3217 12fe 53443200 		.ascii	"SD2\000"
 3218 1302 10       		.byte	0x10
 3219 1303 85       		.byte	0x85
 3220 1304 6A0C0000 		.4byte	0xc6a
 3221 1308 37       		.uleb128 0x37
 3222 1309 A3030000 		.4byte	.LASF234
 3223 130d 11       		.byte	0x11
 3224 130e 2A       		.byte	0x2a
 3225 130f 1F130000 		.4byte	0x131f
 3226 1313 12       		.uleb128 0x12
 3227 1314 1F130000 		.4byte	0x131f
 3228 1318 12       		.uleb128 0x12
 3229 1319 16040000 		.4byte	0x416
 3230 131d 38       		.uleb128 0x38
 3231 131e 00       		.byte	0
 3232 131f 09       		.uleb128 0x9
 3233 1320 04       		.byte	0x4
 3234 1321 44060000 		.4byte	0x644
 3235 1325 39       		.uleb128 0x39
 3236 1326 CD030000 		.4byte	.LASF235
 3237 132a 12       		.byte	0x12
 3238 132b 29       		.byte	0x29
 3239 132c 12       		.uleb128 0x12
 3240 132d 16040000 		.4byte	0x416
 3241 1331 12       		.uleb128 0x12
 3242 1332 25000000 		.4byte	0x25
 3243 1336 12       		.uleb128 0x12
 3244 1337 16040000 		.4byte	0x416
 3245 133b 12       		.uleb128 0x12
 3246 133c 16040000 		.4byte	0x416
 3247 1340 00       		.byte	0
 3248 1341 00       		.byte	0
 3249              		.section	.debug_abbrev,"",%progbits
 3250              	.Ldebug_abbrev0:
 3251 0000 01       		.uleb128 0x1
 3252 0001 11       		.uleb128 0x11
 3253 0002 01       		.byte	0x1
 3254 0003 25       		.uleb128 0x25
 3255 0004 0E       		.uleb128 0xe
 3256 0005 13       		.uleb128 0x13
 3257 0006 0B       		.uleb128 0xb
 3258 0007 03       		.uleb128 0x3
ARM GAS  /tmp/ccOcrNIh.s 			page 59


 3259 0008 0E       		.uleb128 0xe
 3260 0009 1B       		.uleb128 0x1b
 3261 000a 0E       		.uleb128 0xe
 3262 000b 55       		.uleb128 0x55
 3263 000c 17       		.uleb128 0x17
 3264 000d 11       		.uleb128 0x11
 3265 000e 01       		.uleb128 0x1
 3266 000f 10       		.uleb128 0x10
 3267 0010 17       		.uleb128 0x17
 3268 0011 00       		.byte	0
 3269 0012 00       		.byte	0
 3270 0013 02       		.uleb128 0x2
 3271 0014 24       		.uleb128 0x24
 3272 0015 00       		.byte	0
 3273 0016 0B       		.uleb128 0xb
 3274 0017 0B       		.uleb128 0xb
 3275 0018 3E       		.uleb128 0x3e
 3276 0019 0B       		.uleb128 0xb
 3277 001a 03       		.uleb128 0x3
 3278 001b 08       		.uleb128 0x8
 3279 001c 00       		.byte	0
 3280 001d 00       		.byte	0
 3281 001e 03       		.uleb128 0x3
 3282 001f 16       		.uleb128 0x16
 3283 0020 00       		.byte	0
 3284 0021 03       		.uleb128 0x3
 3285 0022 0E       		.uleb128 0xe
 3286 0023 3A       		.uleb128 0x3a
 3287 0024 0B       		.uleb128 0xb
 3288 0025 3B       		.uleb128 0x3b
 3289 0026 0B       		.uleb128 0xb
 3290 0027 49       		.uleb128 0x49
 3291 0028 13       		.uleb128 0x13
 3292 0029 00       		.byte	0
 3293 002a 00       		.byte	0
 3294 002b 04       		.uleb128 0x4
 3295 002c 24       		.uleb128 0x24
 3296 002d 00       		.byte	0
 3297 002e 0B       		.uleb128 0xb
 3298 002f 0B       		.uleb128 0xb
 3299 0030 3E       		.uleb128 0x3e
 3300 0031 0B       		.uleb128 0xb
 3301 0032 03       		.uleb128 0x3
 3302 0033 0E       		.uleb128 0xe
 3303 0034 00       		.byte	0
 3304 0035 00       		.byte	0
 3305 0036 05       		.uleb128 0x5
 3306 0037 13       		.uleb128 0x13
 3307 0038 01       		.byte	0x1
 3308 0039 03       		.uleb128 0x3
 3309 003a 0E       		.uleb128 0xe
 3310 003b 0B       		.uleb128 0xb
 3311 003c 0B       		.uleb128 0xb
 3312 003d 3A       		.uleb128 0x3a
 3313 003e 0B       		.uleb128 0xb
 3314 003f 3B       		.uleb128 0x3b
 3315 0040 0B       		.uleb128 0xb
ARM GAS  /tmp/ccOcrNIh.s 			page 60


 3316 0041 01       		.uleb128 0x1
 3317 0042 13       		.uleb128 0x13
 3318 0043 00       		.byte	0
 3319 0044 00       		.byte	0
 3320 0045 06       		.uleb128 0x6
 3321 0046 0D       		.uleb128 0xd
 3322 0047 00       		.byte	0
 3323 0048 03       		.uleb128 0x3
 3324 0049 0E       		.uleb128 0xe
 3325 004a 3A       		.uleb128 0x3a
 3326 004b 0B       		.uleb128 0xb
 3327 004c 3B       		.uleb128 0x3b
 3328 004d 0B       		.uleb128 0xb
 3329 004e 49       		.uleb128 0x49
 3330 004f 13       		.uleb128 0x13
 3331 0050 38       		.uleb128 0x38
 3332 0051 0B       		.uleb128 0xb
 3333 0052 00       		.byte	0
 3334 0053 00       		.byte	0
 3335 0054 07       		.uleb128 0x7
 3336 0055 0D       		.uleb128 0xd
 3337 0056 00       		.byte	0
 3338 0057 03       		.uleb128 0x3
 3339 0058 08       		.uleb128 0x8
 3340 0059 3A       		.uleb128 0x3a
 3341 005a 0B       		.uleb128 0xb
 3342 005b 3B       		.uleb128 0x3b
 3343 005c 0B       		.uleb128 0xb
 3344 005d 49       		.uleb128 0x49
 3345 005e 13       		.uleb128 0x13
 3346 005f 38       		.uleb128 0x38
 3347 0060 0B       		.uleb128 0xb
 3348 0061 00       		.byte	0
 3349 0062 00       		.byte	0
 3350 0063 08       		.uleb128 0x8
 3351 0064 13       		.uleb128 0x13
 3352 0065 01       		.byte	0x1
 3353 0066 0B       		.uleb128 0xb
 3354 0067 0B       		.uleb128 0xb
 3355 0068 3A       		.uleb128 0x3a
 3356 0069 0B       		.uleb128 0xb
 3357 006a 3B       		.uleb128 0x3b
 3358 006b 0B       		.uleb128 0xb
 3359 006c 01       		.uleb128 0x1
 3360 006d 13       		.uleb128 0x13
 3361 006e 00       		.byte	0
 3362 006f 00       		.byte	0
 3363 0070 09       		.uleb128 0x9
 3364 0071 0F       		.uleb128 0xf
 3365 0072 00       		.byte	0
 3366 0073 0B       		.uleb128 0xb
 3367 0074 0B       		.uleb128 0xb
 3368 0075 49       		.uleb128 0x49
 3369 0076 13       		.uleb128 0x13
 3370 0077 00       		.byte	0
 3371 0078 00       		.byte	0
 3372 0079 0A       		.uleb128 0xa
ARM GAS  /tmp/ccOcrNIh.s 			page 61


 3373 007a 0F       		.uleb128 0xf
 3374 007b 00       		.byte	0
 3375 007c 0B       		.uleb128 0xb
 3376 007d 0B       		.uleb128 0xb
 3377 007e 00       		.byte	0
 3378 007f 00       		.byte	0
 3379 0080 0B       		.uleb128 0xb
 3380 0081 0D       		.uleb128 0xd
 3381 0082 00       		.byte	0
 3382 0083 03       		.uleb128 0x3
 3383 0084 08       		.uleb128 0x8
 3384 0085 3A       		.uleb128 0x3a
 3385 0086 0B       		.uleb128 0xb
 3386 0087 3B       		.uleb128 0x3b
 3387 0088 05       		.uleb128 0x5
 3388 0089 49       		.uleb128 0x49
 3389 008a 13       		.uleb128 0x13
 3390 008b 38       		.uleb128 0x38
 3391 008c 0B       		.uleb128 0xb
 3392 008d 00       		.byte	0
 3393 008e 00       		.byte	0
 3394 008f 0C       		.uleb128 0xc
 3395 0090 13       		.uleb128 0x13
 3396 0091 01       		.byte	0x1
 3397 0092 03       		.uleb128 0x3
 3398 0093 0E       		.uleb128 0xe
 3399 0094 0B       		.uleb128 0xb
 3400 0095 0B       		.uleb128 0xb
 3401 0096 3A       		.uleb128 0x3a
 3402 0097 0B       		.uleb128 0xb
 3403 0098 3B       		.uleb128 0x3b
 3404 0099 05       		.uleb128 0x5
 3405 009a 01       		.uleb128 0x1
 3406 009b 13       		.uleb128 0x13
 3407 009c 00       		.byte	0
 3408 009d 00       		.byte	0
 3409 009e 0D       		.uleb128 0xd
 3410 009f 35       		.uleb128 0x35
 3411 00a0 00       		.byte	0
 3412 00a1 49       		.uleb128 0x49
 3413 00a2 13       		.uleb128 0x13
 3414 00a3 00       		.byte	0
 3415 00a4 00       		.byte	0
 3416 00a5 0E       		.uleb128 0xe
 3417 00a6 17       		.uleb128 0x17
 3418 00a7 01       		.byte	0x1
 3419 00a8 0B       		.uleb128 0xb
 3420 00a9 0B       		.uleb128 0xb
 3421 00aa 3A       		.uleb128 0x3a
 3422 00ab 0B       		.uleb128 0xb
 3423 00ac 3B       		.uleb128 0x3b
 3424 00ad 0B       		.uleb128 0xb
 3425 00ae 01       		.uleb128 0x1
 3426 00af 13       		.uleb128 0x13
 3427 00b0 00       		.byte	0
 3428 00b1 00       		.byte	0
 3429 00b2 0F       		.uleb128 0xf
ARM GAS  /tmp/ccOcrNIh.s 			page 62


 3430 00b3 0D       		.uleb128 0xd
 3431 00b4 00       		.byte	0
 3432 00b5 03       		.uleb128 0x3
 3433 00b6 0E       		.uleb128 0xe
 3434 00b7 3A       		.uleb128 0x3a
 3435 00b8 0B       		.uleb128 0xb
 3436 00b9 3B       		.uleb128 0x3b
 3437 00ba 0B       		.uleb128 0xb
 3438 00bb 49       		.uleb128 0x49
 3439 00bc 13       		.uleb128 0x13
 3440 00bd 00       		.byte	0
 3441 00be 00       		.byte	0
 3442 00bf 10       		.uleb128 0x10
 3443 00c0 26       		.uleb128 0x26
 3444 00c1 00       		.byte	0
 3445 00c2 49       		.uleb128 0x49
 3446 00c3 13       		.uleb128 0x13
 3447 00c4 00       		.byte	0
 3448 00c5 00       		.byte	0
 3449 00c6 11       		.uleb128 0x11
 3450 00c7 15       		.uleb128 0x15
 3451 00c8 01       		.byte	0x1
 3452 00c9 27       		.uleb128 0x27
 3453 00ca 19       		.uleb128 0x19
 3454 00cb 01       		.uleb128 0x1
 3455 00cc 13       		.uleb128 0x13
 3456 00cd 00       		.byte	0
 3457 00ce 00       		.byte	0
 3458 00cf 12       		.uleb128 0x12
 3459 00d0 05       		.uleb128 0x5
 3460 00d1 00       		.byte	0
 3461 00d2 49       		.uleb128 0x49
 3462 00d3 13       		.uleb128 0x13
 3463 00d4 00       		.byte	0
 3464 00d5 00       		.byte	0
 3465 00d6 13       		.uleb128 0x13
 3466 00d7 15       		.uleb128 0x15
 3467 00d8 01       		.byte	0x1
 3468 00d9 27       		.uleb128 0x27
 3469 00da 19       		.uleb128 0x19
 3470 00db 49       		.uleb128 0x49
 3471 00dc 13       		.uleb128 0x13
 3472 00dd 01       		.uleb128 0x1
 3473 00de 13       		.uleb128 0x13
 3474 00df 00       		.byte	0
 3475 00e0 00       		.byte	0
 3476 00e1 14       		.uleb128 0x14
 3477 00e2 16       		.uleb128 0x16
 3478 00e3 00       		.byte	0
 3479 00e4 03       		.uleb128 0x3
 3480 00e5 0E       		.uleb128 0xe
 3481 00e6 3A       		.uleb128 0x3a
 3482 00e7 0B       		.uleb128 0xb
 3483 00e8 3B       		.uleb128 0x3b
 3484 00e9 05       		.uleb128 0x5
 3485 00ea 49       		.uleb128 0x49
 3486 00eb 13       		.uleb128 0x13
ARM GAS  /tmp/ccOcrNIh.s 			page 63


 3487 00ec 00       		.byte	0
 3488 00ed 00       		.byte	0
 3489 00ee 15       		.uleb128 0x15
 3490 00ef 01       		.uleb128 0x1
 3491 00f0 01       		.byte	0x1
 3492 00f1 49       		.uleb128 0x49
 3493 00f2 13       		.uleb128 0x13
 3494 00f3 01       		.uleb128 0x1
 3495 00f4 13       		.uleb128 0x13
 3496 00f5 00       		.byte	0
 3497 00f6 00       		.byte	0
 3498 00f7 16       		.uleb128 0x16
 3499 00f8 21       		.uleb128 0x21
 3500 00f9 00       		.byte	0
 3501 00fa 49       		.uleb128 0x49
 3502 00fb 13       		.uleb128 0x13
 3503 00fc 2F       		.uleb128 0x2f
 3504 00fd 0B       		.uleb128 0xb
 3505 00fe 00       		.byte	0
 3506 00ff 00       		.byte	0
 3507 0100 17       		.uleb128 0x17
 3508 0101 13       		.uleb128 0x13
 3509 0102 01       		.byte	0x1
 3510 0103 0B       		.uleb128 0xb
 3511 0104 05       		.uleb128 0x5
 3512 0105 3A       		.uleb128 0x3a
 3513 0106 0B       		.uleb128 0xb
 3514 0107 3B       		.uleb128 0x3b
 3515 0108 0B       		.uleb128 0xb
 3516 0109 01       		.uleb128 0x1
 3517 010a 13       		.uleb128 0x13
 3518 010b 00       		.byte	0
 3519 010c 00       		.byte	0
 3520 010d 18       		.uleb128 0x18
 3521 010e 0D       		.uleb128 0xd
 3522 010f 00       		.byte	0
 3523 0110 03       		.uleb128 0x3
 3524 0111 0E       		.uleb128 0xe
 3525 0112 3A       		.uleb128 0x3a
 3526 0113 0B       		.uleb128 0xb
 3527 0114 3B       		.uleb128 0x3b
 3528 0115 05       		.uleb128 0x5
 3529 0116 49       		.uleb128 0x49
 3530 0117 13       		.uleb128 0x13
 3531 0118 38       		.uleb128 0x38
 3532 0119 0B       		.uleb128 0xb
 3533 011a 00       		.byte	0
 3534 011b 00       		.byte	0
 3535 011c 19       		.uleb128 0x19
 3536 011d 0D       		.uleb128 0xd
 3537 011e 00       		.byte	0
 3538 011f 03       		.uleb128 0x3
 3539 0120 0E       		.uleb128 0xe
 3540 0121 3A       		.uleb128 0x3a
 3541 0122 0B       		.uleb128 0xb
 3542 0123 3B       		.uleb128 0x3b
 3543 0124 05       		.uleb128 0x5
ARM GAS  /tmp/ccOcrNIh.s 			page 64


 3544 0125 49       		.uleb128 0x49
 3545 0126 13       		.uleb128 0x13
 3546 0127 38       		.uleb128 0x38
 3547 0128 05       		.uleb128 0x5
 3548 0129 00       		.byte	0
 3549 012a 00       		.byte	0
 3550 012b 1A       		.uleb128 0x1a
 3551 012c 16       		.uleb128 0x16
 3552 012d 00       		.byte	0
 3553 012e 03       		.uleb128 0x3
 3554 012f 08       		.uleb128 0x8
 3555 0130 3A       		.uleb128 0x3a
 3556 0131 0B       		.uleb128 0xb
 3557 0132 3B       		.uleb128 0x3b
 3558 0133 05       		.uleb128 0x5
 3559 0134 49       		.uleb128 0x49
 3560 0135 13       		.uleb128 0x13
 3561 0136 00       		.byte	0
 3562 0137 00       		.byte	0
 3563 0138 1B       		.uleb128 0x1b
 3564 0139 13       		.uleb128 0x13
 3565 013a 01       		.byte	0x1
 3566 013b 0B       		.uleb128 0xb
 3567 013c 05       		.uleb128 0x5
 3568 013d 3A       		.uleb128 0x3a
 3569 013e 0B       		.uleb128 0xb
 3570 013f 3B       		.uleb128 0x3b
 3571 0140 05       		.uleb128 0x5
 3572 0141 01       		.uleb128 0x1
 3573 0142 13       		.uleb128 0x13
 3574 0143 00       		.byte	0
 3575 0144 00       		.byte	0
 3576 0145 1C       		.uleb128 0x1c
 3577 0146 04       		.uleb128 0x4
 3578 0147 01       		.byte	0x1
 3579 0148 0B       		.uleb128 0xb
 3580 0149 0B       		.uleb128 0xb
 3581 014a 3A       		.uleb128 0x3a
 3582 014b 0B       		.uleb128 0xb
 3583 014c 3B       		.uleb128 0x3b
 3584 014d 0B       		.uleb128 0xb
 3585 014e 01       		.uleb128 0x1
 3586 014f 13       		.uleb128 0x13
 3587 0150 00       		.byte	0
 3588 0151 00       		.byte	0
 3589 0152 1D       		.uleb128 0x1d
 3590 0153 28       		.uleb128 0x28
 3591 0154 00       		.byte	0
 3592 0155 03       		.uleb128 0x3
 3593 0156 0E       		.uleb128 0xe
 3594 0157 1C       		.uleb128 0x1c
 3595 0158 0D       		.uleb128 0xd
 3596 0159 00       		.byte	0
 3597 015a 00       		.byte	0
 3598 015b 1E       		.uleb128 0x1e
 3599 015c 2E       		.uleb128 0x2e
 3600 015d 01       		.byte	0x1
ARM GAS  /tmp/ccOcrNIh.s 			page 65


 3601 015e 03       		.uleb128 0x3
 3602 015f 0E       		.uleb128 0xe
 3603 0160 3A       		.uleb128 0x3a
 3604 0161 0B       		.uleb128 0xb
 3605 0162 3B       		.uleb128 0x3b
 3606 0163 0B       		.uleb128 0xb
 3607 0164 27       		.uleb128 0x27
 3608 0165 19       		.uleb128 0x19
 3609 0166 49       		.uleb128 0x49
 3610 0167 13       		.uleb128 0x13
 3611 0168 20       		.uleb128 0x20
 3612 0169 0B       		.uleb128 0xb
 3613 016a 01       		.uleb128 0x1
 3614 016b 13       		.uleb128 0x13
 3615 016c 00       		.byte	0
 3616 016d 00       		.byte	0
 3617 016e 1F       		.uleb128 0x1f
 3618 016f 05       		.uleb128 0x5
 3619 0170 00       		.byte	0
 3620 0171 03       		.uleb128 0x3
 3621 0172 0E       		.uleb128 0xe
 3622 0173 3A       		.uleb128 0x3a
 3623 0174 0B       		.uleb128 0xb
 3624 0175 3B       		.uleb128 0x3b
 3625 0176 0B       		.uleb128 0xb
 3626 0177 49       		.uleb128 0x49
 3627 0178 13       		.uleb128 0x13
 3628 0179 00       		.byte	0
 3629 017a 00       		.byte	0
 3630 017b 20       		.uleb128 0x20
 3631 017c 34       		.uleb128 0x34
 3632 017d 00       		.byte	0
 3633 017e 03       		.uleb128 0x3
 3634 017f 0E       		.uleb128 0xe
 3635 0180 3A       		.uleb128 0x3a
 3636 0181 0B       		.uleb128 0xb
 3637 0182 3B       		.uleb128 0x3b
 3638 0183 0B       		.uleb128 0xb
 3639 0184 49       		.uleb128 0x49
 3640 0185 13       		.uleb128 0x13
 3641 0186 00       		.byte	0
 3642 0187 00       		.byte	0
 3643 0188 21       		.uleb128 0x21
 3644 0189 2E       		.uleb128 0x2e
 3645 018a 01       		.byte	0x1
 3646 018b 31       		.uleb128 0x31
 3647 018c 13       		.uleb128 0x13
 3648 018d 11       		.uleb128 0x11
 3649 018e 01       		.uleb128 0x1
 3650 018f 12       		.uleb128 0x12
 3651 0190 06       		.uleb128 0x6
 3652 0191 40       		.uleb128 0x40
 3653 0192 18       		.uleb128 0x18
 3654 0193 9742     		.uleb128 0x2117
 3655 0195 19       		.uleb128 0x19
 3656 0196 01       		.uleb128 0x1
 3657 0197 13       		.uleb128 0x13
ARM GAS  /tmp/ccOcrNIh.s 			page 66


 3658 0198 00       		.byte	0
 3659 0199 00       		.byte	0
 3660 019a 22       		.uleb128 0x22
 3661 019b 05       		.uleb128 0x5
 3662 019c 00       		.byte	0
 3663 019d 31       		.uleb128 0x31
 3664 019e 13       		.uleb128 0x13
 3665 019f 02       		.uleb128 0x2
 3666 01a0 17       		.uleb128 0x17
 3667 01a1 00       		.byte	0
 3668 01a2 00       		.byte	0
 3669 01a3 23       		.uleb128 0x23
 3670 01a4 34       		.uleb128 0x34
 3671 01a5 00       		.byte	0
 3672 01a6 31       		.uleb128 0x31
 3673 01a7 13       		.uleb128 0x13
 3674 01a8 02       		.uleb128 0x2
 3675 01a9 17       		.uleb128 0x17
 3676 01aa 00       		.byte	0
 3677 01ab 00       		.byte	0
 3678 01ac 24       		.uleb128 0x24
 3679 01ad 0B       		.uleb128 0xb
 3680 01ae 01       		.byte	0x1
 3681 01af 55       		.uleb128 0x55
 3682 01b0 17       		.uleb128 0x17
 3683 01b1 00       		.byte	0
 3684 01b2 00       		.byte	0
 3685 01b3 25       		.uleb128 0x25
 3686 01b4 34       		.uleb128 0x34
 3687 01b5 00       		.byte	0
 3688 01b6 31       		.uleb128 0x31
 3689 01b7 13       		.uleb128 0x13
 3690 01b8 00       		.byte	0
 3691 01b9 00       		.byte	0
 3692 01ba 26       		.uleb128 0x26
 3693 01bb 2E       		.uleb128 0x2e
 3694 01bc 01       		.byte	0x1
 3695 01bd 3F       		.uleb128 0x3f
 3696 01be 19       		.uleb128 0x19
 3697 01bf 03       		.uleb128 0x3
 3698 01c0 0E       		.uleb128 0xe
 3699 01c1 3A       		.uleb128 0x3a
 3700 01c2 0B       		.uleb128 0xb
 3701 01c3 3B       		.uleb128 0x3b
 3702 01c4 0B       		.uleb128 0xb
 3703 01c5 27       		.uleb128 0x27
 3704 01c6 19       		.uleb128 0x19
 3705 01c7 11       		.uleb128 0x11
 3706 01c8 01       		.uleb128 0x1
 3707 01c9 12       		.uleb128 0x12
 3708 01ca 06       		.uleb128 0x6
 3709 01cb 40       		.uleb128 0x40
 3710 01cc 18       		.uleb128 0x18
 3711 01cd 9742     		.uleb128 0x2117
 3712 01cf 19       		.uleb128 0x19
 3713 01d0 01       		.uleb128 0x1
 3714 01d1 13       		.uleb128 0x13
ARM GAS  /tmp/ccOcrNIh.s 			page 67


 3715 01d2 00       		.byte	0
 3716 01d3 00       		.byte	0
 3717 01d4 27       		.uleb128 0x27
 3718 01d5 05       		.uleb128 0x5
 3719 01d6 00       		.byte	0
 3720 01d7 03       		.uleb128 0x3
 3721 01d8 0E       		.uleb128 0xe
 3722 01d9 3A       		.uleb128 0x3a
 3723 01da 0B       		.uleb128 0xb
 3724 01db 3B       		.uleb128 0x3b
 3725 01dc 0B       		.uleb128 0xb
 3726 01dd 49       		.uleb128 0x49
 3727 01de 13       		.uleb128 0x13
 3728 01df 02       		.uleb128 0x2
 3729 01e0 18       		.uleb128 0x18
 3730 01e1 00       		.byte	0
 3731 01e2 00       		.byte	0
 3732 01e3 28       		.uleb128 0x28
 3733 01e4 05       		.uleb128 0x5
 3734 01e5 00       		.byte	0
 3735 01e6 03       		.uleb128 0x3
 3736 01e7 0E       		.uleb128 0xe
 3737 01e8 3A       		.uleb128 0x3a
 3738 01e9 0B       		.uleb128 0xb
 3739 01ea 3B       		.uleb128 0x3b
 3740 01eb 0B       		.uleb128 0xb
 3741 01ec 49       		.uleb128 0x49
 3742 01ed 13       		.uleb128 0x13
 3743 01ee 02       		.uleb128 0x2
 3744 01ef 17       		.uleb128 0x17
 3745 01f0 00       		.byte	0
 3746 01f1 00       		.byte	0
 3747 01f2 29       		.uleb128 0x29
 3748 01f3 34       		.uleb128 0x34
 3749 01f4 00       		.byte	0
 3750 01f5 03       		.uleb128 0x3
 3751 01f6 0E       		.uleb128 0xe
 3752 01f7 3A       		.uleb128 0x3a
 3753 01f8 0B       		.uleb128 0xb
 3754 01f9 3B       		.uleb128 0x3b
 3755 01fa 0B       		.uleb128 0xb
 3756 01fb 49       		.uleb128 0x49
 3757 01fc 13       		.uleb128 0x13
 3758 01fd 02       		.uleb128 0x2
 3759 01fe 17       		.uleb128 0x17
 3760 01ff 00       		.byte	0
 3761 0200 00       		.byte	0
 3762 0201 2A       		.uleb128 0x2a
 3763 0202 898201   		.uleb128 0x4109
 3764 0205 01       		.byte	0x1
 3765 0206 11       		.uleb128 0x11
 3766 0207 01       		.uleb128 0x1
 3767 0208 31       		.uleb128 0x31
 3768 0209 13       		.uleb128 0x13
 3769 020a 01       		.uleb128 0x1
 3770 020b 13       		.uleb128 0x13
 3771 020c 00       		.byte	0
ARM GAS  /tmp/ccOcrNIh.s 			page 68


 3772 020d 00       		.byte	0
 3773 020e 2B       		.uleb128 0x2b
 3774 020f 8A8201   		.uleb128 0x410a
 3775 0212 00       		.byte	0
 3776 0213 02       		.uleb128 0x2
 3777 0214 18       		.uleb128 0x18
 3778 0215 9142     		.uleb128 0x2111
 3779 0217 18       		.uleb128 0x18
 3780 0218 00       		.byte	0
 3781 0219 00       		.byte	0
 3782 021a 2C       		.uleb128 0x2c
 3783 021b 898201   		.uleb128 0x4109
 3784 021e 01       		.byte	0x1
 3785 021f 11       		.uleb128 0x11
 3786 0220 01       		.uleb128 0x1
 3787 0221 9542     		.uleb128 0x2115
 3788 0223 19       		.uleb128 0x19
 3789 0224 31       		.uleb128 0x31
 3790 0225 13       		.uleb128 0x13
 3791 0226 01       		.uleb128 0x1
 3792 0227 13       		.uleb128 0x13
 3793 0228 00       		.byte	0
 3794 0229 00       		.byte	0
 3795 022a 2D       		.uleb128 0x2d
 3796 022b 898201   		.uleb128 0x4109
 3797 022e 01       		.byte	0x1
 3798 022f 11       		.uleb128 0x11
 3799 0230 01       		.uleb128 0x1
 3800 0231 31       		.uleb128 0x31
 3801 0232 13       		.uleb128 0x13
 3802 0233 00       		.byte	0
 3803 0234 00       		.byte	0
 3804 0235 2E       		.uleb128 0x2e
 3805 0236 2E       		.uleb128 0x2e
 3806 0237 01       		.byte	0x1
 3807 0238 3F       		.uleb128 0x3f
 3808 0239 19       		.uleb128 0x19
 3809 023a 03       		.uleb128 0x3
 3810 023b 0E       		.uleb128 0xe
 3811 023c 3A       		.uleb128 0x3a
 3812 023d 0B       		.uleb128 0xb
 3813 023e 3B       		.uleb128 0x3b
 3814 023f 0B       		.uleb128 0xb
 3815 0240 27       		.uleb128 0x27
 3816 0241 19       		.uleb128 0x19
 3817 0242 49       		.uleb128 0x49
 3818 0243 13       		.uleb128 0x13
 3819 0244 11       		.uleb128 0x11
 3820 0245 01       		.uleb128 0x1
 3821 0246 12       		.uleb128 0x12
 3822 0247 06       		.uleb128 0x6
 3823 0248 40       		.uleb128 0x40
 3824 0249 18       		.uleb128 0x18
 3825 024a 9742     		.uleb128 0x2117
 3826 024c 19       		.uleb128 0x19
 3827 024d 01       		.uleb128 0x1
 3828 024e 13       		.uleb128 0x13
ARM GAS  /tmp/ccOcrNIh.s 			page 69


 3829 024f 00       		.byte	0
 3830 0250 00       		.byte	0
 3831 0251 2F       		.uleb128 0x2f
 3832 0252 2E       		.uleb128 0x2e
 3833 0253 01       		.byte	0x1
 3834 0254 3F       		.uleb128 0x3f
 3835 0255 19       		.uleb128 0x19
 3836 0256 03       		.uleb128 0x3
 3837 0257 0E       		.uleb128 0xe
 3838 0258 3A       		.uleb128 0x3a
 3839 0259 0B       		.uleb128 0xb
 3840 025a 3B       		.uleb128 0x3b
 3841 025b 05       		.uleb128 0x5
 3842 025c 27       		.uleb128 0x27
 3843 025d 19       		.uleb128 0x19
 3844 025e 11       		.uleb128 0x11
 3845 025f 01       		.uleb128 0x1
 3846 0260 12       		.uleb128 0x12
 3847 0261 06       		.uleb128 0x6
 3848 0262 40       		.uleb128 0x40
 3849 0263 18       		.uleb128 0x18
 3850 0264 9742     		.uleb128 0x2117
 3851 0266 19       		.uleb128 0x19
 3852 0267 01       		.uleb128 0x1
 3853 0268 13       		.uleb128 0x13
 3854 0269 00       		.byte	0
 3855 026a 00       		.byte	0
 3856 026b 30       		.uleb128 0x30
 3857 026c 05       		.uleb128 0x5
 3858 026d 00       		.byte	0
 3859 026e 03       		.uleb128 0x3
 3860 026f 0E       		.uleb128 0xe
 3861 0270 3A       		.uleb128 0x3a
 3862 0271 0B       		.uleb128 0xb
 3863 0272 3B       		.uleb128 0x3b
 3864 0273 05       		.uleb128 0x5
 3865 0274 49       		.uleb128 0x49
 3866 0275 13       		.uleb128 0x13
 3867 0276 02       		.uleb128 0x2
 3868 0277 17       		.uleb128 0x17
 3869 0278 00       		.byte	0
 3870 0279 00       		.byte	0
 3871 027a 31       		.uleb128 0x31
 3872 027b 34       		.uleb128 0x34
 3873 027c 00       		.byte	0
 3874 027d 03       		.uleb128 0x3
 3875 027e 0E       		.uleb128 0xe
 3876 027f 49       		.uleb128 0x49
 3877 0280 13       		.uleb128 0x13
 3878 0281 34       		.uleb128 0x34
 3879 0282 19       		.uleb128 0x19
 3880 0283 02       		.uleb128 0x2
 3881 0284 18       		.uleb128 0x18
 3882 0285 00       		.byte	0
 3883 0286 00       		.byte	0
 3884 0287 32       		.uleb128 0x32
 3885 0288 05       		.uleb128 0x5
ARM GAS  /tmp/ccOcrNIh.s 			page 70


 3886 0289 00       		.byte	0
 3887 028a 03       		.uleb128 0x3
 3888 028b 0E       		.uleb128 0xe
 3889 028c 3A       		.uleb128 0x3a
 3890 028d 0B       		.uleb128 0xb
 3891 028e 3B       		.uleb128 0x3b
 3892 028f 05       		.uleb128 0x5
 3893 0290 49       		.uleb128 0x49
 3894 0291 13       		.uleb128 0x13
 3895 0292 02       		.uleb128 0x2
 3896 0293 18       		.uleb128 0x18
 3897 0294 00       		.byte	0
 3898 0295 00       		.byte	0
 3899 0296 33       		.uleb128 0x33
 3900 0297 2E       		.uleb128 0x2e
 3901 0298 01       		.byte	0x1
 3902 0299 3F       		.uleb128 0x3f
 3903 029a 19       		.uleb128 0x19
 3904 029b 03       		.uleb128 0x3
 3905 029c 0E       		.uleb128 0xe
 3906 029d 3A       		.uleb128 0x3a
 3907 029e 0B       		.uleb128 0xb
 3908 029f 3B       		.uleb128 0x3b
 3909 02a0 05       		.uleb128 0x5
 3910 02a1 27       		.uleb128 0x27
 3911 02a2 19       		.uleb128 0x19
 3912 02a3 49       		.uleb128 0x49
 3913 02a4 13       		.uleb128 0x13
 3914 02a5 11       		.uleb128 0x11
 3915 02a6 01       		.uleb128 0x1
 3916 02a7 12       		.uleb128 0x12
 3917 02a8 06       		.uleb128 0x6
 3918 02a9 40       		.uleb128 0x40
 3919 02aa 18       		.uleb128 0x18
 3920 02ab 9742     		.uleb128 0x2117
 3921 02ad 19       		.uleb128 0x19
 3922 02ae 01       		.uleb128 0x1
 3923 02af 13       		.uleb128 0x13
 3924 02b0 00       		.byte	0
 3925 02b1 00       		.byte	0
 3926 02b2 34       		.uleb128 0x34
 3927 02b3 34       		.uleb128 0x34
 3928 02b4 00       		.byte	0
 3929 02b5 03       		.uleb128 0x3
 3930 02b6 0E       		.uleb128 0xe
 3931 02b7 3A       		.uleb128 0x3a
 3932 02b8 0B       		.uleb128 0xb
 3933 02b9 3B       		.uleb128 0x3b
 3934 02ba 05       		.uleb128 0x5
 3935 02bb 49       		.uleb128 0x49
 3936 02bc 13       		.uleb128 0x13
 3937 02bd 02       		.uleb128 0x2
 3938 02be 17       		.uleb128 0x17
 3939 02bf 00       		.byte	0
 3940 02c0 00       		.byte	0
 3941 02c1 35       		.uleb128 0x35
 3942 02c2 34       		.uleb128 0x34
ARM GAS  /tmp/ccOcrNIh.s 			page 71


 3943 02c3 00       		.byte	0
 3944 02c4 03       		.uleb128 0x3
 3945 02c5 0E       		.uleb128 0xe
 3946 02c6 3A       		.uleb128 0x3a
 3947 02c7 0B       		.uleb128 0xb
 3948 02c8 3B       		.uleb128 0x3b
 3949 02c9 05       		.uleb128 0x5
 3950 02ca 49       		.uleb128 0x49
 3951 02cb 13       		.uleb128 0x13
 3952 02cc 3F       		.uleb128 0x3f
 3953 02cd 19       		.uleb128 0x19
 3954 02ce 3C       		.uleb128 0x3c
 3955 02cf 19       		.uleb128 0x19
 3956 02d0 00       		.byte	0
 3957 02d1 00       		.byte	0
 3958 02d2 36       		.uleb128 0x36
 3959 02d3 34       		.uleb128 0x34
 3960 02d4 00       		.byte	0
 3961 02d5 03       		.uleb128 0x3
 3962 02d6 08       		.uleb128 0x8
 3963 02d7 3A       		.uleb128 0x3a
 3964 02d8 0B       		.uleb128 0xb
 3965 02d9 3B       		.uleb128 0x3b
 3966 02da 0B       		.uleb128 0xb
 3967 02db 49       		.uleb128 0x49
 3968 02dc 13       		.uleb128 0x13
 3969 02dd 3F       		.uleb128 0x3f
 3970 02de 19       		.uleb128 0x19
 3971 02df 3C       		.uleb128 0x3c
 3972 02e0 19       		.uleb128 0x19
 3973 02e1 00       		.byte	0
 3974 02e2 00       		.byte	0
 3975 02e3 37       		.uleb128 0x37
 3976 02e4 2E       		.uleb128 0x2e
 3977 02e5 01       		.byte	0x1
 3978 02e6 3F       		.uleb128 0x3f
 3979 02e7 19       		.uleb128 0x19
 3980 02e8 03       		.uleb128 0x3
 3981 02e9 0E       		.uleb128 0xe
 3982 02ea 3A       		.uleb128 0x3a
 3983 02eb 0B       		.uleb128 0xb
 3984 02ec 3B       		.uleb128 0x3b
 3985 02ed 0B       		.uleb128 0xb
 3986 02ee 27       		.uleb128 0x27
 3987 02ef 19       		.uleb128 0x19
 3988 02f0 3C       		.uleb128 0x3c
 3989 02f1 19       		.uleb128 0x19
 3990 02f2 01       		.uleb128 0x1
 3991 02f3 13       		.uleb128 0x13
 3992 02f4 00       		.byte	0
 3993 02f5 00       		.byte	0
 3994 02f6 38       		.uleb128 0x38
 3995 02f7 18       		.uleb128 0x18
 3996 02f8 00       		.byte	0
 3997 02f9 00       		.byte	0
 3998 02fa 00       		.byte	0
 3999 02fb 39       		.uleb128 0x39
ARM GAS  /tmp/ccOcrNIh.s 			page 72


 4000 02fc 2E       		.uleb128 0x2e
 4001 02fd 01       		.byte	0x1
 4002 02fe 3F       		.uleb128 0x3f
 4003 02ff 19       		.uleb128 0x19
 4004 0300 03       		.uleb128 0x3
 4005 0301 0E       		.uleb128 0xe
 4006 0302 3A       		.uleb128 0x3a
 4007 0303 0B       		.uleb128 0xb
 4008 0304 3B       		.uleb128 0x3b
 4009 0305 0B       		.uleb128 0xb
 4010 0306 27       		.uleb128 0x27
 4011 0307 19       		.uleb128 0x19
 4012 0308 3C       		.uleb128 0x3c
 4013 0309 19       		.uleb128 0x19
 4014 030a 00       		.byte	0
 4015 030b 00       		.byte	0
 4016 030c 00       		.byte	0
 4017              		.section	.debug_loc,"",%progbits
 4018              	.Ldebug_loc0:
 4019              	.LLST0:
 4020 0000 00000000 		.4byte	.LVL0
 4021 0004 44000000 		.4byte	.LVL2
 4022 0008 0100     		.2byte	0x1
 4023 000a 50       		.byte	0x50
 4024 000b 44000000 		.4byte	.LVL2
 4025 000f 46000000 		.4byte	.LVL3
 4026 0013 0400     		.2byte	0x4
 4027 0015 F3       		.byte	0xf3
 4028 0016 01       		.uleb128 0x1
 4029 0017 50       		.byte	0x50
 4030 0018 9F       		.byte	0x9f
 4031 0019 46000000 		.4byte	.LVL3
 4032 001d 4A000000 		.4byte	.LVL4
 4033 0021 0100     		.2byte	0x1
 4034 0023 50       		.byte	0x50
 4035 0024 4A000000 		.4byte	.LVL4
 4036 0028 4C000000 		.4byte	.LVL5
 4037 002c 0400     		.2byte	0x4
 4038 002e F3       		.byte	0xf3
 4039 002f 01       		.uleb128 0x1
 4040 0030 50       		.byte	0x50
 4041 0031 9F       		.byte	0x9f
 4042 0032 4C000000 		.4byte	.LVL5
 4043 0036 4E000000 		.4byte	.LVL6
 4044 003a 0100     		.2byte	0x1
 4045 003c 50       		.byte	0x50
 4046 003d 4E000000 		.4byte	.LVL6
 4047 0041 50000000 		.4byte	.LVL7
 4048 0045 0400     		.2byte	0x4
 4049 0047 F3       		.byte	0xf3
 4050 0048 01       		.uleb128 0x1
 4051 0049 50       		.byte	0x50
 4052 004a 9F       		.byte	0x9f
 4053 004b 50000000 		.4byte	.LVL7
 4054 004f 52000000 		.4byte	.LVL8
 4055 0053 0100     		.2byte	0x1
 4056 0055 50       		.byte	0x50
ARM GAS  /tmp/ccOcrNIh.s 			page 73


 4057 0056 52000000 		.4byte	.LVL8
 4058 005a 54000000 		.4byte	.LVL9
 4059 005e 0400     		.2byte	0x4
 4060 0060 F3       		.byte	0xf3
 4061 0061 01       		.uleb128 0x1
 4062 0062 50       		.byte	0x50
 4063 0063 9F       		.byte	0x9f
 4064 0064 54000000 		.4byte	.LVL9
 4065 0068 56000000 		.4byte	.LVL10
 4066 006c 0100     		.2byte	0x1
 4067 006e 50       		.byte	0x50
 4068 006f 56000000 		.4byte	.LVL10
 4069 0073 58000000 		.4byte	.LVL11
 4070 0077 0400     		.2byte	0x4
 4071 0079 F3       		.byte	0xf3
 4072 007a 01       		.uleb128 0x1
 4073 007b 50       		.byte	0x50
 4074 007c 9F       		.byte	0x9f
 4075 007d 58000000 		.4byte	.LVL11
 4076 0081 5A000000 		.4byte	.LVL12
 4077 0085 0100     		.2byte	0x1
 4078 0087 50       		.byte	0x50
 4079 0088 5A000000 		.4byte	.LVL12
 4080 008c 5C000000 		.4byte	.LVL13
 4081 0090 0400     		.2byte	0x4
 4082 0092 F3       		.byte	0xf3
 4083 0093 01       		.uleb128 0x1
 4084 0094 50       		.byte	0x50
 4085 0095 9F       		.byte	0x9f
 4086 0096 5C000000 		.4byte	.LVL13
 4087 009a 5E000000 		.4byte	.LVL14
 4088 009e 0100     		.2byte	0x1
 4089 00a0 50       		.byte	0x50
 4090 00a1 5E000000 		.4byte	.LVL14
 4091 00a5 60000000 		.4byte	.LVL15
 4092 00a9 0400     		.2byte	0x4
 4093 00ab F3       		.byte	0xf3
 4094 00ac 01       		.uleb128 0x1
 4095 00ad 50       		.byte	0x50
 4096 00ae 9F       		.byte	0x9f
 4097 00af 60000000 		.4byte	.LVL15
 4098 00b3 62000000 		.4byte	.LVL16
 4099 00b7 0100     		.2byte	0x1
 4100 00b9 50       		.byte	0x50
 4101 00ba 62000000 		.4byte	.LVL16
 4102 00be 64000000 		.4byte	.LVL17
 4103 00c2 0400     		.2byte	0x4
 4104 00c4 F3       		.byte	0xf3
 4105 00c5 01       		.uleb128 0x1
 4106 00c6 50       		.byte	0x50
 4107 00c7 9F       		.byte	0x9f
 4108 00c8 64000000 		.4byte	.LVL17
 4109 00cc 66000000 		.4byte	.LVL18
 4110 00d0 0100     		.2byte	0x1
 4111 00d2 50       		.byte	0x50
 4112 00d3 66000000 		.4byte	.LVL18
 4113 00d7 68000000 		.4byte	.LVL19
ARM GAS  /tmp/ccOcrNIh.s 			page 74


 4114 00db 0400     		.2byte	0x4
 4115 00dd F3       		.byte	0xf3
 4116 00de 01       		.uleb128 0x1
 4117 00df 50       		.byte	0x50
 4118 00e0 9F       		.byte	0x9f
 4119 00e1 68000000 		.4byte	.LVL19
 4120 00e5 6C000000 		.4byte	.LVL20
 4121 00e9 0100     		.2byte	0x1
 4122 00eb 50       		.byte	0x50
 4123 00ec 6C000000 		.4byte	.LVL20
 4124 00f0 6E000000 		.4byte	.LVL21
 4125 00f4 0400     		.2byte	0x4
 4126 00f6 F3       		.byte	0xf3
 4127 00f7 01       		.uleb128 0x1
 4128 00f8 50       		.byte	0x50
 4129 00f9 9F       		.byte	0x9f
 4130 00fa 6E000000 		.4byte	.LVL21
 4131 00fe 72000000 		.4byte	.LVL22
 4132 0102 0100     		.2byte	0x1
 4133 0104 50       		.byte	0x50
 4134 0105 72000000 		.4byte	.LVL22
 4135 0109 74000000 		.4byte	.LVL23
 4136 010d 0400     		.2byte	0x4
 4137 010f F3       		.byte	0xf3
 4138 0110 01       		.uleb128 0x1
 4139 0111 50       		.byte	0x50
 4140 0112 9F       		.byte	0x9f
 4141 0113 74000000 		.4byte	.LVL23
 4142 0117 78000000 		.4byte	.LVL24
 4143 011b 0100     		.2byte	0x1
 4144 011d 50       		.byte	0x50
 4145 011e 78000000 		.4byte	.LVL24
 4146 0122 7A000000 		.4byte	.LVL25
 4147 0126 0400     		.2byte	0x4
 4148 0128 F3       		.byte	0xf3
 4149 0129 01       		.uleb128 0x1
 4150 012a 50       		.byte	0x50
 4151 012b 9F       		.byte	0x9f
 4152 012c 7A000000 		.4byte	.LVL25
 4153 0130 7E000000 		.4byte	.LVL26
 4154 0134 0100     		.2byte	0x1
 4155 0136 50       		.byte	0x50
 4156 0137 7E000000 		.4byte	.LVL26
 4157 013b 80000000 		.4byte	.LVL27
 4158 013f 0400     		.2byte	0x4
 4159 0141 F3       		.byte	0xf3
 4160 0142 01       		.uleb128 0x1
 4161 0143 50       		.byte	0x50
 4162 0144 9F       		.byte	0x9f
 4163 0145 80000000 		.4byte	.LVL27
 4164 0149 84000000 		.4byte	.LVL28
 4165 014d 0100     		.2byte	0x1
 4166 014f 50       		.byte	0x50
 4167 0150 84000000 		.4byte	.LVL28
 4168 0154 86000000 		.4byte	.LVL29
 4169 0158 0400     		.2byte	0x4
 4170 015a F3       		.byte	0xf3
ARM GAS  /tmp/ccOcrNIh.s 			page 75


 4171 015b 01       		.uleb128 0x1
 4172 015c 50       		.byte	0x50
 4173 015d 9F       		.byte	0x9f
 4174 015e 86000000 		.4byte	.LVL29
 4175 0162 8A000000 		.4byte	.LVL30
 4176 0166 0100     		.2byte	0x1
 4177 0168 50       		.byte	0x50
 4178 0169 8A000000 		.4byte	.LVL30
 4179 016d 8C000000 		.4byte	.LFE43
 4180 0171 0400     		.2byte	0x4
 4181 0173 F3       		.byte	0xf3
 4182 0174 01       		.uleb128 0x1
 4183 0175 50       		.byte	0x50
 4184 0176 9F       		.byte	0x9f
 4185 0177 00000000 		.4byte	0
 4186 017b 00000000 		.4byte	0
 4187              	.LLST1:
 4188 017f 00000000 		.4byte	.LVL0
 4189 0183 4A000000 		.4byte	.LVL4
 4190 0187 0200     		.2byte	0x2
 4191 0189 30       		.byte	0x30
 4192 018a 9F       		.byte	0x9f
 4193 018b 4A000000 		.4byte	.LVL4
 4194 018f 4C000000 		.4byte	.LVL5
 4195 0193 0100     		.2byte	0x1
 4196 0195 50       		.byte	0x50
 4197 0196 4C000000 		.4byte	.LVL5
 4198 019a 8C000000 		.4byte	.LFE43
 4199 019e 0200     		.2byte	0x2
 4200 01a0 30       		.byte	0x30
 4201 01a1 9F       		.byte	0x9f
 4202 01a2 00000000 		.4byte	0
 4203 01a6 00000000 		.4byte	0
 4204              	.LLST2:
 4205 01aa 36000000 		.4byte	.LVL1
 4206 01ae 44000000 		.4byte	.LVL2
 4207 01b2 0100     		.2byte	0x1
 4208 01b4 50       		.byte	0x50
 4209 01b5 44000000 		.4byte	.LVL2
 4210 01b9 46000000 		.4byte	.LVL3
 4211 01bd 0400     		.2byte	0x4
 4212 01bf F3       		.byte	0xf3
 4213 01c0 01       		.uleb128 0x1
 4214 01c1 50       		.byte	0x50
 4215 01c2 9F       		.byte	0x9f
 4216 01c3 86000000 		.4byte	.LVL29
 4217 01c7 8A000000 		.4byte	.LVL30
 4218 01cb 0100     		.2byte	0x1
 4219 01cd 50       		.byte	0x50
 4220 01ce 8A000000 		.4byte	.LVL30
 4221 01d2 8C000000 		.4byte	.LFE43
 4222 01d6 0400     		.2byte	0x4
 4223 01d8 F3       		.byte	0xf3
 4224 01d9 01       		.uleb128 0x1
 4225 01da 50       		.byte	0x50
 4226 01db 9F       		.byte	0x9f
 4227 01dc 00000000 		.4byte	0
ARM GAS  /tmp/ccOcrNIh.s 			page 76


 4228 01e0 00000000 		.4byte	0
 4229              	.LLST3:
 4230 01e4 00000000 		.4byte	.LVL32
 4231 01e8 02000000 		.4byte	.LVL33
 4232 01ec 0100     		.2byte	0x1
 4233 01ee 51       		.byte	0x51
 4234 01ef 02000000 		.4byte	.LVL33
 4235 01f3 0A000000 		.4byte	.LFE37
 4236 01f7 0400     		.2byte	0x4
 4237 01f9 F3       		.byte	0xf3
 4238 01fa 01       		.uleb128 0x1
 4239 01fb 51       		.byte	0x51
 4240 01fc 9F       		.byte	0x9f
 4241 01fd 00000000 		.4byte	0
 4242 0201 00000000 		.4byte	0
 4243              	.LLST4:
 4244 0205 00000000 		.4byte	.LVL34
 4245 0209 04000000 		.4byte	.LVL35
 4246 020d 0100     		.2byte	0x1
 4247 020f 51       		.byte	0x51
 4248 0210 04000000 		.4byte	.LVL35
 4249 0214 14000000 		.4byte	.LFE38
 4250 0218 0400     		.2byte	0x4
 4251 021a F3       		.byte	0xf3
 4252 021b 01       		.uleb128 0x1
 4253 021c 51       		.byte	0x51
 4254 021d 9F       		.byte	0x9f
 4255 021e 00000000 		.4byte	0
 4256 0222 00000000 		.4byte	0
 4257              	.LLST5:
 4258 0226 00000000 		.4byte	.LVL34
 4259 022a 0A000000 		.4byte	.LVL36
 4260 022e 0100     		.2byte	0x1
 4261 0230 52       		.byte	0x52
 4262 0231 0A000000 		.4byte	.LVL36
 4263 0235 14000000 		.4byte	.LFE38
 4264 0239 0400     		.2byte	0x4
 4265 023b F3       		.byte	0xf3
 4266 023c 01       		.uleb128 0x1
 4267 023d 52       		.byte	0x52
 4268 023e 9F       		.byte	0x9f
 4269 023f 00000000 		.4byte	0
 4270 0243 00000000 		.4byte	0
 4271              	.LLST6:
 4272 0247 00000000 		.4byte	.LVL37
 4273 024b 0E000000 		.4byte	.LVL39
 4274 024f 0100     		.2byte	0x1
 4275 0251 51       		.byte	0x51
 4276 0252 0E000000 		.4byte	.LVL39
 4277 0256 20000000 		.4byte	.LFE39
 4278 025a 0400     		.2byte	0x4
 4279 025c F3       		.byte	0xf3
 4280 025d 01       		.uleb128 0x1
 4281 025e 51       		.byte	0x51
 4282 025f 9F       		.byte	0x9f
 4283 0260 00000000 		.4byte	0
 4284 0264 00000000 		.4byte	0
ARM GAS  /tmp/ccOcrNIh.s 			page 77


 4285              	.LLST7:
 4286 0268 00000000 		.4byte	.LVL37
 4287 026c 10000000 		.4byte	.LVL40
 4288 0270 0100     		.2byte	0x1
 4289 0272 52       		.byte	0x52
 4290 0273 10000000 		.4byte	.LVL40
 4291 0277 20000000 		.4byte	.LFE39
 4292 027b 0400     		.2byte	0x4
 4293 027d F3       		.byte	0xf3
 4294 027e 01       		.uleb128 0x1
 4295 027f 52       		.byte	0x52
 4296 0280 9F       		.byte	0x9f
 4297 0281 00000000 		.4byte	0
 4298 0285 00000000 		.4byte	0
 4299              	.LLST8:
 4300 0289 00000000 		.4byte	.LVL37
 4301 028d 04000000 		.4byte	.LVL38
 4302 0291 0100     		.2byte	0x1
 4303 0293 53       		.byte	0x53
 4304 0294 04000000 		.4byte	.LVL38
 4305 0298 20000000 		.4byte	.LFE39
 4306 029c 0400     		.2byte	0x4
 4307 029e F3       		.byte	0xf3
 4308 029f 01       		.uleb128 0x1
 4309 02a0 53       		.byte	0x53
 4310 02a1 9F       		.byte	0x9f
 4311 02a2 00000000 		.4byte	0
 4312 02a6 00000000 		.4byte	0
 4313              	.LLST9:
 4314 02aa 00000000 		.4byte	.LVL41
 4315 02ae 04000000 		.4byte	.LVL42
 4316 02b2 0100     		.2byte	0x1
 4317 02b4 51       		.byte	0x51
 4318 02b5 04000000 		.4byte	.LVL42
 4319 02b9 0E000000 		.4byte	.LFE40
 4320 02bd 0400     		.2byte	0x4
 4321 02bf F3       		.byte	0xf3
 4322 02c0 01       		.uleb128 0x1
 4323 02c1 51       		.byte	0x51
 4324 02c2 9F       		.byte	0x9f
 4325 02c3 00000000 		.4byte	0
 4326 02c7 00000000 		.4byte	0
 4327              	.LLST10:
 4328 02cb 00000000 		.4byte	.LVL43
 4329 02cf 0A000000 		.4byte	.LVL45
 4330 02d3 0100     		.2byte	0x1
 4331 02d5 51       		.byte	0x51
 4332 02d6 0A000000 		.4byte	.LVL45
 4333 02da 16000000 		.4byte	.LFE41
 4334 02de 0400     		.2byte	0x4
 4335 02e0 F3       		.byte	0xf3
 4336 02e1 01       		.uleb128 0x1
 4337 02e2 51       		.byte	0x51
 4338 02e3 9F       		.byte	0x9f
 4339 02e4 00000000 		.4byte	0
 4340 02e8 00000000 		.4byte	0
 4341              	.LLST11:
ARM GAS  /tmp/ccOcrNIh.s 			page 78


 4342 02ec 00000000 		.4byte	.LVL43
 4343 02f0 04000000 		.4byte	.LVL44
 4344 02f4 0100     		.2byte	0x1
 4345 02f6 52       		.byte	0x52
 4346 02f7 04000000 		.4byte	.LVL44
 4347 02fb 16000000 		.4byte	.LFE41
 4348 02ff 0400     		.2byte	0x4
 4349 0301 F3       		.byte	0xf3
 4350 0302 01       		.uleb128 0x1
 4351 0303 52       		.byte	0x52
 4352 0304 9F       		.byte	0x9f
 4353 0305 00000000 		.4byte	0
 4354 0309 00000000 		.4byte	0
 4355              	.LLST12:
 4356 030d 00000000 		.4byte	.LVL46
 4357 0311 06000000 		.4byte	.LVL47
 4358 0315 0100     		.2byte	0x1
 4359 0317 51       		.byte	0x51
 4360 0318 06000000 		.4byte	.LVL47
 4361 031c 0A000000 		.4byte	.LFE42
 4362 0320 0400     		.2byte	0x4
 4363 0322 F3       		.byte	0xf3
 4364 0323 01       		.uleb128 0x1
 4365 0324 51       		.byte	0x51
 4366 0325 9F       		.byte	0x9f
 4367 0326 00000000 		.4byte	0
 4368 032a 00000000 		.4byte	0
 4369              	.LLST13:
 4370 032e 00000000 		.4byte	.LVL48
 4371 0332 14000000 		.4byte	.LVL52
 4372 0336 0100     		.2byte	0x1
 4373 0338 50       		.byte	0x50
 4374 0339 14000000 		.4byte	.LVL52
 4375 033d 7C000000 		.4byte	.LVL61
 4376 0341 0100     		.2byte	0x1
 4377 0343 55       		.byte	0x55
 4378 0344 7C000000 		.4byte	.LVL61
 4379 0348 80000000 		.4byte	.LVL62
 4380 034c 0400     		.2byte	0x4
 4381 034e F3       		.byte	0xf3
 4382 034f 01       		.uleb128 0x1
 4383 0350 50       		.byte	0x50
 4384 0351 9F       		.byte	0x9f
 4385 0352 80000000 		.4byte	.LVL62
 4386 0356 B6000000 		.4byte	.LVL67
 4387 035a 0100     		.2byte	0x1
 4388 035c 55       		.byte	0x55
 4389 035d B6000000 		.4byte	.LVL67
 4390 0361 C2000000 		.4byte	.LVL68
 4391 0365 0400     		.2byte	0x4
 4392 0367 F3       		.byte	0xf3
 4393 0368 01       		.uleb128 0x1
 4394 0369 50       		.byte	0x50
 4395 036a 9F       		.byte	0x9f
 4396 036b C2000000 		.4byte	.LVL68
 4397 036f 00010000 		.4byte	.LFE44
 4398 0373 0100     		.2byte	0x1
ARM GAS  /tmp/ccOcrNIh.s 			page 79


 4399 0375 55       		.byte	0x55
 4400 0376 00000000 		.4byte	0
 4401 037a 00000000 		.4byte	0
 4402              	.LLST14:
 4403 037e 00000000 		.4byte	.LVL48
 4404 0382 18000000 		.4byte	.LVL53
 4405 0386 0100     		.2byte	0x1
 4406 0388 51       		.byte	0x51
 4407 0389 18000000 		.4byte	.LVL53
 4408 038d 00010000 		.4byte	.LFE44
 4409 0391 0400     		.2byte	0x4
 4410 0393 F3       		.byte	0xf3
 4411 0394 01       		.uleb128 0x1
 4412 0395 51       		.byte	0x51
 4413 0396 9F       		.byte	0x9f
 4414 0397 00000000 		.4byte	0
 4415 039b 00000000 		.4byte	0
 4416              	.LLST15:
 4417 039f 12000000 		.4byte	.LVL51
 4418 03a3 38000000 		.4byte	.LVL56
 4419 03a7 0100     		.2byte	0x1
 4420 03a9 54       		.byte	0x54
 4421 03aa 4C000000 		.4byte	.LVL58
 4422 03ae 5E000000 		.4byte	.LVL59
 4423 03b2 0100     		.2byte	0x1
 4424 03b4 54       		.byte	0x54
 4425 03b5 80000000 		.4byte	.LVL62
 4426 03b9 AC000000 		.4byte	.LVL66
 4427 03bd 0100     		.2byte	0x1
 4428 03bf 54       		.byte	0x54
 4429 03c0 C2000000 		.4byte	.LVL68
 4430 03c4 00010000 		.4byte	.LFE44
 4431 03c8 0100     		.2byte	0x1
 4432 03ca 54       		.byte	0x54
 4433 03cb 00000000 		.4byte	0
 4434 03cf 00000000 		.4byte	0
 4435              	.LLST16:
 4436 03d3 04000000 		.4byte	.LVL49
 4437 03d7 0A000000 		.4byte	.LVL50
 4438 03db 0900     		.2byte	0x9
 4439 03dd 74       		.byte	0x74
 4440 03de 00       		.sleb128 0
 4441 03df 0A       		.byte	0xa
 4442 03e0 00FF     		.2byte	0xff00
 4443 03e2 1A       		.byte	0x1a
 4444 03e3 38       		.byte	0x38
 4445 03e4 25       		.byte	0x25
 4446 03e5 9F       		.byte	0x9f
 4447 03e6 00000000 		.4byte	0
 4448 03ea 00000000 		.4byte	0
 4449              	.LLST17:
 4450 03ee 2E000000 		.4byte	.LVL55
 4451 03f2 7C000000 		.4byte	.LVL61
 4452 03f6 0100     		.2byte	0x1
 4453 03f8 56       		.byte	0x56
 4454 03f9 8A000000 		.4byte	.LVL64
 4455 03fd B6000000 		.4byte	.LVL67
ARM GAS  /tmp/ccOcrNIh.s 			page 80


 4456 0401 0100     		.2byte	0x1
 4457 0403 56       		.byte	0x56
 4458 0404 CE000000 		.4byte	.LVL70
 4459 0408 00010000 		.4byte	.LFE44
 4460 040c 0100     		.2byte	0x1
 4461 040e 56       		.byte	0x56
 4462 040f 00000000 		.4byte	0
 4463 0413 00000000 		.4byte	0
 4464              	.LLST18:
 4465 0417 00000000 		.4byte	.LVL72
 4466 041b 0A000000 		.4byte	.LVL74
 4467 041f 0100     		.2byte	0x1
 4468 0421 50       		.byte	0x50
 4469 0422 0A000000 		.4byte	.LVL74
 4470 0426 0E000000 		.4byte	.LFE45
 4471 042a 0400     		.2byte	0x4
 4472 042c F3       		.byte	0xf3
 4473 042d 01       		.uleb128 0x1
 4474 042e 50       		.byte	0x50
 4475 042f 9F       		.byte	0x9f
 4476 0430 00000000 		.4byte	0
 4477 0434 00000000 		.4byte	0
 4478              	.LLST19:
 4479 0438 00000000 		.4byte	.LVL72
 4480 043c 06000000 		.4byte	.LVL73
 4481 0440 0100     		.2byte	0x1
 4482 0442 51       		.byte	0x51
 4483 0443 06000000 		.4byte	.LVL73
 4484 0447 0E000000 		.4byte	.LFE45
 4485 044b 0400     		.2byte	0x4
 4486 044d F3       		.byte	0xf3
 4487 044e 01       		.uleb128 0x1
 4488 044f 51       		.byte	0x51
 4489 0450 9F       		.byte	0x9f
 4490 0451 00000000 		.4byte	0
 4491 0455 00000000 		.4byte	0
 4492              	.LLST20:
 4493 0459 00000000 		.4byte	.LVL72
 4494 045d 0A000000 		.4byte	.LVL74
 4495 0461 0200     		.2byte	0x2
 4496 0463 30       		.byte	0x30
 4497 0464 9F       		.byte	0x9f
 4498 0465 0A000000 		.4byte	.LVL74
 4499 0469 0E000000 		.4byte	.LFE45
 4500 046d 0100     		.2byte	0x1
 4501 046f 50       		.byte	0x50
 4502 0470 00000000 		.4byte	0
 4503 0474 00000000 		.4byte	0
 4504              	.LLST21:
 4505 0478 00000000 		.4byte	.LVL76
 4506 047c 2C000000 		.4byte	.LVL79
 4507 0480 0100     		.2byte	0x1
 4508 0482 50       		.byte	0x50
 4509 0483 2C000000 		.4byte	.LVL79
 4510 0487 44000000 		.4byte	.LFE46
 4511 048b 0400     		.2byte	0x4
 4512 048d F3       		.byte	0xf3
ARM GAS  /tmp/ccOcrNIh.s 			page 81


 4513 048e 01       		.uleb128 0x1
 4514 048f 50       		.byte	0x50
 4515 0490 9F       		.byte	0x9f
 4516 0491 00000000 		.4byte	0
 4517 0495 00000000 		.4byte	0
 4518              	.LLST22:
 4519 0499 00000000 		.4byte	.LVL76
 4520 049d 26000000 		.4byte	.LVL77
 4521 04a1 0100     		.2byte	0x1
 4522 04a3 51       		.byte	0x51
 4523 04a4 26000000 		.4byte	.LVL77
 4524 04a8 2A000000 		.4byte	.LVL78
 4525 04ac 0400     		.2byte	0x4
 4526 04ae F3       		.byte	0xf3
 4527 04af 01       		.uleb128 0x1
 4528 04b0 51       		.byte	0x51
 4529 04b1 9F       		.byte	0x9f
 4530 04b2 2A000000 		.4byte	.LVL78
 4531 04b6 30000000 		.4byte	.LVL80
 4532 04ba 0100     		.2byte	0x1
 4533 04bc 51       		.byte	0x51
 4534 04bd 30000000 		.4byte	.LVL80
 4535 04c1 44000000 		.4byte	.LFE46
 4536 04c5 0400     		.2byte	0x4
 4537 04c7 F3       		.byte	0xf3
 4538 04c8 01       		.uleb128 0x1
 4539 04c9 51       		.byte	0x51
 4540 04ca 9F       		.byte	0x9f
 4541 04cb 00000000 		.4byte	0
 4542 04cf 00000000 		.4byte	0
 4543              	.LLST23:
 4544 04d3 00000000 		.4byte	.LVL82
 4545 04d7 06000000 		.4byte	.LVL83
 4546 04db 0100     		.2byte	0x1
 4547 04dd 51       		.byte	0x51
 4548 04de 06000000 		.4byte	.LVL83
 4549 04e2 14000000 		.4byte	.LFE47
 4550 04e6 0400     		.2byte	0x4
 4551 04e8 F3       		.byte	0xf3
 4552 04e9 01       		.uleb128 0x1
 4553 04ea 51       		.byte	0x51
 4554 04eb 9F       		.byte	0x9f
 4555 04ec 00000000 		.4byte	0
 4556 04f0 00000000 		.4byte	0
 4557              	.LLST24:
 4558 04f4 00000000 		.4byte	.LVL85
 4559 04f8 02000000 		.4byte	.LVL86
 4560 04fc 0100     		.2byte	0x1
 4561 04fe 50       		.byte	0x50
 4562 04ff 02000000 		.4byte	.LVL86
 4563 0503 06000000 		.4byte	.LFE49
 4564 0507 0400     		.2byte	0x4
 4565 0509 F3       		.byte	0xf3
 4566 050a 01       		.uleb128 0x1
 4567 050b 50       		.byte	0x50
 4568 050c 9F       		.byte	0x9f
 4569 050d 00000000 		.4byte	0
ARM GAS  /tmp/ccOcrNIh.s 			page 82


 4570 0511 00000000 		.4byte	0
 4571              	.LLST25:
 4572 0515 00000000 		.4byte	.LVL87
 4573 0519 02000000 		.4byte	.LVL88
 4574 051d 0100     		.2byte	0x1
 4575 051f 50       		.byte	0x50
 4576 0520 02000000 		.4byte	.LVL88
 4577 0524 06000000 		.4byte	.LFE50
 4578 0528 0400     		.2byte	0x4
 4579 052a F3       		.byte	0xf3
 4580 052b 01       		.uleb128 0x1
 4581 052c 50       		.byte	0x50
 4582 052d 9F       		.byte	0x9f
 4583 052e 00000000 		.4byte	0
 4584 0532 00000000 		.4byte	0
 4585              	.LLST26:
 4586 0536 00000000 		.4byte	.LVL89
 4587 053a 08000000 		.4byte	.LVL91
 4588 053e 0100     		.2byte	0x1
 4589 0540 50       		.byte	0x50
 4590 0541 08000000 		.4byte	.LVL91
 4591 0545 10000000 		.4byte	.LFE51
 4592 0549 0400     		.2byte	0x4
 4593 054b F3       		.byte	0xf3
 4594 054c 01       		.uleb128 0x1
 4595 054d 50       		.byte	0x50
 4596 054e 9F       		.byte	0x9f
 4597 054f 00000000 		.4byte	0
 4598 0553 00000000 		.4byte	0
 4599              	.LLST27:
 4600 0557 00000000 		.4byte	.LVL89
 4601 055b 06000000 		.4byte	.LVL90
 4602 055f 0100     		.2byte	0x1
 4603 0561 51       		.byte	0x51
 4604 0562 06000000 		.4byte	.LVL90
 4605 0566 10000000 		.4byte	.LFE51
 4606 056a 0400     		.2byte	0x4
 4607 056c F3       		.byte	0xf3
 4608 056d 01       		.uleb128 0x1
 4609 056e 51       		.byte	0x51
 4610 056f 9F       		.byte	0x9f
 4611 0570 00000000 		.4byte	0
 4612 0574 00000000 		.4byte	0
 4613              	.LLST28:
 4614 0578 06000000 		.4byte	.LVL90
 4615 057c 08000000 		.4byte	.LVL91
 4616 0580 0C00     		.2byte	0xc
 4617 0582 71       		.byte	0x71
 4618 0583 00       		.sleb128 0
 4619 0584 71       		.byte	0x71
 4620 0585 00       		.sleb128 0
 4621 0586 70       		.byte	0x70
 4622 0587 00       		.sleb128 0
 4623 0588 1A       		.byte	0x1a
 4624 0589 29       		.byte	0x29
 4625 058a 08       		.byte	0x8
 4626 058b FF       		.byte	0xff
ARM GAS  /tmp/ccOcrNIh.s 			page 83


 4627 058c 1A       		.byte	0x1a
 4628 058d 9F       		.byte	0x9f
 4629 058e 08000000 		.4byte	.LVL91
 4630 0592 10000000 		.4byte	.LFE51
 4631 0596 0D00     		.2byte	0xd
 4632 0598 71       		.byte	0x71
 4633 0599 00       		.sleb128 0
 4634 059a 71       		.byte	0x71
 4635 059b 00       		.sleb128 0
 4636 059c F3       		.byte	0xf3
 4637 059d 01       		.uleb128 0x1
 4638 059e 50       		.byte	0x50
 4639 059f 1A       		.byte	0x1a
 4640 05a0 29       		.byte	0x29
 4641 05a1 08       		.byte	0x8
 4642 05a2 FF       		.byte	0xff
 4643 05a3 1A       		.byte	0x1a
 4644 05a4 9F       		.byte	0x9f
 4645 05a5 00000000 		.4byte	0
 4646 05a9 00000000 		.4byte	0
 4647              	.LLST29:
 4648 05ad 00000000 		.4byte	.LVL92
 4649 05b1 06000000 		.4byte	.LVL93
 4650 05b5 0100     		.2byte	0x1
 4651 05b7 50       		.byte	0x50
 4652 05b8 06000000 		.4byte	.LVL93
 4653 05bc 44000000 		.4byte	.LFE52
 4654 05c0 0100     		.2byte	0x1
 4655 05c2 53       		.byte	0x53
 4656 05c3 00000000 		.4byte	0
 4657 05c7 00000000 		.4byte	0
 4658              		.section	.debug_aranges,"",%progbits
 4659 0000 9C000000 		.4byte	0x9c
 4660 0004 0200     		.2byte	0x2
 4661 0006 00000000 		.4byte	.Ldebug_info0
 4662 000a 04       		.byte	0x4
 4663 000b 00       		.byte	0
 4664 000c 0000     		.2byte	0
 4665 000e 0000     		.2byte	0
 4666 0010 00000000 		.4byte	.LFB43
 4667 0014 8C000000 		.4byte	.LFE43-.LFB43
 4668 0018 00000000 		.4byte	.LFB36
 4669 001c 30000000 		.4byte	.LFE36-.LFB36
 4670 0020 00000000 		.4byte	.LFB37
 4671 0024 0A000000 		.4byte	.LFE37-.LFB37
 4672 0028 00000000 		.4byte	.LFB38
 4673 002c 14000000 		.4byte	.LFE38-.LFB38
 4674 0030 00000000 		.4byte	.LFB39
 4675 0034 20000000 		.4byte	.LFE39-.LFB39
 4676 0038 00000000 		.4byte	.LFB40
 4677 003c 0E000000 		.4byte	.LFE40-.LFB40
 4678 0040 00000000 		.4byte	.LFB41
 4679 0044 16000000 		.4byte	.LFE41-.LFB41
 4680 0048 00000000 		.4byte	.LFB42
 4681 004c 0A000000 		.4byte	.LFE42-.LFB42
 4682 0050 00000000 		.4byte	.LFB44
 4683 0054 00010000 		.4byte	.LFE44-.LFB44
ARM GAS  /tmp/ccOcrNIh.s 			page 84


 4684 0058 00000000 		.4byte	.LFB45
 4685 005c 0E000000 		.4byte	.LFE45-.LFB45
 4686 0060 00000000 		.4byte	.LFB46
 4687 0064 44000000 		.4byte	.LFE46-.LFB46
 4688 0068 00000000 		.4byte	.LFB47
 4689 006c 14000000 		.4byte	.LFE47-.LFB47
 4690 0070 00000000 		.4byte	.LFB48
 4691 0074 04000000 		.4byte	.LFE48-.LFB48
 4692 0078 00000000 		.4byte	.LFB49
 4693 007c 06000000 		.4byte	.LFE49-.LFB49
 4694 0080 00000000 		.4byte	.LFB50
 4695 0084 06000000 		.4byte	.LFE50-.LFB50
 4696 0088 00000000 		.4byte	.LFB51
 4697 008c 10000000 		.4byte	.LFE51-.LFB51
 4698 0090 00000000 		.4byte	.LFB52
 4699 0094 44000000 		.4byte	.LFE52-.LFB52
 4700 0098 00000000 		.4byte	0
 4701 009c 00000000 		.4byte	0
 4702              		.section	.debug_ranges,"",%progbits
 4703              	.Ldebug_ranges0:
 4704 0000 36000000 		.4byte	.LBB4
 4705 0004 46000000 		.4byte	.LBE4
 4706 0008 86000000 		.4byte	.LBB7
 4707 000c 8C000000 		.4byte	.LBE7
 4708 0010 00000000 		.4byte	0
 4709 0014 00000000 		.4byte	0
 4710 0018 00000000 		.4byte	.LFB43
 4711 001c 8C000000 		.4byte	.LFE43
 4712 0020 00000000 		.4byte	.LFB36
 4713 0024 30000000 		.4byte	.LFE36
 4714 0028 00000000 		.4byte	.LFB37
 4715 002c 0A000000 		.4byte	.LFE37
 4716 0030 00000000 		.4byte	.LFB38
 4717 0034 14000000 		.4byte	.LFE38
 4718 0038 00000000 		.4byte	.LFB39
 4719 003c 20000000 		.4byte	.LFE39
 4720 0040 00000000 		.4byte	.LFB40
 4721 0044 0E000000 		.4byte	.LFE40
 4722 0048 00000000 		.4byte	.LFB41
 4723 004c 16000000 		.4byte	.LFE41
 4724 0050 00000000 		.4byte	.LFB42
 4725 0054 0A000000 		.4byte	.LFE42
 4726 0058 00000000 		.4byte	.LFB44
 4727 005c 00010000 		.4byte	.LFE44
 4728 0060 00000000 		.4byte	.LFB45
 4729 0064 0E000000 		.4byte	.LFE45
 4730 0068 00000000 		.4byte	.LFB46
 4731 006c 44000000 		.4byte	.LFE46
 4732 0070 00000000 		.4byte	.LFB47
 4733 0074 14000000 		.4byte	.LFE47
 4734 0078 00000000 		.4byte	.LFB48
 4735 007c 04000000 		.4byte	.LFE48
 4736 0080 00000000 		.4byte	.LFB49
 4737 0084 06000000 		.4byte	.LFE49
 4738 0088 00000000 		.4byte	.LFB50
 4739 008c 06000000 		.4byte	.LFE50
 4740 0090 00000000 		.4byte	.LFB51
ARM GAS  /tmp/ccOcrNIh.s 			page 85


 4741 0094 10000000 		.4byte	.LFE51
 4742 0098 00000000 		.4byte	.LFB52
 4743 009c 44000000 		.4byte	.LFE52
 4744 00a0 00000000 		.4byte	0
 4745 00a4 00000000 		.4byte	0
 4746              		.section	.debug_line,"",%progbits
 4747              	.Ldebug_line0:
 4748 0000 56040000 		.section	.debug_str,"MS",%progbits,1
 4748      02007B02 
 4748      00000201 
 4748      FB0E0D00 
 4748      01010101 
 4749              	.LASF204:
 4750 0000 4144435F 		.ascii	"ADC_CfgChannelMode\000"
 4750      43666743 
 4750      68616E6E 
 4750      656C4D6F 
 4750      646500
 4751              	.LASF144:
 4752 0013 504D435F 		.ascii	"PMC_FSPR\000"
 4752      46535052 
 4752      00
 4753              	.LASF2:
 4754 001c 73697A65 		.ascii	"size_t\000"
 4754      5F7400
 4755              	.LASF51:
 4756 0023 73697A65 		.ascii	"sizetype\000"
 4756      74797065 
 4756      00
 4757              	.LASF26:
 4758 002c 73797374 		.ascii	"systime_t\000"
 4758      696D655F 
 4758      7400
 4759              	.LASF31:
 4760 0036 705F6374 		.ascii	"p_ctx\000"
 4760      7800
 4761              	.LASF23:
 4762 003c 74707269 		.ascii	"tprio_t\000"
 4762      6F5F7400 
 4763              	.LASF135:
 4764 0044 434B4752 		.ascii	"CKGR_PLLBR\000"
 4764      5F504C4C 
 4764      425200
 4765              	.LASF205:
 4766 004f 75736571 		.ascii	"useq\000"
 4766      00
 4767              	.LASF40:
 4768 0054 705F6D73 		.ascii	"p_msgqueue\000"
 4768      67717565 
 4768      756500
 4769              	.LASF16:
 4770 005f 696E7433 		.ascii	"int32_t\000"
 4770      325F7400 
 4771              	.LASF83:
 4772 0067 77726974 		.ascii	"writet\000"
 4772      657400
 4773              	.LASF137:
ARM GAS  /tmp/ccOcrNIh.s 			page 86


 4774 006e 504D435F 		.ascii	"PMC_USB\000"
 4774      55534200 
 4775              	.LASF105:
 4776 0076 4144435F 		.ascii	"ADC_EMR\000"
 4776      454D5200 
 4777              	.LASF102:
 4778 007e 4144435F 		.ascii	"ADC_ISR\000"
 4778      49535200 
 4779              	.LASF88:
 4780 0086 576F5265 		.ascii	"WoReg\000"
 4780      6700
 4781              	.LASF213:
 4782 008c 5F5F6675 		.ascii	"__func__\000"
 4782      6E635F5F 
 4782      00
 4783              	.LASF79:
 4784 0095 77726974 		.ascii	"write\000"
 4784      6500
 4785              	.LASF212:
 4786 009b 73746172 		.ascii	"startup_value\000"
 4786      7475705F 
 4786      76616C75 
 4786      6500
 4787              	.LASF190:
 4788 00a9 70416463 		.ascii	"pAdc\000"
 4788      00
 4789              	.LASF160:
 4790 00ae 55415254 		.ascii	"UART_SR\000"
 4790      5F535200 
 4791              	.LASF214:
 4792 00b6 4144435F 		.ascii	"ADC_SetCompareMode\000"
 4792      53657443 
 4792      6F6D7061 
 4792      72654D6F 
 4792      646500
 4793              	.LASF157:
 4794 00c9 55415254 		.ascii	"UART_IER\000"
 4794      5F494552 
 4794      00
 4795              	.LASF227:
 4796 00d2 70774275 		.ascii	"pwBuffer\000"
 4796      66666572 
 4796      00
 4797              	.LASF163:
 4798 00db 55415254 		.ascii	"UART_BRGR\000"
 4798      5F425247 
 4798      5200
 4799              	.LASF194:
 4800 00e5 70726573 		.ascii	"prescal\000"
 4800      63616C00 
 4801              	.LASF153:
 4802 00ed 52657365 		.ascii	"Reserved8\000"
 4802      72766564 
 4802      3800
 4803              	.LASF148:
 4804 00f7 504D435F 		.ascii	"PMC_WPSR\000"
 4804      57505352 
ARM GAS  /tmp/ccOcrNIh.s 			page 87


 4804      00
 4805              	.LASF231:
 4806 0100 2E2E2F2E 		.ascii	"../../os/hal/platforms/AT91SAM3S/atmel_adc.c\000"
 4806      2E2F6F73 
 4806      2F68616C 
 4806      2F706C61 
 4806      74666F72 
 4807              	.LASF120:
 4808 012d 4144435F 		.ascii	"ADC_RNPR\000"
 4808      524E5052 
 4808      00
 4809              	.LASF172:
 4810 0136 55415254 		.ascii	"UART_PTCR\000"
 4810      5F505443 
 4810      5200
 4811              	.LASF122:
 4812 0140 4144435F 		.ascii	"ADC_TNPR\000"
 4812      544E5052 
 4812      00
 4813              	.LASF219:
 4814 0149 4144435F 		.ascii	"ADC_IsInterruptMasked\000"
 4814      4973496E 
 4814      74657272 
 4814      7570744D 
 4814      61736B65 
 4815              	.LASF54:
 4816 015f 6D5F6F77 		.ascii	"m_owner\000"
 4816      6E657200 
 4817              	.LASF63:
 4818 0167 65786974 		.ascii	"exitcode\000"
 4818      636F6465 
 4818      00
 4819              	.LASF3:
 4820 0170 5F5F7569 		.ascii	"__uint8_t\000"
 4820      6E74385F 
 4820      7400
 4821              	.LASF71:
 4822 017a 715F746F 		.ascii	"q_top\000"
 4822      7000
 4823              	.LASF114:
 4824 0180 4144435F 		.ascii	"ADC_WPSR\000"
 4824      57505352 
 4824      00
 4825              	.LASF84:
 4826 0189 72656164 		.ascii	"readt\000"
 4826      7400
 4827              	.LASF70:
 4828 018f 715F6275 		.ascii	"q_buffer\000"
 4828      66666572 
 4828      00
 4829              	.LASF140:
 4830 0198 504D435F 		.ascii	"PMC_IDR\000"
 4830      49445200 
 4831              	.LASF74:
 4832 01a0 715F6E6F 		.ascii	"q_notify\000"
 4832      74696679 
 4832      00
ARM GAS  /tmp/ccOcrNIh.s 			page 88


 4833              	.LASF32:
 4834 01a9 705F6E65 		.ascii	"p_newer\000"
 4834      77657200 
 4835              	.LASF9:
 4836 01b1 6C6F6E67 		.ascii	"long int\000"
 4836      20696E74 
 4836      00
 4837              	.LASF28:
 4838 01ba 705F6E65 		.ascii	"p_next\000"
 4838      787400
 4839              	.LASF73:
 4840 01c1 715F7264 		.ascii	"q_rdptr\000"
 4840      70747200 
 4841              	.LASF136:
 4842 01c9 504D435F 		.ascii	"PMC_MCKR\000"
 4842      4D434B52 
 4842      00
 4843              	.LASF29:
 4844 01d2 705F7072 		.ascii	"p_prev\000"
 4844      657600
 4845              	.LASF118:
 4846 01d9 4144435F 		.ascii	"ADC_TPR\000"
 4846      54505200 
 4847              	.LASF21:
 4848 01e1 74737461 		.ascii	"tstate_t\000"
 4848      74655F74 
 4848      00
 4849              	.LASF129:
 4850 01ea 504D435F 		.ascii	"PMC_PCER0\000"
 4850      50434552 
 4850      3000
 4851              	.LASF150:
 4852 01f4 504D435F 		.ascii	"PMC_PCER1\000"
 4852      50434552 
 4852      3100
 4853              	.LASF43:
 4854 01fe 705F6D74 		.ascii	"p_mtxlist\000"
 4854      786C6973 
 4854      7400
 4855              	.LASF184:
 4856 0208 6F717565 		.ascii	"oqueue\000"
 4856      756500
 4857              	.LASF48:
 4858 020f 72656761 		.ascii	"regarm_t\000"
 4858      726D5F74 
 4858      00
 4859              	.LASF132:
 4860 0218 434B4752 		.ascii	"CKGR_MOR\000"
 4860      5F4D4F52 
 4860      00
 4861              	.LASF91:
 4862 0221 4144435F 		.ascii	"ADC_MR\000"
 4862      4D5200
 4863              	.LASF225:
 4864 0228 4144435F 		.ascii	"ADC_ReadBuffer\000"
 4864      52656164 
 4864      42756666 
ARM GAS  /tmp/ccOcrNIh.s 			page 89


 4864      657200
 4865              	.LASF224:
 4866 0237 64775374 		.ascii	"dwStatus\000"
 4866      61747573 
 4866      00
 4867              	.LASF220:
 4868 0240 6477466C 		.ascii	"dwFlag\000"
 4868      616700
 4869              	.LASF197:
 4870 0247 74726753 		.ascii	"trgSel\000"
 4870      656C00
 4871              	.LASF1:
 4872 024e 7369676E 		.ascii	"signed char\000"
 4872      65642063 
 4872      68617200 
 4873              	.LASF65:
 4874 025a 65776D61 		.ascii	"ewmask\000"
 4874      736B00
 4875              	.LASF14:
 4876 0261 75696E74 		.ascii	"uint8_t\000"
 4876      385F7400 
 4877              	.LASF232:
 4878 0269 2F686F6D 		.ascii	"/home/alejandro/Desktop/ChibiOS/sam3s/blink\000"
 4878      652F616C 
 4878      656A616E 
 4878      64726F2F 
 4878      4465736B 
 4879              	.LASF25:
 4880 0295 6576656E 		.ascii	"eventmask_t\000"
 4880      746D6173 
 4880      6B5F7400 
 4881              	.LASF50:
 4882 02a1 636F6E74 		.ascii	"context\000"
 4882      65787400 
 4883              	.LASF4:
 4884 02a9 756E7369 		.ascii	"unsigned char\000"
 4884      676E6564 
 4884      20636861 
 4884      7200
 4885              	.LASF167:
 4886 02b7 55415254 		.ascii	"UART_TCR\000"
 4886      5F544352 
 4886      00
 4887              	.LASF221:
 4888 02c0 4144435F 		.ascii	"ADC_IsStatusSet\000"
 4888      49735374 
 4888      61747573 
 4888      53657400 
 4889              	.LASF175:
 4890 02d0 53445F55 		.ascii	"SD_UNINIT\000"
 4890      4E494E49 
 4890      5400
 4891              	.LASF164:
 4892 02da 55415254 		.ascii	"UART_RPR\000"
 4892      5F525052 
 4892      00
 4893              	.LASF218:
ARM GAS  /tmp/ccOcrNIh.s 			page 90


 4894 02e3 4144435F 		.ascii	"ADC_GetConvertedData\000"
 4894      47657443 
 4894      6F6E7665 
 4894      72746564 
 4894      44617461 
 4895              	.LASF155:
 4896 02f8 55415254 		.ascii	"UART_CR\000"
 4896      5F435200 
 4897              	.LASF66:
 4898 0300 63686172 		.ascii	"char\000"
 4898      00
 4899              	.LASF30:
 4900 0305 705F7072 		.ascii	"p_prio\000"
 4900      696F00
 4901              	.LASF67:
 4902 030c 47656E65 		.ascii	"GenericQueue\000"
 4902      72696351 
 4902      75657565 
 4902      00
 4903              	.LASF64:
 4904 0319 77746F62 		.ascii	"wtobjp\000"
 4904      6A7000
 4905              	.LASF189:
 4906 0320 4144435F 		.ascii	"ADC_CfgTiming\000"
 4906      43666754 
 4906      696D696E 
 4906      6700
 4907              	.LASF181:
 4908 032e 666C6167 		.ascii	"flags\000"
 4908      7300
 4909              	.LASF77:
 4910 0334 4F757470 		.ascii	"OutputQueue\000"
 4910      75745175 
 4910      65756500 
 4911              	.LASF154:
 4912 0340 504D435F 		.ascii	"PMC_OCR\000"
 4912      4F435200 
 4913              	.LASF81:
 4914 0348 70757477 		.ascii	"putwouldblock\000"
 4914      6F756C64 
 4914      626C6F63 
 4914      6B00
 4915              	.LASF133:
 4916 0356 434B4752 		.ascii	"CKGR_MCFR\000"
 4916      5F4D4346 
 4916      5200
 4917              	.LASF117:
 4918 0360 4144435F 		.ascii	"ADC_RCR\000"
 4918      52435200 
 4919              	.LASF168:
 4920 0368 55415254 		.ascii	"UART_RNPR\000"
 4920      5F524E50 
 4920      5200
 4921              	.LASF159:
 4922 0372 55415254 		.ascii	"UART_IMR\000"
 4922      5F494D52 
 4922      00
ARM GAS  /tmp/ccOcrNIh.s 			page 91


 4923              	.LASF174:
 4924 037b 55617274 		.ascii	"Uart\000"
 4924      00
 4925              	.LASF109:
 4926 0380 4144435F 		.ascii	"ADC_CDR\000"
 4926      43445200 
 4927              	.LASF170:
 4928 0388 55415254 		.ascii	"UART_TNPR\000"
 4928      5F544E50 
 4928      5200
 4929              	.LASF195:
 4930 0392 4144435F 		.ascii	"ADC_CfgTrigering\000"
 4930      43666754 
 4930      72696765 
 4930      72696E67 
 4930      00
 4931              	.LASF234:
 4932 03a3 63687072 		.ascii	"chprintf\000"
 4932      696E7466 
 4932      00
 4933              	.LASF202:
 4934 03ac 736C6565 		.ascii	"sleep\000"
 4934      7000
 4935              	.LASF223:
 4936 03b2 64774164 		.ascii	"dwAdc_sr\000"
 4936      635F7372 
 4936      00
 4937              	.LASF49:
 4938 03bb 696E7463 		.ascii	"intctx\000"
 4938      747800
 4939              	.LASF42:
 4940 03c2 705F6570 		.ascii	"p_epending\000"
 4940      656E6469 
 4940      6E6700
 4941              	.LASF235:
 4942 03cd 5F5F6173 		.ascii	"__assert_func\000"
 4942      73657274 
 4942      5F66756E 
 4942      6300
 4943              	.LASF162:
 4944 03db 55415254 		.ascii	"UART_THR\000"
 4944      5F544852 
 4944      00
 4945              	.LASF61:
 4946 03e4 65735F6E 		.ascii	"es_next\000"
 4946      65787400 
 4947              	.LASF69:
 4948 03ec 715F636F 		.ascii	"q_counter\000"
 4948      756E7465 
 4948      7200
 4949              	.LASF60:
 4950 03f6 4576656E 		.ascii	"EventSource\000"
 4950      74536F75 
 4950      72636500 
 4951              	.LASF96:
 4952 0402 4144435F 		.ascii	"ADC_CHSR\000"
 4952      43485352 
ARM GAS  /tmp/ccOcrNIh.s 			page 92


 4952      00
 4953              	.LASF11:
 4954 040b 6C6F6E67 		.ascii	"long unsigned int\000"
 4954      20756E73 
 4954      69676E65 
 4954      6420696E 
 4954      7400
 4955              	.LASF198:
 4956 041d 66726565 		.ascii	"freeRun\000"
 4956      52756E00 
 4957              	.LASF215:
 4958 0425 64774D6F 		.ascii	"dwMode\000"
 4958      646500
 4959              	.LASF233:
 4960 042c 63616C63 		.ascii	"calcul_startup\000"
 4960      756C5F73 
 4960      74617274 
 4960      757000
 4961              	.LASF142:
 4962 043b 504D435F 		.ascii	"PMC_IMR\000"
 4962      494D5200 
 4963              	.LASF57:
 4964 0443 656C5F6E 		.ascii	"el_next\000"
 4964      65787400 
 4965              	.LASF107:
 4966 044b 4144435F 		.ascii	"ADC_CGR\000"
 4966      43475200 
 4967              	.LASF72:
 4968 0453 715F7772 		.ascii	"q_wrptr\000"
 4968      70747200 
 4969              	.LASF128:
 4970 045b 504D435F 		.ascii	"PMC_SCSR\000"
 4970      53435352 
 4970      00
 4971              	.LASF209:
 4972 0464 64774368 		.ascii	"dwChannel\000"
 4972      616E6E65 
 4972      6C00
 4973              	.LASF186:
 4974 046e 53657269 		.ascii	"SerialDriverVMT\000"
 4974      616C4472 
 4974      69766572 
 4974      564D5400 
 4975              	.LASF98:
 4976 047e 4144435F 		.ascii	"ADC_LCDR\000"
 4976      4C434452 
 4976      00
 4977              	.LASF203:
 4978 0487 66777570 		.ascii	"fwup\000"
 4978      00
 4979              	.LASF10:
 4980 048c 5F5F7569 		.ascii	"__uint32_t\000"
 4980      6E743332 
 4980      5F7400
 4981              	.LASF52:
 4982 0497 4D757465 		.ascii	"Mutex\000"
 4982      7800
ARM GAS  /tmp/ccOcrNIh.s 			page 93


 4983              	.LASF12:
 4984 049d 6C6F6E67 		.ascii	"long long int\000"
 4984      206C6F6E 
 4984      6720696E 
 4984      7400
 4985              	.LASF222:
 4986 04ab 4144435F 		.ascii	"ADC_IsChannelInterruptStatusSet\000"
 4986      49734368 
 4986      616E6E65 
 4986      6C496E74 
 4986      65727275 
 4987              	.LASF131:
 4988 04cb 504D435F 		.ascii	"PMC_PCSR0\000"
 4988      50435352 
 4988      3000
 4989              	.LASF53:
 4990 04d5 6D5F7175 		.ascii	"m_queue\000"
 4990      65756500 
 4991              	.LASF138:
 4992 04dd 504D435F 		.ascii	"PMC_PCK\000"
 4992      50434B00 
 4993              	.LASF217:
 4994 04e5 64774869 		.ascii	"dwHi_Lo\000"
 4994      5F4C6F00 
 4995              	.LASF229:
 4996 04ed 49544D5F 		.ascii	"ITM_RxBuffer\000"
 4996      52784275 
 4996      66666572 
 4996      00
 4997              	.LASF75:
 4998 04fa 716E6F74 		.ascii	"qnotify_t\000"
 4998      6966795F 
 4998      7400
 4999              	.LASF39:
 5000 0504 705F7761 		.ascii	"p_waiting\000"
 5000      6974696E 
 5000      6700
 5001              	.LASF180:
 5002 050e 6576656E 		.ascii	"event\000"
 5002      7400
 5003              	.LASF36:
 5004 0514 705F666C 		.ascii	"p_flags\000"
 5004      61677300 
 5005              	.LASF145:
 5006 051c 504D435F 		.ascii	"PMC_FOCR\000"
 5006      464F4352 
 5006      00
 5007              	.LASF80:
 5008 0525 72656164 		.ascii	"read\000"
 5008      00
 5009              	.LASF100:
 5010 052a 4144435F 		.ascii	"ADC_IDR\000"
 5010      49445200 
 5011              	.LASF0:
 5012 0532 756E7369 		.ascii	"unsigned int\000"
 5012      676E6564 
 5012      20696E74 
ARM GAS  /tmp/ccOcrNIh.s 			page 94


 5012      00
 5013              	.LASF45:
 5014 053f 705F6D70 		.ascii	"p_mpool\000"
 5014      6F6F6C00 
 5015              	.LASF216:
 5016 0547 4144435F 		.ascii	"ADC_SetComparisonWindow\000"
 5016      53657443 
 5016      6F6D7061 
 5016      7269736F 
 5016      6E57696E 
 5017              	.LASF196:
 5018 055f 74726745 		.ascii	"trgEn\000"
 5018      6E00
 5019              	.LASF37:
 5020 0565 705F7265 		.ascii	"p_refs\000"
 5020      667300
 5021              	.LASF206:
 5022 056c 4144435F 		.ascii	"ADC_check\000"
 5022      63686563 
 5022      6B00
 5023              	.LASF210:
 5024 0576 64774461 		.ascii	"dwData\000"
 5024      746100
 5025              	.LASF99:
 5026 057d 4144435F 		.ascii	"ADC_IER\000"
 5026      49455200 
 5027              	.LASF199:
 5028 0585 4144435F 		.ascii	"ADC_CfgLowRes\000"
 5028      4366674C 
 5028      6F775265 
 5028      7300
 5029              	.LASF47:
 5030 0593 54687265 		.ascii	"ThreadsList\000"
 5030      6164734C 
 5030      69737400 
 5031              	.LASF86:
 5032 059f 696F666C 		.ascii	"ioflags_t\000"
 5032      6167735F 
 5032      7400
 5033              	.LASF38:
 5034 05a9 705F7469 		.ascii	"p_time\000"
 5034      6D6500
 5035              	.LASF173:
 5036 05b0 55415254 		.ascii	"UART_PTSR\000"
 5036      5F505453 
 5036      5200
 5037              	.LASF44:
 5038 05ba 705F7265 		.ascii	"p_realprio\000"
 5038      616C7072 
 5038      696F00
 5039              	.LASF82:
 5040 05c5 67657477 		.ascii	"getwouldblock\000"
 5040      6F756C64 
 5040      626C6F63 
 5040      6B00
 5041              	.LASF166:
 5042 05d3 55415254 		.ascii	"UART_TPR\000"
ARM GAS  /tmp/ccOcrNIh.s 			page 95


 5042      5F545052 
 5042      00
 5043              	.LASF193:
 5044 05dc 73746172 		.ascii	"startup\000"
 5044      74757000 
 5045              	.LASF192:
 5046 05e4 4144435F 		.ascii	"ADC_cfgFrequency\000"
 5046      63666746 
 5046      72657175 
 5046      656E6379 
 5046      00
 5047              	.LASF121:
 5048 05f5 4144435F 		.ascii	"ADC_RNCR\000"
 5048      524E4352 
 5048      00
 5049              	.LASF183:
 5050 05fe 69717565 		.ascii	"iqueue\000"
 5050      756500
 5051              	.LASF169:
 5052 0605 55415254 		.ascii	"UART_RNCR\000"
 5052      5F524E43 
 5052      5200
 5053              	.LASF123:
 5054 060f 4144435F 		.ascii	"ADC_TNCR\000"
 5054      544E4352 
 5054      00
 5055              	.LASF158:
 5056 0618 55415254 		.ascii	"UART_IDR\000"
 5056      5F494452 
 5056      00
 5057              	.LASF13:
 5058 0621 6C6F6E67 		.ascii	"long long unsigned int\000"
 5058      206C6F6E 
 5058      6720756E 
 5058      7369676E 
 5058      65642069 
 5059              	.LASF33:
 5060 0638 705F6F6C 		.ascii	"p_older\000"
 5060      64657200 
 5061              	.LASF24:
 5062 0640 6D73675F 		.ascii	"msg_t\000"
 5062      7400
 5063              	.LASF108:
 5064 0646 4144435F 		.ascii	"ADC_COR\000"
 5064      434F5200 
 5065              	.LASF208:
 5066 064e 6164635F 		.ascii	"adc_freq\000"
 5066      66726571 
 5066      00
 5067              	.LASF125:
 5068 0657 4144435F 		.ascii	"ADC_PTSR\000"
 5068      50545352 
 5068      00
 5069              	.LASF119:
 5070 0660 4144435F 		.ascii	"ADC_TCR\000"
 5070      54435200 
 5071              	.LASF5:
ARM GAS  /tmp/ccOcrNIh.s 			page 96


 5072 0668 5F5F696E 		.ascii	"__int16_t\000"
 5072      7431365F 
 5072      7400
 5073              	.LASF139:
 5074 0672 504D435F 		.ascii	"PMC_IER\000"
 5074      49455200 
 5075              	.LASF179:
 5076 067a 53657269 		.ascii	"SerialDriver\000"
 5076      616C4472 
 5076      69766572 
 5076      00
 5077              	.LASF116:
 5078 0687 4144435F 		.ascii	"ADC_RPR\000"
 5078      52505200 
 5079              	.LASF92:
 5080 068f 4144435F 		.ascii	"ADC_SEQR1\000"
 5080      53455152 
 5080      3100
 5081              	.LASF93:
 5082 0699 4144435F 		.ascii	"ADC_SEQR2\000"
 5082      53455152 
 5082      3200
 5083              	.LASF68:
 5084 06a3 715F7761 		.ascii	"q_waiting\000"
 5084      6974696E 
 5084      6700
 5085              	.LASF97:
 5086 06ad 52657365 		.ascii	"Reserved1\000"
 5086      72766564 
 5086      3100
 5087              	.LASF103:
 5088 06b7 52657365 		.ascii	"Reserved2\000"
 5088      72766564 
 5088      3200
 5089              	.LASF110:
 5090 06c1 52657365 		.ascii	"Reserved3\000"
 5090      72766564 
 5090      3300
 5091              	.LASF112:
 5092 06cb 52657365 		.ascii	"Reserved4\000"
 5092      72766564 
 5092      3400
 5093              	.LASF115:
 5094 06d5 52657365 		.ascii	"Reserved5\000"
 5094      72766564 
 5094      3500
 5095              	.LASF146:
 5096 06df 52657365 		.ascii	"Reserved6\000"
 5096      72766564 
 5096      3600
 5097              	.LASF149:
 5098 06e9 52657365 		.ascii	"Reserved7\000"
 5098      72766564 
 5098      3700
 5099              	.LASF20:
 5100 06f3 746D6F64 		.ascii	"tmode_t\000"
 5100      655F7400 
ARM GAS  /tmp/ccOcrNIh.s 			page 97


 5101              	.LASF178:
 5102 06fb 73647374 		.ascii	"sdstate_t\000"
 5102      6174655F 
 5102      7400
 5103              	.LASF177:
 5104 0705 53445F52 		.ascii	"SD_READY\000"
 5104      45414459 
 5104      00
 5105              	.LASF207:
 5106 070e 6D636B5F 		.ascii	"mck_freq\000"
 5106      66726571 
 5106      00
 5107              	.LASF6:
 5108 0717 73686F72 		.ascii	"short int\000"
 5108      7420696E 
 5108      7400
 5109              	.LASF87:
 5110 0721 526F5265 		.ascii	"RoReg\000"
 5110      6700
 5111              	.LASF165:
 5112 0727 55415254 		.ascii	"UART_RCR\000"
 5112      5F524352 
 5112      00
 5113              	.LASF200:
 5114 0730 7265736F 		.ascii	"resolution\000"
 5114      6C757469 
 5114      6F6E00
 5115              	.LASF185:
 5116 073b 75617274 		.ascii	"uart\000"
 5116      00
 5117              	.LASF15:
 5118 0740 696E7431 		.ascii	"int16_t\000"
 5118      365F7400 
 5119              	.LASF182:
 5120 0748 73746174 		.ascii	"state\000"
 5120      6500
 5121              	.LASF141:
 5122 074e 504D435F 		.ascii	"PMC_SR\000"
 5122      535200
 5123              	.LASF104:
 5124 0755 4144435F 		.ascii	"ADC_OVER\000"
 5124      4F564552 
 5124      00
 5125              	.LASF19:
 5126 075e 626F6F6C 		.ascii	"bool_t\000"
 5126      5F7400
 5127              	.LASF101:
 5128 0765 4144435F 		.ascii	"ADC_IMR\000"
 5128      494D5200 
 5129              	.LASF90:
 5130 076d 4144435F 		.ascii	"ADC_CR\000"
 5130      435200
 5131              	.LASF27:
 5132 0774 54687265 		.ascii	"Thread\000"
 5132      616400
 5133              	.LASF89:
 5134 077b 52775265 		.ascii	"RwReg\000"
ARM GAS  /tmp/ccOcrNIh.s 			page 98


 5134      6700
 5135              	.LASF187:
 5136 0781 67657466 		.ascii	"getflags\000"
 5136      6C616773 
 5136      00
 5137              	.LASF124:
 5138 078a 4144435F 		.ascii	"ADC_PTCR\000"
 5138      50544352 
 5138      00
 5139              	.LASF156:
 5140 0793 55415254 		.ascii	"UART_MR\000"
 5140      5F4D5200 
 5141              	.LASF22:
 5142 079b 74726566 		.ascii	"trefs_t\000"
 5142      735F7400 
 5143              	.LASF226:
 5144 07a3 70414443 		.ascii	"pADC\000"
 5144      00
 5145              	.LASF56:
 5146 07a8 4576656E 		.ascii	"EventListener\000"
 5146      744C6973 
 5146      74656E65 
 5146      7200
 5147              	.LASF147:
 5148 07b6 504D435F 		.ascii	"PMC_WPMR\000"
 5148      57504D52 
 5148      00
 5149              	.LASF211:
 5150 07bf 4144435F 		.ascii	"ADC_SetCompareChannel\000"
 5150      53657443 
 5150      6F6D7061 
 5150      72654368 
 5150      616E6E65 
 5151              	.LASF17:
 5152 07d5 75696E74 		.ascii	"uint32_t\000"
 5152      33325F74 
 5152      00
 5153              	.LASF111:
 5154 07de 4144435F 		.ascii	"ADC_ACR\000"
 5154      41435200 
 5155              	.LASF46:
 5156 07e6 54687265 		.ascii	"ThreadsQueue\000"
 5156      61647351 
 5156      75657565 
 5156      00
 5157              	.LASF143:
 5158 07f3 504D435F 		.ascii	"PMC_FSMR\000"
 5158      46534D52 
 5158      00
 5159              	.LASF18:
 5160 07fc 75696E74 		.ascii	"uint_fast16_t\000"
 5160      5F666173 
 5160      7431365F 
 5160      7400
 5161              	.LASF191:
 5162 080a 74726163 		.ascii	"tracking\000"
 5162      6B696E67 
ARM GAS  /tmp/ccOcrNIh.s 			page 99


 5162      00
 5163              	.LASF95:
 5164 0813 4144435F 		.ascii	"ADC_CHDR\000"
 5164      43484452 
 5164      00
 5165              	.LASF62:
 5166 081c 7264796D 		.ascii	"rdymsg\000"
 5166      736700
 5167              	.LASF230:
 5168 0823 474E5520 		.ascii	"GNU C 4.8.4 20140526 (release) [ARM/embedded-4_8-br"
 5168      4320342E 
 5168      382E3420 
 5168      32303134 
 5168      30353236 
 5169 0856 616E6368 		.ascii	"anch revision 211358] -mcpu=cortex-m3 -mno-thumb-in"
 5169      20726576 
 5169      6973696F 
 5169      6E203231 
 5169      31333538 
 5170 0889 74657277 		.ascii	"terwork -mthumb -ggdb -O2 -std=gnu99 -fomit-frame-p"
 5170      6F726B20 
 5170      2D6D7468 
 5170      756D6220 
 5170      2D676764 
 5171 08bc 6F696E74 		.ascii	"ointer -falign-functions=16 -ffunction-sections -fd"
 5171      6572202D 
 5171      66616C69 
 5171      676E2D66 
 5171      756E6374 
 5172 08ef 6174612D 		.ascii	"ata-sections -fno-common\000"
 5172      73656374 
 5172      696F6E73 
 5172      202D666E 
 5172      6F2D636F 
 5173              	.LASF7:
 5174 0908 73686F72 		.ascii	"short unsigned int\000"
 5174      7420756E 
 5174      7369676E 
 5174      65642069 
 5174      6E7400
 5175              	.LASF113:
 5176 091b 4144435F 		.ascii	"ADC_WPMR\000"
 5176      57504D52 
 5176      00
 5177              	.LASF94:
 5178 0924 4144435F 		.ascii	"ADC_CHER\000"
 5178      43484552 
 5178      00
 5179              	.LASF76:
 5180 092d 496E7075 		.ascii	"InputQueue\000"
 5180      74517565 
 5180      756500
 5181              	.LASF8:
 5182 0938 5F5F696E 		.ascii	"__int32_t\000"
 5182      7433325F 
 5182      7400
 5183              	.LASF176:
ARM GAS  /tmp/ccOcrNIh.s 			page 100


 5184 0942 53445F53 		.ascii	"SD_STOP\000"
 5184      544F5000 
 5185              	.LASF127:
 5186 094a 504D435F 		.ascii	"PMC_SCDR\000"
 5186      53434452 
 5186      00
 5187              	.LASF78:
 5188 0953 42617365 		.ascii	"BaseChannelVMT\000"
 5188      4368616E 
 5188      6E656C56 
 5188      4D5400
 5189              	.LASF59:
 5190 0962 656C5F6D 		.ascii	"el_mask\000"
 5190      61736B00 
 5191              	.LASF130:
 5192 096a 504D435F 		.ascii	"PMC_PCDR0\000"
 5192      50434452 
 5192      3000
 5193              	.LASF151:
 5194 0974 504D435F 		.ascii	"PMC_PCDR1\000"
 5194      50434452 
 5194      3100
 5195              	.LASF106:
 5196 097e 4144435F 		.ascii	"ADC_CWR\000"
 5196      43575200 
 5197              	.LASF188:
 5198 0986 4144435F 		.ascii	"ADC_Initialize\000"
 5198      496E6974 
 5198      69616C69 
 5198      7A6500
 5199              	.LASF228:
 5200 0995 64775369 		.ascii	"dwSize\000"
 5200      7A6500
 5201              	.LASF34:
 5202 099c 705F6E61 		.ascii	"p_name\000"
 5202      6D6500
 5203              	.LASF55:
 5204 09a3 6D5F6E65 		.ascii	"m_next\000"
 5204      787400
 5205              	.LASF85:
 5206 09aa 42617365 		.ascii	"BaseChannel\000"
 5206      4368616E 
 5206      6E656C00 
 5207              	.LASF126:
 5208 09b6 504D435F 		.ascii	"PMC_SCER\000"
 5208      53434552 
 5208      00
 5209              	.LASF152:
 5210 09bf 504D435F 		.ascii	"PMC_PCSR1\000"
 5210      50435352 
 5210      3100
 5211              	.LASF171:
 5212 09c9 55415254 		.ascii	"UART_TNCR\000"
 5212      5F544E43 
 5212      5200
 5213              	.LASF161:
 5214 09d3 55415254 		.ascii	"UART_RHR\000"
ARM GAS  /tmp/ccOcrNIh.s 			page 101


 5214      5F524852 
 5214      00
 5215              	.LASF134:
 5216 09dc 434B4752 		.ascii	"CKGR_PLLAR\000"
 5216      5F504C4C 
 5216      415200
 5217              	.LASF41:
 5218 09e7 705F6D73 		.ascii	"p_msg\000"
 5218      6700
 5219              	.LASF58:
 5220 09ed 656C5F6C 		.ascii	"el_listener\000"
 5220      69737465 
 5220      6E657200 
 5221              	.LASF201:
 5222 09f9 4144435F 		.ascii	"ADC_CfgPowerSave\000"
 5222      43666750 
 5222      6F776572 
 5222      53617665 
 5222      00
 5223              	.LASF35:
 5224 0a0a 705F7374 		.ascii	"p_state\000"
 5224      61746500 
 5225              		.ident	"GCC: (GNU Tools for ARM Embedded Processors) 4.8.4 20140526 (release) [ARM/embedded-4_8-br
ARM GAS  /tmp/ccOcrNIh.s 			page 102


DEFINED SYMBOLS
                            *ABS*:00000000 atmel_adc.c
     /tmp/ccOcrNIh.s:19     .text.calcul_startup:00000000 $t
     /tmp/ccOcrNIh.s:24     .text.calcul_startup:00000000 calcul_startup
     /tmp/ccOcrNIh.s:184    .text.ADC_Initialize:00000000 $t
     /tmp/ccOcrNIh.s:190    .text.ADC_Initialize:00000000 ADC_Initialize
     /tmp/ccOcrNIh.s:230    .text.ADC_Initialize:00000024 $d
     /tmp/ccOcrNIh.s:237    .text.ADC_CfgTiming:00000000 $t
     /tmp/ccOcrNIh.s:243    .text.ADC_CfgTiming:00000000 ADC_CfgTiming
     /tmp/ccOcrNIh.s:261    .text.ADC_cfgFrequency:00000000 $t
     /tmp/ccOcrNIh.s:267    .text.ADC_cfgFrequency:00000000 ADC_cfgFrequency
     /tmp/ccOcrNIh.s:295    .text.ADC_CfgTrigering:00000000 $t
     /tmp/ccOcrNIh.s:301    .text.ADC_CfgTrigering:00000000 ADC_CfgTrigering
     /tmp/ccOcrNIh.s:341    .text.ADC_CfgLowRes:00000000 $t
     /tmp/ccOcrNIh.s:347    .text.ADC_CfgLowRes:00000000 ADC_CfgLowRes
     /tmp/ccOcrNIh.s:367    .text.ADC_CfgPowerSave:00000000 $t
     /tmp/ccOcrNIh.s:373    .text.ADC_CfgPowerSave:00000000 ADC_CfgPowerSave
     /tmp/ccOcrNIh.s:401    .text.ADC_CfgChannelMode:00000000 $t
     /tmp/ccOcrNIh.s:407    .text.ADC_CfgChannelMode:00000000 ADC_CfgChannelMode
     /tmp/ccOcrNIh.s:425    .text.ADC_check:00000000 $t
     /tmp/ccOcrNIh.s:431    .text.ADC_check:00000000 ADC_check
     /tmp/ccOcrNIh.s:596    .text.ADC_check:000000e0 $d
     /tmp/ccOcrNIh.s:608    .text.ADC_GetConvertedData:00000000 $t
     /tmp/ccOcrNIh.s:614    .text.ADC_GetConvertedData:00000000 ADC_GetConvertedData
     /tmp/ccOcrNIh.s:639    .text.ADC_SetCompareChannel:00000000 $t
     /tmp/ccOcrNIh.s:645    .text.ADC_SetCompareChannel:00000000 ADC_SetCompareChannel
     /tmp/ccOcrNIh.s:697    .text.ADC_SetCompareChannel:00000038 $d
     /tmp/ccOcrNIh.s:704    .text.ADC_SetCompareMode:00000000 $t
     /tmp/ccOcrNIh.s:710    .text.ADC_SetCompareMode:00000000 ADC_SetCompareMode
     /tmp/ccOcrNIh.s:735    .text.ADC_SetComparisonWindow:00000000 $t
     /tmp/ccOcrNIh.s:741    .text.ADC_SetComparisonWindow:00000000 ADC_SetComparisonWindow
     /tmp/ccOcrNIh.s:756    .text.ADC_IsInterruptMasked:00000000 $t
     /tmp/ccOcrNIh.s:762    .text.ADC_IsInterruptMasked:00000000 ADC_IsInterruptMasked
     /tmp/ccOcrNIh.s:780    .text.ADC_IsStatusSet:00000000 $t
     /tmp/ccOcrNIh.s:786    .text.ADC_IsStatusSet:00000000 ADC_IsStatusSet
     /tmp/ccOcrNIh.s:804    .text.ADC_IsChannelInterruptStatusSet:00000000 $t
     /tmp/ccOcrNIh.s:810    .text.ADC_IsChannelInterruptStatusSet:00000000 ADC_IsChannelInterruptStatusSet
     /tmp/ccOcrNIh.s:833    .text.ADC_ReadBuffer:00000000 $t
     /tmp/ccOcrNIh.s:839    .text.ADC_ReadBuffer:00000000 ADC_ReadBuffer
     /tmp/ccOcrNIh.s:897    .rodata.str1.4:00000000 $d
     /tmp/ccOcrNIh.s:921    .rodata.__func__.6017:00000000 $d
     /tmp/ccOcrNIh.s:925    .rodata.__func__.6017:00000000 __func__.6017
                     .debug_frame:00000010 $d
     /tmp/ccOcrNIh.s:703    .text.ADC_SetCompareChannel:00000044 $t

UNDEFINED SYMBOLS
chprintf
SD2
__assert_func
