ARM GAS  /tmp/cc7cohkt.s 			page 1


   1              		.syntax unified
   2              		.cpu cortex-m3
   3              		.fpu softvfp
   4              		.eabi_attribute 20, 1
   5              		.eabi_attribute 21, 1
   6              		.eabi_attribute 23, 3
   7              		.eabi_attribute 24, 1
   8              		.eabi_attribute 25, 1
   9              		.eabi_attribute 26, 1
  10              		.eabi_attribute 30, 2
  11              		.eabi_attribute 34, 1
  12              		.eabi_attribute 18, 4
  13              		.thumb
  14              		.file	"atmel_twi.c"
  15              		.text
  16              	.Ltext0:
  17              		.cfi_sections	.debug_frame
  18              		.section	.text.unlikely.TWI_WriteByte.part.0,"ax",%progbits
  19              		.align	2
  20              		.thumb
  21              		.thumb_func
  22              		.type	TWI_WriteByte.part.0, %function
  23              	TWI_WriteByte.part.0:
  24              	.LFB15:
  25              		.file 1 "ChibiOS//os/hal/platforms/AT91SAM3S/atmel_twi.c"
  26              		.loc 1 235 0
  27              		.cfi_startproc
  28              		@ Volatile: function does not return.
  29              		@ args = 0, pretend = 0, frame = 0
  30              		@ frame_needed = 0, uses_anonymous_args = 0
  31              	.LVL0:
  32 0000 08B5     		push	{r3, lr}
  33              		.cfi_def_cfa_offset 8
  34              		.cfi_offset 3, -8
  35              		.cfi_offset 14, -4
  36              		.loc 1 237 0
  37 0002 0348     		ldr	r0, .L3
  38 0004 ED21     		movs	r1, #237
  39 0006 034A     		ldr	r2, .L3+4
  40 0008 034B     		ldr	r3, .L3+8
  41 000a FFF7FEFF 		bl	__assert_func
  42              	.LVL1:
  43              	.L4:
  44 000e 00BF     		.align	2
  45              	.L3:
  46 0010 00000000 		.word	.LC0
  47 0014 00000000 		.word	.LANCHOR0
  48 0018 30000000 		.word	.LC1
  49              		.cfi_endproc
  50              	.LFE15:
  51              		.size	TWI_WriteByte.part.0, .-TWI_WriteByte.part.0
  52              		.section	.text.TWI_ConfigureMaster,"ax",%progbits
  53              		.align	2
  54              		.p2align 4,,15
  55              		.global	TWI_ConfigureMaster
  56              		.thumb
  57              		.thumb_func
ARM GAS  /tmp/cc7cohkt.s 			page 2


  58              		.type	TWI_ConfigureMaster, %function
  59              	TWI_ConfigureMaster:
  60              	.LFB0:
  61              		.loc 1 97 0
  62              		.cfi_startproc
  63              		@ args = 0, pretend = 0, frame = 0
  64              		@ frame_needed = 0, uses_anonymous_args = 0
  65              	.LVL2:
  66 0000 38B5     		push	{r3, r4, r5, lr}
  67              		.cfi_def_cfa_offset 16
  68              		.cfi_offset 3, -16
  69              		.cfi_offset 4, -12
  70              		.cfi_offset 5, -8
  71              		.cfi_offset 14, -4
  72              		.loc 1 103 0
  73 0002 10B3     		cbz	r0, .L16
  74 0004 4900     		lsls	r1, r1, #1
  75              	.LVL3:
  76 0006 B2FBF1F2 		udiv	r2, r2, r1
  77              	.LVL4:
  78              		.loc 1 108 0
  79 000a 8023     		movs	r3, #128
  80              		.loc 1 106 0
  81 000c 1021     		movs	r1, #16
  82 000e 0160     		str	r1, [r0]
  83              		.loc 1 108 0
  84 0010 0360     		str	r3, [r0]
  85              		.loc 1 109 0
  86 0012 036B     		ldr	r3, [r0, #48]
  87              		.loc 1 116 0
  88 0014 0421     		movs	r1, #4
  89              		.loc 1 112 0
  90 0016 2025     		movs	r5, #32
  91              		.loc 1 113 0
  92 0018 0824     		movs	r4, #8
  93 001a 043A     		subs	r2, r2, #4
  94              		.loc 1 98 0
  95 001c 0023     		movs	r3, #0
  96              		.loc 1 112 0
  97 001e 0560     		str	r5, [r0]
  98              		.loc 1 113 0
  99 0020 0460     		str	r4, [r0]
 100              		.loc 1 116 0
 101 0022 0160     		str	r1, [r0]
 102              	.LVL5:
 103              		.loc 1 121 0
 104 0024 22FA03F1 		lsr	r1, r2, r3
 105              	.LVL6:
 106              		.loc 1 123 0
 107 0028 FF29     		cmp	r1, #255
 108 002a 04D9     		bls	.L7
 109              	.L17:
 110              		.loc 1 129 0
 111 002c 0133     		adds	r3, r3, #1
 112              	.LVL7:
 113              		.loc 1 121 0
 114 002e 22FA03F1 		lsr	r1, r2, r3
ARM GAS  /tmp/cc7cohkt.s 			page 3


 115              	.LVL8:
 116              		.loc 1 123 0
 117 0032 FF29     		cmp	r1, #255
 118 0034 FAD8     		bhi	.L17
 119              	.L7:
 120              	.LVL9:
 121              		.loc 1 133 0
 122 0036 072B     		cmp	r3, #7
 123 0038 0DD8     		bhi	.L18
 124              		.loc 1 137 0
 125 003a 0A02     		lsls	r2, r1, #8
 126 003c 42EA0343 		orr	r3, r2, r3, lsl #16
 127              	.LVL10:
 128 0040 1943     		orrs	r1, r1, r3
 129              	.LVL11:
 130              		.loc 1 136 0
 131 0042 0023     		movs	r3, #0
 132 0044 0361     		str	r3, [r0, #16]
 133              		.loc 1 137 0
 134 0046 0161     		str	r1, [r0, #16]
 135 0048 38BD     		pop	{r3, r4, r5, pc}
 136              	.LVL12:
 137              	.L16:
 138              		.loc 1 103 0 discriminator 1
 139 004a 0648     		ldr	r0, .L19
 140              	.LVL13:
 141 004c 6721     		movs	r1, #103
 142              	.LVL14:
 143 004e 064A     		ldr	r2, .L19+4
 144              	.LVL15:
 145 0050 064B     		ldr	r3, .L19+8
 146 0052 FFF7FEFF 		bl	__assert_func
 147              	.LVL16:
 148              	.L18:
 149              		.loc 1 133 0 discriminator 1
 150 0056 0348     		ldr	r0, .L19
 151              	.LVL17:
 152 0058 8521     		movs	r1, #133
 153              	.LVL18:
 154 005a 034A     		ldr	r2, .L19+4
 155 005c 044B     		ldr	r3, .L19+12
 156              	.LVL19:
 157 005e FFF7FEFF 		bl	__assert_func
 158              	.LVL20:
 159              	.L20:
 160 0062 00BF     		.align	2
 161              	.L19:
 162 0064 00000000 		.word	.LC0
 163 0068 00000000 		.word	.LANCHOR1
 164 006c 3C000000 		.word	.LC2
 165 0070 44000000 		.word	.LC3
 166              		.cfi_endproc
 167              	.LFE0:
 168              		.size	TWI_ConfigureMaster, .-TWI_ConfigureMaster
 169              		.section	.text.TWI_ConfigureSlave,"ax",%progbits
 170              		.align	2
 171              		.p2align 4,,15
ARM GAS  /tmp/cc7cohkt.s 			page 4


 172              		.global	TWI_ConfigureSlave
 173              		.thumb
 174              		.thumb_func
 175              		.type	TWI_ConfigureSlave, %function
 176              	TWI_ConfigureSlave:
 177              	.LFB1:
 178              		.loc 1 146 0
 179              		.cfi_startproc
 180              		@ args = 0, pretend = 0, frame = 0
 181              		@ frame_needed = 0, uses_anonymous_args = 0
 182              	.LVL21:
 183 0000 38B5     		push	{r3, r4, r5, lr}
 184              		.cfi_def_cfa_offset 16
 185              		.cfi_offset 3, -16
 186              		.cfi_offset 4, -12
 187              		.cfi_offset 5, -8
 188              		.cfi_offset 14, -4
 189              		.loc 1 161 0
 190 0002 0904     		lsls	r1, r1, #16
 191              	.LVL22:
 192              		.loc 1 150 0
 193 0004 8023     		movs	r3, #128
 194 0006 0360     		str	r3, [r0]
 195              		.loc 1 161 0
 196 0008 01F4FE01 		and	r1, r1, #8323072
 197              		.loc 1 164 0
 198 000c 1023     		movs	r3, #16
 199              		.loc 1 157 0
 200 000e 2824     		movs	r4, #40
 201              		.loc 1 160 0
 202 0010 0022     		movs	r2, #0
 203              		.loc 1 151 0
 204 0012 056B     		ldr	r5, [r0, #48]
 205              	.LVL23:
 206              		.loc 1 157 0
 207 0014 0460     		str	r4, [r0]
 208              		.loc 1 160 0
 209 0016 8260     		str	r2, [r0, #8]
 210              		.loc 1 161 0
 211 0018 8160     		str	r1, [r0, #8]
 212              		.loc 1 164 0
 213 001a 0360     		str	r3, [r0]
 214              		.loc 1 168 0
 215 001c 0368     		ldr	r3, [r0]
 216 001e 9B06     		lsls	r3, r3, #26
 217 0020 00D4     		bmi	.L24
 218 0022 38BD     		pop	{r3, r4, r5, pc}
 219              	.L24:
 220              		.loc 1 168 0 is_stmt 0 discriminator 1
 221 0024 0248     		ldr	r0, .L25
 222              	.LVL24:
 223 0026 A821     		movs	r1, #168
 224 0028 024A     		ldr	r2, .L25+4
 225 002a 034B     		ldr	r3, .L25+8
 226 002c FFF7FEFF 		bl	__assert_func
 227              	.LVL25:
 228              	.L26:
ARM GAS  /tmp/cc7cohkt.s 			page 5


 229              		.align	2
 230              	.L25:
 231 0030 00000000 		.word	.LC0
 232 0034 00000000 		.word	.LANCHOR2
 233 0038 50000000 		.word	.LC4
 234              		.cfi_endproc
 235              	.LFE1:
 236              		.size	TWI_ConfigureSlave, .-TWI_ConfigureSlave
 237              		.section	.text.TWI_Stop,"ax",%progbits
 238              		.align	2
 239              		.p2align 4,,15
 240              		.global	TWI_Stop
 241              		.thumb
 242              		.thumb_func
 243              		.type	TWI_Stop, %function
 244              	TWI_Stop:
 245              	.LFB2:
 246              		.loc 1 176 0 is_stmt 1
 247              		.cfi_startproc
 248              		@ args = 0, pretend = 0, frame = 0
 249              		@ frame_needed = 0, uses_anonymous_args = 0
 250              	.LVL26:
 251 0000 08B5     		push	{r3, lr}
 252              		.cfi_def_cfa_offset 8
 253              		.cfi_offset 3, -8
 254              		.cfi_offset 14, -4
 255              		.loc 1 177 0
 256 0002 10B1     		cbz	r0, .L30
 257              		.loc 1 179 0
 258 0004 0223     		movs	r3, #2
 259 0006 0360     		str	r3, [r0]
 260 0008 08BD     		pop	{r3, pc}
 261              	.L30:
 262              		.loc 1 177 0 discriminator 1
 263 000a 0348     		ldr	r0, .L31
 264              	.LVL27:
 265 000c B121     		movs	r1, #177
 266 000e 034A     		ldr	r2, .L31+4
 267 0010 034B     		ldr	r3, .L31+8
 268 0012 FFF7FEFF 		bl	__assert_func
 269              	.LVL28:
 270              	.L32:
 271 0016 00BF     		.align	2
 272              	.L31:
 273 0018 00000000 		.word	.LC0
 274 001c 00000000 		.word	.LANCHOR3
 275 0020 30000000 		.word	.LC1
 276              		.cfi_endproc
 277              	.LFE2:
 278              		.size	TWI_Stop, .-TWI_Stop
 279              		.section	.text.TWI_StartRead,"ax",%progbits
 280              		.align	2
 281              		.p2align 4,,15
 282              		.global	TWI_StartRead
 283              		.thumb
 284              		.thumb_func
 285              		.type	TWI_StartRead, %function
ARM GAS  /tmp/cc7cohkt.s 			page 6


 286              	TWI_StartRead:
 287              	.LFB3:
 288              		.loc 1 196 0
 289              		.cfi_startproc
 290              		@ args = 0, pretend = 0, frame = 0
 291              		@ frame_needed = 0, uses_anonymous_args = 0
 292              	.LVL29:
 293 0000 10B5     		push	{r4, lr}
 294              		.cfi_def_cfa_offset 8
 295              		.cfi_offset 4, -8
 296              		.cfi_offset 14, -4
 297              		.loc 1 197 0
 298 0002 90B1     		cbz	r0, .L39
 299              		.loc 1 198 0
 300 0004 0C06     		lsls	r4, r1, #24
 301 0006 22D4     		bmi	.L40
 302              		.loc 1 199 0
 303 0008 12F07F44 		ands	r4, r2, #-16777216
 304 000c 19D1     		bne	.L41
 305              		.loc 1 200 0
 306 000e 032B     		cmp	r3, #3
 307 0010 11D8     		bhi	.L42
 308              		.loc 1 204 0
 309 0012 1B02     		lsls	r3, r3, #8
 310              	.LVL30:
 311 0014 43F48053 		orr	r3, r3, #4096
 312 0018 43EA0141 		orr	r1, r3, r1, lsl #16
 313              	.LVL31:
 314              		.loc 1 211 0
 315 001c 0123     		movs	r3, #1
 316              		.loc 1 203 0
 317 001e 4460     		str	r4, [r0, #4]
 318              		.loc 1 204 0
 319 0020 4160     		str	r1, [r0, #4]
 320              		.loc 1 207 0
 321 0022 C460     		str	r4, [r0, #12]
 322              		.loc 1 208 0
 323 0024 C260     		str	r2, [r0, #12]
 324              		.loc 1 211 0
 325 0026 0360     		str	r3, [r0]
 326 0028 10BD     		pop	{r4, pc}
 327              	.LVL32:
 328              	.L39:
 329              		.loc 1 197 0 discriminator 1
 330 002a 0C48     		ldr	r0, .L43
 331              	.LVL33:
 332 002c C521     		movs	r1, #197
 333              	.LVL34:
 334 002e 0C4A     		ldr	r2, .L43+4
 335              	.LVL35:
 336 0030 0C4B     		ldr	r3, .L43+8
 337              	.LVL36:
 338 0032 FFF7FEFF 		bl	__assert_func
 339              	.LVL37:
 340              	.L42:
 341              		.loc 1 200 0 discriminator 1
 342 0036 0948     		ldr	r0, .L43
ARM GAS  /tmp/cc7cohkt.s 			page 7


 343              	.LVL38:
 344 0038 C821     		movs	r1, #200
 345              	.LVL39:
 346 003a 094A     		ldr	r2, .L43+4
 347              	.LVL40:
 348 003c 0A4B     		ldr	r3, .L43+12
 349              	.LVL41:
 350 003e FFF7FEFF 		bl	__assert_func
 351              	.LVL42:
 352              	.L41:
 353              		.loc 1 199 0 discriminator 1
 354 0042 0648     		ldr	r0, .L43
 355              	.LVL43:
 356 0044 C721     		movs	r1, #199
 357              	.LVL44:
 358 0046 064A     		ldr	r2, .L43+4
 359              	.LVL45:
 360 0048 084B     		ldr	r3, .L43+16
 361              	.LVL46:
 362 004a FFF7FEFF 		bl	__assert_func
 363              	.LVL47:
 364              	.L40:
 365              		.loc 1 198 0 discriminator 1
 366 004e 0348     		ldr	r0, .L43
 367              	.LVL48:
 368 0050 C621     		movs	r1, #198
 369              	.LVL49:
 370 0052 034A     		ldr	r2, .L43+4
 371              	.LVL50:
 372 0054 064B     		ldr	r3, .L43+20
 373              	.LVL51:
 374 0056 FFF7FEFF 		bl	__assert_func
 375              	.LVL52:
 376              	.L44:
 377 005a 00BF     		.align	2
 378              	.L43:
 379 005c 00000000 		.word	.LC0
 380 0060 00000000 		.word	.LANCHOR4
 381 0064 30000000 		.word	.LC1
 382 0068 B8000000 		.word	.LC7
 383 006c 98000000 		.word	.LC6
 384 0070 80000000 		.word	.LC5
 385              		.cfi_endproc
 386              	.LFE3:
 387              		.size	TWI_StartRead, .-TWI_StartRead
 388              		.section	.text.TWI_ReadByte,"ax",%progbits
 389              		.align	2
 390              		.p2align 4,,15
 391              		.global	TWI_ReadByte
 392              		.thumb
 393              		.thumb_func
 394              		.type	TWI_ReadByte, %function
 395              	TWI_ReadByte:
 396              	.LFB4:
 397              		.loc 1 221 0
 398              		.cfi_startproc
 399              		@ args = 0, pretend = 0, frame = 0
ARM GAS  /tmp/cc7cohkt.s 			page 8


 400              		@ frame_needed = 0, uses_anonymous_args = 0
 401              	.LVL53:
 402              		.loc 1 222 0
 403 0000 10B1     		cbz	r0, .L48
 404              		.loc 1 224 0
 405 0002 006B     		ldr	r0, [r0, #48]
 406              	.LVL54:
 407              		.loc 1 225 0
 408 0004 C0B2     		uxtb	r0, r0
 409 0006 7047     		bx	lr
 410              	.LVL55:
 411              	.L48:
 412              		.loc 1 221 0 discriminator 1
 413 0008 08B5     		push	{r3, lr}
 414              		.cfi_def_cfa_offset 8
 415              		.cfi_offset 3, -8
 416              		.cfi_offset 14, -4
 417              		.loc 1 222 0 discriminator 1
 418 000a 0348     		ldr	r0, .L49
 419              	.LVL56:
 420 000c DE21     		movs	r1, #222
 421 000e 034A     		ldr	r2, .L49+4
 422 0010 034B     		ldr	r3, .L49+8
 423 0012 FFF7FEFF 		bl	__assert_func
 424              	.LVL57:
 425              	.L50:
 426 0016 00BF     		.align	2
 427              	.L49:
 428 0018 00000000 		.word	.LC0
 429 001c 00000000 		.word	.LANCHOR5
 430 0020 30000000 		.word	.LC1
 431              		.cfi_endproc
 432              	.LFE4:
 433              		.size	TWI_ReadByte, .-TWI_ReadByte
 434              		.section	.text.TWI_WriteByte,"ax",%progbits
 435              		.align	2
 436              		.p2align 4,,15
 437              		.global	TWI_WriteByte
 438              		.thumb
 439              		.thumb_func
 440              		.type	TWI_WriteByte, %function
 441              	TWI_WriteByte:
 442              	.LFB5:
 443              		.loc 1 236 0
 444              		.cfi_startproc
 445              		@ args = 0, pretend = 0, frame = 0
 446              		@ frame_needed = 0, uses_anonymous_args = 0
 447              	.LVL58:
 448              		.loc 1 237 0
 449 0000 08B1     		cbz	r0, .L54
 450              		.loc 1 239 0
 451 0002 4163     		str	r1, [r0, #52]
 452 0004 7047     		bx	lr
 453              	.L54:
 454              		.loc 1 236 0 discriminator 1
 455 0006 08B5     		push	{r3, lr}
 456              		.cfi_def_cfa_offset 8
ARM GAS  /tmp/cc7cohkt.s 			page 9


 457              		.cfi_offset 3, -8
 458              		.cfi_offset 14, -4
 459 0008 FFF7FEFF 		bl	TWI_WriteByte.part.0
 460              	.LVL59:
 461              		.cfi_endproc
 462              	.LFE5:
 463              		.size	TWI_WriteByte, .-TWI_WriteByte
 464              		.section	.text.TWI_StartWrite,"ax",%progbits
 465              		.align	2
 466              		.p2align 4,,15
 467              		.global	TWI_StartWrite
 468              		.thumb
 469              		.thumb_func
 470              		.type	TWI_StartWrite, %function
 471              	TWI_StartWrite:
 472              	.LFB6:
 473              		.loc 1 259 0
 474              		.cfi_startproc
 475              		@ args = 4, pretend = 0, frame = 0
 476              		@ frame_needed = 0, uses_anonymous_args = 0
 477              	.LVL60:
 478              		.loc 1 259 0
 479 0000 38B5     		push	{r3, r4, r5, lr}
 480              		.cfi_def_cfa_offset 16
 481              		.cfi_offset 3, -16
 482              		.cfi_offset 4, -12
 483              		.cfi_offset 5, -8
 484              		.cfi_offset 14, -4
 485              		.loc 1 259 0
 486 0002 9DF81050 		ldrb	r5, [sp, #16]	@ zero_extendqisi2
 487              		.loc 1 260 0
 488 0006 78B1     		cbz	r0, .L61
 489              		.loc 1 261 0
 490 0008 0C06     		lsls	r4, r1, #24
 491 000a 22D4     		bmi	.L62
 492              		.loc 1 262 0
 493 000c 12F07F44 		ands	r4, r2, #-16777216
 494 0010 18D1     		bne	.L63
 495              		.loc 1 263 0
 496 0012 032B     		cmp	r3, #3
 497 0014 0FD8     		bhi	.L64
 498              		.loc 1 267 0
 499 0016 1B02     		lsls	r3, r3, #8
 500              	.LVL61:
 501 0018 43EA0141 		orr	r1, r3, r1, lsl #16
 502              	.LVL62:
 503              		.loc 1 266 0
 504 001c 4460     		str	r4, [r0, #4]
 505              		.loc 1 267 0
 506 001e 4160     		str	r1, [r0, #4]
 507              		.loc 1 270 0
 508 0020 C460     		str	r4, [r0, #12]
 509              		.loc 1 271 0
 510 0022 C260     		str	r2, [r0, #12]
 511              	.LVL63:
 512              	.LBB4:
 513              	.LBB5:
ARM GAS  /tmp/cc7cohkt.s 			page 10


 514              		.loc 1 239 0
 515 0024 4563     		str	r5, [r0, #52]
 516 0026 38BD     		pop	{r3, r4, r5, pc}
 517              	.LVL64:
 518              	.L61:
 519              	.LBE5:
 520              	.LBE4:
 521              		.loc 1 260 0 discriminator 1
 522 0028 0D48     		ldr	r0, .L65
 523              	.LVL65:
 524 002a 4FF48271 		mov	r1, #260
 525              	.LVL66:
 526 002e 0D4A     		ldr	r2, .L65+4
 527              	.LVL67:
 528 0030 0D4B     		ldr	r3, .L65+8
 529              	.LVL68:
 530 0032 FFF7FEFF 		bl	__assert_func
 531              	.LVL69:
 532              	.L64:
 533              		.loc 1 263 0 discriminator 1
 534 0036 0A48     		ldr	r0, .L65
 535              	.LVL70:
 536 0038 40F20711 		movw	r1, #263
 537              	.LVL71:
 538 003c 094A     		ldr	r2, .L65+4
 539              	.LVL72:
 540 003e 0B4B     		ldr	r3, .L65+12
 541              	.LVL73:
 542 0040 FFF7FEFF 		bl	__assert_func
 543              	.LVL74:
 544              	.L63:
 545              		.loc 1 262 0 discriminator 1
 546 0044 0648     		ldr	r0, .L65
 547              	.LVL75:
 548 0046 4FF48371 		mov	r1, #262
 549              	.LVL76:
 550 004a 064A     		ldr	r2, .L65+4
 551              	.LVL77:
 552 004c 084B     		ldr	r3, .L65+16
 553              	.LVL78:
 554 004e FFF7FEFF 		bl	__assert_func
 555              	.LVL79:
 556              	.L62:
 557              		.loc 1 261 0 discriminator 1
 558 0052 0348     		ldr	r0, .L65
 559              	.LVL80:
 560 0054 40F20511 		movw	r1, #261
 561              	.LVL81:
 562 0058 024A     		ldr	r2, .L65+4
 563              	.LVL82:
 564 005a 064B     		ldr	r3, .L65+20
 565              	.LVL83:
 566 005c FFF7FEFF 		bl	__assert_func
 567              	.LVL84:
 568              	.L66:
 569              		.align	2
 570              	.L65:
ARM GAS  /tmp/cc7cohkt.s 			page 11


 571 0060 00000000 		.word	.LC0
 572 0064 00000000 		.word	.LANCHOR6
 573 0068 30000000 		.word	.LC1
 574 006c B8000000 		.word	.LC7
 575 0070 98000000 		.word	.LC6
 576 0074 80000000 		.word	.LC5
 577              		.cfi_endproc
 578              	.LFE6:
 579              		.size	TWI_StartWrite, .-TWI_StartWrite
 580              		.section	.text.TWI_ByteReceived,"ax",%progbits
 581              		.align	2
 582              		.p2align 4,,15
 583              		.global	TWI_ByteReceived
 584              		.thumb
 585              		.thumb_func
 586              		.type	TWI_ByteReceived, %function
 587              	TWI_ByteReceived:
 588              	.LFB7:
 589              		.loc 1 284 0
 590              		.cfi_startproc
 591              		@ args = 0, pretend = 0, frame = 0
 592              		@ frame_needed = 0, uses_anonymous_args = 0
 593              		@ link register save eliminated.
 594              	.LVL85:
 595              		.loc 1 285 0
 596 0000 006A     		ldr	r0, [r0, #32]
 597              	.LVL86:
 598              		.loc 1 286 0
 599 0002 C0F34000 		ubfx	r0, r0, #1, #1
 600 0006 7047     		bx	lr
 601              		.cfi_endproc
 602              	.LFE7:
 603              		.size	TWI_ByteReceived, .-TWI_ByteReceived
 604              		.section	.text.TWI_ByteSent,"ax",%progbits
 605              		.align	2
 606              		.p2align 4,,15
 607              		.global	TWI_ByteSent
 608              		.thumb
 609              		.thumb_func
 610              		.type	TWI_ByteSent, %function
 611              	TWI_ByteSent:
 612              	.LFB8:
 613              		.loc 1 295 0
 614              		.cfi_startproc
 615              		@ args = 0, pretend = 0, frame = 0
 616              		@ frame_needed = 0, uses_anonymous_args = 0
 617              		@ link register save eliminated.
 618              	.LVL87:
 619              		.loc 1 296 0
 620 0000 006A     		ldr	r0, [r0, #32]
 621              	.LVL88:
 622              		.loc 1 297 0
 623 0002 C0F38000 		ubfx	r0, r0, #2, #1
 624 0006 7047     		bx	lr
 625              		.cfi_endproc
 626              	.LFE8:
 627              		.size	TWI_ByteSent, .-TWI_ByteSent
ARM GAS  /tmp/cc7cohkt.s 			page 12


 628              		.section	.text.TWI_TransferComplete,"ax",%progbits
 629              		.align	2
 630              		.p2align 4,,15
 631              		.global	TWI_TransferComplete
 632              		.thumb
 633              		.thumb_func
 634              		.type	TWI_TransferComplete, %function
 635              	TWI_TransferComplete:
 636              	.LFB9:
 637              		.loc 1 306 0
 638              		.cfi_startproc
 639              		@ args = 0, pretend = 0, frame = 0
 640              		@ frame_needed = 0, uses_anonymous_args = 0
 641              		@ link register save eliminated.
 642              	.LVL89:
 643              		.loc 1 307 0
 644 0000 006A     		ldr	r0, [r0, #32]
 645              	.LVL90:
 646              		.loc 1 308 0
 647 0002 00F00100 		and	r0, r0, #1
 648 0006 7047     		bx	lr
 649              		.cfi_endproc
 650              	.LFE9:
 651              		.size	TWI_TransferComplete, .-TWI_TransferComplete
 652              		.section	.text.TWI_EnableIt,"ax",%progbits
 653              		.align	2
 654              		.p2align 4,,15
 655              		.global	TWI_EnableIt
 656              		.thumb
 657              		.thumb_func
 658              		.type	TWI_EnableIt, %function
 659              	TWI_EnableIt:
 660              	.LFB10:
 661              		.loc 1 316 0
 662              		.cfi_startproc
 663              		@ args = 0, pretend = 0, frame = 0
 664              		@ frame_needed = 0, uses_anonymous_args = 0
 665              	.LVL91:
 666 0000 08B5     		push	{r3, lr}
 667              		.cfi_def_cfa_offset 8
 668              		.cfi_offset 3, -8
 669              		.cfi_offset 14, -4
 670              		.loc 1 317 0
 671 0002 30B1     		cbz	r0, .L74
 672              		.loc 1 318 0
 673 0004 21F47763 		bic	r3, r1, #3952
 674 0008 23F00703 		bic	r3, r3, #7
 675 000c 43B9     		cbnz	r3, .L75
 676              		.loc 1 320 0
 677 000e 4162     		str	r1, [r0, #36]
 678 0010 08BD     		pop	{r3, pc}
 679              	.L74:
 680              		.loc 1 317 0 discriminator 1
 681 0012 0748     		ldr	r0, .L76
 682              	.LVL92:
 683 0014 40F23D11 		movw	r1, #317
 684              	.LVL93:
ARM GAS  /tmp/cc7cohkt.s 			page 13


 685 0018 064A     		ldr	r2, .L76+4
 686 001a 074B     		ldr	r3, .L76+8
 687 001c FFF7FEFF 		bl	__assert_func
 688              	.LVL94:
 689              	.L75:
 690              		.loc 1 318 0 discriminator 1
 691 0020 0348     		ldr	r0, .L76
 692              	.LVL95:
 693 0022 4FF49F71 		mov	r1, #318
 694              	.LVL96:
 695 0026 034A     		ldr	r2, .L76+4
 696 0028 044B     		ldr	r3, .L76+12
 697 002a FFF7FEFF 		bl	__assert_func
 698              	.LVL97:
 699              	.L77:
 700 002e 00BF     		.align	2
 701              	.L76:
 702 0030 00000000 		.word	.LC0
 703 0034 00000000 		.word	.LANCHOR7
 704 0038 30000000 		.word	.LC1
 705 003c C4000000 		.word	.LC8
 706              		.cfi_endproc
 707              	.LFE10:
 708              		.size	TWI_EnableIt, .-TWI_EnableIt
 709              		.section	.text.TWI_DisableIt,"ax",%progbits
 710              		.align	2
 711              		.p2align 4,,15
 712              		.global	TWI_DisableIt
 713              		.thumb
 714              		.thumb_func
 715              		.type	TWI_DisableIt, %function
 716              	TWI_DisableIt:
 717              	.LFB11:
 718              		.loc 1 329 0
 719              		.cfi_startproc
 720              		@ args = 0, pretend = 0, frame = 0
 721              		@ frame_needed = 0, uses_anonymous_args = 0
 722              	.LVL98:
 723 0000 08B5     		push	{r3, lr}
 724              		.cfi_def_cfa_offset 8
 725              		.cfi_offset 3, -8
 726              		.cfi_offset 14, -4
 727              		.loc 1 330 0
 728 0002 30B1     		cbz	r0, .L82
 729              		.loc 1 331 0
 730 0004 21F47763 		bic	r3, r1, #3952
 731 0008 23F00703 		bic	r3, r3, #7
 732 000c 43B9     		cbnz	r3, .L83
 733              		.loc 1 333 0
 734 000e 8162     		str	r1, [r0, #40]
 735 0010 08BD     		pop	{r3, pc}
 736              	.L82:
 737              		.loc 1 330 0 discriminator 1
 738 0012 0748     		ldr	r0, .L84
 739              	.LVL99:
 740 0014 4FF4A571 		mov	r1, #330
 741              	.LVL100:
ARM GAS  /tmp/cc7cohkt.s 			page 14


 742 0018 064A     		ldr	r2, .L84+4
 743 001a 074B     		ldr	r3, .L84+8
 744 001c FFF7FEFF 		bl	__assert_func
 745              	.LVL101:
 746              	.L83:
 747              		.loc 1 331 0 discriminator 1
 748 0020 0348     		ldr	r0, .L84
 749              	.LVL102:
 750 0022 40F24B11 		movw	r1, #331
 751              	.LVL103:
 752 0026 034A     		ldr	r2, .L84+4
 753 0028 044B     		ldr	r3, .L84+12
 754 002a FFF7FEFF 		bl	__assert_func
 755              	.LVL104:
 756              	.L85:
 757 002e 00BF     		.align	2
 758              	.L84:
 759 0030 00000000 		.word	.LC0
 760 0034 00000000 		.word	.LANCHOR8
 761 0038 30000000 		.word	.LC1
 762 003c C4000000 		.word	.LC8
 763              		.cfi_endproc
 764              	.LFE11:
 765              		.size	TWI_DisableIt, .-TWI_DisableIt
 766              		.section	.text.TWI_GetStatus,"ax",%progbits
 767              		.align	2
 768              		.p2align 4,,15
 769              		.global	TWI_GetStatus
 770              		.thumb
 771              		.thumb_func
 772              		.type	TWI_GetStatus, %function
 773              	TWI_GetStatus:
 774              	.LFB12:
 775              		.loc 1 344 0
 776              		.cfi_startproc
 777              		@ args = 0, pretend = 0, frame = 0
 778              		@ frame_needed = 0, uses_anonymous_args = 0
 779              	.LVL105:
 780              		.loc 1 345 0
 781 0000 08B1     		cbz	r0, .L89
 782              		.loc 1 347 0
 783 0002 006A     		ldr	r0, [r0, #32]
 784              	.LVL106:
 785              		.loc 1 348 0
 786 0004 7047     		bx	lr
 787              	.LVL107:
 788              	.L89:
 789              		.loc 1 344 0 discriminator 1
 790 0006 08B5     		push	{r3, lr}
 791              		.cfi_def_cfa_offset 8
 792              		.cfi_offset 3, -8
 793              		.cfi_offset 14, -4
 794              		.loc 1 345 0 discriminator 1
 795 0008 0348     		ldr	r0, .L90
 796              	.LVL108:
 797 000a 40F25911 		movw	r1, #345
 798 000e 034A     		ldr	r2, .L90+4
ARM GAS  /tmp/cc7cohkt.s 			page 15


 799 0010 034B     		ldr	r3, .L90+8
 800 0012 FFF7FEFF 		bl	__assert_func
 801              	.LVL109:
 802              	.L91:
 803 0016 00BF     		.align	2
 804              	.L90:
 805 0018 00000000 		.word	.LC0
 806 001c 00000000 		.word	.LANCHOR9
 807 0020 30000000 		.word	.LC1
 808              		.cfi_endproc
 809              	.LFE12:
 810              		.size	TWI_GetStatus, .-TWI_GetStatus
 811              		.section	.text.TWI_GetMaskedStatus,"ax",%progbits
 812              		.align	2
 813              		.p2align 4,,15
 814              		.global	TWI_GetMaskedStatus
 815              		.thumb
 816              		.thumb_func
 817              		.type	TWI_GetMaskedStatus, %function
 818              	TWI_GetMaskedStatus:
 819              	.LFB13:
 820              		.loc 1 358 0
 821              		.cfi_startproc
 822              		@ args = 0, pretend = 0, frame = 0
 823              		@ frame_needed = 0, uses_anonymous_args = 0
 824              	.LVL110:
 825 0000 08B5     		push	{r3, lr}
 826              		.cfi_def_cfa_offset 8
 827              		.cfi_offset 3, -8
 828              		.cfi_offset 14, -4
 829              		.loc 1 361 0
 830 0002 18B1     		cbz	r0, .L95
 831              		.loc 1 363 0
 832 0004 036A     		ldr	r3, [r0, #32]
 833              	.LVL111:
 834              		.loc 1 364 0
 835 0006 C06A     		ldr	r0, [r0, #44]
 836              	.LVL112:
 837              		.loc 1 367 0
 838 0008 1840     		ands	r0, r0, r3
 839              	.LVL113:
 840 000a 08BD     		pop	{r3, pc}
 841              	.LVL114:
 842              	.L95:
 843              		.loc 1 361 0 discriminator 1
 844 000c 0348     		ldr	r0, .L96
 845              	.LVL115:
 846 000e 40F26911 		movw	r1, #361
 847 0012 034A     		ldr	r2, .L96+4
 848 0014 034B     		ldr	r3, .L96+8
 849 0016 FFF7FEFF 		bl	__assert_func
 850              	.LVL116:
 851              	.L97:
 852 001a 00BF     		.align	2
 853              	.L96:
 854 001c 00000000 		.word	.LC0
 855 0020 00000000 		.word	.LANCHOR10
ARM GAS  /tmp/cc7cohkt.s 			page 16


 856 0024 30000000 		.word	.LC1
 857              		.cfi_endproc
 858              	.LFE13:
 859              		.size	TWI_GetMaskedStatus, .-TWI_GetMaskedStatus
 860              		.section	.text.TWI_SendSTOPCondition,"ax",%progbits
 861              		.align	2
 862              		.p2align 4,,15
 863              		.global	TWI_SendSTOPCondition
 864              		.thumb
 865              		.thumb_func
 866              		.type	TWI_SendSTOPCondition, %function
 867              	TWI_SendSTOPCondition:
 868              	.LFB14:
 869              		.loc 1 375 0
 870              		.cfi_startproc
 871              		@ args = 0, pretend = 0, frame = 0
 872              		@ frame_needed = 0, uses_anonymous_args = 0
 873              	.LVL117:
 874 0000 08B5     		push	{r3, lr}
 875              		.cfi_def_cfa_offset 8
 876              		.cfi_offset 3, -8
 877              		.cfi_offset 14, -4
 878              		.loc 1 376 0
 879 0002 20B1     		cbz	r0, .L101
 880              		.loc 1 378 0
 881 0004 0368     		ldr	r3, [r0]
 882 0006 43F00203 		orr	r3, r3, #2
 883 000a 0360     		str	r3, [r0]
 884 000c 08BD     		pop	{r3, pc}
 885              	.L101:
 886              		.loc 1 376 0 discriminator 1
 887 000e 0348     		ldr	r0, .L102
 888              	.LVL118:
 889 0010 4FF4BC71 		mov	r1, #376
 890 0014 024A     		ldr	r2, .L102+4
 891 0016 034B     		ldr	r3, .L102+8
 892 0018 FFF7FEFF 		bl	__assert_func
 893              	.LVL119:
 894              	.L103:
 895              		.align	2
 896              	.L102:
 897 001c 00000000 		.word	.LC0
 898 0020 00000000 		.word	.LANCHOR11
 899 0024 30000000 		.word	.LC1
 900              		.cfi_endproc
 901              	.LFE14:
 902              		.size	TWI_SendSTOPCondition, .-TWI_SendSTOPCondition
 903              		.section	.rodata.__func__.4883,"a",%progbits
 904              		.align	2
 905              		.set	.LANCHOR6,. + 0
 906              		.type	__func__.4883, %object
 907              		.size	__func__.4883, 15
 908              	__func__.4883:
 909 0000 5457495F 		.ascii	"TWI_StartWrite\000"
 909      53746172 
 909      74577269 
 909      746500
ARM GAS  /tmp/cc7cohkt.s 			page 17


 910              		.section	.rodata.__func__.4915,"a",%progbits
 911              		.align	2
 912              		.set	.LANCHOR11,. + 0
 913              		.type	__func__.4915, %object
 914              		.size	__func__.4915, 22
 915              	__func__.4915:
 916 0000 5457495F 		.ascii	"TWI_SendSTOPCondition\000"
 916      53656E64 
 916      53544F50 
 916      436F6E64 
 916      6974696F 
 917              		.section	.rodata.__func__.4911,"a",%progbits
 918              		.align	2
 919              		.set	.LANCHOR10,. + 0
 920              		.type	__func__.4911, %object
 921              		.size	__func__.4911, 20
 922              	__func__.4911:
 923 0000 5457495F 		.ascii	"TWI_GetMaskedStatus\000"
 923      4765744D 
 923      61736B65 
 923      64537461 
 923      74757300 
 924              		.section	.rodata.__func__.4840,"a",%progbits
 925              		.align	2
 926              		.set	.LANCHOR1,. + 0
 927              		.type	__func__.4840, %object
 928              		.size	__func__.4840, 20
 929              	__func__.4840:
 930 0000 5457495F 		.ascii	"TWI_ConfigureMaster\000"
 930      436F6E66 
 930      69677572 
 930      654D6173 
 930      74657200 
 931              		.section	.rodata.__func__.4897,"a",%progbits
 932              		.align	2
 933              		.set	.LANCHOR7,. + 0
 934              		.type	__func__.4897, %object
 935              		.size	__func__.4897, 13
 936              	__func__.4897:
 937 0000 5457495F 		.ascii	"TWI_EnableIt\000"
 937      456E6162 
 937      6C654974 
 937      00
 938              		.section	.rodata.__func__.4902,"a",%progbits
 939              		.align	2
 940              		.set	.LANCHOR8,. + 0
 941              		.type	__func__.4902, %object
 942              		.size	__func__.4902, 14
 943              	__func__.4902:
 944 0000 5457495F 		.ascii	"TWI_DisableIt\000"
 944      44697361 
 944      626C6549 
 944      7400
 945              		.section	.rodata.str1.4,"aMS",%progbits,1
 946              		.align	2
 947              	.LC0:
 948 0000 43686962 		.ascii	"ChibiOS//os/hal/platforms/AT91SAM3S/atmel_twi.c\000"
ARM GAS  /tmp/cc7cohkt.s 			page 18


 948      694F532F 
 948      2F6F732F 
 948      68616C2F 
 948      706C6174 
 949              	.LC1:
 950 0030 70547769 		.ascii	"pTwi != 0\000"
 950      20213D20 
 950      3000
 951 003a 0000     		.space	2
 952              	.LC2:
 953 003c 70547769 		.ascii	"pTwi\000"
 953      00
 954 0041 000000   		.space	3
 955              	.LC3:
 956 0044 6477436B 		.ascii	"dwCkDiv < 8\000"
 956      44697620 
 956      3C203800 
 957              	.LC4:
 958 0050 28705477 		.ascii	"(pTwi->TWI_CR & TWI_CR_SVDIS)!= TWI_CR_SVDIS\000"
 958      692D3E54 
 958      57495F43 
 958      52202620 
 958      5457495F 
 959 007d 000000   		.space	3
 960              	.LC5:
 961 0080 28616464 		.ascii	"(address & 0x80) == 0\000"
 961      72657373 
 961      20262030 
 961      78383029 
 961      203D3D20 
 962 0096 0000     		.space	2
 963              	.LC6:
 964 0098 28696164 		.ascii	"(iaddress & 0xFF000000) == 0\000"
 964      64726573 
 964      73202620 
 964      30784646 
 964      30303030 
 965 00b5 000000   		.space	3
 966              	.LC7:
 967 00b8 6973697A 		.ascii	"isize < 4\000"
 967      65203C20 
 967      3400
 968 00c2 0000     		.space	2
 969              	.LC8:
 970 00c4 28736F75 		.ascii	"(sources & 0xFFFFF088) == 0\000"
 970      72636573 
 970      20262030 
 970      78464646 
 970      46463038 
 971              		.section	.rodata.__func__.4855,"a",%progbits
 972              		.align	2
 973              		.set	.LANCHOR2,. + 0
 974              		.type	__func__.4855, %object
 975              		.size	__func__.4855, 19
 976              	__func__.4855:
 977 0000 5457495F 		.ascii	"TWI_ConfigureSlave\000"
 977      436F6E66 
ARM GAS  /tmp/cc7cohkt.s 			page 19


 977      69677572 
 977      65536C61 
 977      766500
 978              		.section	.rodata.__func__.4906,"a",%progbits
 979              		.align	2
 980              		.set	.LANCHOR9,. + 0
 981              		.type	__func__.4906, %object
 982              		.size	__func__.4906, 14
 983              	__func__.4906:
 984 0000 5457495F 		.ascii	"TWI_GetStatus\000"
 984      47657453 
 984      74617475 
 984      7300
 985              		.section	.rodata.__func__.4859,"a",%progbits
 986              		.align	2
 987              		.set	.LANCHOR3,. + 0
 988              		.type	__func__.4859, %object
 989              		.size	__func__.4859, 9
 990              	__func__.4859:
 991 0000 5457495F 		.ascii	"TWI_Stop\000"
 991      53746F70 
 991      00
 992              		.section	.rodata.__func__.4870,"a",%progbits
 993              		.align	2
 994              		.set	.LANCHOR5,. + 0
 995              		.type	__func__.4870, %object
 996              		.size	__func__.4870, 13
 997              	__func__.4870:
 998 0000 5457495F 		.ascii	"TWI_ReadByte\000"
 998      52656164 
 998      42797465 
 998      00
 999              		.section	.rodata.__func__.4866,"a",%progbits
 1000              		.align	2
 1001              		.set	.LANCHOR4,. + 0
 1002              		.type	__func__.4866, %object
 1003              		.size	__func__.4866, 14
 1004              	__func__.4866:
 1005 0000 5457495F 		.ascii	"TWI_StartRead\000"
 1005      53746172 
 1005      74526561 
 1005      6400
 1006              		.section	.rodata.__func__.4875,"a",%progbits
 1007              		.align	2
 1008              		.set	.LANCHOR0,. + 0
 1009              		.type	__func__.4875, %object
 1010              		.size	__func__.4875, 14
 1011              	__func__.4875:
 1012 0000 5457495F 		.ascii	"TWI_WriteByte\000"
 1012      57726974 
 1012      65427974 
 1012      6500
 1013              		.text
 1014              	.Letext0:
 1015              		.file 2 "/usr/include/newlib/machine/_default_types.h"
 1016              		.file 3 "/usr/include/newlib/sys/_stdint.h"
 1017              		.file 4 "ChibiOS//os/hal/platforms/AT91SAM3S/SAM3S.h"
ARM GAS  /tmp/cc7cohkt.s 			page 20


 1018              		.file 5 "/usr/include/newlib/assert.h"