ARM GAS  /tmp/ccr64a7H.s 			page 1


   1              		.syntax unified
   2              		.cpu cortex-m3
   3              		.fpu softvfp
   4              		.eabi_attribute 20, 1
   5              		.eabi_attribute 21, 1
   6              		.eabi_attribute 23, 3
   7              		.eabi_attribute 24, 1
   8              		.eabi_attribute 25, 1
   9              		.eabi_attribute 26, 1
  10              		.eabi_attribute 30, 2
  11              		.eabi_attribute 34, 1
  12              		.eabi_attribute 18, 4
  13              		.thumb
  14              		.file	"atmel_twid.c"
  15              		.text
  16              	.Ltext0:
  17              		.cfi_sections	.debug_frame
  18              		.section	.text.TWID_Initialize,"ax",%progbits
  19              		.align	2
  20              		.p2align 4,,15
  21              		.global	TWID_Initialize
  22              		.thumb
  23              		.thumb_func
  24              		.type	TWID_Initialize, %function
  25              	TWID_Initialize:
  26              	.LFB0:
  27              		.file 1 "ChibiOS//os/hal/platforms/AT91SAM3S/atmel_twid.c"
  28              		.loc 1 78 0
  29              		.cfi_startproc
  30              		@ args = 0, pretend = 0, frame = 0
  31              		@ frame_needed = 0, uses_anonymous_args = 0
  32              		@ link register save eliminated.
  33              	.LVL0:
  34              		.loc 1 83 0
  35 0000 0023     		movs	r3, #0
  36 0002 80E80A00 		stmia	r0, {r1, r3}
  37 0006 7047     		bx	lr
  38              		.cfi_endproc
  39              	.LFE0:
  40              		.size	TWID_Initialize, .-TWID_Initialize
  41              		.section	.text.TWID_Handler,"ax",%progbits
  42              		.align	2
  43              		.p2align 4,,15
  44              		.global	TWID_Handler
  45              		.thumb
  46              		.thumb_func
  47              		.type	TWID_Handler, %function
  48              	TWID_Handler:
  49              	.LFB1:
  50              		.loc 1 94 0
  51              		.cfi_startproc
  52              		@ args = 0, pretend = 0, frame = 0
  53              		@ frame_needed = 0, uses_anonymous_args = 0
  54              	.LVL1:
  55 0000 F8B5     		push	{r3, r4, r5, r6, r7, lr}
  56              		.cfi_def_cfa_offset 24
  57              		.cfi_offset 3, -24
ARM GAS  /tmp/ccr64a7H.s 			page 2


  58              		.cfi_offset 4, -20
  59              		.cfi_offset 5, -16
  60              		.cfi_offset 6, -12
  61              		.cfi_offset 7, -8
  62              		.cfi_offset 14, -4
  63              		.loc 1 100 0
  64 0002 0668     		ldr	r6, [r0]
  65              		.loc 1 99 0
  66 0004 4468     		ldr	r4, [r0, #4]
  67              	.LVL2:
  68              		.loc 1 94 0
  69 0006 0546     		mov	r5, r0
  70              		.loc 1 104 0
  71 0008 3046     		mov	r0, r6
  72              	.LVL3:
  73 000a FFF7FEFF 		bl	TWI_GetMaskedStatus
  74              	.LVL4:
  75              		.loc 1 107 0
  76 000e 8207     		lsls	r2, r0, #30
  77 0010 12D4     		bmi	.L19
  78              		.loc 1 125 0
  79 0012 10F00407 		ands	r7, r0, #4
  80 0016 0CD0     		beq	.L7
  81              		.loc 1 128 0
  82 0018 2369     		ldr	r3, [r4, #16]
  83 001a E268     		ldr	r2, [r4, #12]
  84 001c 9342     		cmp	r3, r2
  85 001e 2BD0     		beq	.L20
  86              		.loc 1 137 0
  87 0020 A268     		ldr	r2, [r4, #8]
  88 0022 3046     		mov	r0, r6
  89              	.LVL5:
  90 0024 D15C     		ldrb	r1, [r2, r3]	@ zero_extendqisi2
  91 0026 FFF7FEFF 		bl	TWI_WriteByte
  92              	.LVL6:
  93              		.loc 1 138 0
  94 002a 2369     		ldr	r3, [r4, #16]
  95 002c 0133     		adds	r3, r3, #1
  96 002e 2361     		str	r3, [r4, #16]
  97 0030 F8BD     		pop	{r3, r4, r5, r6, r7, pc}
  98              	.LVL7:
  99              	.L7:
 100              		.loc 1 142 0
 101 0032 C307     		lsls	r3, r0, #31
 102 0034 14D4     		bmi	.L21
 103              	.LVL8:
 104              	.L2:
 105 0036 F8BD     		pop	{r3, r4, r5, r6, r7, pc}
 106              	.LVL9:
 107              	.L19:
 108              		.loc 1 109 0
 109 0038 3046     		mov	r0, r6
 110              	.LVL10:
 111 003a A768     		ldr	r7, [r4, #8]
 112 003c 2569     		ldr	r5, [r4, #16]
 113              	.LVL11:
 114 003e FFF7FEFF 		bl	TWI_ReadByte
ARM GAS  /tmp/ccr64a7H.s 			page 3


 115              	.LVL12:
 116 0042 7855     		strb	r0, [r7, r5]
 117              		.loc 1 110 0
 118 0044 2369     		ldr	r3, [r4, #16]
 119              		.loc 1 113 0
 120 0046 E268     		ldr	r2, [r4, #12]
 121              		.loc 1 110 0
 122 0048 0133     		adds	r3, r3, #1
 123              		.loc 1 113 0
 124 004a 9342     		cmp	r3, r2
 125              		.loc 1 110 0
 126 004c 2361     		str	r3, [r4, #16]
 127              		.loc 1 113 0
 128 004e 20D0     		beq	.L22
 129              		.loc 1 119 0
 130 0050 013A     		subs	r2, r2, #1
 131 0052 9342     		cmp	r3, r2
 132 0054 EFD1     		bne	.L2
 133              		.loc 1 121 0
 134 0056 3046     		mov	r0, r6
 135              		.loc 1 152 0
 136 0058 BDE8F840 		pop	{r3, r4, r5, r6, r7, lr}
 137              		.cfi_remember_state
 138              		.cfi_restore 14
 139              		.cfi_restore 7
 140              		.cfi_restore 6
 141              		.cfi_restore 5
 142              		.cfi_restore 4
 143              		.cfi_restore 3
 144              		.cfi_def_cfa_offset 0
 145              	.LVL13:
 146              		.loc 1 121 0
 147 005c FFF7FEBF 		b	TWI_Stop
 148              	.LVL14:
 149              	.L21:
 150              		.cfi_restore_state
 151              		.loc 1 144 0
 152 0060 3046     		mov	r0, r6
 153              	.LVL15:
 154 0062 0121     		movs	r1, #1
 155 0064 FFF7FEFF 		bl	TWI_DisableIt
 156              	.LVL16:
 157              		.loc 1 146 0
 158 0068 6368     		ldr	r3, [r4, #4]
 159              		.loc 1 145 0
 160 006a 2770     		strb	r7, [r4]
 161              		.loc 1 146 0
 162 006c 0BB1     		cbz	r3, .L10
 163              		.loc 1 148 0
 164 006e 2046     		mov	r0, r4
 165 0070 9847     		blx	r3
 166              	.LVL17:
 167              	.L10:
 168              		.loc 1 150 0
 169 0072 0023     		movs	r3, #0
 170 0074 6B60     		str	r3, [r5, #4]
 171 0076 F8BD     		pop	{r3, r4, r5, r6, r7, pc}
ARM GAS  /tmp/ccr64a7H.s 			page 4


 172              	.LVL18:
 173              	.L20:
 174              		.loc 1 130 0
 175 0078 3046     		mov	r0, r6
 176              	.LVL19:
 177 007a 0421     		movs	r1, #4
 178 007c FFF7FEFF 		bl	TWI_DisableIt
 179              	.LVL20:
 180              		.loc 1 131 0
 181 0080 3046     		mov	r0, r6
 182 0082 0121     		movs	r1, #1
 183 0084 FFF7FEFF 		bl	TWI_EnableIt
 184              	.LVL21:
 185              		.loc 1 132 0
 186 0088 3046     		mov	r0, r6
 187              		.loc 1 152 0
 188 008a BDE8F840 		pop	{r3, r4, r5, r6, r7, lr}
 189              		.cfi_remember_state
 190              		.cfi_restore 14
 191              		.cfi_restore 7
 192              		.cfi_restore 6
 193              		.cfi_restore 5
 194              		.cfi_restore 4
 195              		.cfi_restore 3
 196              		.cfi_def_cfa_offset 0
 197              	.LVL22:
 198              		.loc 1 132 0
 199 008e FFF7FEBF 		b	TWI_SendSTOPCondition
 200              	.LVL23:
 201              	.L22:
 202              		.cfi_restore_state
 203              		.loc 1 115 0
 204 0092 3046     		mov	r0, r6
 205 0094 0221     		movs	r1, #2
 206 0096 FFF7FEFF 		bl	TWI_DisableIt
 207              	.LVL24:
 208              		.loc 1 116 0
 209 009a 3046     		mov	r0, r6
 210              		.loc 1 152 0
 211 009c BDE8F840 		pop	{r3, r4, r5, r6, r7, lr}
 212              		.cfi_restore 14
 213              		.cfi_restore 7
 214              		.cfi_restore 6
 215              		.cfi_restore 5
 216              		.cfi_restore 4
 217              		.cfi_restore 3
 218              		.cfi_def_cfa_offset 0
 219              	.LVL25:
 220              		.loc 1 116 0
 221 00a0 0121     		movs	r1, #1
 222 00a2 FFF7FEBF 		b	TWI_EnableIt
 223              	.LVL26:
 224              		.cfi_endproc
 225              	.LFE1:
 226              		.size	TWID_Handler, .-TWID_Handler
 227 00a6 00BF     		.section	.text.TWID_Read,"ax",%progbits
 228              		.align	2
ARM GAS  /tmp/ccr64a7H.s 			page 5


 229              		.p2align 4,,15
 230              		.global	TWID_Read
 231              		.thumb
 232              		.thumb_func
 233              		.type	TWID_Read, %function
 234              	TWID_Read:
 235              	.LFB2:
 236              		.loc 1 174 0
 237              		.cfi_startproc
 238              		@ args = 12, pretend = 0, frame = 0
 239              		@ frame_needed = 0, uses_anonymous_args = 0
 240              	.LVL27:
 241 0000 2DE9F04E 		push	{r4, r5, r6, r7, r9, r10, fp, lr}
 242              		.cfi_def_cfa_offset 32
 243              		.cfi_offset 4, -32
 244              		.cfi_offset 5, -28
 245              		.cfi_offset 6, -24
 246              		.cfi_offset 7, -20
 247              		.cfi_offset 9, -16
 248              		.cfi_offset 10, -12
 249              		.cfi_offset 11, -8
 250              		.cfi_offset 14, -4
 251              		.loc 1 182 0
 252 0004 0C06     		lsls	r4, r1, #24
 253              		.loc 1 174 0
 254 0006 8146     		mov	r9, r0
 255              		.loc 1 179 0
 256 0008 0568     		ldr	r5, [r0]
 257              	.LVL28:
 258              		.loc 1 174 0
 259 000a 0E46     		mov	r6, r1
 260              		.loc 1 180 0
 261 000c 4068     		ldr	r0, [r0, #4]
 262              	.LVL29:
 263              		.loc 1 174 0
 264 000e 099F     		ldr	r7, [sp, #36]
 265              		.loc 1 182 0
 266 0010 6BD4     		bmi	.L45
 267              		.loc 1 183 0
 268 0012 12F07F4F 		tst	r2, #-16777216
 269 0016 9346     		mov	fp, r2
 270 0018 61D1     		bne	.L46
 271              		.loc 1 184 0
 272 001a 032B     		cmp	r3, #3
 273 001c 9A46     		mov	r10, r3
 274 001e 54D8     		bhi	.L47
 275              		.loc 1 187 0
 276 0020 10B1     		cbz	r0, .L48
 277              		.loc 1 188 0
 278 0022 0120     		movs	r0, #1
 279              	.LVL30:
 280 0024 BDE8F08E 		pop	{r4, r5, r6, r7, r9, r10, fp, pc}
 281              	.LVL31:
 282              	.L48:
 283              		.loc 1 192 0
 284 0028 012F     		cmp	r7, #1
 285 002a 3FD0     		beq	.L49
ARM GAS  /tmp/ccr64a7H.s 			page 6


 286              		.loc 1 198 0
 287 002c 0A98     		ldr	r0, [sp, #40]
 288              	.LVL32:
 289 002e B8B1     		cbz	r0, .L50
 290              	.LVL33:
 291              	.L30:
 292              		.loc 1 201 0
 293 0030 0A9A     		ldr	r2, [sp, #40]
 294              		.loc 1 203 0
 295 0032 FF23     		movs	r3, #255
 296              		.loc 1 204 0
 297 0034 1146     		mov	r1, r2
 298              		.loc 1 201 0
 299 0036 C9F80420 		str	r2, [r9, #4]
 300              	.LVL34:
 301              		.loc 1 204 0
 302 003a 089A     		ldr	r2, [sp, #32]
 303              		.loc 1 206 0
 304 003c 0024     		movs	r4, #0
 305              		.loc 1 209 0
 306 003e 2846     		mov	r0, r5
 307              		.loc 1 204 0
 308 0040 8A60     		str	r2, [r1, #8]
 309              		.loc 1 205 0
 310 0042 CF60     		str	r7, [r1, #12]
 311              		.loc 1 203 0
 312 0044 0B70     		strb	r3, [r1]
 313              		.loc 1 206 0
 314 0046 0C61     		str	r4, [r1, #16]
 315              		.loc 1 209 0
 316 0048 0221     		movs	r1, #2
 317              	.LVL35:
 318 004a FFF7FEFF 		bl	TWI_EnableIt
 319              	.LVL36:
 320              		.loc 1 210 0
 321 004e 2846     		mov	r0, r5
 322 0050 3146     		mov	r1, r6
 323 0052 5A46     		mov	r2, fp
 324 0054 5346     		mov	r3, r10
 325 0056 FFF7FEFF 		bl	TWI_StartRead
 326              	.LVL37:
 327              		.loc 1 239 0
 328 005a 2046     		mov	r0, r4
 329 005c BDE8F08E 		pop	{r4, r5, r6, r7, r9, r10, fp, pc}
 330              	.LVL38:
 331              	.L50:
 332              		.loc 1 216 0
 333 0060 2846     		mov	r0, r5
 334 0062 FFF7FEFF 		bl	TWI_StartRead
 335              	.LVL39:
 336              		.loc 1 219 0
 337 0066 A7B1     		cbz	r7, .L37
 338              	.L36:
 339              		.loc 1 222 0
 340 0068 012F     		cmp	r7, #1
 341 006a 34D0     		beq	.L51
 342              	.L33:
ARM GAS  /tmp/ccr64a7H.s 			page 7


 343              		.loc 1 174 0 discriminator 2
 344 006c 4CF25034 		movw	r4, #50000
 345 0070 01E0     		b	.L35
 346              	.LVL40:
 347              	.L52:
 348              		.loc 1 229 0 discriminator 1
 349 0072 013C     		subs	r4, r4, #1
 350              	.LVL41:
 351 0074 04D0     		beq	.L34
 352              	.LVL42:
 353              	.L35:
 354              		.loc 1 229 0 is_stmt 0 discriminator 2
 355 0076 2846     		mov	r0, r5
 356 0078 FFF7FEFF 		bl	TWI_ByteReceived
 357              	.LVL43:
 358 007c 0028     		cmp	r0, #0
 359 007e F8D0     		beq	.L52
 360              	.LVL44:
 361              	.L34:
 362              		.loc 1 230 0 is_stmt 1
 363 0080 2846     		mov	r0, r5
 364 0082 FFF7FEFF 		bl	TWI_ReadByte
 365              	.LVL45:
 366 0086 089B     		ldr	r3, [sp, #32]
 367              		.loc 1 219 0
 368 0088 013F     		subs	r7, r7, #1
 369              	.LVL46:
 370              		.loc 1 230 0
 371 008a 03F8010B 		strb	r0, [r3], #1
 372 008e 0893     		str	r3, [sp, #32]
 373              	.LVL47:
 374              		.loc 1 219 0
 375 0090 EAD1     		bne	.L36
 376              	.LVL48:
 377              	.L37:
 378              		.loc 1 174 0
 379 0092 4CF25034 		movw	r4, #50000
 380 0096 01E0     		b	.L32
 381              	.LVL49:
 382              	.L54:
 383              		.loc 1 236 0 discriminator 1
 384 0098 013C     		subs	r4, r4, #1
 385              	.LVL50:
 386 009a 14D0     		beq	.L53
 387              	.LVL51:
 388              	.L32:
 389              		.loc 1 236 0 is_stmt 0 discriminator 2
 390 009c 2846     		mov	r0, r5
 391 009e FFF7FEFF 		bl	TWI_TransferComplete
 392              	.LVL52:
 393 00a2 0028     		cmp	r0, #0
 394 00a4 F8D0     		beq	.L54
 395              		.loc 1 239 0 is_stmt 1
 396 00a6 0020     		movs	r0, #0
 397 00a8 BDE8F08E 		pop	{r4, r5, r6, r7, r9, r10, fp, pc}
 398              	.LVL53:
 399              	.L49:
ARM GAS  /tmp/ccr64a7H.s 			page 8


 400              		.loc 1 194 0
 401 00ac 2846     		mov	r0, r5
 402              	.LVL54:
 403 00ae FFF7FEFF 		bl	TWI_Stop
 404              	.LVL55:
 405              		.loc 1 198 0
 406 00b2 0A9B     		ldr	r3, [sp, #40]
 407 00b4 002B     		cmp	r3, #0
 408 00b6 BBD1     		bne	.L30
 409              		.loc 1 216 0
 410 00b8 3146     		mov	r1, r6
 411 00ba 5A46     		mov	r2, fp
 412 00bc 5346     		mov	r3, r10
 413 00be 2846     		mov	r0, r5
 414 00c0 FFF7FEFF 		bl	TWI_StartRead
 415              	.LVL56:
 416 00c4 D0E7     		b	.L36
 417              	.LVL57:
 418              	.L53:
 419 00c6 BDE8F08E 		pop	{r4, r5, r6, r7, r9, r10, fp, pc}
 420              	.LVL58:
 421              	.L47:
 422              		.loc 1 184 0 discriminator 1
 423 00ca 0B48     		ldr	r0, .L55
 424              	.LVL59:
 425 00cc B821     		movs	r1, #184
 426              	.LVL60:
 427 00ce 0B4A     		ldr	r2, .L55+4
 428              	.LVL61:
 429 00d0 0B4B     		ldr	r3, .L55+8
 430              	.LVL62:
 431 00d2 FFF7FEFF 		bl	__assert_func
 432              	.LVL63:
 433              	.L51:
 434              		.loc 1 224 0
 435 00d6 2846     		mov	r0, r5
 436 00d8 FFF7FEFF 		bl	TWI_Stop
 437              	.LVL64:
 438 00dc C6E7     		b	.L33
 439              	.LVL65:
 440              	.L46:
 441              		.loc 1 183 0 discriminator 1
 442 00de 0648     		ldr	r0, .L55
 443              	.LVL66:
 444 00e0 B721     		movs	r1, #183
 445              	.LVL67:
 446 00e2 064A     		ldr	r2, .L55+4
 447              	.LVL68:
 448 00e4 074B     		ldr	r3, .L55+12
 449              	.LVL69:
 450 00e6 FFF7FEFF 		bl	__assert_func
 451              	.LVL70:
 452              	.L45:
 453              		.loc 1 182 0 discriminator 1
 454 00ea 0348     		ldr	r0, .L55
 455              	.LVL71:
 456 00ec B621     		movs	r1, #182
ARM GAS  /tmp/ccr64a7H.s 			page 9


 457              	.LVL72:
 458 00ee 034A     		ldr	r2, .L55+4
 459              	.LVL73:
 460 00f0 054B     		ldr	r3, .L55+16
 461              	.LVL74:
 462 00f2 FFF7FEFF 		bl	__assert_func
 463              	.LVL75:
 464              	.L56:
 465 00f6 00BF     		.align	2
 466              	.L55:
 467 00f8 00000000 		.word	.LC0
 468 00fc 00000000 		.word	.LANCHOR0
 469 0100 6C000000 		.word	.LC3
 470 0104 4C000000 		.word	.LC2
 471 0108 34000000 		.word	.LC1
 472              		.cfi_endproc
 473              	.LFE2:
 474              		.size	TWID_Read, .-TWID_Read
 475              		.section	.text.TWID_Write,"ax",%progbits
 476              		.align	2
 477              		.p2align 4,,15
 478              		.global	TWID_Write
 479              		.thumb
 480              		.thumb_func
 481              		.type	TWID_Write, %function
 482              	TWID_Write:
 483              	.LFB3:
 484              		.loc 1 262 0
 485              		.cfi_startproc
 486              		@ args = 12, pretend = 0, frame = 0
 487              		@ frame_needed = 0, uses_anonymous_args = 0
 488              	.LVL76:
 489 0000 F0B5     		push	{r4, r5, r6, r7, lr}
 490              		.cfi_def_cfa_offset 20
 491              		.cfi_offset 4, -20
 492              		.cfi_offset 5, -16
 493              		.cfi_offset 6, -12
 494              		.cfi_offset 7, -8
 495              		.cfi_offset 14, -4
 496              		.loc 1 267 0
 497 0002 0F06     		lsls	r7, r1, #24
 498              		.loc 1 262 0
 499 0004 83B0     		sub	sp, sp, #12
 500              		.cfi_def_cfa_offset 32
 501              		.loc 1 263 0
 502 0006 0568     		ldr	r5, [r0]
 503              	.LVL77:
 504              		.loc 1 264 0
 505 0008 4468     		ldr	r4, [r0, #4]
 506              	.LVL78:
 507              		.loc 1 262 0
 508 000a 0A9E     		ldr	r6, [sp, #40]
 509              		.loc 1 267 0
 510 000c 54D4     		bmi	.L75
 511              		.loc 1 268 0
 512 000e 12F07F4F 		tst	r2, #-16777216
 513 0012 9646     		mov	lr, r2
ARM GAS  /tmp/ccr64a7H.s 			page 10


 514 0014 49D1     		bne	.L76
 515              		.loc 1 269 0
 516 0016 032B     		cmp	r3, #3
 517 0018 55D8     		bhi	.L77
 518              		.loc 1 272 0
 519 001a 14B1     		cbz	r4, .L78
 520              		.loc 1 274 0
 521 001c 0120     		movs	r0, #1
 522              	.LVL79:
 523              	.L61:
 524              		.loc 1 323 0
 525 001e 03B0     		add	sp, sp, #12
 526              		.cfi_remember_state
 527              		.cfi_def_cfa_offset 20
 528              		@ sp needed
 529 0020 F0BD     		pop	{r4, r5, r6, r7, pc}
 530              	.LVL80:
 531              	.L78:
 532              		.cfi_restore_state
 533              		.loc 1 278 0
 534 0022 BEB1     		cbz	r6, .L62
 535              		.loc 1 281 0
 536 0024 4660     		str	r6, [r0, #4]
 537              	.LVL81:
 538              		.loc 1 284 0
 539 0026 0898     		ldr	r0, [sp, #32]
 540              	.LVL82:
 541              		.loc 1 283 0
 542 0028 4FF0FF0E 		mov	lr, #255
 543              		.loc 1 284 0
 544 002c B060     		str	r0, [r6, #8]
 545              		.loc 1 285 0
 546 002e 0998     		ldr	r0, [sp, #36]
 547              		.loc 1 286 0
 548 0030 0127     		movs	r7, #1
 549              		.loc 1 285 0
 550 0032 F060     		str	r0, [r6, #12]
 551              		.loc 1 289 0
 552 0034 0898     		ldr	r0, [sp, #32]
 553              		.loc 1 283 0
 554 0036 86F800E0 		strb	lr, [r6]
 555              		.loc 1 286 0
 556 003a 3761     		str	r7, [r6, #16]
 557              		.loc 1 289 0
 558 003c 0678     		ldrb	r6, [r0]	@ zero_extendqisi2
 559              	.LVL83:
 560 003e 2846     		mov	r0, r5
 561 0040 0096     		str	r6, [sp]
 562 0042 FFF7FEFF 		bl	TWI_StartWrite
 563              	.LVL84:
 564              		.loc 1 290 0
 565 0046 2846     		mov	r0, r5
 566 0048 0421     		movs	r1, #4
 567 004a FFF7FEFF 		bl	TWI_EnableIt
 568              	.LVL85:
 569              		.loc 1 322 0
 570 004e 2046     		mov	r0, r4
ARM GAS  /tmp/ccr64a7H.s 			page 11


 571              		.loc 1 323 0
 572 0050 03B0     		add	sp, sp, #12
 573              		.cfi_remember_state
 574              		.cfi_def_cfa_offset 20
 575              		@ sp needed
 576 0052 F0BD     		pop	{r4, r5, r6, r7, pc}
 577              	.LVL86:
 578              	.L62:
 579              		.cfi_restore_state
 580              		.loc 1 296 0
 581 0054 0898     		ldr	r0, [sp, #32]
 582              	.LVL87:
 583 0056 0478     		ldrb	r4, [r0]	@ zero_extendqisi2
 584              	.LVL88:
 585 0058 2846     		mov	r0, r5
 586 005a 0094     		str	r4, [sp]
 587              	.LVL89:
 588 005c 089C     		ldr	r4, [sp, #32]
 589 005e FFF7FEFF 		bl	TWI_StartWrite
 590              	.LVL90:
 591              		.loc 1 300 0
 592 0062 099B     		ldr	r3, [sp, #36]
 593              		.loc 1 296 0
 594 0064 661C     		adds	r6, r4, #1
 595              	.LVL91:
 596              		.loc 1 300 0
 597 0066 5F1E     		subs	r7, r3, #1
 598              	.LVL92:
 599 0068 10D0     		beq	.L68
 600              	.L67:
 601              		.loc 1 262 0 discriminator 2
 602 006a 4CF25034 		movw	r4, #50000
 603 006e 01E0     		b	.L66
 604              	.LVL93:
 605              	.L79:
 606              		.loc 1 304 0 discriminator 1
 607 0070 013C     		subs	r4, r4, #1
 608              	.LVL94:
 609 0072 04D0     		beq	.L65
 610              	.LVL95:
 611              	.L66:
 612              		.loc 1 304 0 is_stmt 0 discriminator 2
 613 0074 2846     		mov	r0, r5
 614 0076 FFF7FEFF 		bl	TWI_ByteSent
 615              	.LVL96:
 616 007a 0028     		cmp	r0, #0
 617 007c F8D0     		beq	.L79
 618              	.LVL97:
 619              	.L65:
 620              		.loc 1 307 0 is_stmt 1
 621 007e 2846     		mov	r0, r5
 622 0080 16F8011B 		ldrb	r1, [r6], #1	@ zero_extendqisi2
 623              	.LVL98:
 624 0084 FFF7FEFF 		bl	TWI_WriteByte
 625              	.LVL99:
 626              		.loc 1 300 0
 627 0088 013F     		subs	r7, r7, #1
ARM GAS  /tmp/ccr64a7H.s 			page 12


 628              	.LVL100:
 629 008a EED1     		bne	.L67
 630              	.L68:
 631              	.LVL101:
 632              		.loc 1 315 0
 633 008c 2846     		mov	r0, r5
 634 008e FFF7FEFF 		bl	TWI_SendSTOPCondition
 635              	.LVL102:
 636              		.loc 1 317 0
 637 0092 4CF25034 		movw	r4, #50000
 638 0096 01E0     		b	.L64
 639              	.LVL103:
 640              	.L80:
 641              		.loc 1 317 0 is_stmt 0 discriminator 1
 642 0098 013C     		subs	r4, r4, #1
 643              	.LVL104:
 644 009a C0D0     		beq	.L61
 645              	.LVL105:
 646              	.L64:
 647              		.loc 1 317 0 discriminator 2
 648 009c 2846     		mov	r0, r5
 649 009e FFF7FEFF 		bl	TWI_TransferComplete
 650              	.LVL106:
 651 00a2 0028     		cmp	r0, #0
 652 00a4 F8D0     		beq	.L80
 653              		.loc 1 322 0 is_stmt 1
 654 00a6 0020     		movs	r0, #0
 655 00a8 B9E7     		b	.L61
 656              	.LVL107:
 657              	.L76:
 658              		.loc 1 268 0 discriminator 1
 659 00aa 0A48     		ldr	r0, .L81
 660              	.LVL108:
 661 00ac 4FF48671 		mov	r1, #268
 662              	.LVL109:
 663 00b0 094A     		ldr	r2, .L81+4
 664              	.LVL110:
 665 00b2 0A4B     		ldr	r3, .L81+8
 666              	.LVL111:
 667 00b4 FFF7FEFF 		bl	__assert_func
 668              	.LVL112:
 669              	.L75:
 670              		.loc 1 267 0 discriminator 1
 671 00b8 0648     		ldr	r0, .L81
 672              	.LVL113:
 673 00ba 40F20B11 		movw	r1, #267
 674              	.LVL114:
 675 00be 064A     		ldr	r2, .L81+4
 676              	.LVL115:
 677 00c0 074B     		ldr	r3, .L81+12
 678              	.LVL116:
 679 00c2 FFF7FEFF 		bl	__assert_func
 680              	.LVL117:
 681              	.L77:
 682              		.loc 1 269 0 discriminator 1
 683 00c6 0348     		ldr	r0, .L81
 684              	.LVL118:
ARM GAS  /tmp/ccr64a7H.s 			page 13


 685 00c8 40F20D11 		movw	r1, #269
 686              	.LVL119:
 687 00cc 024A     		ldr	r2, .L81+4
 688              	.LVL120:
 689 00ce 054B     		ldr	r3, .L81+16
 690              	.LVL121:
 691 00d0 FFF7FEFF 		bl	__assert_func
 692              	.LVL122:
 693              	.L82:
 694              		.align	2
 695              	.L81:
 696 00d4 00000000 		.word	.LC0
 697 00d8 00000000 		.word	.LANCHOR1
 698 00dc 4C000000 		.word	.LC2
 699 00e0 34000000 		.word	.LC1
 700 00e4 6C000000 		.word	.LC3
 701              		.cfi_endproc
 702              	.LFE3:
 703              		.size	TWID_Write, .-TWID_Write
 704              		.section	.rodata.__func__.4895,"a",%progbits
 705              		.align	2
 706              		.set	.LANCHOR0,. + 0
 707              		.type	__func__.4895, %object
 708              		.size	__func__.4895, 10
 709              	__func__.4895:
 710 0000 54574944 		.ascii	"TWID_Read\000"
 710      5F526561 
 710      6400
 711              		.section	.rodata.str1.4,"aMS",%progbits,1
 712              		.align	2
 713              	.LC0:
 714 0000 43686962 		.ascii	"ChibiOS//os/hal/platforms/AT91SAM3S/atmel_twid.c\000"
 714      694F532F 
 714      2F6F732F 
 714      68616C2F 
 714      706C6174 
 715 0031 000000   		.space	3
 716              	.LC1:
 717 0034 28616464 		.ascii	"(address & 0x80) == 0\000"
 717      72657373 
 717      20262030 
 717      78383029 
 717      203D3D20 
 718 004a 0000     		.space	2
 719              	.LC2:
 720 004c 28696164 		.ascii	"(iaddress & 0xFF000000) == 0\000"
 720      64726573 
 720      73202620 
 720      30784646 
 720      30303030 
 721 0069 000000   		.space	3
 722              	.LC3:
 723 006c 6973697A 		.ascii	"isize < 4\000"
 723      65203C20 
 723      3400
 724              		.section	.rodata.__func__.4917,"a",%progbits
 725              		.align	2
ARM GAS  /tmp/ccr64a7H.s 			page 14


 726              		.set	.LANCHOR1,. + 0
 727              		.type	__func__.4917, %object
 728              		.size	__func__.4917, 11
 729              	__func__.4917:
 730 0000 54574944 		.ascii	"TWID_Write\000"
 730      5F577269 
 730      746500
 731              		.text
 732              	.Letext0:
 733              		.file 2 "/usr/include/newlib/machine/_default_types.h"
 734              		.file 3 "/usr/include/newlib/sys/_stdint.h"
 735              		.file 4 "ChibiOS//os/hal/platforms/AT91SAM3S/SAM3S.h"
 736              		.file 5 "ChibiOS//os/hal/platforms/AT91SAM3S/async.h"
 737              		.file 6 "ChibiOS//os/hal/platforms/AT91SAM3S/atmel_twid.h"
 738              		.file 7 "ChibiOS//os/hal/platforms/AT91SAM3S/atmel_twi.h"
 739              		.file 8 "/usr/include/newlib/assert.h"