ARM GAS  /tmp/ccX9t7x3.s 			page 1


   1              		.syntax unified
   2              		.cpu cortex-m3
   3              		.fpu softvfp
   4              		.eabi_attribute 20, 1
   5              		.eabi_attribute 21, 1
   6              		.eabi_attribute 23, 3
   7              		.eabi_attribute 24, 1
   8              		.eabi_attribute 25, 1
   9              		.eabi_attribute 26, 1
  10              		.eabi_attribute 30, 2
  11              		.eabi_attribute 34, 1
  12              		.eabi_attribute 18, 4
  13              		.thumb
  14              		.file	"board.c"
  15              		.text
  16              	.Ltext0:
  17              		.cfi_sections	.debug_frame
  18              		.section	.text.__early_init,"ax",%progbits
  19              		.align	2
  20              		.p2align 4,,15
  21              		.global	__early_init
  22              		.thumb
  23              		.thumb_func
  24              		.type	__early_init, %function
  25              	__early_init:
  26              	.LFB36:
  27              		.file 1 "ChibiOS//boards/ATMEL_SAM3S_EK/board.c"
  28              		.loc 1 50 0
  29              		.cfi_startproc
  30              		@ args = 0, pretend = 0, frame = 0
  31              		@ frame_needed = 0, uses_anonymous_args = 0
  32              		@ link register save eliminated.
  33              		.loc 1 52 0
  34 0000 024B     		ldr	r3, .L2
  35 0002 4FF40042 		mov	r2, #32768
  36 0006 5A60     		str	r2, [r3, #4]
  37              		.loc 1 54 0
  38 0008 FFF7FEBF 		b	at91sam3_clock_init
  39              	.LVL0:
  40              	.L3:
  41              		.align	2
  42              	.L2:
  43 000c 50140E40 		.word	1074664528
  44              		.cfi_endproc
  45              	.LFE36:
  46              		.size	__early_init, .-__early_init
  47              		.section	.text.boardInit,"ax",%progbits
  48              		.align	2
  49              		.p2align 4,,15
  50              		.global	boardInit
  51              		.thumb
  52              		.thumb_func
  53              		.type	boardInit, %function
  54              	boardInit:
  55              	.LFB37:
  56              		.loc 1 61 0
  57              		.cfi_startproc
ARM GAS  /tmp/ccX9t7x3.s 			page 2


  58              		@ args = 0, pretend = 0, frame = 0
  59              		@ frame_needed = 0, uses_anonymous_args = 0
  60 0000 10B5     		push	{r4, lr}
  61              		.cfi_def_cfa_offset 8
  62              		.cfi_offset 4, -8
  63              		.cfi_offset 14, -4
  64              		.loc 1 65 0
  65 0002 144C     		ldr	r4, .L6
  66 0004 4FF40021 		mov	r1, #524288
  67 0008 2163     		str	r1, [r4, #48]
  68              		.loc 1 66 0
  69 000a 2046     		mov	r0, r4
  70 000c 0622     		movs	r2, #6
  71 000e FFF7FEFF 		bl	_pal_lld_setgroupmode
  72              	.LVL1:
  73              		.loc 1 68 0
  74 0012 4FF48013 		mov	r3, #1048576
  75 0016 2363     		str	r3, [r4, #48]
  76              		.loc 1 69 0
  77 0018 2046     		mov	r0, r4
  78 001a 4FF00041 		mov	r1, #-2147483648
  79 001e 0622     		movs	r2, #6
  80 0020 FFF7FEFF 		bl	_pal_lld_setgroupmode
  81              	.LVL2:
  82              		.loc 1 71 0
  83 0024 4FF40031 		mov	r1, #131072
  84 0028 C4F83414 		str	r1, [r4, #1076]
  85 002c 04F58064 		add	r4, r4, #1024
  86              		.loc 1 72 0
  87 0030 2046     		mov	r0, r4
  88 0032 0622     		movs	r2, #6
  89 0034 FFF7FEFF 		bl	_pal_lld_setgroupmode
  90              	.LVL3:
  91              		.loc 1 77 0
  92 0038 0748     		ldr	r0, .L6+4
  93 003a 0821     		movs	r1, #8
  94 003c 0322     		movs	r2, #3
  95 003e FFF7FEFF 		bl	_pal_lld_setgroupmode
  96              	.LVL4:
  97              		.loc 1 78 0
  98 0042 2046     		mov	r0, r4
  99              		.loc 1 79 0
 100 0044 BDE81040 		pop	{r4, lr}
 101              		.cfi_restore 14
 102              		.cfi_restore 4
 103              		.cfi_def_cfa_offset 0
 104              		.loc 1 78 0
 105 0048 4FF48051 		mov	r1, #4096
 106 004c 0322     		movs	r2, #3
 107 004e FFF7FEBF 		b	_pal_lld_setgroupmode
 108              	.LVL5:
 109              	.L7:
 110 0052 00BF     		.align	2
 111              	.L6:
 112 0054 000E0E40 		.word	1074662912
 113 0058 00100E40 		.word	1074663424
 114              		.cfi_endproc
ARM GAS  /tmp/ccX9t7x3.s 			page 3


 115              	.LFE37:
 116              		.size	boardInit, .-boardInit
 117              		.global	pal_default_config
 118              		.section	.rodata.pal_default_config,"a",%progbits
 119              		.align	2
 120              		.type	pal_default_config, %object
 121              		.size	pal_default_config, 36
 122              	pal_default_config:
 123 0000 00000000 		.word	0
 124 0004 00000000 		.word	0
 125 0008 FFFFFFFF 		.word	-1
 126 000c 00000000 		.word	0
 127 0010 00000000 		.word	0
 128 0014 FFFFFFFF 		.word	-1
 129 0018 00000000 		.word	0
 130 001c 00000000 		.word	0
 131 0020 FFFFFFFF 		.word	-1
 132              		.text
 133              	.Letext0:
 134              		.file 2 "/usr/include/newlib/machine/_default_types.h"
 135              		.file 3 "/usr/include/newlib/sys/_stdint.h"
 136              		.file 4 "/usr/include/newlib/stdint.h"
 137              		.file 5 "ChibiOS//os/hal/platforms/AT91SAM3S/at91lib/SAM3S.h"
 138              		.file 6 "ChibiOS//os/hal/platforms/AT91SAM3S/pal_lld.h"
 139              		.file 7 "ChibiOS//os/hal/platforms/AT91SAM3S/core_cm3.h"
 140              		.file 8 "ChibiOS//os/hal/platforms/AT91SAM3S/hal_lld.h"