ARM GAS  /tmp/ccJi4S1o.s 			page 1


   1              		.syntax unified
   2              		.cpu cortex-m3
   3              		.fpu softvfp
   4              		.eabi_attribute 20, 1
   5              		.eabi_attribute 21, 1
   6              		.eabi_attribute 23, 3
   7              		.eabi_attribute 24, 1
   8              		.eabi_attribute 25, 1
   9              		.eabi_attribute 26, 1
  10              		.eabi_attribute 30, 2
  11              		.eabi_attribute 34, 1
  12              		.eabi_attribute 18, 4
  13              		.thumb
  14              		.file	"chcore_v7m.c"
  15              		.text
  16              	.Ltext0:
  17              		.cfi_sections	.debug_frame
  18              		.section	.text._port_switch_from_isr,"ax",%progbits
  19              		.align	2
  20              		.p2align 4,,15
  21              		.global	_port_switch_from_isr
  22              		.thumb
  23              		.thumb_func
  24              		.type	_port_switch_from_isr, %function
  25              	_port_switch_from_isr:
  26              	.LFB11:
  27              		.file 1 "ChibiOS//os/ports/GCC/ARMCMx/chcore_v7m.c"
  28              		.loc 1 207 0
  29              		.cfi_startproc
  30              		@ Naked Function: prologue and epilogue provided by programmer.
  31              		@ args = 0, pretend = 0, frame = 0
  32              		@ frame_needed = 0, uses_anonymous_args = 0
  33              		.loc 1 210 0
  34 0000 FFF7FEFF 		bl	chSchDoReschedule
  35              	.LVL0:
  36              		.loc 1 212 0
  37              	@ 212 "ChibiOS//os/ports/GCC/ARMCMx/chcore_v7m.c" 1
  38              		_port_exit_from_isr:
  39              	@ 0 "" 2
  40              		.loc 1 214 0
  41              	@ 214 "ChibiOS//os/ports/GCC/ARMCMx/chcore_v7m.c" 1
  42 0004 00DF     		svc     #0
  43              	@ 0 "" 2
  44              		.loc 1 221 0
  45              		.thumb
  46              		.cfi_endproc
  47              	.LFE11:
  48              		.size	_port_switch_from_isr, .-_port_switch_from_isr
  49 0006 00BF     		.section	.text.SVCallVector,"ax",%progbits
  50              		.align	2
  51              		.p2align 4,,15
  52              		.global	SVCallVector
  53              		.thumb
  54              		.thumb_func
  55              		.type	SVCallVector, %function
  56              	SVCallVector:
  57              	.LFB8:
ARM GAS  /tmp/ccJi4S1o.s 			page 2


  58              		.loc 1 65 0
  59              		.cfi_startproc
  60              		@ args = 0, pretend = 0, frame = 0
  61              		@ frame_needed = 0, uses_anonymous_args = 0
  62              		@ link register save eliminated.
  63              		.loc 1 69 0
  64              	@ 69 "ChibiOS//os/ports/GCC/ARMCMx/chcore_v7m.c" 1
  65 0000 EFF30983 		mrs     r3, PSP
  66              	@ 0 "" 2
  67              	.LVL1:
  68              		.loc 1 73 0
  69              		.thumb
  70 0004 2033     		adds	r3, r3, #32
  71              	.LVL2:
  72              		.loc 1 80 0
  73              	@ 80 "ChibiOS//os/ports/GCC/ARMCMx/chcore_v7m.c" 1
  74 0006 83F30988 		msr     PSP, r3
  75              	@ 0 "" 2
  76              		.thumb
  77              	.LBB5:
  78              		.loc 1 81 0
  79 000a 0023     		movs	r3, #0
  80              	.LVL3:
  81              	@ 81 "ChibiOS//os/ports/GCC/ARMCMx/chcore_v7m.c" 1
  82 000c 83F31188 		msr     BASEPRI, r3
  83              	@ 0 "" 2
  84              		.thumb
  85 0010 7047     		bx	lr
  86              	.LBE5:
  87              		.cfi_endproc
  88              	.LFE8:
  89              		.size	SVCallVector, .-SVCallVector
  90 0012 00BF     		.section	.text._port_init,"ax",%progbits
  91              		.align	2
  92              		.p2align 4,,15
  93              		.global	_port_init
  94              		.thumb
  95              		.thumb_func
  96              		.type	_port_init, %function
  97              	_port_init:
  98              	.LFB9:
  99              		.loc 1 118 0
 100              		.cfi_startproc
 101              		@ args = 0, pretend = 0, frame = 0
 102              		@ frame_needed = 0, uses_anonymous_args = 0
 103 0000 08B5     		push	{r3, lr}
 104              		.cfi_def_cfa_offset 8
 105              		.cfi_offset 3, -8
 106              		.cfi_offset 14, -4
 107              		.loc 1 122 0
 108 0002 0A4A     		ldr	r2, .L5
 109              		.loc 1 121 0
 110 0004 0A4B     		ldr	r3, .L5+4
 111 0006 0021     		movs	r1, #0
 112 0008 9960     		str	r1, [r3, #8]
 113              		.loc 1 125 0
 114 000a 0720     		movs	r0, #7
ARM GAS  /tmp/ccJi4S1o.s 			page 3


 115              		.loc 1 122 0
 116 000c DA60     		str	r2, [r3, #12]
 117              		.loc 1 125 0
 118 000e 1021     		movs	r1, #16
 119 0010 FFF7FEFF 		bl	nvicSetSystemHandlerPriority
 120              	.LVL4:
 121              		.loc 1 127 0
 122 0014 0A20     		movs	r0, #10
 123 0016 4FF40071 		mov	r1, #512
 124 001a FFF7FEFF 		bl	nvicSetSystemHandlerPriority
 125              	.LVL5:
 126              		.loc 1 131 0
 127 001e BDE80840 		pop	{r3, lr}
 128              		.cfi_restore 14
 129              		.cfi_restore 3
 130              		.cfi_def_cfa_offset 0
 131              		.loc 1 129 0
 132 0022 0B20     		movs	r0, #11
 133 0024 8021     		movs	r1, #128
 134 0026 FFF7FEBF 		b	nvicSetSystemHandlerPriority
 135              	.LVL6:
 136              	.L6:
 137 002a 00BF     		.align	2
 138              	.L5:
 139 002c 0000FA05 		.word	100270080
 140 0030 00ED00E0 		.word	-536810240
 141              		.cfi_endproc
 142              	.LFE9:
 143              		.size	_port_init, .-_port_init
 144              		.section	.text._port_irq_epilogue,"ax",%progbits
 145              		.align	2
 146              		.p2align 4,,15
 147              		.global	_port_irq_epilogue
 148              		.thumb
 149              		.thumb_func
 150              		.type	_port_irq_epilogue, %function
 151              	_port_irq_epilogue:
 152              	.LFB10:
 153              		.loc 1 148 0
 154              		.cfi_startproc
 155              		@ args = 0, pretend = 0, frame = 0
 156              		@ frame_needed = 0, uses_anonymous_args = 0
 157              		@ link register save eliminated.
 158              	.LBB14:
 159              		.loc 1 150 0
 160 0000 2023     		movs	r3, #32
 161              	@ 150 "ChibiOS//os/ports/GCC/ARMCMx/chcore_v7m.c" 1
 162 0002 83F31188 		msr     BASEPRI, r3
 163              	@ 0 "" 2
 164              		.thumb
 165              	.LBE14:
 166              		.loc 1 151 0
 167 0006 174B     		ldr	r3, .L15
 168 0008 5B68     		ldr	r3, [r3, #4]
 169 000a 13F40063 		ands	r3, r3, #2048
 170 000e 19D0     		beq	.L8
 171              	.LBB15:
ARM GAS  /tmp/ccJi4S1o.s 			page 4


 172              	.LBB16:
 173              		.loc 1 155 0
 174              	@ 155 "ChibiOS//os/ports/GCC/ARMCMx/chcore_v7m.c" 1
 175 0010 EFF30983 		mrs     r3, PSP
 176              	@ 0 "" 2
 177              	.LVL7:
 178              		.loc 1 159 0
 179              		.thumb
 180 0014 A3F12002 		sub	r2, r3, #32
 181              	.LVL8:
 182              		.loc 1 160 0
 183              	@ 160 "ChibiOS//os/ports/GCC/ARMCMx/chcore_v7m.c" 1
 184 0018 82F30988 		msr     PSP, r2
 185              	@ 0 "" 2
 186              		.loc 1 165 0
 187              		.thumb
 188 001c 124A     		ldr	r2, .L15+4
 189              	.LVL9:
 190              		.loc 1 161 0
 191 001e 4FF08070 		mov	r0, #16777216
 192              		.loc 1 165 0
 193 0022 9169     		ldr	r1, [r2, #24]
 194              		.loc 1 161 0
 195 0024 43F8040C 		str	r0, [r3, #-4]
 196              		.loc 1 165 0
 197 0028 1068     		ldr	r0, [r2]
 198 002a 71B1     		cbz	r1, .L9
 199 002c D169     		ldr	r1, [r2, #28]
 200 002e 8268     		ldr	r2, [r0, #8]
 201 0030 8968     		ldr	r1, [r1, #8]
 202 0032 8A42     		cmp	r2, r1
 203 0034 94BF     		ite	ls
 204 0036 0022     		movls	r2, #0
 205 0038 0122     		movhi	r2, #1
 206 003a 7AB1     		cbz	r2, .L11
 207              	.L14:
 208              		.loc 1 167 0
 209 003c 0B4A     		ldr	r2, .L15+8
 210 003e 43F8082C 		str	r2, [r3, #-8]
 211 0042 7047     		bx	lr
 212              	.LVL10:
 213              	.L8:
 214              	.LBE16:
 215              	.LBE15:
 216              	.LBB18:
 217              		.loc 1 197 0
 218              	@ 197 "ChibiOS//os/ports/GCC/ARMCMx/chcore_v7m.c" 1
 219 0044 83F31188 		msr     BASEPRI, r3
 220              	@ 0 "" 2
 221              		.thumb
 222 0048 7047     		bx	lr
 223              	.LVL11:
 224              	.L9:
 225              	.LBE18:
 226              	.LBB19:
 227              	.LBB17:
 228              		.loc 1 165 0
ARM GAS  /tmp/ccJi4S1o.s 			page 5


 229 004a D169     		ldr	r1, [r2, #28]
 230 004c 8268     		ldr	r2, [r0, #8]
 231 004e 8968     		ldr	r1, [r1, #8]
 232 0050 8A42     		cmp	r2, r1
 233 0052 34BF     		ite	cc
 234 0054 0022     		movcc	r2, #0
 235 0056 0122     		movcs	r2, #1
 236 0058 002A     		cmp	r2, #0
 237 005a EFD1     		bne	.L14
 238              	.L11:
 239              		.loc 1 176 0
 240 005c 044A     		ldr	r2, .L15+12
 241 005e 43F8082C 		str	r2, [r3, #-8]
 242 0062 7047     		bx	lr
 243              	.L16:
 244              		.align	2
 245              	.L15:
 246 0064 00ED00E0 		.word	-536810240
 247 0068 00000000 		.word	rlist
 248 006c 00000000 		.word	_port_switch_from_isr
 249 0070 04000000 		.word	_port_exit_from_isr
 250              	.LBE17:
 251              	.LBE19:
 252              		.cfi_endproc
 253              	.LFE10:
 254              		.size	_port_irq_epilogue, .-_port_irq_epilogue
 255              		.section	.text.SysTickVector,"ax",%progbits
 256              		.align	2
 257              		.p2align 4,,15
 258              		.global	SysTickVector
 259              		.thumb
 260              		.thumb_func
 261              		.type	SysTickVector, %function
 262              	SysTickVector:
 263              	.LFB7:
 264              		.loc 1 47 0
 265              		.cfi_startproc
 266              		@ args = 0, pretend = 0, frame = 0
 267              		@ frame_needed = 0, uses_anonymous_args = 0
 268 0000 08B5     		push	{r3, lr}
 269              		.cfi_def_cfa_offset 8
 270              		.cfi_offset 3, -8
 271              		.cfi_offset 14, -4
 272              	.LBB20:
 273              		.loc 1 51 0
 274 0002 2023     		movs	r3, #32
 275              	@ 51 "ChibiOS//os/ports/GCC/ARMCMx/chcore_v7m.c" 1
 276 0004 83F31188 		msr     BASEPRI, r3
 277              	@ 0 "" 2
 278              		.thumb
 279              	.LBE20:
 280              		.loc 1 52 0
 281 0008 FFF7FEFF 		bl	chSysTimerHandlerI
 282              	.LVL12:
 283              	.LBB21:
 284              		.loc 1 53 0
 285 000c 0023     		movs	r3, #0
ARM GAS  /tmp/ccJi4S1o.s 			page 6


 286              	@ 53 "ChibiOS//os/ports/GCC/ARMCMx/chcore_v7m.c" 1
 287 000e 83F31188 		msr     BASEPRI, r3
 288              	@ 0 "" 2
 289              		.thumb
 290              	.LBE21:
 291              		.loc 1 56 0
 292 0012 BDE80840 		pop	{r3, lr}
 293              		.cfi_restore 14
 294              		.cfi_restore 3
 295              		.cfi_def_cfa_offset 0
 296              		.loc 1 55 0
 297 0016 FFF7FEBF 		b	_port_irq_epilogue
 298              	.LVL13:
 299              		.cfi_endproc
 300              	.LFE7:
 301              		.size	SysTickVector, .-SysTickVector
 302 001a 00BF     		.section	.text._port_switch,"ax",%progbits
 303              		.align	2
 304              		.p2align 4,,15
 305              		.global	_port_switch
 306              		.thumb
 307              		.thumb_func
 308              		.type	_port_switch, %function
 309              	_port_switch:
 310              	.LFB12:
 311              		.loc 1 236 0
 312              		.cfi_startproc
 313              		@ Naked Function: prologue and epilogue provided by programmer.
 314              		@ args = 0, pretend = 0, frame = 0
 315              		@ frame_needed = 0, uses_anonymous_args = 0
 316              	.LVL14:
 317              		.loc 1 238 0
 318              	@ 238 "ChibiOS//os/ports/GCC/ARMCMx/chcore_v7m.c" 1
 319 0000 2DE9F04F 		push    {r4, r5, r6, r7, r8, r9, r10, r11, lr}
 320              	@ 0 "" 2
 321              		.loc 1 244 0
 322              	@ 244 "ChibiOS//os/ports/GCC/ARMCMx/chcore_v7m.c" 1
 323 0004 C1F80CD0 		str     sp, [r1, #12]                          
 324 0008 D0F80CD0 		ldr     sp, [r0, #12]
 325              	@ 0 "" 2
 326              		.loc 1 250 0
 327              	@ 250 "ChibiOS//os/ports/GCC/ARMCMx/chcore_v7m.c" 1
 328 000c BDE8F08F 		pop     {r4, r5, r6, r7, r8, r9, r10, r11, pc}
 329              	@ 0 "" 2
 330              		.loc 1 252 0
 331              		.thumb
 332              		.cfi_endproc
 333              	.LFE12:
 334              		.size	_port_switch, .-_port_switch
 335              		.section	.text._port_thread_start,"ax",%progbits
 336              		.align	2
 337              		.p2align 4,,15
 338              		.global	_port_thread_start
 339              		.thumb
 340              		.thumb_func
 341              		.type	_port_thread_start, %function
 342              	_port_thread_start:
ARM GAS  /tmp/ccJi4S1o.s 			page 7


 343              	.LFB13:
 344              		.loc 1 259 0
 345              		.cfi_startproc
 346              		@ args = 0, pretend = 0, frame = 0
 347              		@ frame_needed = 0, uses_anonymous_args = 0
 348              		@ link register save eliminated.
 349              	.LBB22:
 350              		.loc 1 261 0
 351 0000 0023     		movs	r3, #0
 352              	@ 261 "ChibiOS//os/ports/GCC/ARMCMx/chcore_v7m.c" 1
 353 0002 83F31188 		msr     BASEPRI, r3
 354              	@ 0 "" 2
 355              		.thumb
 356              	.LBE22:
 357              		.loc 1 262 0
 358              	@ 262 "ChibiOS//os/ports/GCC/ARMCMx/chcore_v7m.c" 1
 359 0006 2846     		mov     r0, r5                                 
 360 0008 A047     		blx     r4                                     
 361 000a FFF7FEFF 		bl      chThdExit
 362              	@ 0 "" 2
 363              		.thumb
 364 000e 7047     		bx	lr
 365              		.cfi_endproc
 366              	.LFE13:
 367              		.size	_port_thread_start, .-_port_thread_start
 368              		.text
 369              	.Letext0:
 370              		.file 2 "/usr/include/newlib/machine/_default_types.h"
 371              		.file 3 "/usr/include/newlib/sys/_stdint.h"
 372              		.file 4 "ChibiOS//os/ports/GCC/ARMCMx/chtypes.h"
 373              		.file 5 "ChibiOS//os/kernel/include/chlists.h"
 374              		.file 6 "ChibiOS//os/kernel/include/chthreads.h"
 375              		.file 7 "ChibiOS//os/ports/GCC/ARMCMx/chcore_v7m.h"
 376              		.file 8 "ChibiOS//os/ports/common/ARMCMx/nvic.h"
 377              		.file 9 "ChibiOS//os/kernel/include/chschd.h"
 378              		.file 10 "ChibiOS//os/kernel/include/chmtx.h"
 379              		.file 11 "ChibiOS//os/kernel/include/chsys.h"