ARM GAS  /tmp/ccyqvzbq.s 			page 1


   1              		.syntax unified
   2              		.cpu cortex-m3
   3              		.fpu softvfp
   4              		.eabi_attribute 20, 1
   5              		.eabi_attribute 21, 1
   6              		.eabi_attribute 23, 3
   7              		.eabi_attribute 24, 1
   8              		.eabi_attribute 25, 1
   9              		.eabi_attribute 26, 1
  10              		.eabi_attribute 30, 2
  11              		.eabi_attribute 34, 1
  12              		.eabi_attribute 18, 4
  13              		.thumb
  14              		.file	"chcond.c"
  15              		.text
  16              	.Ltext0:
  17              		.cfi_sections	.debug_frame
  18              		.section	.text.chCondInit,"ax",%progbits
  19              		.align	2
  20              		.p2align 4,,15
  21              		.global	chCondInit
  22              		.thumb
  23              		.thumb_func
  24              		.type	chCondInit, %function
  25              	chCondInit:
  26              	.LFB7:
  27              		.file 1 "ChibiOS//os/kernel/src/chcond.c"
  28              		.loc 1 59 0
  29              		.cfi_startproc
  30              		@ args = 0, pretend = 0, frame = 0
  31              		@ frame_needed = 0, uses_anonymous_args = 0
  32              		@ link register save eliminated.
  33              	.LVL0:
  34              		.loc 1 63 0
  35 0000 4060     		str	r0, [r0, #4]
  36 0002 0060     		str	r0, [r0]
  37 0004 7047     		bx	lr
  38              		.cfi_endproc
  39              	.LFE7:
  40              		.size	chCondInit, .-chCondInit
  41 0006 00BF     		.section	.text.chCondSignal,"ax",%progbits
  42              		.align	2
  43              		.p2align 4,,15
  44              		.global	chCondSignal
  45              		.thumb
  46              		.thumb_func
  47              		.type	chCondSignal, %function
  48              	chCondSignal:
  49              	.LFB8:
  50              		.loc 1 73 0
  51              		.cfi_startproc
  52              		@ args = 0, pretend = 0, frame = 0
  53              		@ frame_needed = 0, uses_anonymous_args = 0
  54              	.LVL1:
  55              	.LBB14:
  56              		.loc 1 77 0
  57 0000 2023     		movs	r3, #32
ARM GAS  /tmp/ccyqvzbq.s 			page 2


  58              	@ 77 "ChibiOS//os/kernel/src/chcond.c" 1
  59 0002 83F31188 		msr     BASEPRI, r3
  60              	@ 0 "" 2
  61              		.thumb
  62              	.LBE14:
  63              		.loc 1 78 0
  64 0006 0268     		ldr	r2, [r0]
  65 0008 8242     		cmp	r2, r0
  66 000a 0CD0     		beq	.L5
  67 000c 0346     		mov	r3, r0
  68              	.LVL2:
  69              		.loc 1 73 0
  70 000e 10B5     		push	{r4, lr}
  71              		.cfi_def_cfa_offset 8
  72              		.cfi_offset 4, -8
  73              		.cfi_offset 14, -4
  74              	.LBB15:
  75              	.LBB16:
  76              		.file 2 "ChibiOS//os/kernel/include/chinline.h"
  77              		.loc 2 62 0
  78 0010 1468     		ldr	r4, [r2]
  79              	.LBE16:
  80              	.LBE15:
  81              		.loc 1 79 0
  82 0012 1046     		mov	r0, r2
  83              	.LVL3:
  84              	.LBB19:
  85              	.LBB17:
  86              		.loc 2 62 0
  87 0014 1C60     		str	r4, [r3]
  88              	.LBE17:
  89              	.LBE19:
  90              		.loc 1 79 0
  91 0016 0021     		movs	r1, #0
  92              	.LBB20:
  93              	.LBB18:
  94              		.loc 2 62 0
  95 0018 6360     		str	r3, [r4, #4]
  96              	.LBE18:
  97              	.LBE20:
  98              		.loc 1 79 0
  99 001a FFF7FEFF 		bl	chSchWakeupS
 100              	.LVL4:
 101              	.LBB21:
 102              		.loc 1 80 0
 103 001e 0023     		movs	r3, #0
 104              	@ 80 "ChibiOS//os/kernel/src/chcond.c" 1
 105 0020 83F31188 		msr     BASEPRI, r3
 106              	@ 0 "" 2
 107              		.thumb
 108 0024 10BD     		pop	{r4, pc}
 109              	.LVL5:
 110              	.L5:
 111              		.cfi_def_cfa_offset 0
 112              		.cfi_restore 4
 113              		.cfi_restore 14
 114 0026 0023     		movs	r3, #0
ARM GAS  /tmp/ccyqvzbq.s 			page 3


 115              	@ 80 "ChibiOS//os/kernel/src/chcond.c" 1
 116 0028 83F31188 		msr     BASEPRI, r3
 117              	@ 0 "" 2
 118              		.thumb
 119 002c 7047     		bx	lr
 120              	.LBE21:
 121              		.cfi_endproc
 122              	.LFE8:
 123              		.size	chCondSignal, .-chCondSignal
 124 002e 00BF     		.section	.text.chCondSignalI,"ax",%progbits
 125              		.align	2
 126              		.p2align 4,,15
 127              		.global	chCondSignalI
 128              		.thumb
 129              		.thumb_func
 130              		.type	chCondSignalI, %function
 131              	chCondSignalI:
 132              	.LFB9:
 133              		.loc 1 94 0
 134              		.cfi_startproc
 135              		@ args = 0, pretend = 0, frame = 0
 136              		@ frame_needed = 0, uses_anonymous_args = 0
 137              	.LVL6:
 138              		.loc 1 99 0
 139 0000 0268     		ldr	r2, [r0]
 140 0002 8242     		cmp	r2, r0
 141 0004 0AD0     		beq	.L10
 142              		.loc 1 94 0
 143 0006 08B5     		push	{r3, lr}
 144              		.cfi_def_cfa_offset 8
 145              		.cfi_offset 3, -8
 146              		.cfi_offset 14, -4
 147 0008 0346     		mov	r3, r0
 148              	.LVL7:
 149              	.LBB22:
 150              	.LBB23:
 151              		.loc 2 62 0
 152 000a 1168     		ldr	r1, [r2]
 153              	.LBE23:
 154              	.LBE22:
 155              		.loc 1 100 0
 156 000c 1046     		mov	r0, r2
 157              	.LVL8:
 158              	.LBB25:
 159              	.LBB24:
 160              		.loc 2 62 0
 161 000e 1960     		str	r1, [r3]
 162 0010 4B60     		str	r3, [r1, #4]
 163              	.LBE24:
 164              	.LBE25:
 165              		.loc 1 100 0
 166 0012 FFF7FEFF 		bl	chSchReadyI
 167              	.LVL9:
 168 0016 0023     		movs	r3, #0
 169 0018 4362     		str	r3, [r0, #36]
 170 001a 08BD     		pop	{r3, pc}
 171              	.LVL10:
ARM GAS  /tmp/ccyqvzbq.s 			page 4


 172              	.L10:
 173              		.cfi_def_cfa_offset 0
 174              		.cfi_restore 3
 175              		.cfi_restore 14
 176 001c 7047     		bx	lr
 177              		.cfi_endproc
 178              	.LFE9:
 179              		.size	chCondSignalI, .-chCondSignalI
 180 001e 00BF     		.section	.text.chCondBroadcastI,"ax",%progbits
 181              		.align	2
 182              		.p2align 4,,15
 183              		.global	chCondBroadcastI
 184              		.thumb
 185              		.thumb_func
 186              		.type	chCondBroadcastI, %function
 187              	chCondBroadcastI:
 188              	.LFB11:
 189              		.loc 1 129 0
 190              		.cfi_startproc
 191              		@ args = 0, pretend = 0, frame = 0
 192              		@ frame_needed = 0, uses_anonymous_args = 0
 193              	.LVL11:
 194 0000 38B5     		push	{r3, r4, r5, lr}
 195              		.cfi_def_cfa_offset 16
 196              		.cfi_offset 3, -16
 197              		.cfi_offset 4, -12
 198              		.cfi_offset 5, -8
 199              		.cfi_offset 14, -4
 200              		.loc 1 129 0
 201 0002 0446     		mov	r4, r0
 202              		.loc 1 137 0
 203 0004 0068     		ldr	r0, [r0]
 204              	.LVL12:
 205 0006 A042     		cmp	r0, r4
 206 0008 0AD0     		beq	.L11
 207              		.loc 1 138 0
 208 000a 6FF00105 		mvn	r5, #1
 209              	.L13:
 210              	.LVL13:
 211              	.LBB26:
 212              	.LBB27:
 213              		.loc 2 62 0
 214 000e 0368     		ldr	r3, [r0]
 215 0010 2360     		str	r3, [r4]
 216 0012 5C60     		str	r4, [r3, #4]
 217              	.LBE27:
 218              	.LBE26:
 219              		.loc 1 138 0
 220 0014 FFF7FEFF 		bl	chSchReadyI
 221              	.LVL14:
 222 0018 4562     		str	r5, [r0, #36]
 223              		.loc 1 137 0
 224 001a 2068     		ldr	r0, [r4]
 225 001c A042     		cmp	r0, r4
 226 001e F6D1     		bne	.L13
 227              	.LVL15:
 228              	.L11:
ARM GAS  /tmp/ccyqvzbq.s 			page 5


 229 0020 38BD     		pop	{r3, r4, r5, pc}
 230              		.cfi_endproc
 231              	.LFE11:
 232              		.size	chCondBroadcastI, .-chCondBroadcastI
 233 0022 00BF     		.section	.text.chCondBroadcast,"ax",%progbits
 234              		.align	2
 235              		.p2align 4,,15
 236              		.global	chCondBroadcast
 237              		.thumb
 238              		.thumb_func
 239              		.type	chCondBroadcast, %function
 240              	chCondBroadcast:
 241              	.LFB10:
 242              		.loc 1 110 0
 243              		.cfi_startproc
 244              		@ args = 0, pretend = 0, frame = 0
 245              		@ frame_needed = 0, uses_anonymous_args = 0
 246              	.LVL16:
 247 0000 08B5     		push	{r3, lr}
 248              		.cfi_def_cfa_offset 8
 249              		.cfi_offset 3, -8
 250              		.cfi_offset 14, -4
 251              	.LBB28:
 252              		.loc 1 112 0
 253 0002 2023     		movs	r3, #32
 254              	@ 112 "ChibiOS//os/kernel/src/chcond.c" 1
 255 0004 83F31188 		msr     BASEPRI, r3
 256              	@ 0 "" 2
 257              		.thumb
 258              	.LBE28:
 259              		.loc 1 113 0
 260 0008 FFF7FEFF 		bl	chCondBroadcastI
 261              	.LVL17:
 262              		.loc 1 114 0
 263 000c FFF7FEFF 		bl	chSchRescheduleS
 264              	.LVL18:
 265              	.LBB29:
 266              		.loc 1 115 0
 267 0010 0023     		movs	r3, #0
 268              	@ 115 "ChibiOS//os/kernel/src/chcond.c" 1
 269 0012 83F31188 		msr     BASEPRI, r3
 270              	@ 0 "" 2
 271              		.thumb
 272 0016 08BD     		pop	{r3, pc}
 273              	.LBE29:
 274              		.cfi_endproc
 275              	.LFE10:
 276              		.size	chCondBroadcast, .-chCondBroadcast
 277              		.section	.text.chCondWaitS,"ax",%progbits
 278              		.align	2
 279              		.p2align 4,,15
 280              		.global	chCondWaitS
 281              		.thumb
 282              		.thumb_func
 283              		.type	chCondWaitS, %function
 284              	chCondWaitS:
 285              	.LFB13:
ARM GAS  /tmp/ccyqvzbq.s 			page 6


 286              		.loc 1 184 0
 287              		.cfi_startproc
 288              		@ args = 0, pretend = 0, frame = 0
 289              		@ frame_needed = 0, uses_anonymous_args = 0
 290              	.LVL19:
 291              		.loc 1 185 0
 292 0000 0F4B     		ldr	r3, .L27
 293              		.loc 1 184 0
 294 0002 70B5     		push	{r4, r5, r6, lr}
 295              		.cfi_def_cfa_offset 16
 296              		.cfi_offset 4, -16
 297              		.cfi_offset 5, -12
 298              		.cfi_offset 6, -8
 299              		.cfi_offset 14, -4
 300              		.loc 1 184 0
 301 0004 0546     		mov	r5, r0
 302              		.loc 1 185 0
 303 0006 DC69     		ldr	r4, [r3, #28]
 304              	.LVL20:
 305              		.loc 1 195 0
 306 0008 FFF7FEFF 		bl	chMtxUnlockS
 307              	.LVL21:
 308              	.LBB30:
 309              	.LBB31:
 310              		.loc 2 43 0
 311 000c 2B46     		mov	r3, r5
 312              	.LBE31:
 313              	.LBE30:
 314              		.loc 1 195 0
 315 000e 0646     		mov	r6, r0
 316              	.LVL22:
 317              		.loc 1 196 0
 318 0010 6562     		str	r5, [r4, #36]
 319              	.LVL23:
 320 0012 03E0     		b	.L21
 321              	.LVL24:
 322              	.L26:
 323              	.LBB34:
 324              	.LBB32:
 325              		.loc 2 46 0
 326 0014 9968     		ldr	r1, [r3, #8]
 327 0016 A268     		ldr	r2, [r4, #8]
 328 0018 9142     		cmp	r1, r2
 329 001a 02D3     		bcc	.L22
 330              	.L21:
 331              		.loc 2 45 0
 332 001c 1B68     		ldr	r3, [r3]
 333              	.LVL25:
 334              		.loc 2 46 0
 335 001e 9D42     		cmp	r5, r3
 336 0020 F8D1     		bne	.L26
 337              	.L22:
 338              		.loc 2 48 0
 339 0022 5A68     		ldr	r2, [r3, #4]
 340              	.LBE32:
 341              	.LBE34:
 342              		.loc 1 198 0
ARM GAS  /tmp/ccyqvzbq.s 			page 7


 343 0024 0520     		movs	r0, #5
 344              	.LVL26:
 345              	.LBB35:
 346              	.LBB33:
 347              		.loc 2 47 0
 348 0026 2360     		str	r3, [r4]
 349              		.loc 2 48 0
 350 0028 6260     		str	r2, [r4, #4]
 351              		.loc 2 49 0
 352 002a 5C60     		str	r4, [r3, #4]
 353 002c 1460     		str	r4, [r2]
 354              	.LBE33:
 355              	.LBE35:
 356              		.loc 1 198 0
 357 002e FFF7FEFF 		bl	chSchGoSleepS
 358              	.LVL27:
 359              		.loc 1 199 0
 360 0032 646A     		ldr	r4, [r4, #36]
 361              	.LVL28:
 362              		.loc 1 200 0
 363 0034 3046     		mov	r0, r6
 364 0036 FFF7FEFF 		bl	chMtxLockS
 365              	.LVL29:
 366              		.loc 1 202 0
 367 003a 2046     		mov	r0, r4
 368 003c 70BD     		pop	{r4, r5, r6, pc}
 369              	.LVL30:
 370              	.L28:
 371 003e 00BF     		.align	2
 372              	.L27:
 373 0040 00000000 		.word	rlist
 374              		.cfi_endproc
 375              	.LFE13:
 376              		.size	chCondWaitS, .-chCondWaitS
 377              		.section	.text.chCondWait,"ax",%progbits
 378              		.align	2
 379              		.p2align 4,,15
 380              		.global	chCondWait
 381              		.thumb
 382              		.thumb_func
 383              		.type	chCondWait, %function
 384              	chCondWait:
 385              	.LFB12:
 386              		.loc 1 158 0
 387              		.cfi_startproc
 388              		@ args = 0, pretend = 0, frame = 0
 389              		@ frame_needed = 0, uses_anonymous_args = 0
 390              	.LVL31:
 391 0000 08B5     		push	{r3, lr}
 392              		.cfi_def_cfa_offset 8
 393              		.cfi_offset 3, -8
 394              		.cfi_offset 14, -4
 395              	.LBB36:
 396              		.loc 1 161 0
 397 0002 2023     		movs	r3, #32
 398              	@ 161 "ChibiOS//os/kernel/src/chcond.c" 1
 399 0004 83F31188 		msr     BASEPRI, r3
ARM GAS  /tmp/ccyqvzbq.s 			page 8


 400              	@ 0 "" 2
 401              		.thumb
 402              	.LBE36:
 403              		.loc 1 162 0
 404 0008 FFF7FEFF 		bl	chCondWaitS
 405              	.LVL32:
 406              	.LBB37:
 407              		.loc 1 163 0
 408 000c 0023     		movs	r3, #0
 409              	@ 163 "ChibiOS//os/kernel/src/chcond.c" 1
 410 000e 83F31188 		msr     BASEPRI, r3
 411              	@ 0 "" 2
 412              		.thumb
 413              	.LBE37:
 414              		.loc 1 165 0
 415 0012 08BD     		pop	{r3, pc}
 416              		.cfi_endproc
 417              	.LFE12:
 418              		.size	chCondWait, .-chCondWait
 419              		.section	.text.chCondWaitTimeoutS,"ax",%progbits
 420              		.align	2
 421              		.p2align 4,,15
 422              		.global	chCondWaitTimeoutS
 423              		.thumb
 424              		.thumb_func
 425              		.type	chCondWaitTimeoutS, %function
 426              	chCondWaitTimeoutS:
 427              	.LFB15:
 428              		.loc 1 270 0
 429              		.cfi_startproc
 430              		@ args = 0, pretend = 0, frame = 0
 431              		@ frame_needed = 0, uses_anonymous_args = 0
 432              	.LVL33:
 433 0000 F8B5     		push	{r3, r4, r5, r6, r7, lr}
 434              		.cfi_def_cfa_offset 24
 435              		.cfi_offset 3, -24
 436              		.cfi_offset 4, -20
 437              		.cfi_offset 5, -16
 438              		.cfi_offset 6, -12
 439              		.cfi_offset 7, -8
 440              		.cfi_offset 14, -4
 441              		.loc 1 270 0
 442 0002 0546     		mov	r5, r0
 443 0004 0F46     		mov	r7, r1
 444              		.loc 1 280 0
 445 0006 FFF7FEFF 		bl	chMtxUnlockS
 446              	.LVL34:
 447              		.loc 1 281 0
 448 000a 0F4A     		ldr	r2, .L39
 449              		.loc 1 280 0
 450 000c 0646     		mov	r6, r0
 451              	.LVL35:
 452              		.loc 1 281 0
 453 000e D469     		ldr	r4, [r2, #28]
 454              	.LBB38:
 455              	.LBB39:
 456              		.loc 2 43 0
ARM GAS  /tmp/ccyqvzbq.s 			page 9


 457 0010 2B46     		mov	r3, r5
 458              	.LBE39:
 459              	.LBE38:
 460              		.loc 1 281 0
 461 0012 6562     		str	r5, [r4, #36]
 462              	.LVL36:
 463 0014 03E0     		b	.L35
 464              	.LVL37:
 465              	.L32:
 466              	.LBB43:
 467              	.LBB40:
 468              		.loc 2 46 0
 469 0016 9868     		ldr	r0, [r3, #8]
 470 0018 A268     		ldr	r2, [r4, #8]
 471 001a 9042     		cmp	r0, r2
 472 001c 02D3     		bcc	.L36
 473              	.L35:
 474              		.loc 2 45 0
 475 001e 1B68     		ldr	r3, [r3]
 476              	.LVL38:
 477              		.loc 2 46 0
 478 0020 9D42     		cmp	r5, r3
 479 0022 F8D1     		bne	.L32
 480              	.L36:
 481              		.loc 2 48 0
 482 0024 5A68     		ldr	r2, [r3, #4]
 483              	.LBE40:
 484              	.LBE43:
 485              		.loc 1 283 0
 486 0026 3946     		mov	r1, r7
 487              	.LBB44:
 488              	.LBB41:
 489              		.loc 2 47 0
 490 0028 2360     		str	r3, [r4]
 491              		.loc 2 48 0
 492 002a 6260     		str	r2, [r4, #4]
 493              	.LBE41:
 494              	.LBE44:
 495              		.loc 1 283 0
 496 002c 0520     		movs	r0, #5
 497              	.LBB45:
 498              	.LBB42:
 499              		.loc 2 49 0
 500 002e 5C60     		str	r4, [r3, #4]
 501 0030 1460     		str	r4, [r2]
 502              	.LBE42:
 503              	.LBE45:
 504              		.loc 1 283 0
 505 0032 FFF7FEFF 		bl	chSchGoSleepTimeoutS
 506              	.LVL39:
 507              		.loc 1 284 0
 508 0036 431C     		adds	r3, r0, #1
 509              		.loc 1 283 0
 510 0038 0446     		mov	r4, r0
 511              	.LVL40:
 512              		.loc 1 284 0
 513 003a 02D0     		beq	.L34
ARM GAS  /tmp/ccyqvzbq.s 			page 10


 514              		.loc 1 285 0
 515 003c 3046     		mov	r0, r6
 516              	.LVL41:
 517 003e FFF7FEFF 		bl	chMtxLockS
 518              	.LVL42:
 519              	.L34:
 520              		.loc 1 287 0
 521 0042 2046     		mov	r0, r4
 522 0044 F8BD     		pop	{r3, r4, r5, r6, r7, pc}
 523              	.LVL43:
 524              	.L40:
 525 0046 00BF     		.align	2
 526              	.L39:
 527 0048 00000000 		.word	rlist
 528              		.cfi_endproc
 529              	.LFE15:
 530              		.size	chCondWaitTimeoutS, .-chCondWaitTimeoutS
 531              		.section	.text.chCondWaitTimeout,"ax",%progbits
 532              		.align	2
 533              		.p2align 4,,15
 534              		.global	chCondWaitTimeout
 535              		.thumb
 536              		.thumb_func
 537              		.type	chCondWaitTimeout, %function
 538              	chCondWaitTimeout:
 539              	.LFB14:
 540              		.loc 1 233 0
 541              		.cfi_startproc
 542              		@ args = 0, pretend = 0, frame = 0
 543              		@ frame_needed = 0, uses_anonymous_args = 0
 544              	.LVL44:
 545 0000 08B5     		push	{r3, lr}
 546              		.cfi_def_cfa_offset 8
 547              		.cfi_offset 3, -8
 548              		.cfi_offset 14, -4
 549              	.LBB46:
 550              		.loc 1 236 0
 551 0002 2023     		movs	r3, #32
 552              	@ 236 "ChibiOS//os/kernel/src/chcond.c" 1
 553 0004 83F31188 		msr     BASEPRI, r3
 554              	@ 0 "" 2
 555              		.thumb
 556              	.LBE46:
 557              		.loc 1 237 0
 558 0008 FFF7FEFF 		bl	chCondWaitTimeoutS
 559              	.LVL45:
 560              	.LBB47:
 561              		.loc 1 238 0
 562 000c 0023     		movs	r3, #0
 563              	@ 238 "ChibiOS//os/kernel/src/chcond.c" 1
 564 000e 83F31188 		msr     BASEPRI, r3
 565              	@ 0 "" 2
 566              		.thumb
 567              	.LBE47:
 568              		.loc 1 240 0
 569 0012 08BD     		pop	{r3, pc}
 570              		.cfi_endproc
ARM GAS  /tmp/ccyqvzbq.s 			page 11


 571              	.LFE14:
 572              		.size	chCondWaitTimeout, .-chCondWaitTimeout
 573              		.text
 574              	.Letext0:
 575              		.file 3 "/usr/include/newlib/machine/_default_types.h"
 576              		.file 4 "/usr/include/newlib/sys/_stdint.h"
 577              		.file 5 "ChibiOS//os/ports/GCC/ARMCMx/chtypes.h"
 578              		.file 6 "ChibiOS//os/kernel/include/chlists.h"
 579              		.file 7 "ChibiOS//os/kernel/include/chthreads.h"
 580              		.file 8 "ChibiOS//os/ports/GCC/ARMCMx/chcore_v7m.h"
 581              		.file 9 "ChibiOS//os/kernel/include/chschd.h"
 582              		.file 10 "ChibiOS//os/kernel/include/chmtx.h"
 583              		.file 11 "ChibiOS//os/kernel/include/chcond.h"
 584              		.section	.debug_info,"",%progbits
 585              	.Ldebug_info0:
 586 0000 67090000 		.4byte	0x967
 587 0004 0400     		.2byte	0x4
 588 0006 00000000 		.4byte	.Ldebug_abbrev0
 589 000a 04       		.byte	0x4
 590 000b 01       		.uleb128 0x1
 591 000c 87010000 		.4byte	.LASF81
 592 0010 01       		.byte	0x1
 593 0011 DC030000 		.4byte	.LASF82
 594 0015 E3000000 		.4byte	.LASF83
 595 0019 80000000 		.4byte	.Ldebug_ranges0+0x80
 596 001d 00000000 		.4byte	0
 597 0021 00000000 		.4byte	.Ldebug_line0
 598 0025 02       		.uleb128 0x2
 599 0026 04       		.byte	0x4
 600 0027 05       		.byte	0x5
 601 0028 696E7400 		.ascii	"int\000"
 602 002c 03       		.uleb128 0x3
 603 002d 04       		.byte	0x4
 604 002e 07       		.byte	0x7
 605 002f 19010000 		.4byte	.LASF0
 606 0033 03       		.uleb128 0x3
 607 0034 01       		.byte	0x1
 608 0035 06       		.byte	0x6
 609 0036 68000000 		.4byte	.LASF1
 610 003a 04       		.uleb128 0x4
 611 003b 18000000 		.4byte	.LASF5
 612 003f 03       		.byte	0x3
 613 0040 1D       		.byte	0x1d
 614 0041 45000000 		.4byte	0x45
 615 0045 03       		.uleb128 0x3
 616 0046 01       		.byte	0x1
 617 0047 08       		.byte	0x8
 618 0048 D0020000 		.4byte	.LASF2
 619 004c 03       		.uleb128 0x3
 620 004d 02       		.byte	0x2
 621 004e 05       		.byte	0x5
 622 004f E8020000 		.4byte	.LASF3
 623 0053 03       		.uleb128 0x3
 624 0054 02       		.byte	0x2
 625 0055 07       		.byte	0x7
 626 0056 40010000 		.4byte	.LASF4
 627 005a 04       		.uleb128 0x4
ARM GAS  /tmp/ccyqvzbq.s 			page 12


 628 005b 95030000 		.4byte	.LASF6
 629 005f 03       		.byte	0x3
 630 0060 3F       		.byte	0x3f
 631 0061 65000000 		.4byte	0x65
 632 0065 03       		.uleb128 0x3
 633 0066 04       		.byte	0x4
 634 0067 05       		.byte	0x5
 635 0068 8C000000 		.4byte	.LASF7
 636 006c 04       		.uleb128 0x4
 637 006d C2000000 		.4byte	.LASF8
 638 0071 03       		.byte	0x3
 639 0072 41       		.byte	0x41
 640 0073 77000000 		.4byte	0x77
 641 0077 03       		.uleb128 0x3
 642 0078 04       		.byte	0x4
 643 0079 07       		.byte	0x7
 644 007a 26010000 		.4byte	.LASF9
 645 007e 03       		.uleb128 0x3
 646 007f 08       		.byte	0x8
 647 0080 05       		.byte	0x5
 648 0081 5A000000 		.4byte	.LASF10
 649 0085 03       		.uleb128 0x3
 650 0086 08       		.byte	0x8
 651 0087 07       		.byte	0x7
 652 0088 22000000 		.4byte	.LASF11
 653 008c 04       		.uleb128 0x4
 654 008d 13040000 		.4byte	.LASF12
 655 0091 04       		.byte	0x4
 656 0092 14       		.byte	0x14
 657 0093 3A000000 		.4byte	0x3a
 658 0097 04       		.uleb128 0x4
 659 0098 C8020000 		.4byte	.LASF13
 660 009c 04       		.byte	0x4
 661 009d 1F       		.byte	0x1f
 662 009e 5A000000 		.4byte	0x5a
 663 00a2 04       		.uleb128 0x4
 664 00a3 3F030000 		.4byte	.LASF14
 665 00a7 04       		.byte	0x4
 666 00a8 20       		.byte	0x20
 667 00a9 6C000000 		.4byte	0x6c
 668 00ad 04       		.uleb128 0x4
 669 00ae 61010000 		.4byte	.LASF15
 670 00b2 05       		.byte	0x5
 671 00b3 2F       		.byte	0x2f
 672 00b4 8C000000 		.4byte	0x8c
 673 00b8 04       		.uleb128 0x4
 674 00b9 95000000 		.4byte	.LASF16
 675 00bd 05       		.byte	0x5
 676 00be 30       		.byte	0x30
 677 00bf 8C000000 		.4byte	0x8c
 678 00c3 04       		.uleb128 0x4
 679 00c4 A3020000 		.4byte	.LASF17
 680 00c8 05       		.byte	0x5
 681 00c9 31       		.byte	0x31
 682 00ca 8C000000 		.4byte	0x8c
 683 00ce 04       		.uleb128 0x4
 684 00cf B2020000 		.4byte	.LASF18
ARM GAS  /tmp/ccyqvzbq.s 			page 13


 685 00d3 05       		.byte	0x5
 686 00d4 32       		.byte	0x32
 687 00d5 A2000000 		.4byte	0xa2
 688 00d9 04       		.uleb128 0x4
 689 00da 53010000 		.4byte	.LASF19
 690 00de 05       		.byte	0x5
 691 00df 33       		.byte	0x33
 692 00e0 97000000 		.4byte	0x97
 693 00e4 04       		.uleb128 0x4
 694 00e5 75010000 		.4byte	.LASF20
 695 00e9 05       		.byte	0x5
 696 00ea 35       		.byte	0x35
 697 00eb A2000000 		.4byte	0xa2
 698 00ef 04       		.uleb128 0x4
 699 00f0 80030000 		.4byte	.LASF21
 700 00f4 05       		.byte	0x5
 701 00f5 36       		.byte	0x36
 702 00f6 A2000000 		.4byte	0xa2
 703 00fa 04       		.uleb128 0x4
 704 00fb 06010000 		.4byte	.LASF22
 705 00ff 05       		.byte	0x5
 706 0100 37       		.byte	0x37
 707 0101 97000000 		.4byte	0x97
 708 0105 04       		.uleb128 0x4
 709 0106 17030000 		.4byte	.LASF23
 710 010a 06       		.byte	0x6
 711 010b 2A       		.byte	0x2a
 712 010c 10010000 		.4byte	0x110
 713 0110 05       		.uleb128 0x5
 714 0111 17030000 		.4byte	.LASF23
 715 0115 48       		.byte	0x48
 716 0116 07       		.byte	0x7
 717 0117 5E       		.byte	0x5e
 718 0118 01020000 		.4byte	0x201
 719 011c 06       		.uleb128 0x6
 720 011d 08030000 		.4byte	.LASF24
 721 0121 07       		.byte	0x7
 722 0122 5F       		.byte	0x5f
 723 0123 22020000 		.4byte	0x222
 724 0127 00       		.byte	0
 725 0128 06       		.uleb128 0x6
 726 0129 AB020000 		.4byte	.LASF25
 727 012d 07       		.byte	0x7
 728 012e 61       		.byte	0x61
 729 012f 22020000 		.4byte	0x222
 730 0133 04       		.byte	0x4
 731 0134 06       		.uleb128 0x6
 732 0135 53000000 		.4byte	.LASF26
 733 0139 07       		.byte	0x7
 734 013a 63       		.byte	0x63
 735 013b CE000000 		.4byte	0xce
 736 013f 08       		.byte	0x8
 737 0140 06       		.uleb128 0x6
 738 0141 62040000 		.4byte	.LASF27
 739 0145 07       		.byte	0x7
 740 0146 64       		.byte	0x64
 741 0147 DB020000 		.4byte	0x2db
ARM GAS  /tmp/ccyqvzbq.s 			page 14


 742 014b 0C       		.byte	0xc
 743 014c 06       		.uleb128 0x6
 744 014d A9000000 		.4byte	.LASF28
 745 0151 07       		.byte	0x7
 746 0152 66       		.byte	0x66
 747 0153 22020000 		.4byte	0x222
 748 0157 10       		.byte	0x10
 749 0158 06       		.uleb128 0x6
 750 0159 61020000 		.4byte	.LASF29
 751 015d 07       		.byte	0x7
 752 015e 67       		.byte	0x67
 753 015f 22020000 		.4byte	0x222
 754 0163 14       		.byte	0x14
 755 0164 06       		.uleb128 0x6
 756 0165 22040000 		.4byte	.LASF30
 757 0169 07       		.byte	0x7
 758 016a 6E       		.byte	0x6e
 759 016b 0B040000 		.4byte	0x40b
 760 016f 18       		.byte	0x18
 761 0170 06       		.uleb128 0x6
 762 0171 F2020000 		.4byte	.LASF31
 763 0175 07       		.byte	0x7
 764 0176 79       		.byte	0x79
 765 0177 B8000000 		.4byte	0xb8
 766 017b 1C       		.byte	0x1c
 767 017c 06       		.uleb128 0x6
 768 017d 0F030000 		.4byte	.LASF32
 769 0181 07       		.byte	0x7
 770 0182 7D       		.byte	0x7d
 771 0183 AD000000 		.4byte	0xad
 772 0187 1D       		.byte	0x1d
 773 0188 06       		.uleb128 0x6
 774 0189 FC030000 		.4byte	.LASF33
 775 018d 07       		.byte	0x7
 776 018e 82       		.byte	0x82
 777 018f C3000000 		.4byte	0xc3
 778 0193 1E       		.byte	0x1e
 779 0194 06       		.uleb128 0x6
 780 0195 B6030000 		.4byte	.LASF34
 781 0199 07       		.byte	0x7
 782 019a 89       		.byte	0x89
 783 019b 03030000 		.4byte	0x303
 784 019f 20       		.byte	0x20
 785 01a0 07       		.uleb128 0x7
 786 01a1 705F7500 		.ascii	"p_u\000"
 787 01a5 07       		.byte	0x7
 788 01a6 AE       		.byte	0xae
 789 01a7 D6030000 		.4byte	0x3d6
 790 01ab 24       		.byte	0x24
 791 01ac 06       		.uleb128 0x6
 792 01ad 68040000 		.4byte	.LASF35
 793 01b1 07       		.byte	0x7
 794 01b2 B3       		.byte	0xb3
 795 01b3 48020000 		.4byte	0x248
 796 01b7 28       		.byte	0x28
 797 01b8 06       		.uleb128 0x6
 798 01b9 C4030000 		.4byte	.LASF36
ARM GAS  /tmp/ccyqvzbq.s 			page 15


 799 01bd 07       		.byte	0x7
 800 01be B9       		.byte	0xb9
 801 01bf 28020000 		.4byte	0x228
 802 01c3 2C       		.byte	0x2c
 803 01c4 06       		.uleb128 0x6
 804 01c5 00000000 		.4byte	.LASF37
 805 01c9 07       		.byte	0x7
 806 01ca BD       		.byte	0xbd
 807 01cb D9000000 		.4byte	0xd9
 808 01cf 34       		.byte	0x34
 809 01d0 06       		.uleb128 0x6
 810 01d1 34030000 		.4byte	.LASF38
 811 01d5 07       		.byte	0x7
 812 01d6 C3       		.byte	0xc3
 813 01d7 E4000000 		.4byte	0xe4
 814 01db 38       		.byte	0x38
 815 01dc 06       		.uleb128 0x6
 816 01dd DE020000 		.4byte	.LASF39
 817 01e1 07       		.byte	0x7
 818 01e2 CA       		.byte	0xca
 819 01e3 1D040000 		.4byte	0x41d
 820 01e7 3C       		.byte	0x3c
 821 01e8 06       		.uleb128 0x6
 822 01e9 8A030000 		.4byte	.LASF40
 823 01ed 07       		.byte	0x7
 824 01ee CE       		.byte	0xce
 825 01ef CE000000 		.4byte	0xce
 826 01f3 40       		.byte	0x40
 827 01f4 06       		.uleb128 0x6
 828 01f5 74000000 		.4byte	.LASF41
 829 01f9 07       		.byte	0x7
 830 01fa D4       		.byte	0xd4
 831 01fb 5E020000 		.4byte	0x25e
 832 01ff 44       		.byte	0x44
 833 0200 00       		.byte	0
 834 0201 08       		.uleb128 0x8
 835 0202 08       		.byte	0x8
 836 0203 06       		.byte	0x6
 837 0204 61       		.byte	0x61
 838 0205 22020000 		.4byte	0x222
 839 0209 06       		.uleb128 0x6
 840 020a 08030000 		.4byte	.LASF24
 841 020e 06       		.byte	0x6
 842 020f 62       		.byte	0x62
 843 0210 22020000 		.4byte	0x222
 844 0214 00       		.byte	0
 845 0215 06       		.uleb128 0x6
 846 0216 AB020000 		.4byte	.LASF25
 847 021a 06       		.byte	0x6
 848 021b 64       		.byte	0x64
 849 021c 22020000 		.4byte	0x222
 850 0220 04       		.byte	0x4
 851 0221 00       		.byte	0
 852 0222 09       		.uleb128 0x9
 853 0223 04       		.byte	0x4
 854 0224 05010000 		.4byte	0x105
 855 0228 04       		.uleb128 0x4
ARM GAS  /tmp/ccyqvzbq.s 			page 16


 856 0229 6F020000 		.4byte	.LASF42
 857 022d 06       		.byte	0x6
 858 022e 66       		.byte	0x66
 859 022f 01020000 		.4byte	0x201
 860 0233 08       		.uleb128 0x8
 861 0234 04       		.byte	0x4
 862 0235 06       		.byte	0x6
 863 0236 6B       		.byte	0x6b
 864 0237 48020000 		.4byte	0x248
 865 023b 06       		.uleb128 0x6
 866 023c 08030000 		.4byte	.LASF24
 867 0240 06       		.byte	0x6
 868 0241 6D       		.byte	0x6d
 869 0242 22020000 		.4byte	0x222
 870 0246 00       		.byte	0
 871 0247 00       		.byte	0
 872 0248 04       		.uleb128 0x4
 873 0249 69010000 		.4byte	.LASF43
 874 024d 06       		.byte	0x6
 875 024e 70       		.byte	0x70
 876 024f 33020000 		.4byte	0x233
 877 0253 04       		.uleb128 0x4
 878 0254 CD000000 		.4byte	.LASF44
 879 0258 08       		.byte	0x8
 880 0259 D7       		.byte	0xd7
 881 025a 5E020000 		.4byte	0x25e
 882 025e 0A       		.uleb128 0xa
 883 025f 04       		.byte	0x4
 884 0260 05       		.uleb128 0x5
 885 0261 BD030000 		.4byte	.LASF45
 886 0265 24       		.byte	0x24
 887 0266 08       		.byte	0x8
 888 0267 FE       		.byte	0xfe
 889 0268 DB020000 		.4byte	0x2db
 890 026c 0B       		.uleb128 0xb
 891 026d 723400   		.ascii	"r4\000"
 892 0270 08       		.byte	0x8
 893 0271 1101     		.2byte	0x111
 894 0273 53020000 		.4byte	0x253
 895 0277 00       		.byte	0
 896 0278 0B       		.uleb128 0xb
 897 0279 723500   		.ascii	"r5\000"
 898 027c 08       		.byte	0x8
 899 027d 1201     		.2byte	0x112
 900 027f 53020000 		.4byte	0x253
 901 0283 04       		.byte	0x4
 902 0284 0B       		.uleb128 0xb
 903 0285 723600   		.ascii	"r6\000"
 904 0288 08       		.byte	0x8
 905 0289 1301     		.2byte	0x113
 906 028b 53020000 		.4byte	0x253
 907 028f 08       		.byte	0x8
 908 0290 0B       		.uleb128 0xb
 909 0291 723700   		.ascii	"r7\000"
 910 0294 08       		.byte	0x8
 911 0295 1401     		.2byte	0x114
 912 0297 53020000 		.4byte	0x253
ARM GAS  /tmp/ccyqvzbq.s 			page 17


 913 029b 0C       		.byte	0xc
 914 029c 0B       		.uleb128 0xb
 915 029d 723800   		.ascii	"r8\000"
 916 02a0 08       		.byte	0x8
 917 02a1 1501     		.2byte	0x115
 918 02a3 53020000 		.4byte	0x253
 919 02a7 10       		.byte	0x10
 920 02a8 0B       		.uleb128 0xb
 921 02a9 723900   		.ascii	"r9\000"
 922 02ac 08       		.byte	0x8
 923 02ad 1601     		.2byte	0x116
 924 02af 53020000 		.4byte	0x253
 925 02b3 14       		.byte	0x14
 926 02b4 0B       		.uleb128 0xb
 927 02b5 72313000 		.ascii	"r10\000"
 928 02b9 08       		.byte	0x8
 929 02ba 1701     		.2byte	0x117
 930 02bc 53020000 		.4byte	0x253
 931 02c0 18       		.byte	0x18
 932 02c1 0B       		.uleb128 0xb
 933 02c2 72313100 		.ascii	"r11\000"
 934 02c6 08       		.byte	0x8
 935 02c7 1801     		.2byte	0x118
 936 02c9 53020000 		.4byte	0x253
 937 02cd 1C       		.byte	0x1c
 938 02ce 0B       		.uleb128 0xb
 939 02cf 6C7200   		.ascii	"lr\000"
 940 02d2 08       		.byte	0x8
 941 02d3 1901     		.2byte	0x119
 942 02d5 53020000 		.4byte	0x253
 943 02d9 20       		.byte	0x20
 944 02da 00       		.byte	0
 945 02db 0C       		.uleb128 0xc
 946 02dc 38010000 		.4byte	.LASF46
 947 02e0 04       		.byte	0x4
 948 02e1 08       		.byte	0x8
 949 02e2 2301     		.2byte	0x123
 950 02e4 F6020000 		.4byte	0x2f6
 951 02e8 0B       		.uleb128 0xb
 952 02e9 72313300 		.ascii	"r13\000"
 953 02ed 08       		.byte	0x8
 954 02ee 2401     		.2byte	0x124
 955 02f0 F6020000 		.4byte	0x2f6
 956 02f4 00       		.byte	0
 957 02f5 00       		.byte	0
 958 02f6 09       		.uleb128 0x9
 959 02f7 04       		.byte	0x4
 960 02f8 60020000 		.4byte	0x260
 961 02fc 03       		.uleb128 0x3
 962 02fd 04       		.byte	0x4
 963 02fe 07       		.byte	0x7
 964 02ff 45020000 		.4byte	.LASF47
 965 0303 0D       		.uleb128 0xd
 966 0304 EF000000 		.4byte	0xef
 967 0308 08       		.uleb128 0x8
 968 0309 20       		.byte	0x20
 969 030a 09       		.byte	0x9
ARM GAS  /tmp/ccyqvzbq.s 			page 18


 970 030b 5E       		.byte	0x5e
 971 030c 65030000 		.4byte	0x365
 972 0310 06       		.uleb128 0x6
 973 0311 48030000 		.4byte	.LASF48
 974 0315 09       		.byte	0x9
 975 0316 5F       		.byte	0x5f
 976 0317 28020000 		.4byte	0x228
 977 031b 00       		.byte	0
 978 031c 06       		.uleb128 0x6
 979 031d FA020000 		.4byte	.LASF49
 980 0321 09       		.byte	0x9
 981 0322 60       		.byte	0x60
 982 0323 CE000000 		.4byte	0xce
 983 0327 08       		.byte	0x8
 984 0328 06       		.uleb128 0x6
 985 0329 69020000 		.4byte	.LASF50
 986 032d 09       		.byte	0x9
 987 032e 62       		.byte	0x62
 988 032f DB020000 		.4byte	0x2db
 989 0333 0C       		.byte	0xc
 990 0334 06       		.uleb128 0x6
 991 0335 59010000 		.4byte	.LASF51
 992 0339 09       		.byte	0x9
 993 033a 65       		.byte	0x65
 994 033b 22020000 		.4byte	0x222
 995 033f 10       		.byte	0x10
 996 0340 06       		.uleb128 0x6
 997 0341 8B020000 		.4byte	.LASF52
 998 0345 09       		.byte	0x9
 999 0346 66       		.byte	0x66
 1000 0347 22020000 		.4byte	0x222
 1001 034b 14       		.byte	0x14
 1002 034c 06       		.uleb128 0x6
 1003 034d 50040000 		.4byte	.LASF53
 1004 0351 09       		.byte	0x9
 1005 0352 6A       		.byte	0x6a
 1006 0353 FA000000 		.4byte	0xfa
 1007 0357 18       		.byte	0x18
 1008 0358 06       		.uleb128 0x6
 1009 0359 81020000 		.4byte	.LASF54
 1010 035d 09       		.byte	0x9
 1011 035e 6C       		.byte	0x6c
 1012 035f 22020000 		.4byte	0x222
 1013 0363 1C       		.byte	0x1c
 1014 0364 00       		.byte	0
 1015 0365 04       		.uleb128 0x4
 1016 0366 03040000 		.4byte	.LASF55
 1017 036a 09       		.byte	0x9
 1018 036b 6E       		.byte	0x6e
 1019 036c 08030000 		.4byte	0x308
 1020 0370 05       		.uleb128 0x5
 1021 0371 81010000 		.4byte	.LASF56
 1022 0375 10       		.byte	0x10
 1023 0376 0A       		.byte	0xa
 1024 0377 2C       		.byte	0x2c
 1025 0378 A1030000 		.4byte	0x3a1
 1026 037c 06       		.uleb128 0x6
ARM GAS  /tmp/ccyqvzbq.s 			page 19


 1027 037d 7C000000 		.4byte	.LASF57
 1028 0381 0A       		.byte	0xa
 1029 0382 2D       		.byte	0x2d
 1030 0383 28020000 		.4byte	0x228
 1031 0387 00       		.byte	0
 1032 0388 06       		.uleb128 0x6
 1033 0389 5A040000 		.4byte	.LASF58
 1034 038d 0A       		.byte	0xa
 1035 038e 2F       		.byte	0x2f
 1036 038f 22020000 		.4byte	0x222
 1037 0393 08       		.byte	0x8
 1038 0394 06       		.uleb128 0x6
 1039 0395 79030000 		.4byte	.LASF59
 1040 0399 0A       		.byte	0xa
 1041 039a 31       		.byte	0x31
 1042 039b A1030000 		.4byte	0x3a1
 1043 039f 0C       		.byte	0xc
 1044 03a0 00       		.byte	0
 1045 03a1 09       		.uleb128 0x9
 1046 03a2 04       		.byte	0x4
 1047 03a3 70030000 		.4byte	0x370
 1048 03a7 04       		.uleb128 0x4
 1049 03a8 81010000 		.4byte	.LASF56
 1050 03ac 0A       		.byte	0xa
 1051 03ad 33       		.byte	0x33
 1052 03ae 70030000 		.4byte	0x370
 1053 03b2 05       		.uleb128 0x5
 1054 03b3 84000000 		.4byte	.LASF60
 1055 03b7 08       		.byte	0x8
 1056 03b8 0B       		.byte	0xb
 1057 03b9 36       		.byte	0x36
 1058 03ba CB030000 		.4byte	0x3cb
 1059 03be 06       		.uleb128 0x6
 1060 03bf 1E030000 		.4byte	.LASF61
 1061 03c3 0B       		.byte	0xb
 1062 03c4 37       		.byte	0x37
 1063 03c5 28020000 		.4byte	0x228
 1064 03c9 00       		.byte	0
 1065 03ca 00       		.byte	0
 1066 03cb 04       		.uleb128 0x4
 1067 03cc 84000000 		.4byte	.LASF60
 1068 03d0 0B       		.byte	0xb
 1069 03d1 38       		.byte	0x38
 1070 03d2 B2030000 		.4byte	0x3b2
 1071 03d6 0E       		.uleb128 0xe
 1072 03d7 04       		.byte	0x4
 1073 03d8 07       		.byte	0x7
 1074 03d9 90       		.byte	0x90
 1075 03da 0B040000 		.4byte	0x40b
 1076 03de 0F       		.uleb128 0xf
 1077 03df 11000000 		.4byte	.LASF62
 1078 03e3 07       		.byte	0x7
 1079 03e4 97       		.byte	0x97
 1080 03e5 D9000000 		.4byte	0xd9
 1081 03e9 0F       		.uleb128 0xf
 1082 03ea 39000000 		.4byte	.LASF63
 1083 03ee 07       		.byte	0x7
ARM GAS  /tmp/ccyqvzbq.s 			page 20


 1084 03ef 9E       		.byte	0x9e
 1085 03f0 D9000000 		.4byte	0xd9
 1086 03f4 0F       		.uleb128 0xf
 1087 03f5 1B040000 		.4byte	.LASF64
 1088 03f9 07       		.byte	0x7
 1089 03fa A5       		.byte	0xa5
 1090 03fb 5E020000 		.4byte	0x25e
 1091 03ff 0F       		.uleb128 0xf
 1092 0400 01030000 		.4byte	.LASF65
 1093 0404 07       		.byte	0x7
 1094 0405 AC       		.byte	0xac
 1095 0406 E4000000 		.4byte	0xe4
 1096 040a 00       		.byte	0
 1097 040b 09       		.uleb128 0x9
 1098 040c 04       		.byte	0x4
 1099 040d 11040000 		.4byte	0x411
 1100 0411 10       		.uleb128 0x10
 1101 0412 16040000 		.4byte	0x416
 1102 0416 03       		.uleb128 0x3
 1103 0417 01       		.byte	0x1
 1104 0418 08       		.byte	0x8
 1105 0419 5C030000 		.4byte	.LASF66
 1106 041d 09       		.uleb128 0x9
 1107 041e 04       		.byte	0x4
 1108 041f A7030000 		.4byte	0x3a7
 1109 0423 11       		.uleb128 0x11
 1110 0424 61030000 		.4byte	.LASF84
 1111 0428 02       		.byte	0x2
 1112 0429 3B       		.byte	0x3b
 1113 042a 22020000 		.4byte	0x222
 1114 042e 03       		.byte	0x3
 1115 042f 49040000 		.4byte	0x449
 1116 0433 12       		.uleb128 0x12
 1117 0434 74717000 		.ascii	"tqp\000"
 1118 0438 02       		.byte	0x2
 1119 0439 3B       		.byte	0x3b
 1120 043a 49040000 		.4byte	0x449
 1121 043e 13       		.uleb128 0x13
 1122 043f 747000   		.ascii	"tp\000"
 1123 0442 02       		.byte	0x2
 1124 0443 3C       		.byte	0x3c
 1125 0444 22020000 		.4byte	0x222
 1126 0448 00       		.byte	0
 1127 0449 09       		.uleb128 0x9
 1128 044a 04       		.byte	0x4
 1129 044b 28020000 		.4byte	0x228
 1130 044f 14       		.uleb128 0x14
 1131 0450 9F030000 		.4byte	.LASF85
 1132 0454 02       		.byte	0x2
 1133 0455 29       		.byte	0x29
 1134 0456 03       		.byte	0x3
 1135 0457 7B040000 		.4byte	0x47b
 1136 045b 12       		.uleb128 0x12
 1137 045c 747000   		.ascii	"tp\000"
 1138 045f 02       		.byte	0x2
 1139 0460 29       		.byte	0x29
 1140 0461 22020000 		.4byte	0x222
ARM GAS  /tmp/ccyqvzbq.s 			page 21


 1141 0465 12       		.uleb128 0x12
 1142 0466 74717000 		.ascii	"tqp\000"
 1143 046a 02       		.byte	0x2
 1144 046b 29       		.byte	0x29
 1145 046c 49040000 		.4byte	0x449
 1146 0470 13       		.uleb128 0x13
 1147 0471 637000   		.ascii	"cp\000"
 1148 0474 02       		.byte	0x2
 1149 0475 2B       		.byte	0x2b
 1150 0476 22020000 		.4byte	0x222
 1151 047a 00       		.byte	0
 1152 047b 15       		.uleb128 0x15
 1153 047c 06000000 		.4byte	.LASF67
 1154 0480 01       		.byte	0x1
 1155 0481 3B       		.byte	0x3b
 1156 0482 00000000 		.4byte	.LFB7
 1157 0486 06000000 		.4byte	.LFE7-.LFB7
 1158 048a 01       		.uleb128 0x1
 1159 048b 9C       		.byte	0x9c
 1160 048c 9D040000 		.4byte	0x49d
 1161 0490 16       		.uleb128 0x16
 1162 0491 637000   		.ascii	"cp\000"
 1163 0494 01       		.byte	0x1
 1164 0495 3B       		.byte	0x3b
 1165 0496 9D040000 		.4byte	0x49d
 1166 049a 01       		.uleb128 0x1
 1167 049b 50       		.byte	0x50
 1168 049c 00       		.byte	0
 1169 049d 09       		.uleb128 0x9
 1170 049e 04       		.byte	0x4
 1171 049f CB030000 		.4byte	0x3cb
 1172 04a3 15       		.uleb128 0x15
 1173 04a4 D6000000 		.4byte	.LASF68
 1174 04a8 01       		.byte	0x1
 1175 04a9 49       		.byte	0x49
 1176 04aa 00000000 		.4byte	.LFB8
 1177 04ae 2E000000 		.4byte	.LFE8-.LFB8
 1178 04b2 01       		.uleb128 0x1
 1179 04b3 9C       		.byte	0x9c
 1180 04b4 38050000 		.4byte	0x538
 1181 04b8 17       		.uleb128 0x17
 1182 04b9 637000   		.ascii	"cp\000"
 1183 04bc 01       		.byte	0x1
 1184 04bd 49       		.byte	0x49
 1185 04be 9D040000 		.4byte	0x49d
 1186 04c2 00000000 		.4byte	.LLST0
 1187 04c6 18       		.uleb128 0x18
 1188 04c7 00000000 		.4byte	.LBB14
 1189 04cb 06000000 		.4byte	.LBE14-.LBB14
 1190 04cf E1040000 		.4byte	0x4e1
 1191 04d3 19       		.uleb128 0x19
 1192 04d4 746D7000 		.ascii	"tmp\000"
 1193 04d8 01       		.byte	0x1
 1194 04d9 4D       		.byte	0x4d
 1195 04da A2000000 		.4byte	0xa2
 1196 04de 01       		.uleb128 0x1
 1197 04df 53       		.byte	0x53
ARM GAS  /tmp/ccyqvzbq.s 			page 22


 1198 04e0 00       		.byte	0
 1199 04e1 1A       		.uleb128 0x1a
 1200 04e2 23040000 		.4byte	0x423
 1201 04e6 10000000 		.4byte	.LBB15
 1202 04ea 00000000 		.4byte	.Ldebug_ranges0+0
 1203 04ee 01       		.byte	0x1
 1204 04ef 4F       		.byte	0x4f
 1205 04f0 0D050000 		.4byte	0x50d
 1206 04f4 1B       		.uleb128 0x1b
 1207 04f5 33040000 		.4byte	0x433
 1208 04f9 37000000 		.4byte	.LLST1
 1209 04fd 1C       		.uleb128 0x1c
 1210 04fe 00000000 		.4byte	.Ldebug_ranges0+0
 1211 0502 1D       		.uleb128 0x1d
 1212 0503 3E040000 		.4byte	0x43e
 1213 0507 63000000 		.4byte	.LLST2
 1214 050b 00       		.byte	0
 1215 050c 00       		.byte	0
 1216 050d 18       		.uleb128 0x18
 1217 050e 1E000000 		.4byte	.LBB21
 1218 0512 10000000 		.4byte	.LBE21-.LBB21
 1219 0516 28050000 		.4byte	0x528
 1220 051a 19       		.uleb128 0x19
 1221 051b 746D7000 		.ascii	"tmp\000"
 1222 051f 01       		.byte	0x1
 1223 0520 50       		.byte	0x50
 1224 0521 A2000000 		.4byte	0xa2
 1225 0525 01       		.uleb128 0x1
 1226 0526 53       		.byte	0x53
 1227 0527 00       		.byte	0
 1228 0528 1E       		.uleb128 0x1e
 1229 0529 1E000000 		.4byte	.LVL4
 1230 052d F5080000 		.4byte	0x8f5
 1231 0531 1F       		.uleb128 0x1f
 1232 0532 01       		.uleb128 0x1
 1233 0533 51       		.byte	0x51
 1234 0534 01       		.uleb128 0x1
 1235 0535 30       		.byte	0x30
 1236 0536 00       		.byte	0
 1237 0537 00       		.byte	0
 1238 0538 15       		.uleb128 0x15
 1239 0539 BA020000 		.4byte	.LASF69
 1240 053d 01       		.byte	0x1
 1241 053e 5E       		.byte	0x5e
 1242 053f 00000000 		.4byte	.LFB9
 1243 0543 1E000000 		.4byte	.LFE9-.LFB9
 1244 0547 01       		.uleb128 0x1
 1245 0548 9C       		.byte	0x9c
 1246 0549 91050000 		.4byte	0x591
 1247 054d 17       		.uleb128 0x17
 1248 054e 637000   		.ascii	"cp\000"
 1249 0551 01       		.byte	0x1
 1250 0552 5E       		.byte	0x5e
 1251 0553 9D040000 		.4byte	0x49d
 1252 0557 76000000 		.4byte	.LLST3
 1253 055b 1A       		.uleb128 0x1a
 1254 055c 23040000 		.4byte	0x423
ARM GAS  /tmp/ccyqvzbq.s 			page 23


 1255 0560 0A000000 		.4byte	.LBB22
 1256 0564 20000000 		.4byte	.Ldebug_ranges0+0x20
 1257 0568 01       		.byte	0x1
 1258 0569 64       		.byte	0x64
 1259 056a 87050000 		.4byte	0x587
 1260 056e 1B       		.uleb128 0x1b
 1261 056f 33040000 		.4byte	0x433
 1262 0573 AD000000 		.4byte	.LLST4
 1263 0577 1C       		.uleb128 0x1c
 1264 0578 20000000 		.4byte	.Ldebug_ranges0+0x20
 1265 057c 1D       		.uleb128 0x1d
 1266 057d 3E040000 		.4byte	0x43e
 1267 0581 D9000000 		.4byte	.LLST5
 1268 0585 00       		.byte	0
 1269 0586 00       		.byte	0
 1270 0587 20       		.uleb128 0x20
 1271 0588 16000000 		.4byte	.LVL9
 1272 058c 0B090000 		.4byte	0x90b
 1273 0590 00       		.byte	0
 1274 0591 15       		.uleb128 0x15
 1275 0592 42000000 		.4byte	.LASF70
 1276 0596 01       		.byte	0x1
 1277 0597 81       		.byte	0x81
 1278 0598 00000000 		.4byte	.LFB11
 1279 059c 22000000 		.4byte	.LFE11-.LFB11
 1280 05a0 01       		.uleb128 0x1
 1281 05a1 9C       		.byte	0x9c
 1282 05a2 EE050000 		.4byte	0x5ee
 1283 05a6 17       		.uleb128 0x17
 1284 05a7 637000   		.ascii	"cp\000"
 1285 05aa 01       		.byte	0x1
 1286 05ab 81       		.byte	0x81
 1287 05ac 9D040000 		.4byte	0x49d
 1288 05b0 EC000000 		.4byte	.LLST6
 1289 05b4 21       		.uleb128 0x21
 1290 05b5 23040000 		.4byte	0x423
 1291 05b9 0E000000 		.4byte	.LBB26
 1292 05bd 06000000 		.4byte	.LBE26-.LBB26
 1293 05c1 01       		.byte	0x1
 1294 05c2 8A       		.byte	0x8a
 1295 05c3 E4050000 		.4byte	0x5e4
 1296 05c7 1B       		.uleb128 0x1b
 1297 05c8 33040000 		.4byte	0x433
 1298 05cc 0A010000 		.4byte	.LLST7
 1299 05d0 22       		.uleb128 0x22
 1300 05d1 0E000000 		.4byte	.LBB27
 1301 05d5 06000000 		.4byte	.LBE27-.LBB27
 1302 05d9 1D       		.uleb128 0x1d
 1303 05da 3E040000 		.4byte	0x43e
 1304 05de 1D010000 		.4byte	.LLST8
 1305 05e2 00       		.byte	0
 1306 05e3 00       		.byte	0
 1307 05e4 20       		.uleb128 0x20
 1308 05e5 18000000 		.4byte	.LVL14
 1309 05e9 0B090000 		.4byte	0x90b
 1310 05ed 00       		.byte	0
 1311 05ee 15       		.uleb128 0x15
ARM GAS  /tmp/ccyqvzbq.s 			page 24


 1312 05ef 93020000 		.4byte	.LASF71
 1313 05f3 01       		.byte	0x1
 1314 05f4 6E       		.byte	0x6e
 1315 05f5 00000000 		.4byte	.LFB10
 1316 05f9 18000000 		.4byte	.LFE10-.LFB10
 1317 05fd 01       		.uleb128 0x1
 1318 05fe 9C       		.byte	0x9c
 1319 05ff 66060000 		.4byte	0x666
 1320 0603 17       		.uleb128 0x17
 1321 0604 637000   		.ascii	"cp\000"
 1322 0607 01       		.byte	0x1
 1323 0608 6E       		.byte	0x6e
 1324 0609 9D040000 		.4byte	0x49d
 1325 060d 30010000 		.4byte	.LLST9
 1326 0611 18       		.uleb128 0x18
 1327 0612 02000000 		.4byte	.LBB28
 1328 0616 06000000 		.4byte	.LBE28-.LBB28
 1329 061a 2C060000 		.4byte	0x62c
 1330 061e 19       		.uleb128 0x19
 1331 061f 746D7000 		.ascii	"tmp\000"
 1332 0623 01       		.byte	0x1
 1333 0624 70       		.byte	0x70
 1334 0625 A2000000 		.4byte	0xa2
 1335 0629 01       		.uleb128 0x1
 1336 062a 53       		.byte	0x53
 1337 062b 00       		.byte	0
 1338 062c 18       		.uleb128 0x18
 1339 062d 10000000 		.4byte	.LBB29
 1340 0631 08000000 		.4byte	.LBE29-.LBB29
 1341 0635 47060000 		.4byte	0x647
 1342 0639 19       		.uleb128 0x19
 1343 063a 746D7000 		.ascii	"tmp\000"
 1344 063e 01       		.byte	0x1
 1345 063f 73       		.byte	0x73
 1346 0640 A2000000 		.4byte	0xa2
 1347 0644 01       		.uleb128 0x1
 1348 0645 53       		.byte	0x53
 1349 0646 00       		.byte	0
 1350 0647 23       		.uleb128 0x23
 1351 0648 0C000000 		.4byte	.LVL17
 1352 064c 91050000 		.4byte	0x591
 1353 0650 5C060000 		.4byte	0x65c
 1354 0654 1F       		.uleb128 0x1f
 1355 0655 01       		.uleb128 0x1
 1356 0656 50       		.byte	0x50
 1357 0657 03       		.uleb128 0x3
 1358 0658 F3       		.byte	0xf3
 1359 0659 01       		.uleb128 0x1
 1360 065a 50       		.byte	0x50
 1361 065b 00       		.byte	0
 1362 065c 20       		.uleb128 0x20
 1363 065d 10000000 		.4byte	.LVL18
 1364 0661 20090000 		.4byte	0x920
 1365 0665 00       		.byte	0
 1366 0666 24       		.uleb128 0x24
 1367 0667 6D030000 		.4byte	.LASF72
 1368 066b 01       		.byte	0x1
ARM GAS  /tmp/ccyqvzbq.s 			page 25


 1369 066c B8       		.byte	0xb8
 1370 066d D9000000 		.4byte	0xd9
 1371 0671 00000000 		.4byte	.LFB13
 1372 0675 44000000 		.4byte	.LFE13-.LFB13
 1373 0679 01       		.uleb128 0x1
 1374 067a 9C       		.byte	0x9c
 1375 067b 1B070000 		.4byte	0x71b
 1376 067f 17       		.uleb128 0x17
 1377 0680 637000   		.ascii	"cp\000"
 1378 0683 01       		.byte	0x1
 1379 0684 B8       		.byte	0xb8
 1380 0685 9D040000 		.4byte	0x49d
 1381 0689 51010000 		.4byte	.LLST10
 1382 068d 25       		.uleb128 0x25
 1383 068e 63747000 		.ascii	"ctp\000"
 1384 0692 01       		.byte	0x1
 1385 0693 B9       		.byte	0xb9
 1386 0694 22020000 		.4byte	0x222
 1387 0698 7D010000 		.4byte	.LLST11
 1388 069c 25       		.uleb128 0x25
 1389 069d 6D7000   		.ascii	"mp\000"
 1390 06a0 01       		.byte	0x1
 1391 06a1 BA       		.byte	0xba
 1392 06a2 1D040000 		.4byte	0x41d
 1393 06a6 90010000 		.4byte	.LLST12
 1394 06aa 25       		.uleb128 0x25
 1395 06ab 6D736700 		.ascii	"msg\000"
 1396 06af 01       		.byte	0x1
 1397 06b0 BB       		.byte	0xbb
 1398 06b1 D9000000 		.4byte	0xd9
 1399 06b5 AE010000 		.4byte	.LLST13
 1400 06b9 1A       		.uleb128 0x1a
 1401 06ba 4F040000 		.4byte	0x44f
 1402 06be 0C000000 		.4byte	.LBB30
 1403 06c2 38000000 		.4byte	.Ldebug_ranges0+0x38
 1404 06c6 01       		.byte	0x1
 1405 06c7 C5       		.byte	0xc5
 1406 06c8 EE060000 		.4byte	0x6ee
 1407 06cc 1B       		.uleb128 0x1b
 1408 06cd 65040000 		.4byte	0x465
 1409 06d1 CC010000 		.4byte	.LLST14
 1410 06d5 1B       		.uleb128 0x1b
 1411 06d6 5B040000 		.4byte	0x45b
 1412 06da ED010000 		.4byte	.LLST15
 1413 06de 1C       		.uleb128 0x1c
 1414 06df 38000000 		.4byte	.Ldebug_ranges0+0x38
 1415 06e3 1D       		.uleb128 0x1d
 1416 06e4 70040000 		.4byte	0x470
 1417 06e8 00020000 		.4byte	.LLST16
 1418 06ec 00       		.byte	0
 1419 06ed 00       		.byte	0
 1420 06ee 20       		.uleb128 0x20
 1421 06ef 0C000000 		.4byte	.LVL21
 1422 06f3 27090000 		.4byte	0x927
 1423 06f7 23       		.uleb128 0x23
 1424 06f8 32000000 		.4byte	.LVL27
 1425 06fc 32090000 		.4byte	0x932
ARM GAS  /tmp/ccyqvzbq.s 			page 26


 1426 0700 0A070000 		.4byte	0x70a
 1427 0704 1F       		.uleb128 0x1f
 1428 0705 01       		.uleb128 0x1
 1429 0706 50       		.byte	0x50
 1430 0707 01       		.uleb128 0x1
 1431 0708 35       		.byte	0x35
 1432 0709 00       		.byte	0
 1433 070a 1E       		.uleb128 0x1e
 1434 070b 3A000000 		.4byte	.LVL29
 1435 070f 43090000 		.4byte	0x943
 1436 0713 1F       		.uleb128 0x1f
 1437 0714 01       		.uleb128 0x1
 1438 0715 50       		.byte	0x50
 1439 0716 02       		.uleb128 0x2
 1440 0717 76       		.byte	0x76
 1441 0718 00       		.sleb128 0
 1442 0719 00       		.byte	0
 1443 071a 00       		.byte	0
 1444 071b 24       		.uleb128 0x24
 1445 071c AB030000 		.4byte	.LASF73
 1446 0720 01       		.byte	0x1
 1447 0721 9E       		.byte	0x9e
 1448 0722 D9000000 		.4byte	0xd9
 1449 0726 00000000 		.4byte	.LFB12
 1450 072a 14000000 		.4byte	.LFE12-.LFB12
 1451 072e 01       		.uleb128 0x1
 1452 072f 9C       		.byte	0x9c
 1453 0730 97070000 		.4byte	0x797
 1454 0734 17       		.uleb128 0x17
 1455 0735 637000   		.ascii	"cp\000"
 1456 0738 01       		.byte	0x1
 1457 0739 9E       		.byte	0x9e
 1458 073a 9D040000 		.4byte	0x49d
 1459 073e 1E020000 		.4byte	.LLST17
 1460 0742 19       		.uleb128 0x19
 1461 0743 6D736700 		.ascii	"msg\000"
 1462 0747 01       		.byte	0x1
 1463 0748 9F       		.byte	0x9f
 1464 0749 D9000000 		.4byte	0xd9
 1465 074d 01       		.uleb128 0x1
 1466 074e 50       		.byte	0x50
 1467 074f 18       		.uleb128 0x18
 1468 0750 02000000 		.4byte	.LBB36
 1469 0754 06000000 		.4byte	.LBE36-.LBB36
 1470 0758 6A070000 		.4byte	0x76a
 1471 075c 19       		.uleb128 0x19
 1472 075d 746D7000 		.ascii	"tmp\000"
 1473 0761 01       		.byte	0x1
 1474 0762 A1       		.byte	0xa1
 1475 0763 A2000000 		.4byte	0xa2
 1476 0767 01       		.uleb128 0x1
 1477 0768 53       		.byte	0x53
 1478 0769 00       		.byte	0
 1479 076a 18       		.uleb128 0x18
 1480 076b 0C000000 		.4byte	.LBB37
 1481 076f 06000000 		.4byte	.LBE37-.LBB37
 1482 0773 85070000 		.4byte	0x785
ARM GAS  /tmp/ccyqvzbq.s 			page 27


 1483 0777 19       		.uleb128 0x19
 1484 0778 746D7000 		.ascii	"tmp\000"
 1485 077c 01       		.byte	0x1
 1486 077d A3       		.byte	0xa3
 1487 077e A2000000 		.4byte	0xa2
 1488 0782 01       		.uleb128 0x1
 1489 0783 53       		.byte	0x53
 1490 0784 00       		.byte	0
 1491 0785 1E       		.uleb128 0x1e
 1492 0786 0C000000 		.4byte	.LVL32
 1493 078a 66060000 		.4byte	0x666
 1494 078e 1F       		.uleb128 0x1f
 1495 078f 01       		.uleb128 0x1
 1496 0790 50       		.byte	0x50
 1497 0791 03       		.uleb128 0x3
 1498 0792 F3       		.byte	0xf3
 1499 0793 01       		.uleb128 0x1
 1500 0794 50       		.byte	0x50
 1501 0795 00       		.byte	0
 1502 0796 00       		.byte	0
 1503 0797 26       		.uleb128 0x26
 1504 0798 4E020000 		.4byte	.LASF74
 1505 079c 01       		.byte	0x1
 1506 079d 0E01     		.2byte	0x10e
 1507 079f D9000000 		.4byte	0xd9
 1508 07a3 00000000 		.4byte	.LFB15
 1509 07a7 4C000000 		.4byte	.LFE15-.LFB15
 1510 07ab 01       		.uleb128 0x1
 1511 07ac 9C       		.byte	0x9c
 1512 07ad 58080000 		.4byte	0x858
 1513 07b1 27       		.uleb128 0x27
 1514 07b2 637000   		.ascii	"cp\000"
 1515 07b5 01       		.byte	0x1
 1516 07b6 0E01     		.2byte	0x10e
 1517 07b8 9D040000 		.4byte	0x49d
 1518 07bc 3F020000 		.4byte	.LLST18
 1519 07c0 28       		.uleb128 0x28
 1520 07c1 7C020000 		.4byte	.LASF75
 1521 07c5 01       		.byte	0x1
 1522 07c6 0E01     		.2byte	0x10e
 1523 07c8 EF000000 		.4byte	0xef
 1524 07cc 6B020000 		.4byte	.LLST19
 1525 07d0 29       		.uleb128 0x29
 1526 07d1 6D7000   		.ascii	"mp\000"
 1527 07d4 01       		.byte	0x1
 1528 07d5 0F01     		.2byte	0x10f
 1529 07d7 1D040000 		.4byte	0x41d
 1530 07db 97020000 		.4byte	.LLST20
 1531 07df 29       		.uleb128 0x29
 1532 07e0 6D736700 		.ascii	"msg\000"
 1533 07e4 01       		.byte	0x1
 1534 07e5 1001     		.2byte	0x110
 1535 07e7 D9000000 		.4byte	0xd9
 1536 07eb B5020000 		.4byte	.LLST21
 1537 07ef 2A       		.uleb128 0x2a
 1538 07f0 4F040000 		.4byte	0x44f
 1539 07f4 10000000 		.4byte	.LBB38
ARM GAS  /tmp/ccyqvzbq.s 			page 28


 1540 07f8 58000000 		.4byte	.Ldebug_ranges0+0x58
 1541 07fc 01       		.byte	0x1
 1542 07fd 1A01     		.2byte	0x11a
 1543 07ff 25080000 		.4byte	0x825
 1544 0803 1B       		.uleb128 0x1b
 1545 0804 65040000 		.4byte	0x465
 1546 0808 DE020000 		.4byte	.LLST22
 1547 080c 1B       		.uleb128 0x1b
 1548 080d 5B040000 		.4byte	0x45b
 1549 0811 FF020000 		.4byte	.LLST23
 1550 0815 1C       		.uleb128 0x1c
 1551 0816 58000000 		.4byte	.Ldebug_ranges0+0x58
 1552 081a 1D       		.uleb128 0x1d
 1553 081b 70040000 		.4byte	0x470
 1554 081f 12030000 		.4byte	.LLST24
 1555 0823 00       		.byte	0
 1556 0824 00       		.byte	0
 1557 0825 20       		.uleb128 0x20
 1558 0826 0A000000 		.4byte	.LVL34
 1559 082a 27090000 		.4byte	0x927
 1560 082e 23       		.uleb128 0x23
 1561 082f 36000000 		.4byte	.LVL39
 1562 0833 54090000 		.4byte	0x954
 1563 0837 47080000 		.4byte	0x847
 1564 083b 1F       		.uleb128 0x1f
 1565 083c 01       		.uleb128 0x1
 1566 083d 51       		.byte	0x51
 1567 083e 02       		.uleb128 0x2
 1568 083f 77       		.byte	0x77
 1569 0840 00       		.sleb128 0
 1570 0841 1F       		.uleb128 0x1f
 1571 0842 01       		.uleb128 0x1
 1572 0843 50       		.byte	0x50
 1573 0844 01       		.uleb128 0x1
 1574 0845 35       		.byte	0x35
 1575 0846 00       		.byte	0
 1576 0847 1E       		.uleb128 0x1e
 1577 0848 42000000 		.4byte	.LVL42
 1578 084c 43090000 		.4byte	0x943
 1579 0850 1F       		.uleb128 0x1f
 1580 0851 01       		.uleb128 0x1
 1581 0852 50       		.byte	0x50
 1582 0853 02       		.uleb128 0x2
 1583 0854 76       		.byte	0x76
 1584 0855 00       		.sleb128 0
 1585 0856 00       		.byte	0
 1586 0857 00       		.byte	0
 1587 0858 24       		.uleb128 0x24
 1588 0859 29040000 		.4byte	.LASF76
 1589 085d 01       		.byte	0x1
 1590 085e E9       		.byte	0xe9
 1591 085f D9000000 		.4byte	0xd9
 1592 0863 00000000 		.4byte	.LFB14
 1593 0867 14000000 		.4byte	.LFE14-.LFB14
 1594 086b 01       		.uleb128 0x1
 1595 086c 9C       		.byte	0x9c
 1596 086d EA080000 		.4byte	0x8ea
ARM GAS  /tmp/ccyqvzbq.s 			page 29


 1597 0871 17       		.uleb128 0x17
 1598 0872 637000   		.ascii	"cp\000"
 1599 0875 01       		.byte	0x1
 1600 0876 E9       		.byte	0xe9
 1601 0877 9D040000 		.4byte	0x49d
 1602 087b 30030000 		.4byte	.LLST25
 1603 087f 2B       		.uleb128 0x2b
 1604 0880 7C020000 		.4byte	.LASF75
 1605 0884 01       		.byte	0x1
 1606 0885 E9       		.byte	0xe9
 1607 0886 EF000000 		.4byte	0xef
 1608 088a 51030000 		.4byte	.LLST26
 1609 088e 19       		.uleb128 0x19
 1610 088f 6D736700 		.ascii	"msg\000"
 1611 0893 01       		.byte	0x1
 1612 0894 EA       		.byte	0xea
 1613 0895 D9000000 		.4byte	0xd9
 1614 0899 01       		.uleb128 0x1
 1615 089a 50       		.byte	0x50
 1616 089b 18       		.uleb128 0x18
 1617 089c 02000000 		.4byte	.LBB46
 1618 08a0 06000000 		.4byte	.LBE46-.LBB46
 1619 08a4 B6080000 		.4byte	0x8b6
 1620 08a8 19       		.uleb128 0x19
 1621 08a9 746D7000 		.ascii	"tmp\000"
 1622 08ad 01       		.byte	0x1
 1623 08ae EC       		.byte	0xec
 1624 08af A2000000 		.4byte	0xa2
 1625 08b3 01       		.uleb128 0x1
 1626 08b4 53       		.byte	0x53
 1627 08b5 00       		.byte	0
 1628 08b6 18       		.uleb128 0x18
 1629 08b7 0C000000 		.4byte	.LBB47
 1630 08bb 06000000 		.4byte	.LBE47-.LBB47
 1631 08bf D1080000 		.4byte	0x8d1
 1632 08c3 19       		.uleb128 0x19
 1633 08c4 746D7000 		.ascii	"tmp\000"
 1634 08c8 01       		.byte	0x1
 1635 08c9 EE       		.byte	0xee
 1636 08ca A2000000 		.4byte	0xa2
 1637 08ce 01       		.uleb128 0x1
 1638 08cf 53       		.byte	0x53
 1639 08d0 00       		.byte	0
 1640 08d1 1E       		.uleb128 0x1e
 1641 08d2 0C000000 		.4byte	.LVL45
 1642 08d6 97070000 		.4byte	0x797
 1643 08da 1F       		.uleb128 0x1f
 1644 08db 01       		.uleb128 0x1
 1645 08dc 51       		.byte	0x51
 1646 08dd 03       		.uleb128 0x3
 1647 08de F3       		.byte	0xf3
 1648 08df 01       		.uleb128 0x1
 1649 08e0 51       		.byte	0x51
 1650 08e1 1F       		.uleb128 0x1f
 1651 08e2 01       		.uleb128 0x1
 1652 08e3 50       		.byte	0x50
 1653 08e4 03       		.uleb128 0x3
ARM GAS  /tmp/ccyqvzbq.s 			page 30


 1654 08e5 F3       		.byte	0xf3
 1655 08e6 01       		.uleb128 0x1
 1656 08e7 50       		.byte	0x50
 1657 08e8 00       		.byte	0
 1658 08e9 00       		.byte	0
 1659 08ea 2C       		.uleb128 0x2c
 1660 08eb 0D040000 		.4byte	.LASF86
 1661 08ef 09       		.byte	0x9
 1662 08f0 72       		.byte	0x72
 1663 08f1 65030000 		.4byte	0x365
 1664 08f5 2D       		.uleb128 0x2d
 1665 08f6 CF030000 		.4byte	.LASF77
 1666 08fa 09       		.byte	0x9
 1667 08fb 9C       		.byte	0x9c
 1668 08fc 0B090000 		.4byte	0x90b
 1669 0900 2E       		.uleb128 0x2e
 1670 0901 22020000 		.4byte	0x222
 1671 0905 2E       		.uleb128 0x2e
 1672 0906 D9000000 		.4byte	0xd9
 1673 090a 00       		.byte	0
 1674 090b 2F       		.uleb128 0x2f
 1675 090c 50030000 		.4byte	.LASF87
 1676 0910 09       		.byte	0x9
 1677 0911 93       		.byte	0x93
 1678 0912 22020000 		.4byte	0x222
 1679 0916 20090000 		.4byte	0x920
 1680 091a 2E       		.uleb128 0x2e
 1681 091b 22020000 		.4byte	0x222
 1682 091f 00       		.byte	0
 1683 0920 30       		.uleb128 0x30
 1684 0921 B1000000 		.4byte	.LASF88
 1685 0925 09       		.byte	0x9
 1686 0926 9F       		.byte	0x9f
 1687 0927 31       		.uleb128 0x31
 1688 0928 0C010000 		.4byte	.LASF89
 1689 092c 0A       		.byte	0xa
 1690 092d 3E       		.byte	0x3e
 1691 092e 1D040000 		.4byte	0x41d
 1692 0932 2D       		.uleb128 0x2d
 1693 0933 26030000 		.4byte	.LASF78
 1694 0937 09       		.byte	0x9
 1695 0938 96       		.byte	0x96
 1696 0939 43090000 		.4byte	0x943
 1697 093d 2E       		.uleb128 0x2e
 1698 093e B8000000 		.4byte	0xb8
 1699 0942 00       		.byte	0
 1700 0943 2D       		.uleb128 0x2d
 1701 0944 9E000000 		.4byte	.LASF79
 1702 0948 0A       		.byte	0xa
 1703 0949 3A       		.byte	0x3a
 1704 094a 54090000 		.4byte	0x954
 1705 094e 2E       		.uleb128 0x2e
 1706 094f 1D040000 		.4byte	0x41d
 1707 0953 00       		.byte	0
 1708 0954 32       		.uleb128 0x32
 1709 0955 3B040000 		.4byte	.LASF80
 1710 0959 09       		.byte	0x9
ARM GAS  /tmp/ccyqvzbq.s 			page 31


 1711 095a 99       		.byte	0x99
 1712 095b D9000000 		.4byte	0xd9
 1713 095f 2E       		.uleb128 0x2e
 1714 0960 B8000000 		.4byte	0xb8
 1715 0964 2E       		.uleb128 0x2e
 1716 0965 EF000000 		.4byte	0xef
 1717 0969 00       		.byte	0
 1718 096a 00       		.byte	0
 1719              		.section	.debug_abbrev,"",%progbits
 1720              	.Ldebug_abbrev0:
 1721 0000 01       		.uleb128 0x1
 1722 0001 11       		.uleb128 0x11
 1723 0002 01       		.byte	0x1
 1724 0003 25       		.uleb128 0x25
 1725 0004 0E       		.uleb128 0xe
 1726 0005 13       		.uleb128 0x13
 1727 0006 0B       		.uleb128 0xb
 1728 0007 03       		.uleb128 0x3
 1729 0008 0E       		.uleb128 0xe
 1730 0009 1B       		.uleb128 0x1b
 1731 000a 0E       		.uleb128 0xe
 1732 000b 55       		.uleb128 0x55
 1733 000c 17       		.uleb128 0x17
 1734 000d 11       		.uleb128 0x11
 1735 000e 01       		.uleb128 0x1
 1736 000f 10       		.uleb128 0x10
 1737 0010 17       		.uleb128 0x17
 1738 0011 00       		.byte	0
 1739 0012 00       		.byte	0
 1740 0013 02       		.uleb128 0x2
 1741 0014 24       		.uleb128 0x24
 1742 0015 00       		.byte	0
 1743 0016 0B       		.uleb128 0xb
 1744 0017 0B       		.uleb128 0xb
 1745 0018 3E       		.uleb128 0x3e
 1746 0019 0B       		.uleb128 0xb
 1747 001a 03       		.uleb128 0x3
 1748 001b 08       		.uleb128 0x8
 1749 001c 00       		.byte	0
 1750 001d 00       		.byte	0
 1751 001e 03       		.uleb128 0x3
 1752 001f 24       		.uleb128 0x24
 1753 0020 00       		.byte	0
 1754 0021 0B       		.uleb128 0xb
 1755 0022 0B       		.uleb128 0xb
 1756 0023 3E       		.uleb128 0x3e
 1757 0024 0B       		.uleb128 0xb
 1758 0025 03       		.uleb128 0x3
 1759 0026 0E       		.uleb128 0xe
 1760 0027 00       		.byte	0
 1761 0028 00       		.byte	0
 1762 0029 04       		.uleb128 0x4
 1763 002a 16       		.uleb128 0x16
 1764 002b 00       		.byte	0
 1765 002c 03       		.uleb128 0x3
 1766 002d 0E       		.uleb128 0xe
 1767 002e 3A       		.uleb128 0x3a
ARM GAS  /tmp/ccyqvzbq.s 			page 32


 1768 002f 0B       		.uleb128 0xb
 1769 0030 3B       		.uleb128 0x3b
 1770 0031 0B       		.uleb128 0xb
 1771 0032 49       		.uleb128 0x49
 1772 0033 13       		.uleb128 0x13
 1773 0034 00       		.byte	0
 1774 0035 00       		.byte	0
 1775 0036 05       		.uleb128 0x5
 1776 0037 13       		.uleb128 0x13
 1777 0038 01       		.byte	0x1
 1778 0039 03       		.uleb128 0x3
 1779 003a 0E       		.uleb128 0xe
 1780 003b 0B       		.uleb128 0xb
 1781 003c 0B       		.uleb128 0xb
 1782 003d 3A       		.uleb128 0x3a
 1783 003e 0B       		.uleb128 0xb
 1784 003f 3B       		.uleb128 0x3b
 1785 0040 0B       		.uleb128 0xb
 1786 0041 01       		.uleb128 0x1
 1787 0042 13       		.uleb128 0x13
 1788 0043 00       		.byte	0
 1789 0044 00       		.byte	0
 1790 0045 06       		.uleb128 0x6
 1791 0046 0D       		.uleb128 0xd
 1792 0047 00       		.byte	0
 1793 0048 03       		.uleb128 0x3
 1794 0049 0E       		.uleb128 0xe
 1795 004a 3A       		.uleb128 0x3a
 1796 004b 0B       		.uleb128 0xb
 1797 004c 3B       		.uleb128 0x3b
 1798 004d 0B       		.uleb128 0xb
 1799 004e 49       		.uleb128 0x49
 1800 004f 13       		.uleb128 0x13
 1801 0050 38       		.uleb128 0x38
 1802 0051 0B       		.uleb128 0xb
 1803 0052 00       		.byte	0
 1804 0053 00       		.byte	0
 1805 0054 07       		.uleb128 0x7
 1806 0055 0D       		.uleb128 0xd
 1807 0056 00       		.byte	0
 1808 0057 03       		.uleb128 0x3
 1809 0058 08       		.uleb128 0x8
 1810 0059 3A       		.uleb128 0x3a
 1811 005a 0B       		.uleb128 0xb
 1812 005b 3B       		.uleb128 0x3b
 1813 005c 0B       		.uleb128 0xb
 1814 005d 49       		.uleb128 0x49
 1815 005e 13       		.uleb128 0x13
 1816 005f 38       		.uleb128 0x38
 1817 0060 0B       		.uleb128 0xb
 1818 0061 00       		.byte	0
 1819 0062 00       		.byte	0
 1820 0063 08       		.uleb128 0x8
 1821 0064 13       		.uleb128 0x13
 1822 0065 01       		.byte	0x1
 1823 0066 0B       		.uleb128 0xb
 1824 0067 0B       		.uleb128 0xb
ARM GAS  /tmp/ccyqvzbq.s 			page 33


 1825 0068 3A       		.uleb128 0x3a
 1826 0069 0B       		.uleb128 0xb
 1827 006a 3B       		.uleb128 0x3b
 1828 006b 0B       		.uleb128 0xb
 1829 006c 01       		.uleb128 0x1
 1830 006d 13       		.uleb128 0x13
 1831 006e 00       		.byte	0
 1832 006f 00       		.byte	0
 1833 0070 09       		.uleb128 0x9
 1834 0071 0F       		.uleb128 0xf
 1835 0072 00       		.byte	0
 1836 0073 0B       		.uleb128 0xb
 1837 0074 0B       		.uleb128 0xb
 1838 0075 49       		.uleb128 0x49
 1839 0076 13       		.uleb128 0x13
 1840 0077 00       		.byte	0
 1841 0078 00       		.byte	0
 1842 0079 0A       		.uleb128 0xa
 1843 007a 0F       		.uleb128 0xf
 1844 007b 00       		.byte	0
 1845 007c 0B       		.uleb128 0xb
 1846 007d 0B       		.uleb128 0xb
 1847 007e 00       		.byte	0
 1848 007f 00       		.byte	0
 1849 0080 0B       		.uleb128 0xb
 1850 0081 0D       		.uleb128 0xd
 1851 0082 00       		.byte	0
 1852 0083 03       		.uleb128 0x3
 1853 0084 08       		.uleb128 0x8
 1854 0085 3A       		.uleb128 0x3a
 1855 0086 0B       		.uleb128 0xb
 1856 0087 3B       		.uleb128 0x3b
 1857 0088 05       		.uleb128 0x5
 1858 0089 49       		.uleb128 0x49
 1859 008a 13       		.uleb128 0x13
 1860 008b 38       		.uleb128 0x38
 1861 008c 0B       		.uleb128 0xb
 1862 008d 00       		.byte	0
 1863 008e 00       		.byte	0
 1864 008f 0C       		.uleb128 0xc
 1865 0090 13       		.uleb128 0x13
 1866 0091 01       		.byte	0x1
 1867 0092 03       		.uleb128 0x3
 1868 0093 0E       		.uleb128 0xe
 1869 0094 0B       		.uleb128 0xb
 1870 0095 0B       		.uleb128 0xb
 1871 0096 3A       		.uleb128 0x3a
 1872 0097 0B       		.uleb128 0xb
 1873 0098 3B       		.uleb128 0x3b
 1874 0099 05       		.uleb128 0x5
 1875 009a 01       		.uleb128 0x1
 1876 009b 13       		.uleb128 0x13
 1877 009c 00       		.byte	0
 1878 009d 00       		.byte	0
 1879 009e 0D       		.uleb128 0xd
 1880 009f 35       		.uleb128 0x35
 1881 00a0 00       		.byte	0
ARM GAS  /tmp/ccyqvzbq.s 			page 34


 1882 00a1 49       		.uleb128 0x49
 1883 00a2 13       		.uleb128 0x13
 1884 00a3 00       		.byte	0
 1885 00a4 00       		.byte	0
 1886 00a5 0E       		.uleb128 0xe
 1887 00a6 17       		.uleb128 0x17
 1888 00a7 01       		.byte	0x1
 1889 00a8 0B       		.uleb128 0xb
 1890 00a9 0B       		.uleb128 0xb
 1891 00aa 3A       		.uleb128 0x3a
 1892 00ab 0B       		.uleb128 0xb
 1893 00ac 3B       		.uleb128 0x3b
 1894 00ad 0B       		.uleb128 0xb
 1895 00ae 01       		.uleb128 0x1
 1896 00af 13       		.uleb128 0x13
 1897 00b0 00       		.byte	0
 1898 00b1 00       		.byte	0
 1899 00b2 0F       		.uleb128 0xf
 1900 00b3 0D       		.uleb128 0xd
 1901 00b4 00       		.byte	0
 1902 00b5 03       		.uleb128 0x3
 1903 00b6 0E       		.uleb128 0xe
 1904 00b7 3A       		.uleb128 0x3a
 1905 00b8 0B       		.uleb128 0xb
 1906 00b9 3B       		.uleb128 0x3b
 1907 00ba 0B       		.uleb128 0xb
 1908 00bb 49       		.uleb128 0x49
 1909 00bc 13       		.uleb128 0x13
 1910 00bd 00       		.byte	0
 1911 00be 00       		.byte	0
 1912 00bf 10       		.uleb128 0x10
 1913 00c0 26       		.uleb128 0x26
 1914 00c1 00       		.byte	0
 1915 00c2 49       		.uleb128 0x49
 1916 00c3 13       		.uleb128 0x13
 1917 00c4 00       		.byte	0
 1918 00c5 00       		.byte	0
 1919 00c6 11       		.uleb128 0x11
 1920 00c7 2E       		.uleb128 0x2e
 1921 00c8 01       		.byte	0x1
 1922 00c9 03       		.uleb128 0x3
 1923 00ca 0E       		.uleb128 0xe
 1924 00cb 3A       		.uleb128 0x3a
 1925 00cc 0B       		.uleb128 0xb
 1926 00cd 3B       		.uleb128 0x3b
 1927 00ce 0B       		.uleb128 0xb
 1928 00cf 27       		.uleb128 0x27
 1929 00d0 19       		.uleb128 0x19
 1930 00d1 49       		.uleb128 0x49
 1931 00d2 13       		.uleb128 0x13
 1932 00d3 20       		.uleb128 0x20
 1933 00d4 0B       		.uleb128 0xb
 1934 00d5 01       		.uleb128 0x1
 1935 00d6 13       		.uleb128 0x13
 1936 00d7 00       		.byte	0
 1937 00d8 00       		.byte	0
 1938 00d9 12       		.uleb128 0x12
ARM GAS  /tmp/ccyqvzbq.s 			page 35


 1939 00da 05       		.uleb128 0x5
 1940 00db 00       		.byte	0
 1941 00dc 03       		.uleb128 0x3
 1942 00dd 08       		.uleb128 0x8
 1943 00de 3A       		.uleb128 0x3a
 1944 00df 0B       		.uleb128 0xb
 1945 00e0 3B       		.uleb128 0x3b
 1946 00e1 0B       		.uleb128 0xb
 1947 00e2 49       		.uleb128 0x49
 1948 00e3 13       		.uleb128 0x13
 1949 00e4 00       		.byte	0
 1950 00e5 00       		.byte	0
 1951 00e6 13       		.uleb128 0x13
 1952 00e7 34       		.uleb128 0x34
 1953 00e8 00       		.byte	0
 1954 00e9 03       		.uleb128 0x3
 1955 00ea 08       		.uleb128 0x8
 1956 00eb 3A       		.uleb128 0x3a
 1957 00ec 0B       		.uleb128 0xb
 1958 00ed 3B       		.uleb128 0x3b
 1959 00ee 0B       		.uleb128 0xb
 1960 00ef 49       		.uleb128 0x49
 1961 00f0 13       		.uleb128 0x13
 1962 00f1 00       		.byte	0
 1963 00f2 00       		.byte	0
 1964 00f3 14       		.uleb128 0x14
 1965 00f4 2E       		.uleb128 0x2e
 1966 00f5 01       		.byte	0x1
 1967 00f6 03       		.uleb128 0x3
 1968 00f7 0E       		.uleb128 0xe
 1969 00f8 3A       		.uleb128 0x3a
 1970 00f9 0B       		.uleb128 0xb
 1971 00fa 3B       		.uleb128 0x3b
 1972 00fb 0B       		.uleb128 0xb
 1973 00fc 27       		.uleb128 0x27
 1974 00fd 19       		.uleb128 0x19
 1975 00fe 20       		.uleb128 0x20
 1976 00ff 0B       		.uleb128 0xb
 1977 0100 01       		.uleb128 0x1
 1978 0101 13       		.uleb128 0x13
 1979 0102 00       		.byte	0
 1980 0103 00       		.byte	0
 1981 0104 15       		.uleb128 0x15
 1982 0105 2E       		.uleb128 0x2e
 1983 0106 01       		.byte	0x1
 1984 0107 3F       		.uleb128 0x3f
 1985 0108 19       		.uleb128 0x19
 1986 0109 03       		.uleb128 0x3
 1987 010a 0E       		.uleb128 0xe
 1988 010b 3A       		.uleb128 0x3a
 1989 010c 0B       		.uleb128 0xb
 1990 010d 3B       		.uleb128 0x3b
 1991 010e 0B       		.uleb128 0xb
 1992 010f 27       		.uleb128 0x27
 1993 0110 19       		.uleb128 0x19
 1994 0111 11       		.uleb128 0x11
 1995 0112 01       		.uleb128 0x1
ARM GAS  /tmp/ccyqvzbq.s 			page 36


 1996 0113 12       		.uleb128 0x12
 1997 0114 06       		.uleb128 0x6
 1998 0115 40       		.uleb128 0x40
 1999 0116 18       		.uleb128 0x18
 2000 0117 9742     		.uleb128 0x2117
 2001 0119 19       		.uleb128 0x19
 2002 011a 01       		.uleb128 0x1
 2003 011b 13       		.uleb128 0x13
 2004 011c 00       		.byte	0
 2005 011d 00       		.byte	0
 2006 011e 16       		.uleb128 0x16
 2007 011f 05       		.uleb128 0x5
 2008 0120 00       		.byte	0
 2009 0121 03       		.uleb128 0x3
 2010 0122 08       		.uleb128 0x8
 2011 0123 3A       		.uleb128 0x3a
 2012 0124 0B       		.uleb128 0xb
 2013 0125 3B       		.uleb128 0x3b
 2014 0126 0B       		.uleb128 0xb
 2015 0127 49       		.uleb128 0x49
 2016 0128 13       		.uleb128 0x13
 2017 0129 02       		.uleb128 0x2
 2018 012a 18       		.uleb128 0x18
 2019 012b 00       		.byte	0
 2020 012c 00       		.byte	0
 2021 012d 17       		.uleb128 0x17
 2022 012e 05       		.uleb128 0x5
 2023 012f 00       		.byte	0
 2024 0130 03       		.uleb128 0x3
 2025 0131 08       		.uleb128 0x8
 2026 0132 3A       		.uleb128 0x3a
 2027 0133 0B       		.uleb128 0xb
 2028 0134 3B       		.uleb128 0x3b
 2029 0135 0B       		.uleb128 0xb
 2030 0136 49       		.uleb128 0x49
 2031 0137 13       		.uleb128 0x13
 2032 0138 02       		.uleb128 0x2
 2033 0139 17       		.uleb128 0x17
 2034 013a 00       		.byte	0
 2035 013b 00       		.byte	0
 2036 013c 18       		.uleb128 0x18
 2037 013d 0B       		.uleb128 0xb
 2038 013e 01       		.byte	0x1
 2039 013f 11       		.uleb128 0x11
 2040 0140 01       		.uleb128 0x1
 2041 0141 12       		.uleb128 0x12
 2042 0142 06       		.uleb128 0x6
 2043 0143 01       		.uleb128 0x1
 2044 0144 13       		.uleb128 0x13
 2045 0145 00       		.byte	0
 2046 0146 00       		.byte	0
 2047 0147 19       		.uleb128 0x19
 2048 0148 34       		.uleb128 0x34
 2049 0149 00       		.byte	0
 2050 014a 03       		.uleb128 0x3
 2051 014b 08       		.uleb128 0x8
 2052 014c 3A       		.uleb128 0x3a
ARM GAS  /tmp/ccyqvzbq.s 			page 37


 2053 014d 0B       		.uleb128 0xb
 2054 014e 3B       		.uleb128 0x3b
 2055 014f 0B       		.uleb128 0xb
 2056 0150 49       		.uleb128 0x49
 2057 0151 13       		.uleb128 0x13
 2058 0152 02       		.uleb128 0x2
 2059 0153 18       		.uleb128 0x18
 2060 0154 00       		.byte	0
 2061 0155 00       		.byte	0
 2062 0156 1A       		.uleb128 0x1a
 2063 0157 1D       		.uleb128 0x1d
 2064 0158 01       		.byte	0x1
 2065 0159 31       		.uleb128 0x31
 2066 015a 13       		.uleb128 0x13
 2067 015b 52       		.uleb128 0x52
 2068 015c 01       		.uleb128 0x1
 2069 015d 55       		.uleb128 0x55
 2070 015e 17       		.uleb128 0x17
 2071 015f 58       		.uleb128 0x58
 2072 0160 0B       		.uleb128 0xb
 2073 0161 59       		.uleb128 0x59
 2074 0162 0B       		.uleb128 0xb
 2075 0163 01       		.uleb128 0x1
 2076 0164 13       		.uleb128 0x13
 2077 0165 00       		.byte	0
 2078 0166 00       		.byte	0
 2079 0167 1B       		.uleb128 0x1b
 2080 0168 05       		.uleb128 0x5
 2081 0169 00       		.byte	0
 2082 016a 31       		.uleb128 0x31
 2083 016b 13       		.uleb128 0x13
 2084 016c 02       		.uleb128 0x2
 2085 016d 17       		.uleb128 0x17
 2086 016e 00       		.byte	0
 2087 016f 00       		.byte	0
 2088 0170 1C       		.uleb128 0x1c
 2089 0171 0B       		.uleb128 0xb
 2090 0172 01       		.byte	0x1
 2091 0173 55       		.uleb128 0x55
 2092 0174 17       		.uleb128 0x17
 2093 0175 00       		.byte	0
 2094 0176 00       		.byte	0
 2095 0177 1D       		.uleb128 0x1d
 2096 0178 34       		.uleb128 0x34
 2097 0179 00       		.byte	0
 2098 017a 31       		.uleb128 0x31
 2099 017b 13       		.uleb128 0x13
 2100 017c 02       		.uleb128 0x2
 2101 017d 17       		.uleb128 0x17
 2102 017e 00       		.byte	0
 2103 017f 00       		.byte	0
 2104 0180 1E       		.uleb128 0x1e
 2105 0181 898201   		.uleb128 0x4109
 2106 0184 01       		.byte	0x1
 2107 0185 11       		.uleb128 0x11
 2108 0186 01       		.uleb128 0x1
 2109 0187 31       		.uleb128 0x31
ARM GAS  /tmp/ccyqvzbq.s 			page 38


 2110 0188 13       		.uleb128 0x13
 2111 0189 00       		.byte	0
 2112 018a 00       		.byte	0
 2113 018b 1F       		.uleb128 0x1f
 2114 018c 8A8201   		.uleb128 0x410a
 2115 018f 00       		.byte	0
 2116 0190 02       		.uleb128 0x2
 2117 0191 18       		.uleb128 0x18
 2118 0192 9142     		.uleb128 0x2111
 2119 0194 18       		.uleb128 0x18
 2120 0195 00       		.byte	0
 2121 0196 00       		.byte	0
 2122 0197 20       		.uleb128 0x20
 2123 0198 898201   		.uleb128 0x4109
 2124 019b 00       		.byte	0
 2125 019c 11       		.uleb128 0x11
 2126 019d 01       		.uleb128 0x1
 2127 019e 31       		.uleb128 0x31
 2128 019f 13       		.uleb128 0x13
 2129 01a0 00       		.byte	0
 2130 01a1 00       		.byte	0
 2131 01a2 21       		.uleb128 0x21
 2132 01a3 1D       		.uleb128 0x1d
 2133 01a4 01       		.byte	0x1
 2134 01a5 31       		.uleb128 0x31
 2135 01a6 13       		.uleb128 0x13
 2136 01a7 11       		.uleb128 0x11
 2137 01a8 01       		.uleb128 0x1
 2138 01a9 12       		.uleb128 0x12
 2139 01aa 06       		.uleb128 0x6
 2140 01ab 58       		.uleb128 0x58
 2141 01ac 0B       		.uleb128 0xb
 2142 01ad 59       		.uleb128 0x59
 2143 01ae 0B       		.uleb128 0xb
 2144 01af 01       		.uleb128 0x1
 2145 01b0 13       		.uleb128 0x13
 2146 01b1 00       		.byte	0
 2147 01b2 00       		.byte	0
 2148 01b3 22       		.uleb128 0x22
 2149 01b4 0B       		.uleb128 0xb
 2150 01b5 01       		.byte	0x1
 2151 01b6 11       		.uleb128 0x11
 2152 01b7 01       		.uleb128 0x1
 2153 01b8 12       		.uleb128 0x12
 2154 01b9 06       		.uleb128 0x6
 2155 01ba 00       		.byte	0
 2156 01bb 00       		.byte	0
 2157 01bc 23       		.uleb128 0x23
 2158 01bd 898201   		.uleb128 0x4109
 2159 01c0 01       		.byte	0x1
 2160 01c1 11       		.uleb128 0x11
 2161 01c2 01       		.uleb128 0x1
 2162 01c3 31       		.uleb128 0x31
 2163 01c4 13       		.uleb128 0x13
 2164 01c5 01       		.uleb128 0x1
 2165 01c6 13       		.uleb128 0x13
 2166 01c7 00       		.byte	0
ARM GAS  /tmp/ccyqvzbq.s 			page 39


 2167 01c8 00       		.byte	0
 2168 01c9 24       		.uleb128 0x24
 2169 01ca 2E       		.uleb128 0x2e
 2170 01cb 01       		.byte	0x1
 2171 01cc 3F       		.uleb128 0x3f
 2172 01cd 19       		.uleb128 0x19
 2173 01ce 03       		.uleb128 0x3
 2174 01cf 0E       		.uleb128 0xe
 2175 01d0 3A       		.uleb128 0x3a
 2176 01d1 0B       		.uleb128 0xb
 2177 01d2 3B       		.uleb128 0x3b
 2178 01d3 0B       		.uleb128 0xb
 2179 01d4 27       		.uleb128 0x27
 2180 01d5 19       		.uleb128 0x19
 2181 01d6 49       		.uleb128 0x49
 2182 01d7 13       		.uleb128 0x13
 2183 01d8 11       		.uleb128 0x11
 2184 01d9 01       		.uleb128 0x1
 2185 01da 12       		.uleb128 0x12
 2186 01db 06       		.uleb128 0x6
 2187 01dc 40       		.uleb128 0x40
 2188 01dd 18       		.uleb128 0x18
 2189 01de 9742     		.uleb128 0x2117
 2190 01e0 19       		.uleb128 0x19
 2191 01e1 01       		.uleb128 0x1
 2192 01e2 13       		.uleb128 0x13
 2193 01e3 00       		.byte	0
 2194 01e4 00       		.byte	0
 2195 01e5 25       		.uleb128 0x25
 2196 01e6 34       		.uleb128 0x34
 2197 01e7 00       		.byte	0
 2198 01e8 03       		.uleb128 0x3
 2199 01e9 08       		.uleb128 0x8
 2200 01ea 3A       		.uleb128 0x3a
 2201 01eb 0B       		.uleb128 0xb
 2202 01ec 3B       		.uleb128 0x3b
 2203 01ed 0B       		.uleb128 0xb
 2204 01ee 49       		.uleb128 0x49
 2205 01ef 13       		.uleb128 0x13
 2206 01f0 02       		.uleb128 0x2
 2207 01f1 17       		.uleb128 0x17
 2208 01f2 00       		.byte	0
 2209 01f3 00       		.byte	0
 2210 01f4 26       		.uleb128 0x26
 2211 01f5 2E       		.uleb128 0x2e
 2212 01f6 01       		.byte	0x1
 2213 01f7 3F       		.uleb128 0x3f
 2214 01f8 19       		.uleb128 0x19
 2215 01f9 03       		.uleb128 0x3
 2216 01fa 0E       		.uleb128 0xe
 2217 01fb 3A       		.uleb128 0x3a
 2218 01fc 0B       		.uleb128 0xb
 2219 01fd 3B       		.uleb128 0x3b
 2220 01fe 05       		.uleb128 0x5
 2221 01ff 27       		.uleb128 0x27
 2222 0200 19       		.uleb128 0x19
 2223 0201 49       		.uleb128 0x49
ARM GAS  /tmp/ccyqvzbq.s 			page 40


 2224 0202 13       		.uleb128 0x13
 2225 0203 11       		.uleb128 0x11
 2226 0204 01       		.uleb128 0x1
 2227 0205 12       		.uleb128 0x12
 2228 0206 06       		.uleb128 0x6
 2229 0207 40       		.uleb128 0x40
 2230 0208 18       		.uleb128 0x18
 2231 0209 9742     		.uleb128 0x2117
 2232 020b 19       		.uleb128 0x19
 2233 020c 01       		.uleb128 0x1
 2234 020d 13       		.uleb128 0x13
 2235 020e 00       		.byte	0
 2236 020f 00       		.byte	0
 2237 0210 27       		.uleb128 0x27
 2238 0211 05       		.uleb128 0x5
 2239 0212 00       		.byte	0
 2240 0213 03       		.uleb128 0x3
 2241 0214 08       		.uleb128 0x8
 2242 0215 3A       		.uleb128 0x3a
 2243 0216 0B       		.uleb128 0xb
 2244 0217 3B       		.uleb128 0x3b
 2245 0218 05       		.uleb128 0x5
 2246 0219 49       		.uleb128 0x49
 2247 021a 13       		.uleb128 0x13
 2248 021b 02       		.uleb128 0x2
 2249 021c 17       		.uleb128 0x17
 2250 021d 00       		.byte	0
 2251 021e 00       		.byte	0
 2252 021f 28       		.uleb128 0x28
 2253 0220 05       		.uleb128 0x5
 2254 0221 00       		.byte	0
 2255 0222 03       		.uleb128 0x3
 2256 0223 0E       		.uleb128 0xe
 2257 0224 3A       		.uleb128 0x3a
 2258 0225 0B       		.uleb128 0xb
 2259 0226 3B       		.uleb128 0x3b
 2260 0227 05       		.uleb128 0x5
 2261 0228 49       		.uleb128 0x49
 2262 0229 13       		.uleb128 0x13
 2263 022a 02       		.uleb128 0x2
 2264 022b 17       		.uleb128 0x17
 2265 022c 00       		.byte	0
 2266 022d 00       		.byte	0
 2267 022e 29       		.uleb128 0x29
 2268 022f 34       		.uleb128 0x34
 2269 0230 00       		.byte	0
 2270 0231 03       		.uleb128 0x3
 2271 0232 08       		.uleb128 0x8
 2272 0233 3A       		.uleb128 0x3a
 2273 0234 0B       		.uleb128 0xb
 2274 0235 3B       		.uleb128 0x3b
 2275 0236 05       		.uleb128 0x5
 2276 0237 49       		.uleb128 0x49
 2277 0238 13       		.uleb128 0x13
 2278 0239 02       		.uleb128 0x2
 2279 023a 17       		.uleb128 0x17
 2280 023b 00       		.byte	0
ARM GAS  /tmp/ccyqvzbq.s 			page 41


 2281 023c 00       		.byte	0
 2282 023d 2A       		.uleb128 0x2a
 2283 023e 1D       		.uleb128 0x1d
 2284 023f 01       		.byte	0x1
 2285 0240 31       		.uleb128 0x31
 2286 0241 13       		.uleb128 0x13
 2287 0242 52       		.uleb128 0x52
 2288 0243 01       		.uleb128 0x1
 2289 0244 55       		.uleb128 0x55
 2290 0245 17       		.uleb128 0x17
 2291 0246 58       		.uleb128 0x58
 2292 0247 0B       		.uleb128 0xb
 2293 0248 59       		.uleb128 0x59
 2294 0249 05       		.uleb128 0x5
 2295 024a 01       		.uleb128 0x1
 2296 024b 13       		.uleb128 0x13
 2297 024c 00       		.byte	0
 2298 024d 00       		.byte	0
 2299 024e 2B       		.uleb128 0x2b
 2300 024f 05       		.uleb128 0x5
 2301 0250 00       		.byte	0
 2302 0251 03       		.uleb128 0x3
 2303 0252 0E       		.uleb128 0xe
 2304 0253 3A       		.uleb128 0x3a
 2305 0254 0B       		.uleb128 0xb
 2306 0255 3B       		.uleb128 0x3b
 2307 0256 0B       		.uleb128 0xb
 2308 0257 49       		.uleb128 0x49
 2309 0258 13       		.uleb128 0x13
 2310 0259 02       		.uleb128 0x2
 2311 025a 17       		.uleb128 0x17
 2312 025b 00       		.byte	0
 2313 025c 00       		.byte	0
 2314 025d 2C       		.uleb128 0x2c
 2315 025e 34       		.uleb128 0x34
 2316 025f 00       		.byte	0
 2317 0260 03       		.uleb128 0x3
 2318 0261 0E       		.uleb128 0xe
 2319 0262 3A       		.uleb128 0x3a
 2320 0263 0B       		.uleb128 0xb
 2321 0264 3B       		.uleb128 0x3b
 2322 0265 0B       		.uleb128 0xb
 2323 0266 49       		.uleb128 0x49
 2324 0267 13       		.uleb128 0x13
 2325 0268 3F       		.uleb128 0x3f
 2326 0269 19       		.uleb128 0x19
 2327 026a 3C       		.uleb128 0x3c
 2328 026b 19       		.uleb128 0x19
 2329 026c 00       		.byte	0
 2330 026d 00       		.byte	0
 2331 026e 2D       		.uleb128 0x2d
 2332 026f 2E       		.uleb128 0x2e
 2333 0270 01       		.byte	0x1
 2334 0271 3F       		.uleb128 0x3f
 2335 0272 19       		.uleb128 0x19
 2336 0273 03       		.uleb128 0x3
 2337 0274 0E       		.uleb128 0xe
ARM GAS  /tmp/ccyqvzbq.s 			page 42


 2338 0275 3A       		.uleb128 0x3a
 2339 0276 0B       		.uleb128 0xb
 2340 0277 3B       		.uleb128 0x3b
 2341 0278 0B       		.uleb128 0xb
 2342 0279 27       		.uleb128 0x27
 2343 027a 19       		.uleb128 0x19
 2344 027b 3C       		.uleb128 0x3c
 2345 027c 19       		.uleb128 0x19
 2346 027d 01       		.uleb128 0x1
 2347 027e 13       		.uleb128 0x13
 2348 027f 00       		.byte	0
 2349 0280 00       		.byte	0
 2350 0281 2E       		.uleb128 0x2e
 2351 0282 05       		.uleb128 0x5
 2352 0283 00       		.byte	0
 2353 0284 49       		.uleb128 0x49
 2354 0285 13       		.uleb128 0x13
 2355 0286 00       		.byte	0
 2356 0287 00       		.byte	0
 2357 0288 2F       		.uleb128 0x2f
 2358 0289 2E       		.uleb128 0x2e
 2359 028a 01       		.byte	0x1
 2360 028b 3F       		.uleb128 0x3f
 2361 028c 19       		.uleb128 0x19
 2362 028d 03       		.uleb128 0x3
 2363 028e 0E       		.uleb128 0xe
 2364 028f 3A       		.uleb128 0x3a
 2365 0290 0B       		.uleb128 0xb
 2366 0291 3B       		.uleb128 0x3b
 2367 0292 0B       		.uleb128 0xb
 2368 0293 27       		.uleb128 0x27
 2369 0294 19       		.uleb128 0x19
 2370 0295 49       		.uleb128 0x49
 2371 0296 13       		.uleb128 0x13
 2372 0297 3C       		.uleb128 0x3c
 2373 0298 19       		.uleb128 0x19
 2374 0299 01       		.uleb128 0x1
 2375 029a 13       		.uleb128 0x13
 2376 029b 00       		.byte	0
 2377 029c 00       		.byte	0
 2378 029d 30       		.uleb128 0x30
 2379 029e 2E       		.uleb128 0x2e
 2380 029f 00       		.byte	0
 2381 02a0 3F       		.uleb128 0x3f
 2382 02a1 19       		.uleb128 0x19
 2383 02a2 03       		.uleb128 0x3
 2384 02a3 0E       		.uleb128 0xe
 2385 02a4 3A       		.uleb128 0x3a
 2386 02a5 0B       		.uleb128 0xb
 2387 02a6 3B       		.uleb128 0x3b
 2388 02a7 0B       		.uleb128 0xb
 2389 02a8 27       		.uleb128 0x27
 2390 02a9 19       		.uleb128 0x19
 2391 02aa 3C       		.uleb128 0x3c
 2392 02ab 19       		.uleb128 0x19
 2393 02ac 00       		.byte	0
 2394 02ad 00       		.byte	0
ARM GAS  /tmp/ccyqvzbq.s 			page 43


 2395 02ae 31       		.uleb128 0x31
 2396 02af 2E       		.uleb128 0x2e
 2397 02b0 00       		.byte	0
 2398 02b1 3F       		.uleb128 0x3f
 2399 02b2 19       		.uleb128 0x19
 2400 02b3 03       		.uleb128 0x3
 2401 02b4 0E       		.uleb128 0xe
 2402 02b5 3A       		.uleb128 0x3a
 2403 02b6 0B       		.uleb128 0xb
 2404 02b7 3B       		.uleb128 0x3b
 2405 02b8 0B       		.uleb128 0xb
 2406 02b9 27       		.uleb128 0x27
 2407 02ba 19       		.uleb128 0x19
 2408 02bb 49       		.uleb128 0x49
 2409 02bc 13       		.uleb128 0x13
 2410 02bd 3C       		.uleb128 0x3c
 2411 02be 19       		.uleb128 0x19
 2412 02bf 00       		.byte	0
 2413 02c0 00       		.byte	0
 2414 02c1 32       		.uleb128 0x32
 2415 02c2 2E       		.uleb128 0x2e
 2416 02c3 01       		.byte	0x1
 2417 02c4 3F       		.uleb128 0x3f
 2418 02c5 19       		.uleb128 0x19
 2419 02c6 03       		.uleb128 0x3
 2420 02c7 0E       		.uleb128 0xe
 2421 02c8 3A       		.uleb128 0x3a
 2422 02c9 0B       		.uleb128 0xb
 2423 02ca 3B       		.uleb128 0x3b
 2424 02cb 0B       		.uleb128 0xb
 2425 02cc 27       		.uleb128 0x27
 2426 02cd 19       		.uleb128 0x19
 2427 02ce 49       		.uleb128 0x49
 2428 02cf 13       		.uleb128 0x13
 2429 02d0 3C       		.uleb128 0x3c
 2430 02d1 19       		.uleb128 0x19
 2431 02d2 00       		.byte	0
 2432 02d3 00       		.byte	0
 2433 02d4 00       		.byte	0
 2434              		.section	.debug_loc,"",%progbits
 2435              	.Ldebug_loc0:
 2436              	.LLST0:
 2437 0000 00000000 		.4byte	.LVL1
 2438 0004 14000000 		.4byte	.LVL3
 2439 0008 0100     		.2byte	0x1
 2440 000a 50       		.byte	0x50
 2441 000b 14000000 		.4byte	.LVL3
 2442 000f 1D000000 		.4byte	.LVL4-1
 2443 0013 0100     		.2byte	0x1
 2444 0015 53       		.byte	0x53
 2445 0016 1D000000 		.4byte	.LVL4-1
 2446 001a 26000000 		.4byte	.LVL5
 2447 001e 0400     		.2byte	0x4
 2448 0020 F3       		.byte	0xf3
 2449 0021 01       		.uleb128 0x1
 2450 0022 50       		.byte	0x50
 2451 0023 9F       		.byte	0x9f
ARM GAS  /tmp/ccyqvzbq.s 			page 44


 2452 0024 26000000 		.4byte	.LVL5
 2453 0028 2E000000 		.4byte	.LFE8
 2454 002c 0100     		.2byte	0x1
 2455 002e 50       		.byte	0x50
 2456 002f 00000000 		.4byte	0
 2457 0033 00000000 		.4byte	0
 2458              	.LLST1:
 2459 0037 0E000000 		.4byte	.LVL2
 2460 003b 14000000 		.4byte	.LVL3
 2461 003f 0100     		.2byte	0x1
 2462 0041 50       		.byte	0x50
 2463 0042 14000000 		.4byte	.LVL3
 2464 0046 1D000000 		.4byte	.LVL4-1
 2465 004a 0100     		.2byte	0x1
 2466 004c 53       		.byte	0x53
 2467 004d 1D000000 		.4byte	.LVL4-1
 2468 0051 26000000 		.4byte	.LVL5
 2469 0055 0400     		.2byte	0x4
 2470 0057 F3       		.byte	0xf3
 2471 0058 01       		.uleb128 0x1
 2472 0059 50       		.byte	0x50
 2473 005a 9F       		.byte	0x9f
 2474 005b 00000000 		.4byte	0
 2475 005f 00000000 		.4byte	0
 2476              	.LLST2:
 2477 0063 0E000000 		.4byte	.LVL2
 2478 0067 1D000000 		.4byte	.LVL4-1
 2479 006b 0100     		.2byte	0x1
 2480 006d 52       		.byte	0x52
 2481 006e 00000000 		.4byte	0
 2482 0072 00000000 		.4byte	0
 2483              	.LLST3:
 2484 0076 00000000 		.4byte	.LVL6
 2485 007a 0E000000 		.4byte	.LVL8
 2486 007e 0100     		.2byte	0x1
 2487 0080 50       		.byte	0x50
 2488 0081 0E000000 		.4byte	.LVL8
 2489 0085 15000000 		.4byte	.LVL9-1
 2490 0089 0100     		.2byte	0x1
 2491 008b 53       		.byte	0x53
 2492 008c 15000000 		.4byte	.LVL9-1
 2493 0090 1C000000 		.4byte	.LVL10
 2494 0094 0400     		.2byte	0x4
 2495 0096 F3       		.byte	0xf3
 2496 0097 01       		.uleb128 0x1
 2497 0098 50       		.byte	0x50
 2498 0099 9F       		.byte	0x9f
 2499 009a 1C000000 		.4byte	.LVL10
 2500 009e 1E000000 		.4byte	.LFE9
 2501 00a2 0100     		.2byte	0x1
 2502 00a4 50       		.byte	0x50
 2503 00a5 00000000 		.4byte	0
 2504 00a9 00000000 		.4byte	0
 2505              	.LLST4:
 2506 00ad 0A000000 		.4byte	.LVL7
 2507 00b1 0E000000 		.4byte	.LVL8
 2508 00b5 0100     		.2byte	0x1
ARM GAS  /tmp/ccyqvzbq.s 			page 45


 2509 00b7 50       		.byte	0x50
 2510 00b8 0E000000 		.4byte	.LVL8
 2511 00bc 15000000 		.4byte	.LVL9-1
 2512 00c0 0100     		.2byte	0x1
 2513 00c2 53       		.byte	0x53
 2514 00c3 15000000 		.4byte	.LVL9-1
 2515 00c7 1C000000 		.4byte	.LVL10
 2516 00cb 0400     		.2byte	0x4
 2517 00cd F3       		.byte	0xf3
 2518 00ce 01       		.uleb128 0x1
 2519 00cf 50       		.byte	0x50
 2520 00d0 9F       		.byte	0x9f
 2521 00d1 00000000 		.4byte	0
 2522 00d5 00000000 		.4byte	0
 2523              	.LLST5:
 2524 00d9 0A000000 		.4byte	.LVL7
 2525 00dd 15000000 		.4byte	.LVL9-1
 2526 00e1 0100     		.2byte	0x1
 2527 00e3 52       		.byte	0x52
 2528 00e4 00000000 		.4byte	0
 2529 00e8 00000000 		.4byte	0
 2530              	.LLST6:
 2531 00ec 00000000 		.4byte	.LVL11
 2532 00f0 06000000 		.4byte	.LVL12
 2533 00f4 0100     		.2byte	0x1
 2534 00f6 50       		.byte	0x50
 2535 00f7 06000000 		.4byte	.LVL12
 2536 00fb 22000000 		.4byte	.LFE11
 2537 00ff 0100     		.2byte	0x1
 2538 0101 54       		.byte	0x54
 2539 0102 00000000 		.4byte	0
 2540 0106 00000000 		.4byte	0
 2541              	.LLST7:
 2542 010a 0E000000 		.4byte	.LVL13
 2543 010e 20000000 		.4byte	.LVL15
 2544 0112 0100     		.2byte	0x1
 2545 0114 54       		.byte	0x54
 2546 0115 00000000 		.4byte	0
 2547 0119 00000000 		.4byte	0
 2548              	.LLST8:
 2549 011d 0E000000 		.4byte	.LVL13
 2550 0121 17000000 		.4byte	.LVL14-1
 2551 0125 0100     		.2byte	0x1
 2552 0127 50       		.byte	0x50
 2553 0128 00000000 		.4byte	0
 2554 012c 00000000 		.4byte	0
 2555              	.LLST9:
 2556 0130 00000000 		.4byte	.LVL16
 2557 0134 0B000000 		.4byte	.LVL17-1
 2558 0138 0100     		.2byte	0x1
 2559 013a 50       		.byte	0x50
 2560 013b 0B000000 		.4byte	.LVL17-1
 2561 013f 18000000 		.4byte	.LFE10
 2562 0143 0400     		.2byte	0x4
 2563 0145 F3       		.byte	0xf3
 2564 0146 01       		.uleb128 0x1
 2565 0147 50       		.byte	0x50
ARM GAS  /tmp/ccyqvzbq.s 			page 46


 2566 0148 9F       		.byte	0x9f
 2567 0149 00000000 		.4byte	0
 2568 014d 00000000 		.4byte	0
 2569              	.LLST10:
 2570 0151 00000000 		.4byte	.LVL19
 2571 0155 0B000000 		.4byte	.LVL21-1
 2572 0159 0100     		.2byte	0x1
 2573 015b 50       		.byte	0x50
 2574 015c 0B000000 		.4byte	.LVL21-1
 2575 0160 3E000000 		.4byte	.LVL30
 2576 0164 0100     		.2byte	0x1
 2577 0166 55       		.byte	0x55
 2578 0167 3E000000 		.4byte	.LVL30
 2579 016b 44000000 		.4byte	.LFE13
 2580 016f 0400     		.2byte	0x4
 2581 0171 F3       		.byte	0xf3
 2582 0172 01       		.uleb128 0x1
 2583 0173 50       		.byte	0x50
 2584 0174 9F       		.byte	0x9f
 2585 0175 00000000 		.4byte	0
 2586 0179 00000000 		.4byte	0
 2587              	.LLST11:
 2588 017d 08000000 		.4byte	.LVL20
 2589 0181 34000000 		.4byte	.LVL28
 2590 0185 0100     		.2byte	0x1
 2591 0187 54       		.byte	0x54
 2592 0188 00000000 		.4byte	0
 2593 018c 00000000 		.4byte	0
 2594              	.LLST12:
 2595 0190 10000000 		.4byte	.LVL22
 2596 0194 26000000 		.4byte	.LVL26
 2597 0198 0100     		.2byte	0x1
 2598 019a 50       		.byte	0x50
 2599 019b 26000000 		.4byte	.LVL26
 2600 019f 3E000000 		.4byte	.LVL30
 2601 01a3 0100     		.2byte	0x1
 2602 01a5 56       		.byte	0x56
 2603 01a6 00000000 		.4byte	0
 2604 01aa 00000000 		.4byte	0
 2605              	.LLST13:
 2606 01ae 34000000 		.4byte	.LVL28
 2607 01b2 3E000000 		.4byte	.LVL30
 2608 01b6 0100     		.2byte	0x1
 2609 01b8 54       		.byte	0x54
 2610 01b9 3E000000 		.4byte	.LVL30
 2611 01bd 44000000 		.4byte	.LFE13
 2612 01c1 0100     		.2byte	0x1
 2613 01c3 50       		.byte	0x50
 2614 01c4 00000000 		.4byte	0
 2615 01c8 00000000 		.4byte	0
 2616              	.LLST14:
 2617 01cc 12000000 		.4byte	.LVL23
 2618 01d0 3E000000 		.4byte	.LVL30
 2619 01d4 0100     		.2byte	0x1
 2620 01d6 55       		.byte	0x55
 2621 01d7 3E000000 		.4byte	.LVL30
 2622 01db 44000000 		.4byte	.LFE13
ARM GAS  /tmp/ccyqvzbq.s 			page 47


 2623 01df 0400     		.2byte	0x4
 2624 01e1 F3       		.byte	0xf3
 2625 01e2 01       		.uleb128 0x1
 2626 01e3 50       		.byte	0x50
 2627 01e4 9F       		.byte	0x9f
 2628 01e5 00000000 		.4byte	0
 2629 01e9 00000000 		.4byte	0
 2630              	.LLST15:
 2631 01ed 12000000 		.4byte	.LVL23
 2632 01f1 34000000 		.4byte	.LVL28
 2633 01f5 0100     		.2byte	0x1
 2634 01f7 54       		.byte	0x54
 2635 01f8 00000000 		.4byte	0
 2636 01fc 00000000 		.4byte	0
 2637              	.LLST16:
 2638 0200 12000000 		.4byte	.LVL23
 2639 0204 14000000 		.4byte	.LVL24
 2640 0208 0100     		.2byte	0x1
 2641 020a 55       		.byte	0x55
 2642 020b 14000000 		.4byte	.LVL24
 2643 020f 31000000 		.4byte	.LVL27-1
 2644 0213 0100     		.2byte	0x1
 2645 0215 53       		.byte	0x53
 2646 0216 00000000 		.4byte	0
 2647 021a 00000000 		.4byte	0
 2648              	.LLST17:
 2649 021e 00000000 		.4byte	.LVL31
 2650 0222 0B000000 		.4byte	.LVL32-1
 2651 0226 0100     		.2byte	0x1
 2652 0228 50       		.byte	0x50
 2653 0229 0B000000 		.4byte	.LVL32-1
 2654 022d 14000000 		.4byte	.LFE12
 2655 0231 0400     		.2byte	0x4
 2656 0233 F3       		.byte	0xf3
 2657 0234 01       		.uleb128 0x1
 2658 0235 50       		.byte	0x50
 2659 0236 9F       		.byte	0x9f
 2660 0237 00000000 		.4byte	0
 2661 023b 00000000 		.4byte	0
 2662              	.LLST18:
 2663 023f 00000000 		.4byte	.LVL33
 2664 0243 09000000 		.4byte	.LVL34-1
 2665 0247 0100     		.2byte	0x1
 2666 0249 50       		.byte	0x50
 2667 024a 09000000 		.4byte	.LVL34-1
 2668 024e 46000000 		.4byte	.LVL43
 2669 0252 0100     		.2byte	0x1
 2670 0254 55       		.byte	0x55
 2671 0255 46000000 		.4byte	.LVL43
 2672 0259 4C000000 		.4byte	.LFE15
 2673 025d 0400     		.2byte	0x4
 2674 025f F3       		.byte	0xf3
 2675 0260 01       		.uleb128 0x1
 2676 0261 50       		.byte	0x50
 2677 0262 9F       		.byte	0x9f
 2678 0263 00000000 		.4byte	0
 2679 0267 00000000 		.4byte	0
ARM GAS  /tmp/ccyqvzbq.s 			page 48


 2680              	.LLST19:
 2681 026b 00000000 		.4byte	.LVL33
 2682 026f 09000000 		.4byte	.LVL34-1
 2683 0273 0100     		.2byte	0x1
 2684 0275 51       		.byte	0x51
 2685 0276 09000000 		.4byte	.LVL34-1
 2686 027a 46000000 		.4byte	.LVL43
 2687 027e 0100     		.2byte	0x1
 2688 0280 57       		.byte	0x57
 2689 0281 46000000 		.4byte	.LVL43
 2690 0285 4C000000 		.4byte	.LFE15
 2691 0289 0400     		.2byte	0x4
 2692 028b F3       		.byte	0xf3
 2693 028c 01       		.uleb128 0x1
 2694 028d 51       		.byte	0x51
 2695 028e 9F       		.byte	0x9f
 2696 028f 00000000 		.4byte	0
 2697 0293 00000000 		.4byte	0
 2698              	.LLST20:
 2699 0297 0E000000 		.4byte	.LVL35
 2700 029b 16000000 		.4byte	.LVL37
 2701 029f 0100     		.2byte	0x1
 2702 02a1 50       		.byte	0x50
 2703 02a2 16000000 		.4byte	.LVL37
 2704 02a6 46000000 		.4byte	.LVL43
 2705 02aa 0100     		.2byte	0x1
 2706 02ac 56       		.byte	0x56
 2707 02ad 00000000 		.4byte	0
 2708 02b1 00000000 		.4byte	0
 2709              	.LLST21:
 2710 02b5 3A000000 		.4byte	.LVL40
 2711 02b9 3E000000 		.4byte	.LVL41
 2712 02bd 0100     		.2byte	0x1
 2713 02bf 50       		.byte	0x50
 2714 02c0 3E000000 		.4byte	.LVL41
 2715 02c4 46000000 		.4byte	.LVL43
 2716 02c8 0100     		.2byte	0x1
 2717 02ca 54       		.byte	0x54
 2718 02cb 46000000 		.4byte	.LVL43
 2719 02cf 4C000000 		.4byte	.LFE15
 2720 02d3 0100     		.2byte	0x1
 2721 02d5 50       		.byte	0x50
 2722 02d6 00000000 		.4byte	0
 2723 02da 00000000 		.4byte	0
 2724              	.LLST22:
 2725 02de 14000000 		.4byte	.LVL36
 2726 02e2 46000000 		.4byte	.LVL43
 2727 02e6 0100     		.2byte	0x1
 2728 02e8 55       		.byte	0x55
 2729 02e9 46000000 		.4byte	.LVL43
 2730 02ed 4C000000 		.4byte	.LFE15
 2731 02f1 0400     		.2byte	0x4
 2732 02f3 F3       		.byte	0xf3
 2733 02f4 01       		.uleb128 0x1
 2734 02f5 50       		.byte	0x50
 2735 02f6 9F       		.byte	0x9f
 2736 02f7 00000000 		.4byte	0
ARM GAS  /tmp/ccyqvzbq.s 			page 49


 2737 02fb 00000000 		.4byte	0
 2738              	.LLST23:
 2739 02ff 14000000 		.4byte	.LVL36
 2740 0303 3A000000 		.4byte	.LVL40
 2741 0307 0100     		.2byte	0x1
 2742 0309 54       		.byte	0x54
 2743 030a 00000000 		.4byte	0
 2744 030e 00000000 		.4byte	0
 2745              	.LLST24:
 2746 0312 14000000 		.4byte	.LVL36
 2747 0316 16000000 		.4byte	.LVL37
 2748 031a 0100     		.2byte	0x1
 2749 031c 55       		.byte	0x55
 2750 031d 16000000 		.4byte	.LVL37
 2751 0321 35000000 		.4byte	.LVL39-1
 2752 0325 0100     		.2byte	0x1
 2753 0327 53       		.byte	0x53
 2754 0328 00000000 		.4byte	0
 2755 032c 00000000 		.4byte	0
 2756              	.LLST25:
 2757 0330 00000000 		.4byte	.LVL44
 2758 0334 0B000000 		.4byte	.LVL45-1
 2759 0338 0100     		.2byte	0x1
 2760 033a 50       		.byte	0x50
 2761 033b 0B000000 		.4byte	.LVL45-1
 2762 033f 14000000 		.4byte	.LFE14
 2763 0343 0400     		.2byte	0x4
 2764 0345 F3       		.byte	0xf3
 2765 0346 01       		.uleb128 0x1
 2766 0347 50       		.byte	0x50
 2767 0348 9F       		.byte	0x9f
 2768 0349 00000000 		.4byte	0
 2769 034d 00000000 		.4byte	0
 2770              	.LLST26:
 2771 0351 00000000 		.4byte	.LVL44
 2772 0355 0B000000 		.4byte	.LVL45-1
 2773 0359 0100     		.2byte	0x1
 2774 035b 51       		.byte	0x51
 2775 035c 0B000000 		.4byte	.LVL45-1
 2776 0360 14000000 		.4byte	.LFE14
 2777 0364 0400     		.2byte	0x4
 2778 0366 F3       		.byte	0xf3
 2779 0367 01       		.uleb128 0x1
 2780 0368 51       		.byte	0x51
 2781 0369 9F       		.byte	0x9f
 2782 036a 00000000 		.4byte	0
 2783 036e 00000000 		.4byte	0
 2784              		.section	.debug_aranges,"",%progbits
 2785 0000 5C000000 		.4byte	0x5c
 2786 0004 0200     		.2byte	0x2
 2787 0006 00000000 		.4byte	.Ldebug_info0
 2788 000a 04       		.byte	0x4
 2789 000b 00       		.byte	0
 2790 000c 0000     		.2byte	0
 2791 000e 0000     		.2byte	0
 2792 0010 00000000 		.4byte	.LFB7
 2793 0014 06000000 		.4byte	.LFE7-.LFB7
ARM GAS  /tmp/ccyqvzbq.s 			page 50


 2794 0018 00000000 		.4byte	.LFB8
 2795 001c 2E000000 		.4byte	.LFE8-.LFB8
 2796 0020 00000000 		.4byte	.LFB9
 2797 0024 1E000000 		.4byte	.LFE9-.LFB9
 2798 0028 00000000 		.4byte	.LFB11
 2799 002c 22000000 		.4byte	.LFE11-.LFB11
 2800 0030 00000000 		.4byte	.LFB10
 2801 0034 18000000 		.4byte	.LFE10-.LFB10
 2802 0038 00000000 		.4byte	.LFB13
 2803 003c 44000000 		.4byte	.LFE13-.LFB13
 2804 0040 00000000 		.4byte	.LFB12
 2805 0044 14000000 		.4byte	.LFE12-.LFB12
 2806 0048 00000000 		.4byte	.LFB15
 2807 004c 4C000000 		.4byte	.LFE15-.LFB15
 2808 0050 00000000 		.4byte	.LFB14
 2809 0054 14000000 		.4byte	.LFE14-.LFB14
 2810 0058 00000000 		.4byte	0
 2811 005c 00000000 		.4byte	0
 2812              		.section	.debug_ranges,"",%progbits
 2813              	.Ldebug_ranges0:
 2814 0000 10000000 		.4byte	.LBB15
 2815 0004 12000000 		.4byte	.LBE15
 2816 0008 14000000 		.4byte	.LBB19
 2817 000c 16000000 		.4byte	.LBE19
 2818 0010 18000000 		.4byte	.LBB20
 2819 0014 1A000000 		.4byte	.LBE20
 2820 0018 00000000 		.4byte	0
 2821 001c 00000000 		.4byte	0
 2822 0020 0A000000 		.4byte	.LBB22
 2823 0024 0C000000 		.4byte	.LBE22
 2824 0028 0E000000 		.4byte	.LBB25
 2825 002c 12000000 		.4byte	.LBE25
 2826 0030 00000000 		.4byte	0
 2827 0034 00000000 		.4byte	0
 2828 0038 0C000000 		.4byte	.LBB30
 2829 003c 0E000000 		.4byte	.LBE30
 2830 0040 14000000 		.4byte	.LBB34
 2831 0044 24000000 		.4byte	.LBE34
 2832 0048 26000000 		.4byte	.LBB35
 2833 004c 2E000000 		.4byte	.LBE35
 2834 0050 00000000 		.4byte	0
 2835 0054 00000000 		.4byte	0
 2836 0058 10000000 		.4byte	.LBB38
 2837 005c 12000000 		.4byte	.LBE38
 2838 0060 16000000 		.4byte	.LBB43
 2839 0064 26000000 		.4byte	.LBE43
 2840 0068 28000000 		.4byte	.LBB44
 2841 006c 2C000000 		.4byte	.LBE44
 2842 0070 2E000000 		.4byte	.LBB45
 2843 0074 32000000 		.4byte	.LBE45
 2844 0078 00000000 		.4byte	0
 2845 007c 00000000 		.4byte	0
 2846 0080 00000000 		.4byte	.LFB7
 2847 0084 06000000 		.4byte	.LFE7
 2848 0088 00000000 		.4byte	.LFB8
 2849 008c 2E000000 		.4byte	.LFE8
 2850 0090 00000000 		.4byte	.LFB9
ARM GAS  /tmp/ccyqvzbq.s 			page 51


 2851 0094 1E000000 		.4byte	.LFE9
 2852 0098 00000000 		.4byte	.LFB11
 2853 009c 22000000 		.4byte	.LFE11
 2854 00a0 00000000 		.4byte	.LFB10
 2855 00a4 18000000 		.4byte	.LFE10
 2856 00a8 00000000 		.4byte	.LFB13
 2857 00ac 44000000 		.4byte	.LFE13
 2858 00b0 00000000 		.4byte	.LFB12
 2859 00b4 14000000 		.4byte	.LFE12
 2860 00b8 00000000 		.4byte	.LFB15
 2861 00bc 4C000000 		.4byte	.LFE15
 2862 00c0 00000000 		.4byte	.LFB14
 2863 00c4 14000000 		.4byte	.LFE14
 2864 00c8 00000000 		.4byte	0
 2865 00cc 00000000 		.4byte	0
 2866              		.section	.debug_line,"",%progbits
 2867              	.Ldebug_line0:
 2868 0000 8B020000 		.section	.debug_str,"MS",%progbits,1
 2868      02002D01 
 2868      00000201 
 2868      FB0E0D00 
 2868      01010101 
 2869              	.LASF37:
 2870 0000 705F6D73 		.ascii	"p_msg\000"
 2870      6700
 2871              	.LASF67:
 2872 0006 6368436F 		.ascii	"chCondInit\000"
 2872      6E64496E 
 2872      697400
 2873              	.LASF62:
 2874 0011 7264796D 		.ascii	"rdymsg\000"
 2874      736700
 2875              	.LASF5:
 2876 0018 5F5F7569 		.ascii	"__uint8_t\000"
 2876      6E74385F 
 2876      7400
 2877              	.LASF11:
 2878 0022 6C6F6E67 		.ascii	"long long unsigned int\000"
 2878      206C6F6E 
 2878      6720756E 
 2878      7369676E 
 2878      65642069 
 2879              	.LASF63:
 2880 0039 65786974 		.ascii	"exitcode\000"
 2880      636F6465 
 2880      00
 2881              	.LASF70:
 2882 0042 6368436F 		.ascii	"chCondBroadcastI\000"
 2882      6E644272 
 2882      6F616463 
 2882      61737449 
 2882      00
 2883              	.LASF26:
 2884 0053 705F7072 		.ascii	"p_prio\000"
 2884      696F00
 2885              	.LASF10:
 2886 005a 6C6F6E67 		.ascii	"long long int\000"
ARM GAS  /tmp/ccyqvzbq.s 			page 52


 2886      206C6F6E 
 2886      6720696E 
 2886      7400
 2887              	.LASF1:
 2888 0068 7369676E 		.ascii	"signed char\000"
 2888      65642063 
 2888      68617200 
 2889              	.LASF41:
 2890 0074 705F6D70 		.ascii	"p_mpool\000"
 2890      6F6F6C00 
 2891              	.LASF57:
 2892 007c 6D5F7175 		.ascii	"m_queue\000"
 2892      65756500 
 2893              	.LASF60:
 2894 0084 436F6E64 		.ascii	"CondVar\000"
 2894      56617200 
 2895              	.LASF7:
 2896 008c 6C6F6E67 		.ascii	"long int\000"
 2896      20696E74 
 2896      00
 2897              	.LASF16:
 2898 0095 74737461 		.ascii	"tstate_t\000"
 2898      74655F74 
 2898      00
 2899              	.LASF79:
 2900 009e 63684D74 		.ascii	"chMtxLockS\000"
 2900      784C6F63 
 2900      6B5300
 2901              	.LASF28:
 2902 00a9 705F6E65 		.ascii	"p_newer\000"
 2902      77657200 
 2903              	.LASF88:
 2904 00b1 63685363 		.ascii	"chSchRescheduleS\000"
 2904      68526573 
 2904      63686564 
 2904      756C6553 
 2904      00
 2905              	.LASF8:
 2906 00c2 5F5F7569 		.ascii	"__uint32_t\000"
 2906      6E743332 
 2906      5F7400
 2907              	.LASF44:
 2908 00cd 72656761 		.ascii	"regarm_t\000"
 2908      726D5F74 
 2908      00
 2909              	.LASF68:
 2910 00d6 6368436F 		.ascii	"chCondSignal\000"
 2910      6E645369 
 2910      676E616C 
 2910      00
 2911              	.LASF83:
 2912 00e3 2F686F6D 		.ascii	"/home/raparram/Escritorio/blinkSAM\000"
 2912      652F7261 
 2912      70617272 
 2912      616D2F45 
 2912      73637269 
 2913              	.LASF22:
ARM GAS  /tmp/ccyqvzbq.s 			page 53


 2914 0106 636E745F 		.ascii	"cnt_t\000"
 2914      7400
 2915              	.LASF89:
 2916 010c 63684D74 		.ascii	"chMtxUnlockS\000"
 2916      78556E6C 
 2916      6F636B53 
 2916      00
 2917              	.LASF0:
 2918 0119 756E7369 		.ascii	"unsigned int\000"
 2918      676E6564 
 2918      20696E74 
 2918      00
 2919              	.LASF9:
 2920 0126 6C6F6E67 		.ascii	"long unsigned int\000"
 2920      20756E73 
 2920      69676E65 
 2920      6420696E 
 2920      7400
 2921              	.LASF46:
 2922 0138 636F6E74 		.ascii	"context\000"
 2922      65787400 
 2923              	.LASF4:
 2924 0140 73686F72 		.ascii	"short unsigned int\000"
 2924      7420756E 
 2924      7369676E 
 2924      65642069 
 2924      6E7400
 2925              	.LASF19:
 2926 0153 6D73675F 		.ascii	"msg_t\000"
 2926      7400
 2927              	.LASF51:
 2928 0159 725F6E65 		.ascii	"r_newer\000"
 2928      77657200 
 2929              	.LASF15:
 2930 0161 746D6F64 		.ascii	"tmode_t\000"
 2930      655F7400 
 2931              	.LASF43:
 2932 0169 54687265 		.ascii	"ThreadsList\000"
 2932      6164734C 
 2932      69737400 
 2933              	.LASF20:
 2934 0175 6576656E 		.ascii	"eventmask_t\000"
 2934      746D6173 
 2934      6B5F7400 
 2935              	.LASF56:
 2936 0181 4D757465 		.ascii	"Mutex\000"
 2936      7800
 2937              	.LASF81:
 2938 0187 474E5520 		.ascii	"GNU C 4.9.3 20150529 (prerelease) -mcpu=cortex-m3 -"
 2938      4320342E 
 2938      392E3320 
 2938      32303135 
 2938      30353239 
 2939 01ba 6D6E6F2D 		.ascii	"mno-thumb-interwork -mthumb -ggdb -O2 -std=gnu99 -f"
 2939      7468756D 
 2939      622D696E 
 2939      74657277 
ARM GAS  /tmp/ccyqvzbq.s 			page 54


 2939      6F726B20 
 2940 01ed 6F6D6974 		.ascii	"omit-frame-pointer -falign-functions=16 -ffunction-"
 2940      2D667261 
 2940      6D652D70 
 2940      6F696E74 
 2940      6572202D 
 2941 0220 73656374 		.ascii	"sections -fdata-sections -fno-common\000"
 2941      696F6E73 
 2941      202D6664 
 2941      6174612D 
 2941      73656374 
 2942              	.LASF47:
 2943 0245 73697A65 		.ascii	"sizetype\000"
 2943      74797065 
 2943      00
 2944              	.LASF74:
 2945 024e 6368436F 		.ascii	"chCondWaitTimeoutS\000"
 2945      6E645761 
 2945      69745469 
 2945      6D656F75 
 2945      745300
 2946              	.LASF29:
 2947 0261 705F6F6C 		.ascii	"p_older\000"
 2947      64657200 
 2948              	.LASF50:
 2949 0269 725F6374 		.ascii	"r_ctx\000"
 2949      7800
 2950              	.LASF42:
 2951 026f 54687265 		.ascii	"ThreadsQueue\000"
 2951      61647351 
 2951      75657565 
 2951      00
 2952              	.LASF75:
 2953 027c 74696D65 		.ascii	"time\000"
 2953      00
 2954              	.LASF54:
 2955 0281 725F6375 		.ascii	"r_current\000"
 2955      7272656E 
 2955      7400
 2956              	.LASF52:
 2957 028b 725F6F6C 		.ascii	"r_older\000"
 2957      64657200 
 2958              	.LASF71:
 2959 0293 6368436F 		.ascii	"chCondBroadcast\000"
 2959      6E644272 
 2959      6F616463 
 2959      61737400 
 2960              	.LASF17:
 2961 02a3 74726566 		.ascii	"trefs_t\000"
 2961      735F7400 
 2962              	.LASF25:
 2963 02ab 705F7072 		.ascii	"p_prev\000"
 2963      657600
 2964              	.LASF18:
 2965 02b2 74707269 		.ascii	"tprio_t\000"
 2965      6F5F7400 
 2966              	.LASF69:
ARM GAS  /tmp/ccyqvzbq.s 			page 55


 2967 02ba 6368436F 		.ascii	"chCondSignalI\000"
 2967      6E645369 
 2967      676E616C 
 2967      4900
 2968              	.LASF13:
 2969 02c8 696E7433 		.ascii	"int32_t\000"
 2969      325F7400 
 2970              	.LASF2:
 2971 02d0 756E7369 		.ascii	"unsigned char\000"
 2971      676E6564 
 2971      20636861 
 2971      7200
 2972              	.LASF39:
 2973 02de 705F6D74 		.ascii	"p_mtxlist\000"
 2973      786C6973 
 2973      7400
 2974              	.LASF3:
 2975 02e8 73686F72 		.ascii	"short int\000"
 2975      7420696E 
 2975      7400
 2976              	.LASF31:
 2977 02f2 705F7374 		.ascii	"p_state\000"
 2977      61746500 
 2978              	.LASF49:
 2979 02fa 725F7072 		.ascii	"r_prio\000"
 2979      696F00
 2980              	.LASF65:
 2981 0301 65776D61 		.ascii	"ewmask\000"
 2981      736B00
 2982              	.LASF24:
 2983 0308 705F6E65 		.ascii	"p_next\000"
 2983      787400
 2984              	.LASF32:
 2985 030f 705F666C 		.ascii	"p_flags\000"
 2985      61677300 
 2986              	.LASF23:
 2987 0317 54687265 		.ascii	"Thread\000"
 2987      616400
 2988              	.LASF61:
 2989 031e 635F7175 		.ascii	"c_queue\000"
 2989      65756500 
 2990              	.LASF78:
 2991 0326 63685363 		.ascii	"chSchGoSleepS\000"
 2991      68476F53 
 2991      6C656570 
 2991      5300
 2992              	.LASF38:
 2993 0334 705F6570 		.ascii	"p_epending\000"
 2993      656E6469 
 2993      6E6700
 2994              	.LASF14:
 2995 033f 75696E74 		.ascii	"uint32_t\000"
 2995      33325F74 
 2995      00
 2996              	.LASF48:
 2997 0348 725F7175 		.ascii	"r_queue\000"
 2997      65756500 
ARM GAS  /tmp/ccyqvzbq.s 			page 56


 2998              	.LASF87:
 2999 0350 63685363 		.ascii	"chSchReadyI\000"
 2999      68526561 
 2999      64794900 
 3000              	.LASF66:
 3001 035c 63686172 		.ascii	"char\000"
 3001      00
 3002              	.LASF84:
 3003 0361 6669666F 		.ascii	"fifo_remove\000"
 3003      5F72656D 
 3003      6F766500 
 3004              	.LASF72:
 3005 036d 6368436F 		.ascii	"chCondWaitS\000"
 3005      6E645761 
 3005      69745300 
 3006              	.LASF59:
 3007 0379 6D5F6E65 		.ascii	"m_next\000"
 3007      787400
 3008              	.LASF21:
 3009 0380 73797374 		.ascii	"systime_t\000"
 3009      696D655F 
 3009      7400
 3010              	.LASF40:
 3011 038a 705F7265 		.ascii	"p_realprio\000"
 3011      616C7072 
 3011      696F00
 3012              	.LASF6:
 3013 0395 5F5F696E 		.ascii	"__int32_t\000"
 3013      7433325F 
 3013      7400
 3014              	.LASF85:
 3015 039f 7072696F 		.ascii	"prio_insert\000"
 3015      5F696E73 
 3015      65727400 
 3016              	.LASF73:
 3017 03ab 6368436F 		.ascii	"chCondWait\000"
 3017      6E645761 
 3017      697400
 3018              	.LASF34:
 3019 03b6 705F7469 		.ascii	"p_time\000"
 3019      6D6500
 3020              	.LASF45:
 3021 03bd 696E7463 		.ascii	"intctx\000"
 3021      747800
 3022              	.LASF36:
 3023 03c4 705F6D73 		.ascii	"p_msgqueue\000"
 3023      67717565 
 3023      756500
 3024              	.LASF77:
 3025 03cf 63685363 		.ascii	"chSchWakeupS\000"
 3025      6857616B 
 3025      65757053 
 3025      00
 3026              	.LASF82:
 3027 03dc 43686962 		.ascii	"ChibiOS//os/kernel/src/chcond.c\000"
 3027      694F532F 
 3027      2F6F732F 
ARM GAS  /tmp/ccyqvzbq.s 			page 57


 3027      6B65726E 
 3027      656C2F73 
 3028              	.LASF33:
 3029 03fc 705F7265 		.ascii	"p_refs\000"
 3029      667300
 3030              	.LASF55:
 3031 0403 52656164 		.ascii	"ReadyList\000"
 3031      794C6973 
 3031      7400
 3032              	.LASF86:
 3033 040d 726C6973 		.ascii	"rlist\000"
 3033      7400
 3034              	.LASF12:
 3035 0413 75696E74 		.ascii	"uint8_t\000"
 3035      385F7400 
 3036              	.LASF64:
 3037 041b 77746F62 		.ascii	"wtobjp\000"
 3037      6A7000
 3038              	.LASF30:
 3039 0422 705F6E61 		.ascii	"p_name\000"
 3039      6D6500
 3040              	.LASF76:
 3041 0429 6368436F 		.ascii	"chCondWaitTimeout\000"
 3041      6E645761 
 3041      69745469 
 3041      6D656F75 
 3041      7400
 3042              	.LASF80:
 3043 043b 63685363 		.ascii	"chSchGoSleepTimeoutS\000"
 3043      68476F53 
 3043      6C656570 
 3043      54696D65 
 3043      6F757453 
 3044              	.LASF53:
 3045 0450 725F7072 		.ascii	"r_preempt\000"
 3045      65656D70 
 3045      7400
 3046              	.LASF58:
 3047 045a 6D5F6F77 		.ascii	"m_owner\000"
 3047      6E657200 
 3048              	.LASF27:
 3049 0462 705F6374 		.ascii	"p_ctx\000"
 3049      7800
 3050              	.LASF35:
 3051 0468 705F7761 		.ascii	"p_waiting\000"
 3051      6974696E 
 3051      6700
 3052              		.ident	"GCC: (15:4.9.3+svn231177-1) 4.9.3 20150529 (prerelease)"
ARM GAS  /tmp/ccyqvzbq.s 			page 58


DEFINED SYMBOLS
                            *ABS*:0000000000000000 chcond.c
     /tmp/ccyqvzbq.s:19     .text.chCondInit:0000000000000000 $t
     /tmp/ccyqvzbq.s:25     .text.chCondInit:0000000000000000 chCondInit
     /tmp/ccyqvzbq.s:42     .text.chCondSignal:0000000000000000 $t
     /tmp/ccyqvzbq.s:48     .text.chCondSignal:0000000000000000 chCondSignal
     /tmp/ccyqvzbq.s:125    .text.chCondSignalI:0000000000000000 $t
     /tmp/ccyqvzbq.s:131    .text.chCondSignalI:0000000000000000 chCondSignalI
     /tmp/ccyqvzbq.s:181    .text.chCondBroadcastI:0000000000000000 $t
     /tmp/ccyqvzbq.s:187    .text.chCondBroadcastI:0000000000000000 chCondBroadcastI
     /tmp/ccyqvzbq.s:234    .text.chCondBroadcast:0000000000000000 $t
     /tmp/ccyqvzbq.s:240    .text.chCondBroadcast:0000000000000000 chCondBroadcast
     /tmp/ccyqvzbq.s:278    .text.chCondWaitS:0000000000000000 $t
     /tmp/ccyqvzbq.s:284    .text.chCondWaitS:0000000000000000 chCondWaitS
     /tmp/ccyqvzbq.s:373    .text.chCondWaitS:0000000000000040 $d
     /tmp/ccyqvzbq.s:378    .text.chCondWait:0000000000000000 $t
     /tmp/ccyqvzbq.s:384    .text.chCondWait:0000000000000000 chCondWait
     /tmp/ccyqvzbq.s:420    .text.chCondWaitTimeoutS:0000000000000000 $t
     /tmp/ccyqvzbq.s:426    .text.chCondWaitTimeoutS:0000000000000000 chCondWaitTimeoutS
     /tmp/ccyqvzbq.s:527    .text.chCondWaitTimeoutS:0000000000000048 $d
     /tmp/ccyqvzbq.s:532    .text.chCondWaitTimeout:0000000000000000 $t
     /tmp/ccyqvzbq.s:538    .text.chCondWaitTimeout:0000000000000000 chCondWaitTimeout
                     .debug_frame:0000000000000010 $d

UNDEFINED SYMBOLS
chSchWakeupS
chSchReadyI
chSchRescheduleS
chMtxUnlockS
chSchGoSleepS
chMtxLockS
rlist
chSchGoSleepTimeoutS
