ARM GAS  /tmp/ccyqvzbq.s 			page 1


   1              		.syntax unified
   2              		.cpu cortex-m3
   3              		.fpu softvfp
   4              		.eabi_attribute 20, 1
   5              		.eabi_attribute 21, 1
   6              		.eabi_attribute 23, 3
   7              		.eabi_attribute 24, 1
   8              		.eabi_attribute 25, 1
   9              		.eabi_attribute 26, 1
  10              		.eabi_attribute 30, 2
  11              		.eabi_attribute 34, 1
  12              		.eabi_attribute 18, 4
  13              		.thumb
  14              		.file	"chcond.c"
  15              		.text
  16              	.Ltext0:
  17              		.cfi_sections	.debug_frame
  18              		.section	.text.chCondInit,"ax",%progbits
  19              		.align	2
  20              		.p2align 4,,15
  21              		.global	chCondInit
  22              		.thumb
  23              		.thumb_func
  24              		.type	chCondInit, %function
  25              	chCondInit:
  26              	.LFB7:
  27              		.file 1 "ChibiOS//os/kernel/src/chcond.c"
  28              		.loc 1 59 0
  29              		.cfi_startproc
  30              		@ args = 0, pretend = 0, frame = 0
  31              		@ frame_needed = 0, uses_anonymous_args = 0
  32              		@ link register save eliminated.
  33              	.LVL0:
  34              		.loc 1 63 0
  35 0000 4060     		str	r0, [r0, #4]
  36 0002 0060     		str	r0, [r0]
  37 0004 7047     		bx	lr
  38              		.cfi_endproc
  39              	.LFE7:
  40              		.size	chCondInit, .-chCondInit
  41 0006 00BF     		.section	.text.chCondSignal,"ax",%progbits
  42              		.align	2
  43              		.p2align 4,,15
  44              		.global	chCondSignal
  45              		.thumb
  46              		.thumb_func
  47              		.type	chCondSignal, %function
  48              	chCondSignal:
  49              	.LFB8:
  50              		.loc 1 73 0
  51              		.cfi_startproc
  52              		@ args = 0, pretend = 0, frame = 0
  53              		@ frame_needed = 0, uses_anonymous_args = 0
  54              	.LVL1:
  55              	.LBB14:
  56              		.loc 1 77 0
  57 0000 2023     		movs	r3, #32
ARM GAS  /tmp/ccyqvzbq.s 			page 2


  58              	@ 77 "ChibiOS//os/kernel/src/chcond.c" 1
  59 0002 83F31188 		msr     BASEPRI, r3
  60              	@ 0 "" 2
  61              		.thumb
  62              	.LBE14:
  63              		.loc 1 78 0
  64 0006 0268     		ldr	r2, [r0]
  65 0008 8242     		cmp	r2, r0
  66 000a 0CD0     		beq	.L5
  67 000c 0346     		mov	r3, r0
  68              	.LVL2:
  69              		.loc 1 73 0
  70 000e 10B5     		push	{r4, lr}
  71              		.cfi_def_cfa_offset 8
  72              		.cfi_offset 4, -8
  73              		.cfi_offset 14, -4
  74              	.LBB15:
  75              	.LBB16:
  76              		.file 2 "ChibiOS//os/kernel/include/chinline.h"
  77              		.loc 2 62 0
  78 0010 1468     		ldr	r4, [r2]
  79              	.LBE16:
  80              	.LBE15:
  81              		.loc 1 79 0
  82 0012 1046     		mov	r0, r2
  83              	.LVL3:
  84              	.LBB19:
  85              	.LBB17:
  86              		.loc 2 62 0
  87 0014 1C60     		str	r4, [r3]
  88              	.LBE17:
  89              	.LBE19:
  90              		.loc 1 79 0
  91 0016 0021     		movs	r1, #0
  92              	.LBB20:
  93              	.LBB18:
  94              		.loc 2 62 0
  95 0018 6360     		str	r3, [r4, #4]
  96              	.LBE18:
  97              	.LBE20:
  98              		.loc 1 79 0
  99 001a FFF7FEFF 		bl	chSchWakeupS
 100              	.LVL4:
 101              	.LBB21:
 102              		.loc 1 80 0
 103 001e 0023     		movs	r3, #0
 104              	@ 80 "ChibiOS//os/kernel/src/chcond.c" 1
 105 0020 83F31188 		msr     BASEPRI, r3
 106              	@ 0 "" 2
 107              		.thumb
 108 0024 10BD     		pop	{r4, pc}
 109              	.LVL5:
 110              	.L5:
 111              		.cfi_def_cfa_offset 0
 112              		.cfi_restore 4
 113              		.cfi_restore 14
 114 0026 0023     		movs	r3, #0
ARM GAS  /tmp/ccyqvzbq.s 			page 3


 115              	@ 80 "ChibiOS//os/kernel/src/chcond.c" 1
 116 0028 83F31188 		msr     BASEPRI, r3
 117              	@ 0 "" 2
 118              		.thumb
 119 002c 7047     		bx	lr
 120              	.LBE21:
 121              		.cfi_endproc
 122              	.LFE8:
 123              		.size	chCondSignal, .-chCondSignal
 124 002e 00BF     		.section	.text.chCondSignalI,"ax",%progbits
 125              		.align	2
 126              		.p2align 4,,15
 127              		.global	chCondSignalI
 128              		.thumb
 129              		.thumb_func
 130              		.type	chCondSignalI, %function
 131              	chCondSignalI:
 132              	.LFB9:
 133              		.loc 1 94 0
 134              		.cfi_startproc
 135              		@ args = 0, pretend = 0, frame = 0
 136              		@ frame_needed = 0, uses_anonymous_args = 0
 137              	.LVL6:
 138              		.loc 1 99 0
 139 0000 0268     		ldr	r2, [r0]
 140 0002 8242     		cmp	r2, r0
 141 0004 0AD0     		beq	.L10
 142              		.loc 1 94 0
 143 0006 08B5     		push	{r3, lr}
 144              		.cfi_def_cfa_offset 8
 145              		.cfi_offset 3, -8
 146              		.cfi_offset 14, -4
 147 0008 0346     		mov	r3, r0
 148              	.LVL7:
 149              	.LBB22:
 150              	.LBB23:
 151              		.loc 2 62 0
 152 000a 1168     		ldr	r1, [r2]
 153              	.LBE23:
 154              	.LBE22:
 155              		.loc 1 100 0
 156 000c 1046     		mov	r0, r2
 157              	.LVL8:
 158              	.LBB25:
 159              	.LBB24:
 160              		.loc 2 62 0
 161 000e 1960     		str	r1, [r3]
 162 0010 4B60     		str	r3, [r1, #4]
 163              	.LBE24:
 164              	.LBE25:
 165              		.loc 1 100 0
 166 0012 FFF7FEFF 		bl	chSchReadyI
 167              	.LVL9:
 168 0016 0023     		movs	r3, #0
 169 0018 4362     		str	r3, [r0, #36]
 170 001a 08BD     		pop	{r3, pc}
 171              	.LVL10:
ARM GAS  /tmp/ccyqvzbq.s 			page 4


 172              	.L10:
 173              		.cfi_def_cfa_offset 0
 174              		.cfi_restore 3
 175              		.cfi_restore 14
 176 001c 7047     		bx	lr
 177              		.cfi_endproc
 178              	.LFE9:
 179              		.size	chCondSignalI, .-chCondSignalI
 180 001e 00BF     		.section	.text.chCondBroadcastI,"ax",%progbits
 181              		.align	2
 182              		.p2align 4,,15
 183              		.global	chCondBroadcastI
 184              		.thumb
 185              		.thumb_func
 186              		.type	chCondBroadcastI, %function
 187              	chCondBroadcastI:
 188              	.LFB11:
 189              		.loc 1 129 0
 190              		.cfi_startproc
 191              		@ args = 0, pretend = 0, frame = 0
 192              		@ frame_needed = 0, uses_anonymous_args = 0
 193              	.LVL11:
 194 0000 38B5     		push	{r3, r4, r5, lr}
 195              		.cfi_def_cfa_offset 16
 196              		.cfi_offset 3, -16
 197              		.cfi_offset 4, -12
 198              		.cfi_offset 5, -8
 199              		.cfi_offset 14, -4
 200              		.loc 1 129 0
 201 0002 0446     		mov	r4, r0
 202              		.loc 1 137 0
 203 0004 0068     		ldr	r0, [r0]
 204              	.LVL12:
 205 0006 A042     		cmp	r0, r4
 206 0008 0AD0     		beq	.L11
 207              		.loc 1 138 0
 208 000a 6FF00105 		mvn	r5, #1
 209              	.L13:
 210              	.LVL13:
 211              	.LBB26:
 212              	.LBB27:
 213              		.loc 2 62 0
 214 000e 0368     		ldr	r3, [r0]
 215 0010 2360     		str	r3, [r4]
 216 0012 5C60     		str	r4, [r3, #4]
 217              	.LBE27:
 218              	.LBE26:
 219              		.loc 1 138 0
 220 0014 FFF7FEFF 		bl	chSchReadyI
 221              	.LVL14:
 222 0018 4562     		str	r5, [r0, #36]
 223              		.loc 1 137 0
 224 001a 2068     		ldr	r0, [r4]
 225 001c A042     		cmp	r0, r4
 226 001e F6D1     		bne	.L13
 227              	.LVL15:
 228              	.L11:
ARM GAS  /tmp/ccyqvzbq.s 			page 5


 229 0020 38BD     		pop	{r3, r4, r5, pc}
 230              		.cfi_endproc
 231              	.LFE11:
 232              		.size	chCondBroadcastI, .-chCondBroadcastI
 233 0022 00BF     		.section	.text.chCondBroadcast,"ax",%progbits
 234              		.align	2
 235              		.p2align 4,,15
 236              		.global	chCondBroadcast
 237              		.thumb
 238              		.thumb_func
 239              		.type	chCondBroadcast, %function
 240              	chCondBroadcast:
 241              	.LFB10:
 242              		.loc 1 110 0
 243              		.cfi_startproc
 244              		@ args = 0, pretend = 0, frame = 0
 245              		@ frame_needed = 0, uses_anonymous_args = 0
 246              	.LVL16:
 247 0000 08B5     		push	{r3, lr}
 248              		.cfi_def_cfa_offset 8
 249              		.cfi_offset 3, -8
 250              		.cfi_offset 14, -4
 251              	.LBB28:
 252              		.loc 1 112 0
 253 0002 2023     		movs	r3, #32
 254              	@ 112 "ChibiOS//os/kernel/src/chcond.c" 1
 255 0004 83F31188 		msr     BASEPRI, r3
 256              	@ 0 "" 2
 257              		.thumb
 258              	.LBE28:
 259              		.loc 1 113 0
 260 0008 FFF7FEFF 		bl	chCondBroadcastI
 261              	.LVL17:
 262              		.loc 1 114 0
 263 000c FFF7FEFF 		bl	chSchRescheduleS
 264              	.LVL18:
 265              	.LBB29:
 266              		.loc 1 115 0
 267 0010 0023     		movs	r3, #0
 268              	@ 115 "ChibiOS//os/kernel/src/chcond.c" 1
 269 0012 83F31188 		msr     BASEPRI, r3
 270              	@ 0 "" 2
 271              		.thumb
 272 0016 08BD     		pop	{r3, pc}
 273              	.LBE29:
 274              		.cfi_endproc
 275              	.LFE10:
 276              		.size	chCondBroadcast, .-chCondBroadcast
 277              		.section	.text.chCondWaitS,"ax",%progbits
 278              		.align	2
 279              		.p2align 4,,15
 280              		.global	chCondWaitS
 281              		.thumb
 282              		.thumb_func
 283              		.type	chCondWaitS, %function
 284              	chCondWaitS:
 285              	.LFB13:
ARM GAS  /tmp/ccyqvzbq.s 			page 6


 286              		.loc 1 184 0
 287              		.cfi_startproc
 288              		@ args = 0, pretend = 0, frame = 0
 289              		@ frame_needed = 0, uses_anonymous_args = 0
 290              	.LVL19:
 291              		.loc 1 185 0
 292 0000 0F4B     		ldr	r3, .L27
 293              		.loc 1 184 0
 294 0002 70B5     		push	{r4, r5, r6, lr}
 295              		.cfi_def_cfa_offset 16
 296              		.cfi_offset 4, -16
 297              		.cfi_offset 5, -12
 298              		.cfi_offset 6, -8
 299              		.cfi_offset 14, -4
 300              		.loc 1 184 0
 301 0004 0546     		mov	r5, r0
 302              		.loc 1 185 0
 303 0006 DC69     		ldr	r4, [r3, #28]
 304              	.LVL20:
 305              		.loc 1 195 0
 306 0008 FFF7FEFF 		bl	chMtxUnlockS
 307              	.LVL21:
 308              	.LBB30:
 309              	.LBB31:
 310              		.loc 2 43 0
 311 000c 2B46     		mov	r3, r5
 312              	.LBE31:
 313              	.LBE30:
 314              		.loc 1 195 0
 315 000e 0646     		mov	r6, r0
 316              	.LVL22:
 317              		.loc 1 196 0
 318 0010 6562     		str	r5, [r4, #36]
 319              	.LVL23:
 320 0012 03E0     		b	.L21
 321              	.LVL24:
 322              	.L26:
 323              	.LBB34:
 324              	.LBB32:
 325              		.loc 2 46 0
 326 0014 9968     		ldr	r1, [r3, #8]
 327 0016 A268     		ldr	r2, [r4, #8]
 328 0018 9142     		cmp	r1, r2
 329 001a 02D3     		bcc	.L22
 330              	.L21:
 331              		.loc 2 45 0
 332 001c 1B68     		ldr	r3, [r3]
 333              	.LVL25:
 334              		.loc 2 46 0
 335 001e 9D42     		cmp	r5, r3
 336 0020 F8D1     		bne	.L26
 337              	.L22:
 338              		.loc 2 48 0
 339 0022 5A68     		ldr	r2, [r3, #4]
 340              	.LBE32:
 341              	.LBE34:
 342              		.loc 1 198 0
ARM GAS  /tmp/ccyqvzbq.s 			page 7


 343 0024 0520     		movs	r0, #5
 344              	.LVL26:
 345              	.LBB35:
 346              	.LBB33:
 347              		.loc 2 47 0
 348 0026 2360     		str	r3, [r4]
 349              		.loc 2 48 0
 350 0028 6260     		str	r2, [r4, #4]
 351              		.loc 2 49 0
 352 002a 5C60     		str	r4, [r3, #4]
 353 002c 1460     		str	r4, [r2]
 354              	.LBE33:
 355              	.LBE35:
 356              		.loc 1 198 0
 357 002e FFF7FEFF 		bl	chSchGoSleepS
 358              	.LVL27:
 359              		.loc 1 199 0
 360 0032 646A     		ldr	r4, [r4, #36]
 361              	.LVL28:
 362              		.loc 1 200 0
 363 0034 3046     		mov	r0, r6
 364 0036 FFF7FEFF 		bl	chMtxLockS
 365              	.LVL29:
 366              		.loc 1 202 0
 367 003a 2046     		mov	r0, r4
 368 003c 70BD     		pop	{r4, r5, r6, pc}
 369              	.LVL30:
 370              	.L28:
 371 003e 00BF     		.align	2
 372              	.L27:
 373 0040 00000000 		.word	rlist
 374              		.cfi_endproc
 375              	.LFE13:
 376              		.size	chCondWaitS, .-chCondWaitS
 377              		.section	.text.chCondWait,"ax",%progbits
 378              		.align	2
 379              		.p2align 4,,15
 380              		.global	chCondWait
 381              		.thumb
 382              		.thumb_func
 383              		.type	chCondWait, %function
 384              	chCondWait:
 385              	.LFB12:
 386              		.loc 1 158 0
 387              		.cfi_startproc
 388              		@ args = 0, pretend = 0, frame = 0
 389              		@ frame_needed = 0, uses_anonymous_args = 0
 390              	.LVL31:
 391 0000 08B5     		push	{r3, lr}
 392              		.cfi_def_cfa_offset 8
 393              		.cfi_offset 3, -8
 394              		.cfi_offset 14, -4
 395              	.LBB36:
 396              		.loc 1 161 0
 397 0002 2023     		movs	r3, #32
 398              	@ 161 "ChibiOS//os/kernel/src/chcond.c" 1
 399 0004 83F31188 		msr     BASEPRI, r3
ARM GAS  /tmp/ccyqvzbq.s 			page 8


 400              	@ 0 "" 2
 401              		.thumb
 402              	.LBE36:
 403              		.loc 1 162 0
 404 0008 FFF7FEFF 		bl	chCondWaitS
 405              	.LVL32:
 406              	.LBB37:
 407              		.loc 1 163 0
 408 000c 0023     		movs	r3, #0
 409              	@ 163 "ChibiOS//os/kernel/src/chcond.c" 1
 410 000e 83F31188 		msr     BASEPRI, r3
 411              	@ 0 "" 2
 412              		.thumb
 413              	.LBE37:
 414              		.loc 1 165 0
 415 0012 08BD     		pop	{r3, pc}
 416              		.cfi_endproc
 417              	.LFE12:
 418              		.size	chCondWait, .-chCondWait
 419              		.section	.text.chCondWaitTimeoutS,"ax",%progbits
 420              		.align	2
 421              		.p2align 4,,15
 422              		.global	chCondWaitTimeoutS
 423              		.thumb
 424              		.thumb_func
 425              		.type	chCondWaitTimeoutS, %function
 426              	chCondWaitTimeoutS:
 427              	.LFB15:
 428              		.loc 1 270 0
 429              		.cfi_startproc
 430              		@ args = 0, pretend = 0, frame = 0
 431              		@ frame_needed = 0, uses_anonymous_args = 0
 432              	.LVL33:
 433 0000 F8B5     		push	{r3, r4, r5, r6, r7, lr}
 434              		.cfi_def_cfa_offset 24
 435              		.cfi_offset 3, -24
 436              		.cfi_offset 4, -20
 437              		.cfi_offset 5, -16
 438              		.cfi_offset 6, -12
 439              		.cfi_offset 7, -8
 440              		.cfi_offset 14, -4
 441              		.loc 1 270 0
 442 0002 0546     		mov	r5, r0
 443 0004 0F46     		mov	r7, r1
 444              		.loc 1 280 0
 445 0006 FFF7FEFF 		bl	chMtxUnlockS
 446              	.LVL34:
 447              		.loc 1 281 0
 448 000a 0F4A     		ldr	r2, .L39
 449              		.loc 1 280 0
 450 000c 0646     		mov	r6, r0
 451              	.LVL35:
 452              		.loc 1 281 0
 453 000e D469     		ldr	r4, [r2, #28]
 454              	.LBB38:
 455              	.LBB39:
 456              		.loc 2 43 0
ARM GAS  /tmp/ccyqvzbq.s 			page 9


 457 0010 2B46     		mov	r3, r5
 458              	.LBE39:
 459              	.LBE38:
 460              		.loc 1 281 0
 461 0012 6562     		str	r5, [r4, #36]
 462              	.LVL36:
 463 0014 03E0     		b	.L35
 464              	.LVL37:
 465              	.L32:
 466              	.LBB43:
 467              	.LBB40:
 468              		.loc 2 46 0
 469 0016 9868     		ldr	r0, [r3, #8]
 470 0018 A268     		ldr	r2, [r4, #8]
 471 001a 9042     		cmp	r0, r2
 472 001c 02D3     		bcc	.L36
 473              	.L35:
 474              		.loc 2 45 0
 475 001e 1B68     		ldr	r3, [r3]
 476              	.LVL38:
 477              		.loc 2 46 0
 478 0020 9D42     		cmp	r5, r3
 479 0022 F8D1     		bne	.L32
 480              	.L36:
 481              		.loc 2 48 0
 482 0024 5A68     		ldr	r2, [r3, #4]
 483              	.LBE40:
 484              	.LBE43:
 485              		.loc 1 283 0
 486 0026 3946     		mov	r1, r7
 487              	.LBB44:
 488              	.LBB41:
 489              		.loc 2 47 0
 490 0028 2360     		str	r3, [r4]
 491              		.loc 2 48 0
 492 002a 6260     		str	r2, [r4, #4]
 493              	.LBE41:
 494              	.LBE44:
 495              		.loc 1 283 0
 496 002c 0520     		movs	r0, #5
 497              	.LBB45:
 498              	.LBB42:
 499              		.loc 2 49 0
 500 002e 5C60     		str	r4, [r3, #4]
 501 0030 1460     		str	r4, [r2]
 502              	.LBE42:
 503              	.LBE45:
 504              		.loc 1 283 0
 505 0032 FFF7FEFF 		bl	chSchGoSleepTimeoutS
 506              	.LVL39:
 507              		.loc 1 284 0
 508 0036 431C     		adds	r3, r0, #1
 509              		.loc 1 283 0
 510 0038 0446     		mov	r4, r0
 511              	.LVL40:
 512              		.loc 1 284 0
 513 003a 02D0     		beq	.L34
ARM GAS  /tmp/ccyqvzbq.s 			page 10


 514              		.loc 1 285 0
 515 003c 3046     		mov	r0, r6
 516              	.LVL41:
 517 003e FFF7FEFF 		bl	chMtxLockS
 518              	.LVL42:
 519              	.L34:
 520              		.loc 1 287 0
 521 0042 2046     		mov	r0, r4
 522 0044 F8BD     		pop	{r3, r4, r5, r6, r7, pc}
 523              	.LVL43:
 524              	.L40:
 525 0046 00BF     		.align	2
 526              	.L39:
 527 0048 00000000 		.word	rlist
 528              		.cfi_endproc
 529              	.LFE15:
 530              		.size	chCondWaitTimeoutS, .-chCondWaitTimeoutS
 531              		.section	.text.chCondWaitTimeout,"ax",%progbits
 532              		.align	2
 533              		.p2align 4,,15
 534              		.global	chCondWaitTimeout
 535              		.thumb
 536              		.thumb_func
 537              		.type	chCondWaitTimeout, %function
 538              	chCondWaitTimeout:
 539              	.LFB14:
 540              		.loc 1 233 0
 541              		.cfi_startproc
 542              		@ args = 0, pretend = 0, frame = 0
 543              		@ frame_needed = 0, uses_anonymous_args = 0
 544              	.LVL44:
 545 0000 08B5     		push	{r3, lr}
 546              		.cfi_def_cfa_offset 8
 547              		.cfi_offset 3, -8
 548              		.cfi_offset 14, -4
 549              	.LBB46:
 550              		.loc 1 236 0
 551 0002 2023     		movs	r3, #32
 552              	@ 236 "ChibiOS//os/kernel/src/chcond.c" 1
 553 0004 83F31188 		msr     BASEPRI, r3
 554              	@ 0 "" 2
 555              		.thumb
 556              	.LBE46:
 557              		.loc 1 237 0
 558 0008 FFF7FEFF 		bl	chCondWaitTimeoutS
 559              	.LVL45:
 560              	.LBB47:
 561              		.loc 1 238 0
 562 000c 0023     		movs	r3, #0
 563              	@ 238 "ChibiOS//os/kernel/src/chcond.c" 1
 564 000e 83F31188 		msr     BASEPRI, r3
 565              	@ 0 "" 2
 566              		.thumb
 567              	.LBE47:
 568              		.loc 1 240 0
 569 0012 08BD     		pop	{r3, pc}
 570              		.cfi_endproc
ARM GAS  /tmp/ccyqvzbq.s 			page 11


 571              	.LFE14:
 572              		.size	chCondWaitTimeout, .-chCondWaitTimeout
 573              		.text
 574              	.Letext0:
 575              		.file 3 "/usr/include/newlib/machine/_default_types.h"
 576              		.file 4 "/usr/include/newlib/sys/_stdint.h"
 577              		.file 5 "ChibiOS//os/ports/GCC/ARMCMx/chtypes.h"
 578              		.file 6 "ChibiOS//os/kernel/include/chlists.h"
 579              		.file 7 "ChibiOS//os/kernel/include/chthreads.h"
 580              		.file 8 "ChibiOS//os/ports/GCC/ARMCMx/chcore_v7m.h"
 581              		.file 9 "ChibiOS//os/kernel/include/chschd.h"
 582              		.file 10 "ChibiOS//os/kernel/include/chmtx.h"
 583              		.file 11 "ChibiOS//os/kernel/include/chcond.h"