ARM GAS  /tmp/cck3ChAw.s 			page 1


   1              		.syntax unified
   2              		.cpu cortex-m3
   3              		.fpu softvfp
   4              		.eabi_attribute 20, 1
   5              		.eabi_attribute 21, 1
   6              		.eabi_attribute 23, 3
   7              		.eabi_attribute 24, 1
   8              		.eabi_attribute 25, 1
   9              		.eabi_attribute 26, 1
  10              		.eabi_attribute 30, 2
  11              		.eabi_attribute 34, 1
  12              		.eabi_attribute 18, 4
  13              		.thumb
  14              		.file	"chevents.c"
  15              		.text
  16              	.Ltext0:
  17              		.cfi_sections	.debug_frame
  18              		.section	.text.chEvtRegisterMask,"ax",%progbits
  19              		.align	2
  20              		.p2align 4,,15
  21              		.global	chEvtRegisterMask
  22              		.thumb
  23              		.thumb_func
  24              		.type	chEvtRegisterMask, %function
  25              	chEvtRegisterMask:
  26              	.LFB7:
  27              		.file 1 "ChibiOS//os/kernel/src/chevents.c"
  28              		.loc 1 82 0
  29              		.cfi_startproc
  30              		@ args = 0, pretend = 0, frame = 0
  31              		@ frame_needed = 0, uses_anonymous_args = 0
  32              		@ link register save eliminated.
  33              	.LVL0:
  34 0000 10B4     		push	{r4}
  35              		.cfi_def_cfa_offset 4
  36              		.cfi_offset 4, -4
  37              	.LBB2:
  38              		.loc 1 86 0
  39 0002 2023     		movs	r3, #32
  40              	@ 86 "ChibiOS//os/kernel/src/chevents.c" 1
  41 0004 83F31188 		msr     BASEPRI, r3
  42              	@ 0 "" 2
  43              		.thumb
  44              	.LBE2:
  45              		.loc 1 89 0
  46 0008 064C     		ldr	r4, .L3
  47              		.loc 1 87 0
  48 000a 0368     		ldr	r3, [r0]
  49              		.loc 1 89 0
  50 000c E469     		ldr	r4, [r4, #28]
  51              		.loc 1 87 0
  52 000e 0B60     		str	r3, [r1]
  53              		.loc 1 88 0
  54 0010 0160     		str	r1, [r0]
  55              	.LBB3:
  56              		.loc 1 91 0
  57 0012 0023     		movs	r3, #0
ARM GAS  /tmp/cck3ChAw.s 			page 2


  58              	.LBE3:
  59              		.loc 1 89 0
  60 0014 4C60     		str	r4, [r1, #4]
  61              		.loc 1 90 0
  62 0016 8A60     		str	r2, [r1, #8]
  63              	.LBB4:
  64              		.loc 1 91 0
  65              	@ 91 "ChibiOS//os/kernel/src/chevents.c" 1
  66 0018 83F31188 		msr     BASEPRI, r3
  67              	@ 0 "" 2
  68              		.thumb
  69              	.LBE4:
  70              		.loc 1 92 0
  71 001c 5DF8044B 		ldr	r4, [sp], #4
  72              		.cfi_restore 4
  73              		.cfi_def_cfa_offset 0
  74 0020 7047     		bx	lr
  75              	.L4:
  76 0022 00BF     		.align	2
  77              	.L3:
  78 0024 00000000 		.word	rlist
  79              		.cfi_endproc
  80              	.LFE7:
  81              		.size	chEvtRegisterMask, .-chEvtRegisterMask
  82              		.section	.text.chEvtUnregister,"ax",%progbits
  83              		.align	2
  84              		.p2align 4,,15
  85              		.global	chEvtUnregister
  86              		.thumb
  87              		.thumb_func
  88              		.type	chEvtUnregister, %function
  89              	chEvtUnregister:
  90              	.LFB8:
  91              		.loc 1 107 0
  92              		.cfi_startproc
  93              		@ args = 0, pretend = 0, frame = 0
  94              		@ frame_needed = 0, uses_anonymous_args = 0
  95              		@ link register save eliminated.
  96              	.LVL1:
  97              	.LBB5:
  98              		.loc 1 113 0
  99 0000 2023     		movs	r3, #32
 100              	@ 113 "ChibiOS//os/kernel/src/chevents.c" 1
 101 0002 83F31188 		msr     BASEPRI, r3
 102              	@ 0 "" 2
 103              		.thumb
 104              	.LBE5:
 105              		.loc 1 112 0
 106 0006 0246     		mov	r2, r0
 107              		.loc 1 114 0
 108 0008 02E0     		b	.L6
 109              	.LVL2:
 110              	.L8:
 111              		.loc 1 115 0
 112 000a 9942     		cmp	r1, r3
 113 000c 07D0     		beq	.L11
 114 000e 1A46     		mov	r2, r3
ARM GAS  /tmp/cck3ChAw.s 			page 3


 115              	.LVL3:
 116              	.L6:
 117              		.loc 1 114 0
 118 0010 1368     		ldr	r3, [r2]
 119 0012 8342     		cmp	r3, r0
 120 0014 F9D1     		bne	.L8
 121              	.LBB6:
 122              		.loc 1 121 0
 123 0016 0023     		movs	r3, #0
 124              	@ 121 "ChibiOS//os/kernel/src/chevents.c" 1
 125 0018 83F31188 		msr     BASEPRI, r3
 126              	@ 0 "" 2
 127              		.thumb
 128 001c 7047     		bx	lr
 129              	.L11:
 130              	.LBE6:
 131              		.loc 1 116 0
 132 001e 0B68     		ldr	r3, [r1]
 133 0020 1360     		str	r3, [r2]
 134              	.LBB7:
 135              		.loc 1 121 0
 136 0022 0023     		movs	r3, #0
 137              	@ 121 "ChibiOS//os/kernel/src/chevents.c" 1
 138 0024 83F31188 		msr     BASEPRI, r3
 139              	@ 0 "" 2
 140              		.thumb
 141 0028 7047     		bx	lr
 142              	.LBE7:
 143              		.cfi_endproc
 144              	.LFE8:
 145              		.size	chEvtUnregister, .-chEvtUnregister
 146 002a 00BF     		.section	.text.chEvtClearFlags,"ax",%progbits
 147              		.align	2
 148              		.p2align 4,,15
 149              		.global	chEvtClearFlags
 150              		.thumb
 151              		.thumb_func
 152              		.type	chEvtClearFlags, %function
 153              	chEvtClearFlags:
 154              	.LFB9:
 155              		.loc 1 132 0
 156              		.cfi_startproc
 157              		@ args = 0, pretend = 0, frame = 0
 158              		@ frame_needed = 0, uses_anonymous_args = 0
 159              		@ link register save eliminated.
 160              	.LVL4:
 161 0000 10B4     		push	{r4}
 162              		.cfi_def_cfa_offset 4
 163              		.cfi_offset 4, -4
 164              	.LBB8:
 165              		.loc 1 135 0
 166 0002 2023     		movs	r3, #32
 167              	@ 135 "ChibiOS//os/kernel/src/chevents.c" 1
 168 0004 83F31188 		msr     BASEPRI, r3
 169              	@ 0 "" 2
 170              		.thumb
 171              	.LBE8:
ARM GAS  /tmp/cck3ChAw.s 			page 4


 172              		.loc 1 137 0
 173 0008 064A     		ldr	r2, .L14
 174              	.LBB9:
 175              		.loc 1 140 0
 176 000a 0023     		movs	r3, #0
 177              	.LBE9:
 178              		.loc 1 137 0
 179 000c D169     		ldr	r1, [r2, #28]
 180 000e 8A6B     		ldr	r2, [r1, #56]
 181              	.LVL5:
 182              		.loc 1 138 0
 183 0010 22EA0004 		bic	r4, r2, r0
 184 0014 8C63     		str	r4, [r1, #56]
 185              	.LBB10:
 186              		.loc 1 140 0
 187              	@ 140 "ChibiOS//os/kernel/src/chevents.c" 1
 188 0016 83F31188 		msr     BASEPRI, r3
 189              	@ 0 "" 2
 190              		.thumb
 191              	.LBE10:
 192              		.loc 1 142 0
 193 001a 1040     		ands	r0, r0, r2
 194              	.LVL6:
 195 001c 5DF8044B 		ldr	r4, [sp], #4
 196              		.cfi_restore 4
 197              		.cfi_def_cfa_offset 0
 198 0020 7047     		bx	lr
 199              	.L15:
 200 0022 00BF     		.align	2
 201              	.L14:
 202 0024 00000000 		.word	rlist
 203              		.cfi_endproc
 204              	.LFE9:
 205              		.size	chEvtClearFlags, .-chEvtClearFlags
 206              		.section	.text.chEvtAddFlags,"ax",%progbits
 207              		.align	2
 208              		.p2align 4,,15
 209              		.global	chEvtAddFlags
 210              		.thumb
 211              		.thumb_func
 212              		.type	chEvtAddFlags, %function
 213              	chEvtAddFlags:
 214              	.LFB10:
 215              		.loc 1 153 0
 216              		.cfi_startproc
 217              		@ args = 0, pretend = 0, frame = 0
 218              		@ frame_needed = 0, uses_anonymous_args = 0
 219              		@ link register save eliminated.
 220              	.LVL7:
 221              	.LBB11:
 222              		.loc 1 155 0
 223 0000 2023     		movs	r3, #32
 224              	@ 155 "ChibiOS//os/kernel/src/chevents.c" 1
 225 0002 83F31188 		msr     BASEPRI, r3
 226              	@ 0 "" 2
 227              		.thumb
 228              	.LBE11:
ARM GAS  /tmp/cck3ChAw.s 			page 5


 229              		.loc 1 157 0
 230 0006 044A     		ldr	r2, .L17
 231              	.LBB12:
 232              		.loc 1 159 0
 233 0008 0023     		movs	r3, #0
 234              	.LBE12:
 235              		.loc 1 157 0
 236 000a D169     		ldr	r1, [r2, #28]
 237 000c 8A6B     		ldr	r2, [r1, #56]
 238 000e 1043     		orrs	r0, r0, r2
 239              	.LVL8:
 240 0010 8863     		str	r0, [r1, #56]
 241              	.LVL9:
 242              	.LBB13:
 243              		.loc 1 159 0
 244              	@ 159 "ChibiOS//os/kernel/src/chevents.c" 1
 245 0012 83F31188 		msr     BASEPRI, r3
 246              	@ 0 "" 2
 247              		.thumb
 248              	.LBE13:
 249              		.loc 1 161 0
 250 0016 7047     		bx	lr
 251              	.L18:
 252              		.align	2
 253              	.L17:
 254 0018 00000000 		.word	rlist
 255              		.cfi_endproc
 256              	.LFE10:
 257              		.size	chEvtAddFlags, .-chEvtAddFlags
 258              		.section	.text.chEvtSignalFlagsI,"ax",%progbits
 259              		.align	2
 260              		.p2align 4,,15
 261              		.global	chEvtSignalFlagsI
 262              		.thumb
 263              		.thumb_func
 264              		.type	chEvtSignalFlagsI, %function
 265              	chEvtSignalFlagsI:
 266              	.LFB12:
 267              		.loc 1 193 0
 268              		.cfi_startproc
 269              		@ args = 0, pretend = 0, frame = 0
 270              		@ frame_needed = 0, uses_anonymous_args = 0
 271              	.LVL10:
 272 0000 08B5     		push	{r3, lr}
 273              		.cfi_def_cfa_offset 8
 274              		.cfi_offset 3, -8
 275              		.cfi_offset 14, -4
 276              		.loc 1 198 0
 277 0002 836B     		ldr	r3, [r0, #56]
 278              		.loc 1 200 0
 279 0004 027F     		ldrb	r2, [r0, #28]	@ zero_extendqisi2
 280              		.loc 1 198 0
 281 0006 1943     		orrs	r1, r1, r3
 282              	.LVL11:
 283              		.loc 1 200 0
 284 0008 082A     		cmp	r2, #8
 285              		.loc 1 198 0
ARM GAS  /tmp/cck3ChAw.s 			page 6


 286 000a 8163     		str	r1, [r0, #56]
 287              		.loc 1 200 0
 288 000c 0BD0     		beq	.L24
 289              		.loc 1 201 0
 290 000e 092A     		cmp	r2, #9
 291 0010 00D0     		beq	.L25
 292              	.L19:
 293 0012 08BD     		pop	{r3, pc}
 294              	.L25:
 295              		.loc 1 203 0
 296 0014 436A     		ldr	r3, [r0, #36]
 297 0016 1940     		ands	r1, r1, r3
 298              		.loc 1 202 0
 299 0018 8B42     		cmp	r3, r1
 300 001a FAD1     		bne	.L19
 301              	.L21:
 302              	.LVL12:
 303              	.LBB16:
 304              	.LBB17:
 305              		.loc 1 204 0
 306 001c FFF7FEFF 		bl	chSchReadyI
 307              	.LVL13:
 308 0020 0023     		movs	r3, #0
 309 0022 4362     		str	r3, [r0, #36]
 310 0024 08BD     		pop	{r3, pc}
 311              	.LVL14:
 312              	.L24:
 313              	.LBE17:
 314              	.LBE16:
 315              		.loc 1 201 0 discriminator 1
 316 0026 436A     		ldr	r3, [r0, #36]
 317              		.loc 1 200 0 discriminator 1
 318 0028 1942     		tst	r1, r3
 319 002a F7D1     		bne	.L21
 320 002c 08BD     		pop	{r3, pc}
 321              		.cfi_endproc
 322              	.LFE12:
 323              		.size	chEvtSignalFlagsI, .-chEvtSignalFlagsI
 324 002e 00BF     		.section	.text.chEvtSignalFlags,"ax",%progbits
 325              		.align	2
 326              		.p2align 4,,15
 327              		.global	chEvtSignalFlags
 328              		.thumb
 329              		.thumb_func
 330              		.type	chEvtSignalFlags, %function
 331              	chEvtSignalFlags:
 332              	.LFB11:
 333              		.loc 1 171 0
 334              		.cfi_startproc
 335              		@ args = 0, pretend = 0, frame = 0
 336              		@ frame_needed = 0, uses_anonymous_args = 0
 337              	.LVL15:
 338 0000 08B5     		push	{r3, lr}
 339              		.cfi_def_cfa_offset 8
 340              		.cfi_offset 3, -8
 341              		.cfi_offset 14, -4
 342              	.LBB18:
ARM GAS  /tmp/cck3ChAw.s 			page 7


 343              		.loc 1 175 0
 344 0002 2023     		movs	r3, #32
 345              	@ 175 "ChibiOS//os/kernel/src/chevents.c" 1
 346 0004 83F31188 		msr     BASEPRI, r3
 347              	@ 0 "" 2
 348              		.thumb
 349              	.LBE18:
 350              		.loc 1 176 0
 351 0008 FFF7FEFF 		bl	chEvtSignalFlagsI
 352              	.LVL16:
 353              		.loc 1 177 0
 354 000c FFF7FEFF 		bl	chSchRescheduleS
 355              	.LVL17:
 356              	.LBB19:
 357              		.loc 1 178 0
 358 0010 0023     		movs	r3, #0
 359              	@ 178 "ChibiOS//os/kernel/src/chevents.c" 1
 360 0012 83F31188 		msr     BASEPRI, r3
 361              	@ 0 "" 2
 362              		.thumb
 363 0016 08BD     		pop	{r3, pc}
 364              	.LBE19:
 365              		.cfi_endproc
 366              	.LFE11:
 367              		.size	chEvtSignalFlags, .-chEvtSignalFlags
 368              		.section	.text.chEvtBroadcastFlagsI,"ax",%progbits
 369              		.align	2
 370              		.p2align 4,,15
 371              		.global	chEvtBroadcastFlagsI
 372              		.thumb
 373              		.thumb_func
 374              		.type	chEvtBroadcastFlagsI, %function
 375              	chEvtBroadcastFlagsI:
 376              	.LFB14:
 377              		.loc 1 245 0
 378              		.cfi_startproc
 379              		@ args = 0, pretend = 0, frame = 0
 380              		@ frame_needed = 0, uses_anonymous_args = 0
 381              	.LVL18:
 382 0000 70B5     		push	{r4, r5, r6, lr}
 383              		.cfi_def_cfa_offset 16
 384              		.cfi_offset 4, -16
 385              		.cfi_offset 5, -12
 386              		.cfi_offset 6, -8
 387              		.cfi_offset 14, -4
 388              		.loc 1 251 0
 389 0002 0468     		ldr	r4, [r0]
 390              	.LVL19:
 391              		.loc 1 245 0
 392 0004 0546     		mov	r5, r0
 393              		.loc 1 252 0
 394 0006 A042     		cmp	r0, r4
 395              		.loc 1 245 0
 396 0008 0E46     		mov	r6, r1
 397              		.loc 1 252 0
 398 000a 07D0     		beq	.L28
 399              	.LVL20:
ARM GAS  /tmp/cck3ChAw.s 			page 8


 400              	.L30:
 401              		.loc 1 253 0
 402 000c A168     		ldr	r1, [r4, #8]
 403 000e 6068     		ldr	r0, [r4, #4]
 404 0010 3143     		orrs	r1, r1, r6
 405 0012 FFF7FEFF 		bl	chEvtSignalFlagsI
 406              	.LVL21:
 407              		.loc 1 254 0
 408 0016 2468     		ldr	r4, [r4]
 409              	.LVL22:
 410              		.loc 1 252 0
 411 0018 A542     		cmp	r5, r4
 412 001a F7D1     		bne	.L30
 413              	.L28:
 414 001c 70BD     		pop	{r4, r5, r6, pc}
 415              		.cfi_endproc
 416              	.LFE14:
 417              		.size	chEvtBroadcastFlagsI, .-chEvtBroadcastFlagsI
 418 001e 00BF     		.section	.text.chEvtBroadcastFlags,"ax",%progbits
 419              		.align	2
 420              		.p2align 4,,15
 421              		.global	chEvtBroadcastFlags
 422              		.thumb
 423              		.thumb_func
 424              		.type	chEvtBroadcastFlags, %function
 425              	chEvtBroadcastFlags:
 426              	.LFB13:
 427              		.loc 1 220 0
 428              		.cfi_startproc
 429              		@ args = 0, pretend = 0, frame = 0
 430              		@ frame_needed = 0, uses_anonymous_args = 0
 431              	.LVL23:
 432 0000 08B5     		push	{r3, lr}
 433              		.cfi_def_cfa_offset 8
 434              		.cfi_offset 3, -8
 435              		.cfi_offset 14, -4
 436              	.LBB20:
 437              		.loc 1 222 0
 438 0002 2023     		movs	r3, #32
 439              	@ 222 "ChibiOS//os/kernel/src/chevents.c" 1
 440 0004 83F31188 		msr     BASEPRI, r3
 441              	@ 0 "" 2
 442              		.thumb
 443              	.LBE20:
 444              		.loc 1 223 0
 445 0008 FFF7FEFF 		bl	chEvtBroadcastFlagsI
 446              	.LVL24:
 447              		.loc 1 224 0
 448 000c FFF7FEFF 		bl	chSchRescheduleS
 449              	.LVL25:
 450              	.LBB21:
 451              		.loc 1 225 0
 452 0010 0023     		movs	r3, #0
 453              	@ 225 "ChibiOS//os/kernel/src/chevents.c" 1
 454 0012 83F31188 		msr     BASEPRI, r3
 455              	@ 0 "" 2
 456              		.thumb
ARM GAS  /tmp/cck3ChAw.s 			page 9


 457 0016 08BD     		pop	{r3, pc}
 458              	.LBE21:
 459              		.cfi_endproc
 460              	.LFE13:
 461              		.size	chEvtBroadcastFlags, .-chEvtBroadcastFlags
 462              		.section	.text.chEvtDispatch,"ax",%progbits
 463              		.align	2
 464              		.p2align 4,,15
 465              		.global	chEvtDispatch
 466              		.thumb
 467              		.thumb_func
 468              		.type	chEvtDispatch, %function
 469              	chEvtDispatch:
 470              	.LFB15:
 471              		.loc 1 267 0
 472              		.cfi_startproc
 473              		@ args = 0, pretend = 0, frame = 0
 474              		@ frame_needed = 0, uses_anonymous_args = 0
 475              	.LVL26:
 476 0000 F8B5     		push	{r3, r4, r5, r6, r7, lr}
 477              		.cfi_def_cfa_offset 24
 478              		.cfi_offset 3, -24
 479              		.cfi_offset 4, -20
 480              		.cfi_offset 5, -16
 481              		.cfi_offset 6, -12
 482              		.cfi_offset 7, -8
 483              		.cfi_offset 14, -4
 484              		.loc 1 273 0
 485 0002 0D46     		mov	r5, r1
 486 0004 A9B1     		cbz	r1, .L36
 487 0006 0746     		mov	r7, r0
 488 0008 0024     		movs	r4, #0
 489              		.loc 1 274 0
 490 000a 0126     		movs	r6, #1
 491              	.LVL27:
 492              	.L38:
 493 000c 06FA04F3 		lsl	r3, r6, r4
 494 0010 2B42     		tst	r3, r5
 495 0012 04D1     		bne	.L43
 496              	.L39:
 497              		.loc 1 281 0
 498 0014 0134     		adds	r4, r4, #1
 499              	.LVL28:
 500              		.loc 1 274 0
 501 0016 06FA04F3 		lsl	r3, r6, r4
 502 001a 2B42     		tst	r3, r5
 503 001c FAD0     		beq	.L39
 504              	.L43:
 505              		.loc 1 279 0
 506 001e 2046     		mov	r0, r4
 507              		.loc 1 278 0
 508 0020 25EA0305 		bic	r5, r5, r3
 509              	.LVL29:
 510              		.loc 1 279 0
 511 0024 57F82430 		ldr	r3, [r7, r4, lsl #2]
 512 0028 9847     		blx	r3
 513              	.LVL30:
ARM GAS  /tmp/cck3ChAw.s 			page 10


 514              		.loc 1 281 0
 515 002a 0134     		adds	r4, r4, #1
 516              	.LVL31:
 517              		.loc 1 273 0
 518 002c 002D     		cmp	r5, #0
 519 002e EDD1     		bne	.L38
 520 0030 F8BD     		pop	{r3, r4, r5, r6, r7, pc}
 521              	.LVL32:
 522              	.L36:
 523 0032 F8BD     		pop	{r3, r4, r5, r6, r7, pc}
 524              		.cfi_endproc
 525              	.LFE15:
 526              		.size	chEvtDispatch, .-chEvtDispatch
 527              		.section	.text.chEvtWaitOne,"ax",%progbits
 528              		.align	2
 529              		.p2align 4,,15
 530              		.global	chEvtWaitOne
 531              		.thumb
 532              		.thumb_func
 533              		.type	chEvtWaitOne, %function
 534              	chEvtWaitOne:
 535              	.LFB16:
 536              		.loc 1 302 0
 537              		.cfi_startproc
 538              		@ args = 0, pretend = 0, frame = 0
 539              		@ frame_needed = 0, uses_anonymous_args = 0
 540              	.LVL33:
 541 0000 38B5     		push	{r3, r4, r5, lr}
 542              		.cfi_def_cfa_offset 16
 543              		.cfi_offset 3, -16
 544              		.cfi_offset 4, -12
 545              		.cfi_offset 5, -8
 546              		.cfi_offset 14, -4
 547              		.loc 1 303 0
 548 0002 0D4B     		ldr	r3, .L47
 549 0004 DD69     		ldr	r5, [r3, #28]
 550              	.LVL34:
 551              	.LBB22:
 552              		.loc 1 306 0
 553 0006 2023     		movs	r3, #32
 554              	@ 306 "ChibiOS//os/kernel/src/chevents.c" 1
 555 0008 83F31188 		msr     BASEPRI, r3
 556              	@ 0 "" 2
 557              		.thumb
 558              	.LBE22:
 559              		.loc 1 308 0
 560 000c AB6B     		ldr	r3, [r5, #56]
 561              	.LVL35:
 562 000e 10EA0302 		ands	r2, r0, r3
 563              	.LVL36:
 564 0012 07D1     		bne	.L45
 565 0014 0446     		mov	r4, r0
 566              		.loc 1 309 0
 567 0016 6862     		str	r0, [r5, #36]
 568              		.loc 1 310 0
 569 0018 0820     		movs	r0, #8
 570              	.LVL37:
ARM GAS  /tmp/cck3ChAw.s 			page 11


 571 001a FFF7FEFF 		bl	chSchGoSleepS
 572              	.LVL38:
 573              		.loc 1 311 0
 574 001e AB6B     		ldr	r3, [r5, #56]
 575 0020 04EA0302 		and	r2, r4, r3
 576              	.LVL39:
 577              	.L45:
 578              		.loc 1 313 0
 579 0024 5042     		negs	r0, r2
 580 0026 1040     		ands	r0, r0, r2
 581              	.LVL40:
 582              		.loc 1 314 0
 583 0028 23EA0003 		bic	r3, r3, r0
 584 002c AB63     		str	r3, [r5, #56]
 585              	.LBB23:
 586              		.loc 1 316 0
 587 002e 0023     		movs	r3, #0
 588              	@ 316 "ChibiOS//os/kernel/src/chevents.c" 1
 589 0030 83F31188 		msr     BASEPRI, r3
 590              	@ 0 "" 2
 591              		.thumb
 592              	.LBE23:
 593              		.loc 1 318 0
 594 0034 38BD     		pop	{r3, r4, r5, pc}
 595              	.LVL41:
 596              	.L48:
 597 0036 00BF     		.align	2
 598              	.L47:
 599 0038 00000000 		.word	rlist
 600              		.cfi_endproc
 601              	.LFE16:
 602              		.size	chEvtWaitOne, .-chEvtWaitOne
 603              		.section	.text.chEvtWaitAny,"ax",%progbits
 604              		.align	2
 605              		.p2align 4,,15
 606              		.global	chEvtWaitAny
 607              		.thumb
 608              		.thumb_func
 609              		.type	chEvtWaitAny, %function
 610              	chEvtWaitAny:
 611              	.LFB17:
 612              		.loc 1 331 0
 613              		.cfi_startproc
 614              		@ args = 0, pretend = 0, frame = 0
 615              		@ frame_needed = 0, uses_anonymous_args = 0
 616              	.LVL42:
 617 0000 38B5     		push	{r3, r4, r5, lr}
 618              		.cfi_def_cfa_offset 16
 619              		.cfi_offset 3, -16
 620              		.cfi_offset 4, -12
 621              		.cfi_offset 5, -8
 622              		.cfi_offset 14, -4
 623              		.loc 1 332 0
 624 0002 0C4B     		ldr	r3, .L52
 625 0004 DD69     		ldr	r5, [r3, #28]
 626              	.LVL43:
 627              	.LBB24:
ARM GAS  /tmp/cck3ChAw.s 			page 12


 628              		.loc 1 335 0
 629 0006 2023     		movs	r3, #32
 630              	@ 335 "ChibiOS//os/kernel/src/chevents.c" 1
 631 0008 83F31188 		msr     BASEPRI, r3
 632              	@ 0 "" 2
 633              		.thumb
 634              	.LBE24:
 635              		.loc 1 337 0
 636 000c AB6B     		ldr	r3, [r5, #56]
 637              	.LVL44:
 638 000e 10EA0304 		ands	r4, r0, r3
 639              	.LVL45:
 640 0012 06D1     		bne	.L50
 641 0014 0446     		mov	r4, r0
 642              	.LVL46:
 643              		.loc 1 338 0
 644 0016 6862     		str	r0, [r5, #36]
 645              		.loc 1 339 0
 646 0018 0820     		movs	r0, #8
 647              	.LVL47:
 648 001a FFF7FEFF 		bl	chSchGoSleepS
 649              	.LVL48:
 650              		.loc 1 340 0
 651 001e AB6B     		ldr	r3, [r5, #56]
 652 0020 1C40     		ands	r4, r4, r3
 653              	.LVL49:
 654              	.L50:
 655              		.loc 1 342 0
 656 0022 23EA0403 		bic	r3, r3, r4
 657 0026 AB63     		str	r3, [r5, #56]
 658              	.LBB25:
 659              		.loc 1 344 0
 660 0028 0023     		movs	r3, #0
 661              	@ 344 "ChibiOS//os/kernel/src/chevents.c" 1
 662 002a 83F31188 		msr     BASEPRI, r3
 663              	@ 0 "" 2
 664              		.thumb
 665              	.LBE25:
 666              		.loc 1 346 0
 667 002e 2046     		mov	r0, r4
 668 0030 38BD     		pop	{r3, r4, r5, pc}
 669              	.LVL50:
 670              	.L53:
 671 0032 00BF     		.align	2
 672              	.L52:
 673 0034 00000000 		.word	rlist
 674              		.cfi_endproc
 675              	.LFE17:
 676              		.size	chEvtWaitAny, .-chEvtWaitAny
 677              		.section	.text.chEvtWaitAll,"ax",%progbits
 678              		.align	2
 679              		.p2align 4,,15
 680              		.global	chEvtWaitAll
 681              		.thumb
 682              		.thumb_func
 683              		.type	chEvtWaitAll, %function
 684              	chEvtWaitAll:
ARM GAS  /tmp/cck3ChAw.s 			page 13


 685              	.LFB18:
 686              		.loc 1 359 0
 687              		.cfi_startproc
 688              		@ args = 0, pretend = 0, frame = 0
 689              		@ frame_needed = 0, uses_anonymous_args = 0
 690              	.LVL51:
 691 0000 38B5     		push	{r3, r4, r5, lr}
 692              		.cfi_def_cfa_offset 16
 693              		.cfi_offset 3, -16
 694              		.cfi_offset 4, -12
 695              		.cfi_offset 5, -8
 696              		.cfi_offset 14, -4
 697              		.loc 1 360 0
 698 0002 0C4B     		ldr	r3, .L57
 699              		.loc 1 359 0
 700 0004 0446     		mov	r4, r0
 701              		.loc 1 360 0
 702 0006 DD69     		ldr	r5, [r3, #28]
 703              	.LVL52:
 704              	.LBB26:
 705              		.loc 1 362 0
 706 0008 2023     		movs	r3, #32
 707              	@ 362 "ChibiOS//os/kernel/src/chevents.c" 1
 708 000a 83F31188 		msr     BASEPRI, r3
 709              	@ 0 "" 2
 710              		.thumb
 711              	.LBE26:
 712              		.loc 1 364 0
 713 000e AB6B     		ldr	r3, [r5, #56]
 714 0010 00EA0302 		and	r2, r0, r3
 715 0014 8242     		cmp	r2, r0
 716 0016 04D0     		beq	.L55
 717              		.loc 1 365 0
 718 0018 6862     		str	r0, [r5, #36]
 719              		.loc 1 366 0
 720 001a 0920     		movs	r0, #9
 721              	.LVL53:
 722 001c FFF7FEFF 		bl	chSchGoSleepS
 723              	.LVL54:
 724 0020 AB6B     		ldr	r3, [r5, #56]
 725              	.L55:
 726              		.loc 1 368 0
 727 0022 23EA0403 		bic	r3, r3, r4
 728 0026 AB63     		str	r3, [r5, #56]
 729              	.LBB27:
 730              		.loc 1 370 0
 731 0028 0023     		movs	r3, #0
 732              	@ 370 "ChibiOS//os/kernel/src/chevents.c" 1
 733 002a 83F31188 		msr     BASEPRI, r3
 734              	@ 0 "" 2
 735              		.thumb
 736              	.LBE27:
 737              		.loc 1 372 0
 738 002e 2046     		mov	r0, r4
 739 0030 38BD     		pop	{r3, r4, r5, pc}
 740              	.LVL55:
 741              	.L58:
ARM GAS  /tmp/cck3ChAw.s 			page 14


 742 0032 00BF     		.align	2
 743              	.L57:
 744 0034 00000000 		.word	rlist
 745              		.cfi_endproc
 746              	.LFE18:
 747              		.size	chEvtWaitAll, .-chEvtWaitAll
 748              		.section	.text.chEvtWaitOneTimeout,"ax",%progbits
 749              		.align	2
 750              		.p2align 4,,15
 751              		.global	chEvtWaitOneTimeout
 752              		.thumb
 753              		.thumb_func
 754              		.type	chEvtWaitOneTimeout, %function
 755              	chEvtWaitOneTimeout:
 756              	.LFB19:
 757              		.loc 1 398 0
 758              		.cfi_startproc
 759              		@ args = 0, pretend = 0, frame = 0
 760              		@ frame_needed = 0, uses_anonymous_args = 0
 761              	.LVL56:
 762              		.loc 1 399 0
 763 0000 134B     		ldr	r3, .L66
 764              		.loc 1 398 0
 765 0002 70B5     		push	{r4, r5, r6, lr}
 766              		.cfi_def_cfa_offset 16
 767              		.cfi_offset 4, -16
 768              		.cfi_offset 5, -12
 769              		.cfi_offset 6, -8
 770              		.cfi_offset 14, -4
 771              		.loc 1 399 0
 772 0004 DE69     		ldr	r6, [r3, #28]
 773              	.LVL57:
 774              	.LBB28:
 775              		.loc 1 402 0
 776 0006 2023     		movs	r3, #32
 777              	@ 402 "ChibiOS//os/kernel/src/chevents.c" 1
 778 0008 83F31188 		msr     BASEPRI, r3
 779              	@ 0 "" 2
 780              		.thumb
 781              	.LBE28:
 782              		.loc 1 404 0
 783 000c B26B     		ldr	r2, [r6, #56]
 784              	.LVL58:
 785 000e 10EA0204 		ands	r4, r0, r2
 786              	.LVL59:
 787 0012 0FD1     		bne	.L60
 788              		.loc 1 405 0
 789 0014 21B9     		cbnz	r1, .L61
 790              	.LBB29:
 791              		.loc 1 406 0
 792 0016 0B46     		mov	r3, r1
 793              	@ 406 "ChibiOS//os/kernel/src/chevents.c" 1
 794 0018 83F31188 		msr     BASEPRI, r3
 795              	@ 0 "" 2
 796              		.thumb
 797              	.LBE29:
 798              		.loc 1 407 0
ARM GAS  /tmp/cck3ChAw.s 			page 15


 799 001c 0846     		mov	r0, r1
 800              	.LVL60:
 801 001e 70BD     		pop	{r4, r5, r6, pc}
 802              	.LVL61:
 803              	.L61:
 804              		.loc 1 409 0
 805 0020 7062     		str	r0, [r6, #36]
 806 0022 0546     		mov	r5, r0
 807              		.loc 1 410 0
 808 0024 0820     		movs	r0, #8
 809              	.LVL62:
 810 0026 FFF7FEFF 		bl	chSchGoSleepTimeoutS
 811              	.LVL63:
 812 002a 0028     		cmp	r0, #0
 813 002c 0BDB     		blt	.L65
 814              		.loc 1 414 0
 815 002e B26B     		ldr	r2, [r6, #56]
 816 0030 05EA0204 		and	r4, r5, r2
 817              	.LVL64:
 818              	.L60:
 819              		.loc 1 416 0
 820 0034 6042     		negs	r0, r4
 821 0036 2040     		ands	r0, r0, r4
 822              	.LVL65:
 823              		.loc 1 417 0
 824 0038 22EA0002 		bic	r2, r2, r0
 825 003c B263     		str	r2, [r6, #56]
 826              	.LBB30:
 827              		.loc 1 419 0
 828 003e 0023     		movs	r3, #0
 829              	@ 419 "ChibiOS//os/kernel/src/chevents.c" 1
 830 0040 83F31188 		msr     BASEPRI, r3
 831              	@ 0 "" 2
 832              		.thumb
 833              	.LBE30:
 834              		.loc 1 421 0
 835 0044 70BD     		pop	{r4, r5, r6, pc}
 836              	.LVL66:
 837              	.L65:
 838              	.LBB31:
 839              		.loc 1 411 0
 840 0046 2346     		mov	r3, r4
 841              	@ 411 "ChibiOS//os/kernel/src/chevents.c" 1
 842 0048 83F31188 		msr     BASEPRI, r3
 843              	@ 0 "" 2
 844              		.thumb
 845              	.LBE31:
 846              		.loc 1 412 0
 847 004c 2046     		mov	r0, r4
 848 004e 70BD     		pop	{r4, r5, r6, pc}
 849              	.LVL67:
 850              	.L67:
 851              		.align	2
 852              	.L66:
 853 0050 00000000 		.word	rlist
 854              		.cfi_endproc
 855              	.LFE19:
ARM GAS  /tmp/cck3ChAw.s 			page 16


 856              		.size	chEvtWaitOneTimeout, .-chEvtWaitOneTimeout
 857              		.section	.text.chEvtWaitAnyTimeout,"ax",%progbits
 858              		.align	2
 859              		.p2align 4,,15
 860              		.global	chEvtWaitAnyTimeout
 861              		.thumb
 862              		.thumb_func
 863              		.type	chEvtWaitAnyTimeout, %function
 864              	chEvtWaitAnyTimeout:
 865              	.LFB20:
 866              		.loc 1 441 0
 867              		.cfi_startproc
 868              		@ args = 0, pretend = 0, frame = 0
 869              		@ frame_needed = 0, uses_anonymous_args = 0
 870              	.LVL68:
 871              		.loc 1 442 0
 872 0000 134B     		ldr	r3, .L75
 873              		.loc 1 441 0
 874 0002 70B5     		push	{r4, r5, r6, lr}
 875              		.cfi_def_cfa_offset 16
 876              		.cfi_offset 4, -16
 877              		.cfi_offset 5, -12
 878              		.cfi_offset 6, -8
 879              		.cfi_offset 14, -4
 880              		.loc 1 442 0
 881 0004 DE69     		ldr	r6, [r3, #28]
 882              	.LVL69:
 883              	.LBB32:
 884              		.loc 1 445 0
 885 0006 2023     		movs	r3, #32
 886              	@ 445 "ChibiOS//os/kernel/src/chevents.c" 1
 887 0008 83F31188 		msr     BASEPRI, r3
 888              	@ 0 "" 2
 889              		.thumb
 890              	.LBE32:
 891              		.loc 1 447 0
 892 000c B26B     		ldr	r2, [r6, #56]
 893              	.LVL70:
 894 000e 10EA0204 		ands	r4, r0, r2
 895              	.LVL71:
 896 0012 0FD1     		bne	.L69
 897              		.loc 1 448 0
 898 0014 21B9     		cbnz	r1, .L70
 899              	.LBB33:
 900              		.loc 1 449 0
 901 0016 0B46     		mov	r3, r1
 902              	@ 449 "ChibiOS//os/kernel/src/chevents.c" 1
 903 0018 83F31188 		msr     BASEPRI, r3
 904              	@ 0 "" 2
 905              		.thumb
 906              	.LBE33:
 907              		.loc 1 450 0
 908 001c 0846     		mov	r0, r1
 909              	.LVL72:
 910 001e 70BD     		pop	{r4, r5, r6, pc}
 911              	.LVL73:
 912              	.L70:
ARM GAS  /tmp/cck3ChAw.s 			page 17


 913              		.loc 1 452 0
 914 0020 7062     		str	r0, [r6, #36]
 915 0022 0546     		mov	r5, r0
 916              		.loc 1 453 0
 917 0024 0820     		movs	r0, #8
 918              	.LVL74:
 919 0026 FFF7FEFF 		bl	chSchGoSleepTimeoutS
 920              	.LVL75:
 921 002a 0028     		cmp	r0, #0
 922 002c 0ADB     		blt	.L74
 923              		.loc 1 457 0
 924 002e B26B     		ldr	r2, [r6, #56]
 925 0030 05EA0204 		and	r4, r5, r2
 926              	.LVL76:
 927              	.L69:
 928              		.loc 1 459 0
 929 0034 22EA0402 		bic	r2, r2, r4
 930 0038 B263     		str	r2, [r6, #56]
 931              	.LBB34:
 932              		.loc 1 461 0
 933 003a 0023     		movs	r3, #0
 934              	@ 461 "ChibiOS//os/kernel/src/chevents.c" 1
 935 003c 83F31188 		msr     BASEPRI, r3
 936              	@ 0 "" 2
 937              		.thumb
 938              	.LBE34:
 939              		.loc 1 462 0
 940 0040 2046     		mov	r0, r4
 941              		.loc 1 463 0
 942 0042 70BD     		pop	{r4, r5, r6, pc}
 943              	.LVL77:
 944              	.L74:
 945              	.LBB35:
 946              		.loc 1 454 0
 947 0044 2346     		mov	r3, r4
 948              	@ 454 "ChibiOS//os/kernel/src/chevents.c" 1
 949 0046 83F31188 		msr     BASEPRI, r3
 950              	@ 0 "" 2
 951              		.thumb
 952              	.LBE35:
 953              		.loc 1 455 0
 954 004a 2046     		mov	r0, r4
 955 004c 70BD     		pop	{r4, r5, r6, pc}
 956              	.LVL78:
 957              	.L76:
 958 004e 00BF     		.align	2
 959              	.L75:
 960 0050 00000000 		.word	rlist
 961              		.cfi_endproc
 962              	.LFE20:
 963              		.size	chEvtWaitAnyTimeout, .-chEvtWaitAnyTimeout
 964              		.section	.text.chEvtWaitAllTimeout,"ax",%progbits
 965              		.align	2
 966              		.p2align 4,,15
 967              		.global	chEvtWaitAllTimeout
 968              		.thumb
 969              		.thumb_func
ARM GAS  /tmp/cck3ChAw.s 			page 18


 970              		.type	chEvtWaitAllTimeout, %function
 971              	chEvtWaitAllTimeout:
 972              	.LFB21:
 973              		.loc 1 482 0
 974              		.cfi_startproc
 975              		@ args = 0, pretend = 0, frame = 0
 976              		@ frame_needed = 0, uses_anonymous_args = 0
 977              	.LVL79:
 978 0000 38B5     		push	{r3, r4, r5, lr}
 979              		.cfi_def_cfa_offset 16
 980              		.cfi_offset 3, -16
 981              		.cfi_offset 4, -12
 982              		.cfi_offset 5, -8
 983              		.cfi_offset 14, -4
 984              		.loc 1 483 0
 985 0002 124B     		ldr	r3, .L83
 986              		.loc 1 482 0
 987 0004 0446     		mov	r4, r0
 988              		.loc 1 483 0
 989 0006 DD69     		ldr	r5, [r3, #28]
 990              	.LVL80:
 991              	.LBB36:
 992              		.loc 1 485 0
 993 0008 2023     		movs	r3, #32
 994              	@ 485 "ChibiOS//os/kernel/src/chevents.c" 1
 995 000a 83F31188 		msr     BASEPRI, r3
 996              	@ 0 "" 2
 997              		.thumb
 998              	.LBE36:
 999              		.loc 1 487 0
 1000 000e AB6B     		ldr	r3, [r5, #56]
 1001 0010 1840     		ands	r0, r0, r3
 1002              	.LVL81:
 1003 0012 A042     		cmp	r0, r4
 1004 0014 0CD0     		beq	.L78
 1005              		.loc 1 488 0
 1006 0016 21B9     		cbnz	r1, .L79
 1007              	.LBB37:
 1008              		.loc 1 489 0
 1009 0018 0B46     		mov	r3, r1
 1010              	@ 489 "ChibiOS//os/kernel/src/chevents.c" 1
 1011 001a 83F31188 		msr     BASEPRI, r3
 1012              	@ 0 "" 2
 1013              		.thumb
 1014              	.LBE37:
 1015              		.loc 1 490 0
 1016 001e 0846     		mov	r0, r1
 1017 0020 38BD     		pop	{r3, r4, r5, pc}
 1018              	.LVL82:
 1019              	.L79:
 1020              		.loc 1 492 0
 1021 0022 6C62     		str	r4, [r5, #36]
 1022              		.loc 1 493 0
 1023 0024 0920     		movs	r0, #9
 1024 0026 FFF7FEFF 		bl	chSchGoSleepTimeoutS
 1025              	.LVL83:
 1026 002a 0028     		cmp	r0, #0
ARM GAS  /tmp/cck3ChAw.s 			page 19


 1027 002c 08DB     		blt	.L81
 1028 002e AB6B     		ldr	r3, [r5, #56]
 1029              	.L78:
 1030              		.loc 1 498 0
 1031 0030 23EA0403 		bic	r3, r3, r4
 1032 0034 AB63     		str	r3, [r5, #56]
 1033              	.LBB38:
 1034              		.loc 1 500 0
 1035 0036 0023     		movs	r3, #0
 1036              	@ 500 "ChibiOS//os/kernel/src/chevents.c" 1
 1037 0038 83F31188 		msr     BASEPRI, r3
 1038              	@ 0 "" 2
 1039              		.thumb
 1040              	.LBE38:
 1041              		.loc 1 501 0
 1042 003c 2046     		mov	r0, r4
 1043              		.loc 1 502 0
 1044 003e 38BD     		pop	{r3, r4, r5, pc}
 1045              	.LVL84:
 1046              	.L81:
 1047              	.LBB39:
 1048              		.loc 1 494 0
 1049 0040 0023     		movs	r3, #0
 1050              	@ 494 "ChibiOS//os/kernel/src/chevents.c" 1
 1051 0042 83F31188 		msr     BASEPRI, r3
 1052              	@ 0 "" 2
 1053              		.thumb
 1054              	.LBE39:
 1055              		.loc 1 495 0
 1056 0046 1846     		mov	r0, r3
 1057 0048 38BD     		pop	{r3, r4, r5, pc}
 1058              	.LVL85:
 1059              	.L84:
 1060 004a 00BF     		.align	2
 1061              	.L83:
 1062 004c 00000000 		.word	rlist
 1063              		.cfi_endproc
 1064              	.LFE21:
 1065              		.size	chEvtWaitAllTimeout, .-chEvtWaitAllTimeout
 1066              		.text
 1067              	.Letext0:
 1068              		.file 2 "/usr/include/newlib/machine/_default_types.h"
 1069              		.file 3 "/usr/include/newlib/sys/_stdint.h"
 1070              		.file 4 "ChibiOS//os/ports/GCC/ARMCMx/chtypes.h"
 1071              		.file 5 "ChibiOS//os/kernel/include/chlists.h"
 1072              		.file 6 "ChibiOS//os/kernel/include/chthreads.h"
 1073              		.file 7 "ChibiOS//os/ports/GCC/ARMCMx/chcore_v7m.h"
 1074              		.file 8 "ChibiOS//os/kernel/include/chschd.h"
 1075              		.file 9 "ChibiOS//os/kernel/include/chmtx.h"
 1076              		.file 10 "ChibiOS//os/kernel/include/chevents.h"
 1077              		.section	.debug_info,"",%progbits
 1078              	.Ldebug_info0:
 1079 0000 C40C0000 		.4byte	0xcc4
 1080 0004 0400     		.2byte	0x4
 1081 0006 00000000 		.4byte	.Ldebug_abbrev0
 1082 000a 04       		.byte	0x4
 1083 000b 01       		.uleb128 0x1
ARM GAS  /tmp/cck3ChAw.s 			page 20


 1084 000c 30020000 		.4byte	.LASF93
 1085 0010 01       		.byte	0x1
 1086 0011 FC010000 		.4byte	.LASF94
 1087 0015 59010000 		.4byte	.LASF95
 1088 0019 60000000 		.4byte	.Ldebug_ranges0+0x60
 1089 001d 00000000 		.4byte	0
 1090 0021 00000000 		.4byte	.Ldebug_line0
 1091 0025 02       		.uleb128 0x2
 1092 0026 04       		.byte	0x4
 1093 0027 05       		.byte	0x5
 1094 0028 696E7400 		.ascii	"int\000"
 1095 002c 03       		.uleb128 0x3
 1096 002d 04       		.byte	0x4
 1097 002e 07       		.byte	0x7
 1098 002f 82010000 		.4byte	.LASF0
 1099 0033 03       		.uleb128 0x3
 1100 0034 01       		.byte	0x1
 1101 0035 06       		.byte	0x6
 1102 0036 7E000000 		.4byte	.LASF1
 1103 003a 04       		.uleb128 0x4
 1104 003b 19000000 		.4byte	.LASF5
 1105 003f 02       		.byte	0x2
 1106 0040 1D       		.byte	0x1d
 1107 0041 45000000 		.4byte	0x45
 1108 0045 03       		.uleb128 0x3
 1109 0046 01       		.byte	0x1
 1110 0047 08       		.byte	0x8
 1111 0048 88030000 		.4byte	.LASF2
 1112 004c 03       		.uleb128 0x3
 1113 004d 02       		.byte	0x2
 1114 004e 05       		.byte	0x5
 1115 004f B9030000 		.4byte	.LASF3
 1116 0053 03       		.uleb128 0x3
 1117 0054 02       		.byte	0x2
 1118 0055 07       		.byte	0x7
 1119 0056 A9010000 		.4byte	.LASF4
 1120 005a 04       		.uleb128 0x4
 1121 005b 52040000 		.4byte	.LASF6
 1122 005f 02       		.byte	0x2
 1123 0060 3F       		.byte	0x3f
 1124 0061 65000000 		.4byte	0x65
 1125 0065 03       		.uleb128 0x3
 1126 0066 04       		.byte	0x4
 1127 0067 05       		.byte	0x5
 1128 0068 BC000000 		.4byte	.LASF7
 1129 006c 04       		.uleb128 0x4
 1130 006d 16010000 		.4byte	.LASF8
 1131 0071 02       		.byte	0x2
 1132 0072 41       		.byte	0x41
 1133 0073 77000000 		.4byte	0x77
 1134 0077 03       		.uleb128 0x3
 1135 0078 04       		.byte	0x4
 1136 0079 07       		.byte	0x7
 1137 007a 8F010000 		.4byte	.LASF9
 1138 007e 03       		.uleb128 0x3
 1139 007f 08       		.byte	0x8
 1140 0080 05       		.byte	0x5
ARM GAS  /tmp/cck3ChAw.s 			page 21


 1141 0081 70000000 		.4byte	.LASF10
 1142 0085 03       		.uleb128 0x3
 1143 0086 08       		.byte	0x8
 1144 0087 07       		.byte	0x7
 1145 0088 23000000 		.4byte	.LASF11
 1146 008c 04       		.uleb128 0x4
 1147 008d 8C040000 		.4byte	.LASF12
 1148 0091 03       		.byte	0x3
 1149 0092 14       		.byte	0x14
 1150 0093 3A000000 		.4byte	0x3a
 1151 0097 04       		.uleb128 0x4
 1152 0098 80030000 		.4byte	.LASF13
 1153 009c 03       		.byte	0x3
 1154 009d 1F       		.byte	0x1f
 1155 009e 5A000000 		.4byte	0x5a
 1156 00a2 04       		.uleb128 0x4
 1157 00a3 14040000 		.4byte	.LASF14
 1158 00a7 03       		.byte	0x3
 1159 00a8 20       		.byte	0x20
 1160 00a9 6C000000 		.4byte	0x6c
 1161 00ad 04       		.uleb128 0x4
 1162 00ae F4010000 		.4byte	.LASF15
 1163 00b2 04       		.byte	0x4
 1164 00b3 2F       		.byte	0x2f
 1165 00b4 8C000000 		.4byte	0x8c
 1166 00b8 04       		.uleb128 0x4
 1167 00b9 C5000000 		.4byte	.LASF16
 1168 00bd 04       		.byte	0x4
 1169 00be 30       		.byte	0x30
 1170 00bf 8C000000 		.4byte	0x8c
 1171 00c3 04       		.uleb128 0x4
 1172 00c4 59030000 		.4byte	.LASF17
 1173 00c8 04       		.byte	0x4
 1174 00c9 31       		.byte	0x31
 1175 00ca 8C000000 		.4byte	0x8c
 1176 00ce 04       		.uleb128 0x4
 1177 00cf 68030000 		.4byte	.LASF18
 1178 00d3 04       		.byte	0x4
 1179 00d4 32       		.byte	0x32
 1180 00d5 A2000000 		.4byte	0xa2
 1181 00d9 04       		.uleb128 0x4
 1182 00da CE010000 		.4byte	.LASF19
 1183 00de 04       		.byte	0x4
 1184 00df 33       		.byte	0x33
 1185 00e0 97000000 		.4byte	0x97
 1186 00e4 04       		.uleb128 0x4
 1187 00e5 43010000 		.4byte	.LASF20
 1188 00e9 04       		.byte	0x4
 1189 00ea 34       		.byte	0x34
 1190 00eb 97000000 		.4byte	0x97
 1191 00ef 04       		.uleb128 0x4
 1192 00f0 1E020000 		.4byte	.LASF21
 1193 00f4 04       		.byte	0x4
 1194 00f5 35       		.byte	0x35
 1195 00f6 A2000000 		.4byte	0xa2
 1196 00fa 04       		.uleb128 0x4
 1197 00fb 3D040000 		.4byte	.LASF22
ARM GAS  /tmp/cck3ChAw.s 			page 22


 1198 00ff 04       		.byte	0x4
 1199 0100 36       		.byte	0x36
 1200 0101 A2000000 		.4byte	0xa2
 1201 0105 04       		.uleb128 0x4
 1202 0106 7C010000 		.4byte	.LASF23
 1203 010a 04       		.byte	0x4
 1204 010b 37       		.byte	0x37
 1205 010c 97000000 		.4byte	0x97
 1206 0110 04       		.uleb128 0x4
 1207 0111 F4030000 		.4byte	.LASF24
 1208 0115 05       		.byte	0x5
 1209 0116 2A       		.byte	0x2a
 1210 0117 1B010000 		.4byte	0x11b
 1211 011b 05       		.uleb128 0x5
 1212 011c F4030000 		.4byte	.LASF24
 1213 0120 48       		.byte	0x48
 1214 0121 06       		.byte	0x6
 1215 0122 5E       		.byte	0x5e
 1216 0123 0C020000 		.4byte	0x20c
 1217 0127 06       		.uleb128 0x6
 1218 0128 D9030000 		.4byte	.LASF25
 1219 012c 06       		.byte	0x6
 1220 012d 5F       		.byte	0x5f
 1221 012e 2D020000 		.4byte	0x22d
 1222 0132 00       		.byte	0
 1223 0133 06       		.uleb128 0x6
 1224 0134 61030000 		.4byte	.LASF26
 1225 0138 06       		.byte	0x6
 1226 0139 61       		.byte	0x61
 1227 013a 2D020000 		.4byte	0x22d
 1228 013e 04       		.byte	0x4
 1229 013f 06       		.uleb128 0x6
 1230 0140 69000000 		.4byte	.LASF27
 1231 0144 06       		.byte	0x6
 1232 0145 63       		.byte	0x63
 1233 0146 CE000000 		.4byte	0xce
 1234 014a 08       		.byte	0x8
 1235 014b 06       		.uleb128 0x6
 1236 014c F3040000 		.4byte	.LASF28
 1237 0150 06       		.byte	0x6
 1238 0151 64       		.byte	0x64
 1239 0152 E6020000 		.4byte	0x2e6
 1240 0156 0C       		.byte	0xc
 1241 0157 06       		.uleb128 0x6
 1242 0158 FD000000 		.4byte	.LASF29
 1243 015c 06       		.byte	0x6
 1244 015d 66       		.byte	0x66
 1245 015e 2D020000 		.4byte	0x22d
 1246 0162 10       		.byte	0x10
 1247 0163 06       		.uleb128 0x6
 1248 0164 05030000 		.4byte	.LASF30
 1249 0168 06       		.byte	0x6
 1250 0169 67       		.byte	0x67
 1251 016a 2D020000 		.4byte	0x22d
 1252 016e 14       		.byte	0x14
 1253 016f 06       		.uleb128 0x6
 1254 0170 BD040000 		.4byte	.LASF31
ARM GAS  /tmp/cck3ChAw.s 			page 23


 1255 0174 06       		.byte	0x6
 1256 0175 6E       		.byte	0x6e
 1257 0176 74040000 		.4byte	0x474
 1258 017a 18       		.byte	0x18
 1259 017b 06       		.uleb128 0x6
 1260 017c C3030000 		.4byte	.LASF32
 1261 0180 06       		.byte	0x6
 1262 0181 79       		.byte	0x79
 1263 0182 B8000000 		.4byte	0xb8
 1264 0186 1C       		.byte	0x1c
 1265 0187 06       		.uleb128 0x6
 1266 0188 E0030000 		.4byte	.LASF33
 1267 018c 06       		.byte	0x6
 1268 018d 7D       		.byte	0x7d
 1269 018e AD000000 		.4byte	0xad
 1270 0192 1D       		.byte	0x1d
 1271 0193 06       		.uleb128 0x6
 1272 0194 75040000 		.4byte	.LASF34
 1273 0198 06       		.byte	0x6
 1274 0199 82       		.byte	0x82
 1275 019a C3000000 		.4byte	0xc3
 1276 019e 1E       		.byte	0x1e
 1277 019f 06       		.uleb128 0x6
 1278 01a0 5C040000 		.4byte	.LASF35
 1279 01a4 06       		.byte	0x6
 1280 01a5 89       		.byte	0x89
 1281 01a6 0E030000 		.4byte	0x30e
 1282 01aa 20       		.byte	0x20
 1283 01ab 07       		.uleb128 0x7
 1284 01ac 705F7500 		.ascii	"p_u\000"
 1285 01b0 06       		.byte	0x6
 1286 01b1 AE       		.byte	0xae
 1287 01b2 3F040000 		.4byte	0x43f
 1288 01b6 24       		.byte	0x24
 1289 01b7 06       		.uleb128 0x6
 1290 01b8 F9040000 		.4byte	.LASF36
 1291 01bc 06       		.byte	0x6
 1292 01bd B3       		.byte	0xb3
 1293 01be 53020000 		.4byte	0x253
 1294 01c2 28       		.byte	0x28
 1295 01c3 06       		.uleb128 0x6
 1296 01c4 6A040000 		.4byte	.LASF37
 1297 01c8 06       		.byte	0x6
 1298 01c9 B9       		.byte	0xb9
 1299 01ca 33020000 		.4byte	0x233
 1300 01ce 2C       		.byte	0x2c
 1301 01cf 06       		.uleb128 0x6
 1302 01d0 00000000 		.4byte	.LASF38
 1303 01d4 06       		.byte	0x6
 1304 01d5 BD       		.byte	0xbd
 1305 01d6 D9000000 		.4byte	0xd9
 1306 01da 34       		.byte	0x34
 1307 01db 06       		.uleb128 0x6
 1308 01dc 09040000 		.4byte	.LASF39
 1309 01e0 06       		.byte	0x6
 1310 01e1 C3       		.byte	0xc3
 1311 01e2 EF000000 		.4byte	0xef
ARM GAS  /tmp/cck3ChAw.s 			page 24


 1312 01e6 38       		.byte	0x38
 1313 01e7 06       		.uleb128 0x6
 1314 01e8 AF030000 		.4byte	.LASF40
 1315 01ec 06       		.byte	0x6
 1316 01ed CA       		.byte	0xca
 1317 01ee 86040000 		.4byte	0x486
 1318 01f2 3C       		.byte	0x3c
 1319 01f3 06       		.uleb128 0x6
 1320 01f4 47040000 		.4byte	.LASF41
 1321 01f8 06       		.byte	0x6
 1322 01f9 CE       		.byte	0xce
 1323 01fa CE000000 		.4byte	0xce
 1324 01fe 40       		.byte	0x40
 1325 01ff 06       		.uleb128 0x6
 1326 0200 9E000000 		.4byte	.LASF42
 1327 0204 06       		.byte	0x6
 1328 0205 D4       		.byte	0xd4
 1329 0206 69020000 		.4byte	0x269
 1330 020a 44       		.byte	0x44
 1331 020b 00       		.byte	0
 1332 020c 08       		.uleb128 0x8
 1333 020d 08       		.byte	0x8
 1334 020e 05       		.byte	0x5
 1335 020f 61       		.byte	0x61
 1336 0210 2D020000 		.4byte	0x22d
 1337 0214 06       		.uleb128 0x6
 1338 0215 D9030000 		.4byte	.LASF25
 1339 0219 05       		.byte	0x5
 1340 021a 62       		.byte	0x62
 1341 021b 2D020000 		.4byte	0x22d
 1342 021f 00       		.byte	0
 1343 0220 06       		.uleb128 0x6
 1344 0221 61030000 		.4byte	.LASF26
 1345 0225 05       		.byte	0x5
 1346 0226 64       		.byte	0x64
 1347 0227 2D020000 		.4byte	0x22d
 1348 022b 04       		.byte	0x4
 1349 022c 00       		.byte	0
 1350 022d 09       		.uleb128 0x9
 1351 022e 04       		.byte	0x4
 1352 022f 10010000 		.4byte	0x110
 1353 0233 04       		.uleb128 0x4
 1354 0234 13030000 		.4byte	.LASF43
 1355 0238 05       		.byte	0x5
 1356 0239 66       		.byte	0x66
 1357 023a 0C020000 		.4byte	0x20c
 1358 023e 08       		.uleb128 0x8
 1359 023f 04       		.byte	0x4
 1360 0240 05       		.byte	0x5
 1361 0241 6B       		.byte	0x6b
 1362 0242 53020000 		.4byte	0x253
 1363 0246 06       		.uleb128 0x6
 1364 0247 D9030000 		.4byte	.LASF25
 1365 024b 05       		.byte	0x5
 1366 024c 6D       		.byte	0x6d
 1367 024d 2D020000 		.4byte	0x22d
 1368 0251 00       		.byte	0
ARM GAS  /tmp/cck3ChAw.s 			page 25


 1369 0252 00       		.byte	0
 1370 0253 04       		.uleb128 0x4
 1371 0254 06000000 		.4byte	.LASF44
 1372 0258 05       		.byte	0x5
 1373 0259 70       		.byte	0x70
 1374 025a 3E020000 		.4byte	0x23e
 1375 025e 04       		.uleb128 0x4
 1376 025f 26010000 		.4byte	.LASF45
 1377 0263 07       		.byte	0x7
 1378 0264 D7       		.byte	0xd7
 1379 0265 69020000 		.4byte	0x269
 1380 0269 0A       		.uleb128 0xa
 1381 026a 04       		.byte	0x4
 1382 026b 05       		.uleb128 0x5
 1383 026c 63040000 		.4byte	.LASF46
 1384 0270 24       		.byte	0x24
 1385 0271 07       		.byte	0x7
 1386 0272 FE       		.byte	0xfe
 1387 0273 E6020000 		.4byte	0x2e6
 1388 0277 0B       		.uleb128 0xb
 1389 0278 723400   		.ascii	"r4\000"
 1390 027b 07       		.byte	0x7
 1391 027c 1101     		.2byte	0x111
 1392 027e 5E020000 		.4byte	0x25e
 1393 0282 00       		.byte	0
 1394 0283 0B       		.uleb128 0xb
 1395 0284 723500   		.ascii	"r5\000"
 1396 0287 07       		.byte	0x7
 1397 0288 1201     		.2byte	0x112
 1398 028a 5E020000 		.4byte	0x25e
 1399 028e 04       		.byte	0x4
 1400 028f 0B       		.uleb128 0xb
 1401 0290 723600   		.ascii	"r6\000"
 1402 0293 07       		.byte	0x7
 1403 0294 1301     		.2byte	0x113
 1404 0296 5E020000 		.4byte	0x25e
 1405 029a 08       		.byte	0x8
 1406 029b 0B       		.uleb128 0xb
 1407 029c 723700   		.ascii	"r7\000"
 1408 029f 07       		.byte	0x7
 1409 02a0 1401     		.2byte	0x114
 1410 02a2 5E020000 		.4byte	0x25e
 1411 02a6 0C       		.byte	0xc
 1412 02a7 0B       		.uleb128 0xb
 1413 02a8 723800   		.ascii	"r8\000"
 1414 02ab 07       		.byte	0x7
 1415 02ac 1501     		.2byte	0x115
 1416 02ae 5E020000 		.4byte	0x25e
 1417 02b2 10       		.byte	0x10
 1418 02b3 0B       		.uleb128 0xb
 1419 02b4 723900   		.ascii	"r9\000"
 1420 02b7 07       		.byte	0x7
 1421 02b8 1601     		.2byte	0x116
 1422 02ba 5E020000 		.4byte	0x25e
 1423 02be 14       		.byte	0x14
 1424 02bf 0B       		.uleb128 0xb
 1425 02c0 72313000 		.ascii	"r10\000"
ARM GAS  /tmp/cck3ChAw.s 			page 26


 1426 02c4 07       		.byte	0x7
 1427 02c5 1701     		.2byte	0x117
 1428 02c7 5E020000 		.4byte	0x25e
 1429 02cb 18       		.byte	0x18
 1430 02cc 0B       		.uleb128 0xb
 1431 02cd 72313100 		.ascii	"r11\000"
 1432 02d1 07       		.byte	0x7
 1433 02d2 1801     		.2byte	0x118
 1434 02d4 5E020000 		.4byte	0x25e
 1435 02d8 1C       		.byte	0x1c
 1436 02d9 0B       		.uleb128 0xb
 1437 02da 6C7200   		.ascii	"lr\000"
 1438 02dd 07       		.byte	0x7
 1439 02de 1901     		.2byte	0x119
 1440 02e0 5E020000 		.4byte	0x25e
 1441 02e4 20       		.byte	0x20
 1442 02e5 00       		.byte	0
 1443 02e6 0C       		.uleb128 0xc
 1444 02e7 A1010000 		.4byte	.LASF47
 1445 02eb 04       		.byte	0x4
 1446 02ec 07       		.byte	0x7
 1447 02ed 2301     		.2byte	0x123
 1448 02ef 01030000 		.4byte	0x301
 1449 02f3 0B       		.uleb128 0xb
 1450 02f4 72313300 		.ascii	"r13\000"
 1451 02f8 07       		.byte	0x7
 1452 02f9 2401     		.2byte	0x124
 1453 02fb 01030000 		.4byte	0x301
 1454 02ff 00       		.byte	0
 1455 0300 00       		.byte	0
 1456 0301 09       		.uleb128 0x9
 1457 0302 04       		.byte	0x4
 1458 0303 6B020000 		.4byte	0x26b
 1459 0307 03       		.uleb128 0x3
 1460 0308 04       		.byte	0x4
 1461 0309 07       		.byte	0x7
 1462 030a EE020000 		.4byte	.LASF48
 1463 030e 0D       		.uleb128 0xd
 1464 030f FA000000 		.4byte	0xfa
 1465 0313 08       		.uleb128 0x8
 1466 0314 20       		.byte	0x20
 1467 0315 08       		.byte	0x8
 1468 0316 5E       		.byte	0x5e
 1469 0317 70030000 		.4byte	0x370
 1470 031b 06       		.uleb128 0x6
 1471 031c 1D040000 		.4byte	.LASF49
 1472 0320 08       		.byte	0x8
 1473 0321 5F       		.byte	0x5f
 1474 0322 33020000 		.4byte	0x233
 1475 0326 00       		.byte	0
 1476 0327 06       		.uleb128 0x6
 1477 0328 CB030000 		.4byte	.LASF50
 1478 032c 08       		.byte	0x8
 1479 032d 60       		.byte	0x60
 1480 032e CE000000 		.4byte	0xce
 1481 0332 08       		.byte	0x8
 1482 0333 06       		.uleb128 0x6
ARM GAS  /tmp/cck3ChAw.s 			page 27


 1483 0334 0D030000 		.4byte	.LASF51
 1484 0338 08       		.byte	0x8
 1485 0339 62       		.byte	0x62
 1486 033a E6020000 		.4byte	0x2e6
 1487 033e 0C       		.byte	0xc
 1488 033f 06       		.uleb128 0x6
 1489 0340 D4010000 		.4byte	.LASF52
 1490 0344 08       		.byte	0x8
 1491 0345 65       		.byte	0x65
 1492 0346 2D020000 		.4byte	0x22d
 1493 034a 10       		.byte	0x10
 1494 034b 06       		.uleb128 0x6
 1495 034c 40030000 		.4byte	.LASF53
 1496 0350 08       		.byte	0x8
 1497 0351 66       		.byte	0x66
 1498 0352 2D020000 		.4byte	0x22d
 1499 0356 14       		.byte	0x14
 1500 0357 06       		.uleb128 0x6
 1501 0358 E1040000 		.4byte	.LASF54
 1502 035c 08       		.byte	0x8
 1503 035d 6A       		.byte	0x6a
 1504 035e 05010000 		.4byte	0x105
 1505 0362 18       		.byte	0x18
 1506 0363 06       		.uleb128 0x6
 1507 0364 36030000 		.4byte	.LASF55
 1508 0368 08       		.byte	0x8
 1509 0369 6C       		.byte	0x6c
 1510 036a 2D020000 		.4byte	0x22d
 1511 036e 1C       		.byte	0x1c
 1512 036f 00       		.byte	0
 1513 0370 04       		.uleb128 0x4
 1514 0371 7C040000 		.4byte	.LASF56
 1515 0375 08       		.byte	0x8
 1516 0376 6E       		.byte	0x6e
 1517 0377 13030000 		.4byte	0x313
 1518 037b 05       		.uleb128 0x5
 1519 037c 2A020000 		.4byte	.LASF57
 1520 0380 10       		.byte	0x10
 1521 0381 09       		.byte	0x9
 1522 0382 2C       		.byte	0x2c
 1523 0383 AC030000 		.4byte	0x3ac
 1524 0387 06       		.uleb128 0x6
 1525 0388 A6000000 		.4byte	.LASF58
 1526 038c 09       		.byte	0x9
 1527 038d 2D       		.byte	0x2d
 1528 038e 33020000 		.4byte	0x233
 1529 0392 00       		.byte	0
 1530 0393 06       		.uleb128 0x6
 1531 0394 EB040000 		.4byte	.LASF59
 1532 0398 09       		.byte	0x9
 1533 0399 2F       		.byte	0x2f
 1534 039a 2D020000 		.4byte	0x22d
 1535 039e 08       		.byte	0x8
 1536 039f 06       		.uleb128 0x6
 1537 03a0 36040000 		.4byte	.LASF60
 1538 03a4 09       		.byte	0x9
 1539 03a5 31       		.byte	0x31
ARM GAS  /tmp/cck3ChAw.s 			page 28


 1540 03a6 AC030000 		.4byte	0x3ac
 1541 03aa 0C       		.byte	0xc
 1542 03ab 00       		.byte	0
 1543 03ac 09       		.uleb128 0x9
 1544 03ad 04       		.byte	0x4
 1545 03ae 7B030000 		.4byte	0x37b
 1546 03b2 04       		.uleb128 0x4
 1547 03b3 2A020000 		.4byte	.LASF57
 1548 03b7 09       		.byte	0x9
 1549 03b8 33       		.byte	0x33
 1550 03b9 7B030000 		.4byte	0x37b
 1551 03bd 04       		.uleb128 0x4
 1552 03be 94040000 		.4byte	.LASF61
 1553 03c2 0A       		.byte	0xa
 1554 03c3 29       		.byte	0x29
 1555 03c4 C8030000 		.4byte	0x3c8
 1556 03c8 05       		.uleb128 0x5
 1557 03c9 94040000 		.4byte	.LASF61
 1558 03cd 0C       		.byte	0xc
 1559 03ce 0A       		.byte	0xa
 1560 03cf 2E       		.byte	0x2e
 1561 03d0 F9030000 		.4byte	0x3f9
 1562 03d4 06       		.uleb128 0x6
 1563 03d5 DC010000 		.4byte	.LASF62
 1564 03d9 0A       		.byte	0xa
 1565 03da 2F       		.byte	0x2f
 1566 03db F9030000 		.4byte	0x3f9
 1567 03df 00       		.byte	0
 1568 03e0 06       		.uleb128 0x6
 1569 03e1 A3030000 		.4byte	.LASF63
 1570 03e5 0A       		.byte	0xa
 1571 03e6 32       		.byte	0x32
 1572 03e7 2D020000 		.4byte	0x22d
 1573 03eb 04       		.byte	0x4
 1574 03ec 06       		.uleb128 0x6
 1575 03ed 48030000 		.4byte	.LASF64
 1576 03f1 0A       		.byte	0xa
 1577 03f2 34       		.byte	0x34
 1578 03f3 EF000000 		.4byte	0xef
 1579 03f7 08       		.byte	0x8
 1580 03f8 00       		.byte	0
 1581 03f9 09       		.uleb128 0x9
 1582 03fa 04       		.byte	0x4
 1583 03fb BD030000 		.4byte	0x3bd
 1584 03ff 05       		.uleb128 0x5
 1585 0400 4D010000 		.4byte	.LASF65
 1586 0404 04       		.byte	0x4
 1587 0405 0A       		.byte	0xa
 1588 0406 3C       		.byte	0x3c
 1589 0407 18040000 		.4byte	0x418
 1590 040b 06       		.uleb128 0x6
 1591 040c C4040000 		.4byte	.LASF66
 1592 0410 0A       		.byte	0xa
 1593 0411 3D       		.byte	0x3d
 1594 0412 F9030000 		.4byte	0x3f9
 1595 0416 00       		.byte	0
 1596 0417 00       		.byte	0
ARM GAS  /tmp/cck3ChAw.s 			page 29


 1597 0418 04       		.uleb128 0x4
 1598 0419 4D010000 		.4byte	.LASF65
 1599 041d 0A       		.byte	0xa
 1600 041e 40       		.byte	0x40
 1601 041f FF030000 		.4byte	0x3ff
 1602 0423 04       		.uleb128 0x4
 1603 0424 E8030000 		.4byte	.LASF67
 1604 0428 0A       		.byte	0xa
 1605 0429 45       		.byte	0x45
 1606 042a 2E040000 		.4byte	0x42e
 1607 042e 09       		.uleb128 0x9
 1608 042f 04       		.byte	0x4
 1609 0430 34040000 		.4byte	0x434
 1610 0434 0E       		.uleb128 0xe
 1611 0435 3F040000 		.4byte	0x43f
 1612 0439 0F       		.uleb128 0xf
 1613 043a E4000000 		.4byte	0xe4
 1614 043e 00       		.byte	0
 1615 043f 10       		.uleb128 0x10
 1616 0440 04       		.byte	0x4
 1617 0441 06       		.byte	0x6
 1618 0442 90       		.byte	0x90
 1619 0443 74040000 		.4byte	0x474
 1620 0447 11       		.uleb128 0x11
 1621 0448 12000000 		.4byte	.LASF68
 1622 044c 06       		.byte	0x6
 1623 044d 97       		.byte	0x97
 1624 044e D9000000 		.4byte	0xd9
 1625 0452 11       		.uleb128 0x11
 1626 0453 3A000000 		.4byte	.LASF69
 1627 0457 06       		.byte	0x6
 1628 0458 9E       		.byte	0x9e
 1629 0459 D9000000 		.4byte	0xd9
 1630 045d 11       		.uleb128 0x11
 1631 045e B6040000 		.4byte	.LASF70
 1632 0462 06       		.byte	0x6
 1633 0463 A5       		.byte	0xa5
 1634 0464 69020000 		.4byte	0x269
 1635 0468 11       		.uleb128 0x11
 1636 0469 D2030000 		.4byte	.LASF71
 1637 046d 06       		.byte	0x6
 1638 046e AC       		.byte	0xac
 1639 046f EF000000 		.4byte	0xef
 1640 0473 00       		.byte	0
 1641 0474 09       		.uleb128 0x9
 1642 0475 04       		.byte	0x4
 1643 0476 7A040000 		.4byte	0x47a
 1644 047a 12       		.uleb128 0x12
 1645 047b 7F040000 		.4byte	0x47f
 1646 047f 03       		.uleb128 0x3
 1647 0480 01       		.byte	0x1
 1648 0481 08       		.byte	0x8
 1649 0482 31040000 		.4byte	.LASF72
 1650 0486 09       		.uleb128 0x9
 1651 0487 04       		.byte	0x4
 1652 0488 B2030000 		.4byte	0x3b2
 1653 048c 13       		.uleb128 0x13
ARM GAS  /tmp/cck3ChAw.s 			page 30


 1654 048d 43000000 		.4byte	.LASF90
 1655 0491 01       		.byte	0x1
 1656 0492 C1       		.byte	0xc1
 1657 0493 01       		.byte	0x1
 1658 0494 AE040000 		.4byte	0x4ae
 1659 0498 14       		.uleb128 0x14
 1660 0499 747000   		.ascii	"tp\000"
 1661 049c 01       		.byte	0x1
 1662 049d C1       		.byte	0xc1
 1663 049e 2D020000 		.4byte	0x22d
 1664 04a2 15       		.uleb128 0x15
 1665 04a3 21010000 		.4byte	.LASF73
 1666 04a7 01       		.byte	0x1
 1667 04a8 C1       		.byte	0xc1
 1668 04a9 EF000000 		.4byte	0xef
 1669 04ad 00       		.byte	0
 1670 04ae 16       		.uleb128 0x16
 1671 04af BC010000 		.4byte	.LASF74
 1672 04b3 01       		.byte	0x1
 1673 04b4 52       		.byte	0x52
 1674 04b5 00000000 		.4byte	.LFB7
 1675 04b9 28000000 		.4byte	.LFE7-.LFB7
 1676 04bd 01       		.uleb128 0x1
 1677 04be 9C       		.byte	0x9c
 1678 04bf 19050000 		.4byte	0x519
 1679 04c3 17       		.uleb128 0x17
 1680 04c4 65737000 		.ascii	"esp\000"
 1681 04c8 01       		.byte	0x1
 1682 04c9 52       		.byte	0x52
 1683 04ca 19050000 		.4byte	0x519
 1684 04ce 01       		.uleb128 0x1
 1685 04cf 50       		.byte	0x50
 1686 04d0 17       		.uleb128 0x17
 1687 04d1 656C7000 		.ascii	"elp\000"
 1688 04d5 01       		.byte	0x1
 1689 04d6 52       		.byte	0x52
 1690 04d7 F9030000 		.4byte	0x3f9
 1691 04db 01       		.uleb128 0x1
 1692 04dc 51       		.byte	0x51
 1693 04dd 18       		.uleb128 0x18
 1694 04de 21010000 		.4byte	.LASF73
 1695 04e2 01       		.byte	0x1
 1696 04e3 52       		.byte	0x52
 1697 04e4 EF000000 		.4byte	0xef
 1698 04e8 01       		.uleb128 0x1
 1699 04e9 52       		.byte	0x52
 1700 04ea 19       		.uleb128 0x19
 1701 04eb 02000000 		.4byte	.LBB2
 1702 04ef 06000000 		.4byte	.LBE2-.LBB2
 1703 04f3 05050000 		.4byte	0x505
 1704 04f7 1A       		.uleb128 0x1a
 1705 04f8 746D7000 		.ascii	"tmp\000"
 1706 04fc 01       		.byte	0x1
 1707 04fd 56       		.byte	0x56
 1708 04fe A2000000 		.4byte	0xa2
 1709 0502 01       		.uleb128 0x1
 1710 0503 53       		.byte	0x53
ARM GAS  /tmp/cck3ChAw.s 			page 31


 1711 0504 00       		.byte	0
 1712 0505 1B       		.uleb128 0x1b
 1713 0506 00000000 		.4byte	.Ldebug_ranges0+0
 1714 050a 1A       		.uleb128 0x1a
 1715 050b 746D7000 		.ascii	"tmp\000"
 1716 050f 01       		.byte	0x1
 1717 0510 5B       		.byte	0x5b
 1718 0511 A2000000 		.4byte	0xa2
 1719 0515 01       		.uleb128 0x1
 1720 0516 53       		.byte	0x53
 1721 0517 00       		.byte	0
 1722 0518 00       		.byte	0
 1723 0519 09       		.uleb128 0x9
 1724 051a 04       		.byte	0x4
 1725 051b 18040000 		.4byte	0x418
 1726 051f 16       		.uleb128 0x16
 1727 0520 E4010000 		.4byte	.LASF75
 1728 0524 01       		.byte	0x1
 1729 0525 6B       		.byte	0x6b
 1730 0526 00000000 		.4byte	.LFB8
 1731 052a 2A000000 		.4byte	.LFE8-.LFB8
 1732 052e 01       		.uleb128 0x1
 1733 052f 9C       		.byte	0x9c
 1734 0530 8A050000 		.4byte	0x58a
 1735 0534 17       		.uleb128 0x17
 1736 0535 65737000 		.ascii	"esp\000"
 1737 0539 01       		.byte	0x1
 1738 053a 6B       		.byte	0x6b
 1739 053b 19050000 		.4byte	0x519
 1740 053f 01       		.uleb128 0x1
 1741 0540 50       		.byte	0x50
 1742 0541 17       		.uleb128 0x17
 1743 0542 656C7000 		.ascii	"elp\000"
 1744 0546 01       		.byte	0x1
 1745 0547 6B       		.byte	0x6b
 1746 0548 F9030000 		.4byte	0x3f9
 1747 054c 01       		.uleb128 0x1
 1748 054d 51       		.byte	0x51
 1749 054e 1C       		.uleb128 0x1c
 1750 054f 7000     		.ascii	"p\000"
 1751 0551 01       		.byte	0x1
 1752 0552 6C       		.byte	0x6c
 1753 0553 F9030000 		.4byte	0x3f9
 1754 0557 00000000 		.4byte	.LLST0
 1755 055b 19       		.uleb128 0x19
 1756 055c 00000000 		.4byte	.LBB5
 1757 0560 06000000 		.4byte	.LBE5-.LBB5
 1758 0564 76050000 		.4byte	0x576
 1759 0568 1A       		.uleb128 0x1a
 1760 0569 746D7000 		.ascii	"tmp\000"
 1761 056d 01       		.byte	0x1
 1762 056e 71       		.byte	0x71
 1763 056f A2000000 		.4byte	0xa2
 1764 0573 01       		.uleb128 0x1
 1765 0574 53       		.byte	0x53
 1766 0575 00       		.byte	0
 1767 0576 1B       		.uleb128 0x1b
ARM GAS  /tmp/cck3ChAw.s 			page 32


 1768 0577 18000000 		.4byte	.Ldebug_ranges0+0x18
 1769 057b 1A       		.uleb128 0x1a
 1770 057c 746D7000 		.ascii	"tmp\000"
 1771 0580 01       		.byte	0x1
 1772 0581 79       		.byte	0x79
 1773 0582 A2000000 		.4byte	0xa2
 1774 0586 01       		.uleb128 0x1
 1775 0587 53       		.byte	0x53
 1776 0588 00       		.byte	0
 1777 0589 00       		.byte	0
 1778 058a 1D       		.uleb128 0x1d
 1779 058b 70030000 		.4byte	.LASF76
 1780 058f 01       		.byte	0x1
 1781 0590 84       		.byte	0x84
 1782 0591 EF000000 		.4byte	0xef
 1783 0595 00000000 		.4byte	.LFB9
 1784 0599 28000000 		.4byte	.LFE9-.LFB9
 1785 059d 01       		.uleb128 0x1
 1786 059e 9C       		.byte	0x9c
 1787 059f EE050000 		.4byte	0x5ee
 1788 05a3 1E       		.uleb128 0x1e
 1789 05a4 21010000 		.4byte	.LASF73
 1790 05a8 01       		.byte	0x1
 1791 05a9 84       		.byte	0x84
 1792 05aa EF000000 		.4byte	0xef
 1793 05ae 1E000000 		.4byte	.LLST1
 1794 05b2 1C       		.uleb128 0x1c
 1795 05b3 6D00     		.ascii	"m\000"
 1796 05b5 01       		.byte	0x1
 1797 05b6 85       		.byte	0x85
 1798 05b7 EF000000 		.4byte	0xef
 1799 05bb 3F000000 		.4byte	.LLST2
 1800 05bf 19       		.uleb128 0x19
 1801 05c0 02000000 		.4byte	.LBB8
 1802 05c4 06000000 		.4byte	.LBE8-.LBB8
 1803 05c8 DA050000 		.4byte	0x5da
 1804 05cc 1A       		.uleb128 0x1a
 1805 05cd 746D7000 		.ascii	"tmp\000"
 1806 05d1 01       		.byte	0x1
 1807 05d2 87       		.byte	0x87
 1808 05d3 A2000000 		.4byte	0xa2
 1809 05d7 01       		.uleb128 0x1
 1810 05d8 53       		.byte	0x53
 1811 05d9 00       		.byte	0
 1812 05da 1B       		.uleb128 0x1b
 1813 05db 30000000 		.4byte	.Ldebug_ranges0+0x30
 1814 05df 1A       		.uleb128 0x1a
 1815 05e0 746D7000 		.ascii	"tmp\000"
 1816 05e4 01       		.byte	0x1
 1817 05e5 8C       		.byte	0x8c
 1818 05e6 A2000000 		.4byte	0xa2
 1819 05ea 01       		.uleb128 0x1
 1820 05eb 53       		.byte	0x53
 1821 05ec 00       		.byte	0
 1822 05ed 00       		.byte	0
 1823 05ee 1D       		.uleb128 0x1d
 1824 05ef AE000000 		.4byte	.LASF77
ARM GAS  /tmp/cck3ChAw.s 			page 33


 1825 05f3 01       		.byte	0x1
 1826 05f4 99       		.byte	0x99
 1827 05f5 EF000000 		.4byte	0xef
 1828 05f9 00000000 		.4byte	.LFB10
 1829 05fd 1C000000 		.4byte	.LFE10-.LFB10
 1830 0601 01       		.uleb128 0x1
 1831 0602 9C       		.byte	0x9c
 1832 0603 45060000 		.4byte	0x645
 1833 0607 1E       		.uleb128 0x1e
 1834 0608 21010000 		.4byte	.LASF73
 1835 060c 01       		.byte	0x1
 1836 060d 99       		.byte	0x99
 1837 060e EF000000 		.4byte	0xef
 1838 0612 62000000 		.4byte	.LLST3
 1839 0616 19       		.uleb128 0x19
 1840 0617 00000000 		.4byte	.LBB11
 1841 061b 06000000 		.4byte	.LBE11-.LBB11
 1842 061f 31060000 		.4byte	0x631
 1843 0623 1A       		.uleb128 0x1a
 1844 0624 746D7000 		.ascii	"tmp\000"
 1845 0628 01       		.byte	0x1
 1846 0629 9B       		.byte	0x9b
 1847 062a A2000000 		.4byte	0xa2
 1848 062e 01       		.uleb128 0x1
 1849 062f 53       		.byte	0x53
 1850 0630 00       		.byte	0
 1851 0631 1B       		.uleb128 0x1b
 1852 0632 48000000 		.4byte	.Ldebug_ranges0+0x48
 1853 0636 1A       		.uleb128 0x1a
 1854 0637 746D7000 		.ascii	"tmp\000"
 1855 063b 01       		.byte	0x1
 1856 063c 9F       		.byte	0x9f
 1857 063d A2000000 		.4byte	0xa2
 1858 0641 01       		.uleb128 0x1
 1859 0642 53       		.byte	0x53
 1860 0643 00       		.byte	0
 1861 0644 00       		.byte	0
 1862 0645 1F       		.uleb128 0x1f
 1863 0646 8C040000 		.4byte	0x48c
 1864 064a 00000000 		.4byte	.LFB12
 1865 064e 2E000000 		.4byte	.LFE12-.LFB12
 1866 0652 01       		.uleb128 0x1
 1867 0653 9C       		.byte	0x9c
 1868 0654 98060000 		.4byte	0x698
 1869 0658 20       		.uleb128 0x20
 1870 0659 98040000 		.4byte	0x498
 1871 065d 8E000000 		.4byte	.LLST4
 1872 0661 20       		.uleb128 0x20
 1873 0662 A2040000 		.4byte	0x4a2
 1874 0666 BA000000 		.4byte	.LLST5
 1875 066a 21       		.uleb128 0x21
 1876 066b 1C000000 		.4byte	.LBB16
 1877 066f 0A000000 		.4byte	.LBE16-.LBB16
 1878 0673 20       		.uleb128 0x20
 1879 0674 A2040000 		.4byte	0x4a2
 1880 0678 DB000000 		.4byte	.LLST6
 1881 067c 20       		.uleb128 0x20
ARM GAS  /tmp/cck3ChAw.s 			page 34


 1882 067d 98040000 		.4byte	0x498
 1883 0681 F1000000 		.4byte	.LLST7
 1884 0685 22       		.uleb128 0x22
 1885 0686 20000000 		.4byte	.LVL13
 1886 068a 840C0000 		.4byte	0xc84
 1887 068e 23       		.uleb128 0x23
 1888 068f 01       		.uleb128 0x1
 1889 0690 50       		.byte	0x50
 1890 0691 03       		.uleb128 0x3
 1891 0692 F3       		.byte	0xf3
 1892 0693 01       		.uleb128 0x1
 1893 0694 50       		.byte	0x50
 1894 0695 00       		.byte	0
 1895 0696 00       		.byte	0
 1896 0697 00       		.byte	0
 1897 0698 16       		.uleb128 0x16
 1898 0699 25030000 		.4byte	.LASF78
 1899 069d 01       		.byte	0x1
 1900 069e AB       		.byte	0xab
 1901 069f 00000000 		.4byte	.LFB11
 1902 06a3 18000000 		.4byte	.LFE11-.LFB11
 1903 06a7 01       		.uleb128 0x1
 1904 06a8 9C       		.byte	0x9c
 1905 06a9 26070000 		.4byte	0x726
 1906 06ad 24       		.uleb128 0x24
 1907 06ae 747000   		.ascii	"tp\000"
 1908 06b1 01       		.byte	0x1
 1909 06b2 AB       		.byte	0xab
 1910 06b3 2D020000 		.4byte	0x22d
 1911 06b7 12010000 		.4byte	.LLST8
 1912 06bb 1E       		.uleb128 0x1e
 1913 06bc 21010000 		.4byte	.LASF73
 1914 06c0 01       		.byte	0x1
 1915 06c1 AB       		.byte	0xab
 1916 06c2 EF000000 		.4byte	0xef
 1917 06c6 33010000 		.4byte	.LLST9
 1918 06ca 19       		.uleb128 0x19
 1919 06cb 02000000 		.4byte	.LBB18
 1920 06cf 06000000 		.4byte	.LBE18-.LBB18
 1921 06d3 E5060000 		.4byte	0x6e5
 1922 06d7 1A       		.uleb128 0x1a
 1923 06d8 746D7000 		.ascii	"tmp\000"
 1924 06dc 01       		.byte	0x1
 1925 06dd AF       		.byte	0xaf
 1926 06de A2000000 		.4byte	0xa2
 1927 06e2 01       		.uleb128 0x1
 1928 06e3 53       		.byte	0x53
 1929 06e4 00       		.byte	0
 1930 06e5 19       		.uleb128 0x19
 1931 06e6 10000000 		.4byte	.LBB19
 1932 06ea 08000000 		.4byte	.LBE19-.LBB19
 1933 06ee 00070000 		.4byte	0x700
 1934 06f2 1A       		.uleb128 0x1a
 1935 06f3 746D7000 		.ascii	"tmp\000"
 1936 06f7 01       		.byte	0x1
 1937 06f8 B2       		.byte	0xb2
 1938 06f9 A2000000 		.4byte	0xa2
ARM GAS  /tmp/cck3ChAw.s 			page 35


 1939 06fd 01       		.uleb128 0x1
 1940 06fe 53       		.byte	0x53
 1941 06ff 00       		.byte	0
 1942 0700 25       		.uleb128 0x25
 1943 0701 0C000000 		.4byte	.LVL16
 1944 0705 8C040000 		.4byte	0x48c
 1945 0709 1C070000 		.4byte	0x71c
 1946 070d 23       		.uleb128 0x23
 1947 070e 01       		.uleb128 0x1
 1948 070f 51       		.byte	0x51
 1949 0710 03       		.uleb128 0x3
 1950 0711 F3       		.byte	0xf3
 1951 0712 01       		.uleb128 0x1
 1952 0713 51       		.byte	0x51
 1953 0714 23       		.uleb128 0x23
 1954 0715 01       		.uleb128 0x1
 1955 0716 50       		.byte	0x50
 1956 0717 03       		.uleb128 0x3
 1957 0718 F3       		.byte	0xf3
 1958 0719 01       		.uleb128 0x1
 1959 071a 50       		.byte	0x50
 1960 071b 00       		.byte	0
 1961 071c 26       		.uleb128 0x26
 1962 071d 10000000 		.4byte	.LVL17
 1963 0721 990C0000 		.4byte	0xc99
 1964 0725 00       		.byte	0
 1965 0726 16       		.uleb128 0x16
 1966 0727 E8000000 		.4byte	.LASF79
 1967 072b 01       		.byte	0x1
 1968 072c F5       		.byte	0xf5
 1969 072d 00000000 		.4byte	.LFB14
 1970 0731 1E000000 		.4byte	.LFE14-.LFB14
 1971 0735 01       		.uleb128 0x1
 1972 0736 9C       		.byte	0x9c
 1973 0737 70070000 		.4byte	0x770
 1974 073b 24       		.uleb128 0x24
 1975 073c 65737000 		.ascii	"esp\000"
 1976 0740 01       		.byte	0x1
 1977 0741 F5       		.byte	0xf5
 1978 0742 19050000 		.4byte	0x519
 1979 0746 54010000 		.4byte	.LLST10
 1980 074a 1E       		.uleb128 0x1e
 1981 074b 21010000 		.4byte	.LASF73
 1982 074f 01       		.byte	0x1
 1983 0750 F5       		.byte	0xf5
 1984 0751 EF000000 		.4byte	0xef
 1985 0755 72010000 		.4byte	.LLST11
 1986 0759 1A       		.uleb128 0x1a
 1987 075a 656C7000 		.ascii	"elp\000"
 1988 075e 01       		.byte	0x1
 1989 075f F6       		.byte	0xf6
 1990 0760 F9030000 		.4byte	0x3f9
 1991 0764 01       		.uleb128 0x1
 1992 0765 54       		.byte	0x54
 1993 0766 26       		.uleb128 0x26
 1994 0767 16000000 		.4byte	.LVL21
 1995 076b 8C040000 		.4byte	0x48c
ARM GAS  /tmp/cck3ChAw.s 			page 36


 1996 076f 00       		.byte	0
 1997 0770 16       		.uleb128 0x16
 1998 0771 2F010000 		.4byte	.LASF80
 1999 0775 01       		.byte	0x1
 2000 0776 DC       		.byte	0xdc
 2001 0777 00000000 		.4byte	.LFB13
 2002 077b 18000000 		.4byte	.LFE13-.LFB13
 2003 077f 01       		.uleb128 0x1
 2004 0780 9C       		.byte	0x9c
 2005 0781 FF070000 		.4byte	0x7ff
 2006 0785 24       		.uleb128 0x24
 2007 0786 65737000 		.ascii	"esp\000"
 2008 078a 01       		.byte	0x1
 2009 078b DC       		.byte	0xdc
 2010 078c 19050000 		.4byte	0x519
 2011 0790 90010000 		.4byte	.LLST12
 2012 0794 1E       		.uleb128 0x1e
 2013 0795 21010000 		.4byte	.LASF73
 2014 0799 01       		.byte	0x1
 2015 079a DC       		.byte	0xdc
 2016 079b EF000000 		.4byte	0xef
 2017 079f B1010000 		.4byte	.LLST13
 2018 07a3 19       		.uleb128 0x19
 2019 07a4 02000000 		.4byte	.LBB20
 2020 07a8 06000000 		.4byte	.LBE20-.LBB20
 2021 07ac BE070000 		.4byte	0x7be
 2022 07b0 1A       		.uleb128 0x1a
 2023 07b1 746D7000 		.ascii	"tmp\000"
 2024 07b5 01       		.byte	0x1
 2025 07b6 DE       		.byte	0xde
 2026 07b7 A2000000 		.4byte	0xa2
 2027 07bb 01       		.uleb128 0x1
 2028 07bc 53       		.byte	0x53
 2029 07bd 00       		.byte	0
 2030 07be 19       		.uleb128 0x19
 2031 07bf 10000000 		.4byte	.LBB21
 2032 07c3 08000000 		.4byte	.LBE21-.LBB21
 2033 07c7 D9070000 		.4byte	0x7d9
 2034 07cb 1A       		.uleb128 0x1a
 2035 07cc 746D7000 		.ascii	"tmp\000"
 2036 07d0 01       		.byte	0x1
 2037 07d1 E1       		.byte	0xe1
 2038 07d2 A2000000 		.4byte	0xa2
 2039 07d6 01       		.uleb128 0x1
 2040 07d7 53       		.byte	0x53
 2041 07d8 00       		.byte	0
 2042 07d9 25       		.uleb128 0x25
 2043 07da 0C000000 		.4byte	.LVL24
 2044 07de 26070000 		.4byte	0x726
 2045 07e2 F5070000 		.4byte	0x7f5
 2046 07e6 23       		.uleb128 0x23
 2047 07e7 01       		.uleb128 0x1
 2048 07e8 51       		.byte	0x51
 2049 07e9 03       		.uleb128 0x3
 2050 07ea F3       		.byte	0xf3
 2051 07eb 01       		.uleb128 0x1
 2052 07ec 51       		.byte	0x51
ARM GAS  /tmp/cck3ChAw.s 			page 37


 2053 07ed 23       		.uleb128 0x23
 2054 07ee 01       		.uleb128 0x1
 2055 07ef 50       		.byte	0x50
 2056 07f0 03       		.uleb128 0x3
 2057 07f1 F3       		.byte	0xf3
 2058 07f2 01       		.uleb128 0x1
 2059 07f3 50       		.byte	0x50
 2060 07f4 00       		.byte	0
 2061 07f5 26       		.uleb128 0x26
 2062 07f6 10000000 		.4byte	.LVL25
 2063 07fa 990C0000 		.4byte	0xc99
 2064 07fe 00       		.byte	0
 2065 07ff 27       		.uleb128 0x27
 2066 0800 F7020000 		.4byte	.LASF81
 2067 0804 01       		.byte	0x1
 2068 0805 0B01     		.2byte	0x10b
 2069 0807 00000000 		.4byte	.LFB15
 2070 080b 34000000 		.4byte	.LFE15-.LFB15
 2071 080f 01       		.uleb128 0x1
 2072 0810 9C       		.byte	0x9c
 2073 0811 52080000 		.4byte	0x852
 2074 0815 28       		.uleb128 0x28
 2075 0816 50030000 		.4byte	.LASF82
 2076 081a 01       		.byte	0x1
 2077 081b 0B01     		.2byte	0x10b
 2078 081d 52080000 		.4byte	0x852
 2079 0821 D2010000 		.4byte	.LLST14
 2080 0825 28       		.uleb128 0x28
 2081 0826 21010000 		.4byte	.LASF73
 2082 082a 01       		.byte	0x1
 2083 082b 0B01     		.2byte	0x10b
 2084 082d EF000000 		.4byte	0xef
 2085 0831 FB010000 		.4byte	.LLST15
 2086 0835 29       		.uleb128 0x29
 2087 0836 65696400 		.ascii	"eid\000"
 2088 083a 01       		.byte	0x1
 2089 083b 0C01     		.2byte	0x10c
 2090 083d E4000000 		.4byte	0xe4
 2091 0841 24020000 		.4byte	.LLST16
 2092 0845 2A       		.uleb128 0x2a
 2093 0846 2A000000 		.4byte	.LVL30
 2094 084a 23       		.uleb128 0x23
 2095 084b 01       		.uleb128 0x1
 2096 084c 50       		.byte	0x50
 2097 084d 02       		.uleb128 0x2
 2098 084e 74       		.byte	0x74
 2099 084f 00       		.sleb128 0
 2100 0850 00       		.byte	0
 2101 0851 00       		.byte	0
 2102 0852 09       		.uleb128 0x9
 2103 0853 04       		.byte	0x4
 2104 0854 58080000 		.4byte	0x858
 2105 0858 12       		.uleb128 0x12
 2106 0859 23040000 		.4byte	0x423
 2107 085d 2B       		.uleb128 0x2b
 2108 085e 96030000 		.4byte	.LASF83
 2109 0862 01       		.byte	0x1
ARM GAS  /tmp/cck3ChAw.s 			page 38


 2110 0863 2E01     		.2byte	0x12e
 2111 0865 EF000000 		.4byte	0xef
 2112 0869 00000000 		.4byte	.LFB16
 2113 086d 3C000000 		.4byte	.LFE16-.LFB16
 2114 0871 01       		.uleb128 0x1
 2115 0872 9C       		.byte	0x9c
 2116 0873 ED080000 		.4byte	0x8ed
 2117 0877 28       		.uleb128 0x28
 2118 0878 21010000 		.4byte	.LASF73
 2119 087c 01       		.byte	0x1
 2120 087d 2E01     		.2byte	0x12e
 2121 087f EF000000 		.4byte	0xef
 2122 0883 4F020000 		.4byte	.LLST17
 2123 0887 29       		.uleb128 0x29
 2124 0888 63747000 		.ascii	"ctp\000"
 2125 088c 01       		.byte	0x1
 2126 088d 2F01     		.2byte	0x12f
 2127 088f 2D020000 		.4byte	0x22d
 2128 0893 7B020000 		.4byte	.LLST18
 2129 0897 29       		.uleb128 0x29
 2130 0898 6D00     		.ascii	"m\000"
 2131 089a 01       		.byte	0x1
 2132 089b 3001     		.2byte	0x130
 2133 089d EF000000 		.4byte	0xef
 2134 08a1 8E020000 		.4byte	.LLST19
 2135 08a5 19       		.uleb128 0x19
 2136 08a6 06000000 		.4byte	.LBB22
 2137 08aa 06000000 		.4byte	.LBE22-.LBB22
 2138 08ae C1080000 		.4byte	0x8c1
 2139 08b2 2C       		.uleb128 0x2c
 2140 08b3 746D7000 		.ascii	"tmp\000"
 2141 08b7 01       		.byte	0x1
 2142 08b8 3201     		.2byte	0x132
 2143 08ba A2000000 		.4byte	0xa2
 2144 08be 01       		.uleb128 0x1
 2145 08bf 53       		.byte	0x53
 2146 08c0 00       		.byte	0
 2147 08c1 19       		.uleb128 0x19
 2148 08c2 2E000000 		.4byte	.LBB23
 2149 08c6 06000000 		.4byte	.LBE23-.LBB23
 2150 08ca DD080000 		.4byte	0x8dd
 2151 08ce 2C       		.uleb128 0x2c
 2152 08cf 746D7000 		.ascii	"tmp\000"
 2153 08d3 01       		.byte	0x1
 2154 08d4 3C01     		.2byte	0x13c
 2155 08d6 A2000000 		.4byte	0xa2
 2156 08da 01       		.uleb128 0x1
 2157 08db 53       		.byte	0x53
 2158 08dc 00       		.byte	0
 2159 08dd 22       		.uleb128 0x22
 2160 08de 1E000000 		.4byte	.LVL38
 2161 08e2 A00C0000 		.4byte	0xca0
 2162 08e6 23       		.uleb128 0x23
 2163 08e7 01       		.uleb128 0x1
 2164 08e8 50       		.byte	0x50
 2165 08e9 01       		.uleb128 0x1
 2166 08ea 38       		.byte	0x38
ARM GAS  /tmp/cck3ChAw.s 			page 39


 2167 08eb 00       		.byte	0
 2168 08ec 00       		.byte	0
 2169 08ed 2B       		.uleb128 0x2b
 2170 08ee DB000000 		.4byte	.LASF84
 2171 08f2 01       		.byte	0x1
 2172 08f3 4B01     		.2byte	0x14b
 2173 08f5 EF000000 		.4byte	0xef
 2174 08f9 00000000 		.4byte	.LFB17
 2175 08fd 38000000 		.4byte	.LFE17-.LFB17
 2176 0901 01       		.uleb128 0x1
 2177 0902 9C       		.byte	0x9c
 2178 0903 7D090000 		.4byte	0x97d
 2179 0907 28       		.uleb128 0x28
 2180 0908 21010000 		.4byte	.LASF73
 2181 090c 01       		.byte	0x1
 2182 090d 4B01     		.2byte	0x14b
 2183 090f EF000000 		.4byte	0xef
 2184 0913 C7020000 		.4byte	.LLST20
 2185 0917 29       		.uleb128 0x29
 2186 0918 63747000 		.ascii	"ctp\000"
 2187 091c 01       		.byte	0x1
 2188 091d 4C01     		.2byte	0x14c
 2189 091f 2D020000 		.4byte	0x22d
 2190 0923 F3020000 		.4byte	.LLST21
 2191 0927 29       		.uleb128 0x29
 2192 0928 6D00     		.ascii	"m\000"
 2193 092a 01       		.byte	0x1
 2194 092b 4D01     		.2byte	0x14d
 2195 092d EF000000 		.4byte	0xef
 2196 0931 06030000 		.4byte	.LLST22
 2197 0935 19       		.uleb128 0x19
 2198 0936 06000000 		.4byte	.LBB24
 2199 093a 06000000 		.4byte	.LBE24-.LBB24
 2200 093e 51090000 		.4byte	0x951
 2201 0942 2C       		.uleb128 0x2c
 2202 0943 746D7000 		.ascii	"tmp\000"
 2203 0947 01       		.byte	0x1
 2204 0948 4F01     		.2byte	0x14f
 2205 094a A2000000 		.4byte	0xa2
 2206 094e 01       		.uleb128 0x1
 2207 094f 53       		.byte	0x53
 2208 0950 00       		.byte	0
 2209 0951 19       		.uleb128 0x19
 2210 0952 28000000 		.4byte	.LBB25
 2211 0956 06000000 		.4byte	.LBE25-.LBB25
 2212 095a 6D090000 		.4byte	0x96d
 2213 095e 2C       		.uleb128 0x2c
 2214 095f 746D7000 		.ascii	"tmp\000"
 2215 0963 01       		.byte	0x1
 2216 0964 5801     		.2byte	0x158
 2217 0966 A2000000 		.4byte	0xa2
 2218 096a 01       		.uleb128 0x1
 2219 096b 53       		.byte	0x53
 2220 096c 00       		.byte	0
 2221 096d 22       		.uleb128 0x22
 2222 096e 1E000000 		.4byte	.LVL48
 2223 0972 A00C0000 		.4byte	0xca0
ARM GAS  /tmp/cck3ChAw.s 			page 40


 2224 0976 23       		.uleb128 0x23
 2225 0977 01       		.uleb128 0x1
 2226 0978 50       		.byte	0x50
 2227 0979 01       		.uleb128 0x1
 2228 097a 38       		.byte	0x38
 2229 097b 00       		.byte	0
 2230 097c 00       		.byte	0
 2231 097d 2B       		.uleb128 0x2b
 2232 097e CE000000 		.4byte	.LASF85
 2233 0982 01       		.byte	0x1
 2234 0983 6701     		.2byte	0x167
 2235 0985 EF000000 		.4byte	0xef
 2236 0989 00000000 		.4byte	.LFB18
 2237 098d 38000000 		.4byte	.LFE18-.LFB18
 2238 0991 01       		.uleb128 0x1
 2239 0992 9C       		.byte	0x9c
 2240 0993 FF090000 		.4byte	0x9ff
 2241 0997 28       		.uleb128 0x28
 2242 0998 21010000 		.4byte	.LASF73
 2243 099c 01       		.byte	0x1
 2244 099d 6701     		.2byte	0x167
 2245 099f EF000000 		.4byte	0xef
 2246 09a3 5F030000 		.4byte	.LLST23
 2247 09a7 29       		.uleb128 0x29
 2248 09a8 63747000 		.ascii	"ctp\000"
 2249 09ac 01       		.byte	0x1
 2250 09ad 6801     		.2byte	0x168
 2251 09af 2D020000 		.4byte	0x22d
 2252 09b3 88030000 		.4byte	.LLST24
 2253 09b7 19       		.uleb128 0x19
 2254 09b8 08000000 		.4byte	.LBB26
 2255 09bc 06000000 		.4byte	.LBE26-.LBB26
 2256 09c0 D3090000 		.4byte	0x9d3
 2257 09c4 2C       		.uleb128 0x2c
 2258 09c5 746D7000 		.ascii	"tmp\000"
 2259 09c9 01       		.byte	0x1
 2260 09ca 6A01     		.2byte	0x16a
 2261 09cc A2000000 		.4byte	0xa2
 2262 09d0 01       		.uleb128 0x1
 2263 09d1 53       		.byte	0x53
 2264 09d2 00       		.byte	0
 2265 09d3 19       		.uleb128 0x19
 2266 09d4 28000000 		.4byte	.LBB27
 2267 09d8 06000000 		.4byte	.LBE27-.LBB27
 2268 09dc EF090000 		.4byte	0x9ef
 2269 09e0 2C       		.uleb128 0x2c
 2270 09e1 746D7000 		.ascii	"tmp\000"
 2271 09e5 01       		.byte	0x1
 2272 09e6 7201     		.2byte	0x172
 2273 09e8 A2000000 		.4byte	0xa2
 2274 09ec 01       		.uleb128 0x1
 2275 09ed 53       		.byte	0x53
 2276 09ee 00       		.byte	0
 2277 09ef 22       		.uleb128 0x22
 2278 09f0 20000000 		.4byte	.LVL54
 2279 09f4 A00C0000 		.4byte	0xca0
 2280 09f8 23       		.uleb128 0x23
ARM GAS  /tmp/cck3ChAw.s 			page 41


 2281 09f9 01       		.uleb128 0x1
 2282 09fa 50       		.byte	0x50
 2283 09fb 01       		.uleb128 0x1
 2284 09fc 39       		.byte	0x39
 2285 09fd 00       		.byte	0
 2286 09fe 00       		.byte	0
 2287 09ff 2B       		.uleb128 0x2b
 2288 0a00 A2040000 		.4byte	.LASF86
 2289 0a04 01       		.byte	0x1
 2290 0a05 8E01     		.2byte	0x18e
 2291 0a07 EF000000 		.4byte	0xef
 2292 0a0b 00000000 		.4byte	.LFB19
 2293 0a0f 54000000 		.4byte	.LFE19-.LFB19
 2294 0a13 01       		.uleb128 0x1
 2295 0a14 9C       		.byte	0x9c
 2296 0a15 D70A0000 		.4byte	0xad7
 2297 0a19 28       		.uleb128 0x28
 2298 0a1a 21010000 		.4byte	.LASF73
 2299 0a1e 01       		.byte	0x1
 2300 0a1f 8E01     		.2byte	0x18e
 2301 0a21 EF000000 		.4byte	0xef
 2302 0a25 9B030000 		.4byte	.LLST25
 2303 0a29 28       		.uleb128 0x28
 2304 0a2a 20030000 		.4byte	.LASF87
 2305 0a2e 01       		.byte	0x1
 2306 0a2f 8E01     		.2byte	0x18e
 2307 0a31 FA000000 		.4byte	0xfa
 2308 0a35 F9030000 		.4byte	.LLST26
 2309 0a39 29       		.uleb128 0x29
 2310 0a3a 63747000 		.ascii	"ctp\000"
 2311 0a3e 01       		.byte	0x1
 2312 0a3f 8F01     		.2byte	0x18f
 2313 0a41 2D020000 		.4byte	0x22d
 2314 0a45 1A040000 		.4byte	.LLST27
 2315 0a49 29       		.uleb128 0x29
 2316 0a4a 6D00     		.ascii	"m\000"
 2317 0a4c 01       		.byte	0x1
 2318 0a4d 9001     		.2byte	0x190
 2319 0a4f EF000000 		.4byte	0xef
 2320 0a53 2D040000 		.4byte	.LLST28
 2321 0a57 19       		.uleb128 0x19
 2322 0a58 06000000 		.4byte	.LBB28
 2323 0a5c 06000000 		.4byte	.LBE28-.LBB28
 2324 0a60 730A0000 		.4byte	0xa73
 2325 0a64 2C       		.uleb128 0x2c
 2326 0a65 746D7000 		.ascii	"tmp\000"
 2327 0a69 01       		.byte	0x1
 2328 0a6a 9201     		.2byte	0x192
 2329 0a6c A2000000 		.4byte	0xa2
 2330 0a70 01       		.uleb128 0x1
 2331 0a71 53       		.byte	0x53
 2332 0a72 00       		.byte	0
 2333 0a73 19       		.uleb128 0x19
 2334 0a74 16000000 		.4byte	.LBB29
 2335 0a78 06000000 		.4byte	.LBE29-.LBB29
 2336 0a7c 8F0A0000 		.4byte	0xa8f
 2337 0a80 2C       		.uleb128 0x2c
ARM GAS  /tmp/cck3ChAw.s 			page 42


 2338 0a81 746D7000 		.ascii	"tmp\000"
 2339 0a85 01       		.byte	0x1
 2340 0a86 9601     		.2byte	0x196
 2341 0a88 A2000000 		.4byte	0xa2
 2342 0a8c 01       		.uleb128 0x1
 2343 0a8d 53       		.byte	0x53
 2344 0a8e 00       		.byte	0
 2345 0a8f 19       		.uleb128 0x19
 2346 0a90 3E000000 		.4byte	.LBB30
 2347 0a94 06000000 		.4byte	.LBE30-.LBB30
 2348 0a98 AB0A0000 		.4byte	0xaab
 2349 0a9c 2C       		.uleb128 0x2c
 2350 0a9d 746D7000 		.ascii	"tmp\000"
 2351 0aa1 01       		.byte	0x1
 2352 0aa2 A301     		.2byte	0x1a3
 2353 0aa4 A2000000 		.4byte	0xa2
 2354 0aa8 01       		.uleb128 0x1
 2355 0aa9 53       		.byte	0x53
 2356 0aaa 00       		.byte	0
 2357 0aab 19       		.uleb128 0x19
 2358 0aac 46000000 		.4byte	.LBB31
 2359 0ab0 06000000 		.4byte	.LBE31-.LBB31
 2360 0ab4 C70A0000 		.4byte	0xac7
 2361 0ab8 2C       		.uleb128 0x2c
 2362 0ab9 746D7000 		.ascii	"tmp\000"
 2363 0abd 01       		.byte	0x1
 2364 0abe 9B01     		.2byte	0x19b
 2365 0ac0 A2000000 		.4byte	0xa2
 2366 0ac4 01       		.uleb128 0x1
 2367 0ac5 53       		.byte	0x53
 2368 0ac6 00       		.byte	0
 2369 0ac7 22       		.uleb128 0x22
 2370 0ac8 2A000000 		.4byte	.LVL63
 2371 0acc B10C0000 		.4byte	0xcb1
 2372 0ad0 23       		.uleb128 0x23
 2373 0ad1 01       		.uleb128 0x1
 2374 0ad2 50       		.byte	0x50
 2375 0ad3 01       		.uleb128 0x1
 2376 0ad4 38       		.byte	0x38
 2377 0ad5 00       		.byte	0
 2378 0ad6 00       		.byte	0
 2379 0ad7 2B       		.uleb128 0x2b
 2380 0ad8 55000000 		.4byte	.LASF88
 2381 0adc 01       		.byte	0x1
 2382 0add B901     		.2byte	0x1b9
 2383 0adf EF000000 		.4byte	0xef
 2384 0ae3 00000000 		.4byte	.LFB20
 2385 0ae7 54000000 		.4byte	.LFE20-.LFB20
 2386 0aeb 01       		.uleb128 0x1
 2387 0aec 9C       		.byte	0x9c
 2388 0aed AF0B0000 		.4byte	0xbaf
 2389 0af1 28       		.uleb128 0x28
 2390 0af2 21010000 		.4byte	.LASF73
 2391 0af6 01       		.byte	0x1
 2392 0af7 B901     		.2byte	0x1b9
 2393 0af9 EF000000 		.4byte	0xef
 2394 0afd 71040000 		.4byte	.LLST29
ARM GAS  /tmp/cck3ChAw.s 			page 43


 2395 0b01 28       		.uleb128 0x28
 2396 0b02 20030000 		.4byte	.LASF87
 2397 0b06 01       		.byte	0x1
 2398 0b07 B901     		.2byte	0x1b9
 2399 0b09 FA000000 		.4byte	0xfa
 2400 0b0d CF040000 		.4byte	.LLST30
 2401 0b11 29       		.uleb128 0x29
 2402 0b12 63747000 		.ascii	"ctp\000"
 2403 0b16 01       		.byte	0x1
 2404 0b17 BA01     		.2byte	0x1ba
 2405 0b19 2D020000 		.4byte	0x22d
 2406 0b1d F0040000 		.4byte	.LLST31
 2407 0b21 29       		.uleb128 0x29
 2408 0b22 6D00     		.ascii	"m\000"
 2409 0b24 01       		.byte	0x1
 2410 0b25 BB01     		.2byte	0x1bb
 2411 0b27 EF000000 		.4byte	0xef
 2412 0b2b 03050000 		.4byte	.LLST32
 2413 0b2f 19       		.uleb128 0x19
 2414 0b30 06000000 		.4byte	.LBB32
 2415 0b34 06000000 		.4byte	.LBE32-.LBB32
 2416 0b38 4B0B0000 		.4byte	0xb4b
 2417 0b3c 2C       		.uleb128 0x2c
 2418 0b3d 746D7000 		.ascii	"tmp\000"
 2419 0b41 01       		.byte	0x1
 2420 0b42 BD01     		.2byte	0x1bd
 2421 0b44 A2000000 		.4byte	0xa2
 2422 0b48 01       		.uleb128 0x1
 2423 0b49 53       		.byte	0x53
 2424 0b4a 00       		.byte	0
 2425 0b4b 19       		.uleb128 0x19
 2426 0b4c 16000000 		.4byte	.LBB33
 2427 0b50 06000000 		.4byte	.LBE33-.LBB33
 2428 0b54 670B0000 		.4byte	0xb67
 2429 0b58 2C       		.uleb128 0x2c
 2430 0b59 746D7000 		.ascii	"tmp\000"
 2431 0b5d 01       		.byte	0x1
 2432 0b5e C101     		.2byte	0x1c1
 2433 0b60 A2000000 		.4byte	0xa2
 2434 0b64 01       		.uleb128 0x1
 2435 0b65 53       		.byte	0x53
 2436 0b66 00       		.byte	0
 2437 0b67 19       		.uleb128 0x19
 2438 0b68 3A000000 		.4byte	.LBB34
 2439 0b6c 06000000 		.4byte	.LBE34-.LBB34
 2440 0b70 830B0000 		.4byte	0xb83
 2441 0b74 2C       		.uleb128 0x2c
 2442 0b75 746D7000 		.ascii	"tmp\000"
 2443 0b79 01       		.byte	0x1
 2444 0b7a CD01     		.2byte	0x1cd
 2445 0b7c A2000000 		.4byte	0xa2
 2446 0b80 01       		.uleb128 0x1
 2447 0b81 53       		.byte	0x53
 2448 0b82 00       		.byte	0
 2449 0b83 19       		.uleb128 0x19
 2450 0b84 44000000 		.4byte	.LBB35
 2451 0b88 06000000 		.4byte	.LBE35-.LBB35
ARM GAS  /tmp/cck3ChAw.s 			page 44


 2452 0b8c 9F0B0000 		.4byte	0xb9f
 2453 0b90 2C       		.uleb128 0x2c
 2454 0b91 746D7000 		.ascii	"tmp\000"
 2455 0b95 01       		.byte	0x1
 2456 0b96 C601     		.2byte	0x1c6
 2457 0b98 A2000000 		.4byte	0xa2
 2458 0b9c 01       		.uleb128 0x1
 2459 0b9d 53       		.byte	0x53
 2460 0b9e 00       		.byte	0
 2461 0b9f 22       		.uleb128 0x22
 2462 0ba0 2A000000 		.4byte	.LVL75
 2463 0ba4 B10C0000 		.4byte	0xcb1
 2464 0ba8 23       		.uleb128 0x23
 2465 0ba9 01       		.uleb128 0x1
 2466 0baa 50       		.byte	0x50
 2467 0bab 01       		.uleb128 0x1
 2468 0bac 38       		.byte	0x38
 2469 0bad 00       		.byte	0
 2470 0bae 00       		.byte	0
 2471 0baf 2B       		.uleb128 0x2b
 2472 0bb0 8A000000 		.4byte	.LASF89
 2473 0bb4 01       		.byte	0x1
 2474 0bb5 E201     		.2byte	0x1e2
 2475 0bb7 EF000000 		.4byte	0xef
 2476 0bbb 00000000 		.4byte	.LFB21
 2477 0bbf 50000000 		.4byte	.LFE21-.LFB21
 2478 0bc3 01       		.uleb128 0x1
 2479 0bc4 9C       		.byte	0x9c
 2480 0bc5 790C0000 		.4byte	0xc79
 2481 0bc9 28       		.uleb128 0x28
 2482 0bca 21010000 		.4byte	.LASF73
 2483 0bce 01       		.byte	0x1
 2484 0bcf E201     		.2byte	0x1e2
 2485 0bd1 EF000000 		.4byte	0xef
 2486 0bd5 31050000 		.4byte	.LLST33
 2487 0bd9 28       		.uleb128 0x28
 2488 0bda 20030000 		.4byte	.LASF87
 2489 0bde 01       		.byte	0x1
 2490 0bdf E201     		.2byte	0x1e2
 2491 0be1 FA000000 		.4byte	0xfa
 2492 0be5 5D050000 		.4byte	.LLST34
 2493 0be9 29       		.uleb128 0x29
 2494 0bea 63747000 		.ascii	"ctp\000"
 2495 0bee 01       		.byte	0x1
 2496 0bef E301     		.2byte	0x1e3
 2497 0bf1 2D020000 		.4byte	0x22d
 2498 0bf5 7E050000 		.4byte	.LLST35
 2499 0bf9 19       		.uleb128 0x19
 2500 0bfa 08000000 		.4byte	.LBB36
 2501 0bfe 06000000 		.4byte	.LBE36-.LBB36
 2502 0c02 150C0000 		.4byte	0xc15
 2503 0c06 2C       		.uleb128 0x2c
 2504 0c07 746D7000 		.ascii	"tmp\000"
 2505 0c0b 01       		.byte	0x1
 2506 0c0c E501     		.2byte	0x1e5
 2507 0c0e A2000000 		.4byte	0xa2
 2508 0c12 01       		.uleb128 0x1
ARM GAS  /tmp/cck3ChAw.s 			page 45


 2509 0c13 53       		.byte	0x53
 2510 0c14 00       		.byte	0
 2511 0c15 19       		.uleb128 0x19
 2512 0c16 18000000 		.4byte	.LBB37
 2513 0c1a 06000000 		.4byte	.LBE37-.LBB37
 2514 0c1e 310C0000 		.4byte	0xc31
 2515 0c22 2C       		.uleb128 0x2c
 2516 0c23 746D7000 		.ascii	"tmp\000"
 2517 0c27 01       		.byte	0x1
 2518 0c28 E901     		.2byte	0x1e9
 2519 0c2a A2000000 		.4byte	0xa2
 2520 0c2e 01       		.uleb128 0x1
 2521 0c2f 53       		.byte	0x53
 2522 0c30 00       		.byte	0
 2523 0c31 19       		.uleb128 0x19
 2524 0c32 36000000 		.4byte	.LBB38
 2525 0c36 06000000 		.4byte	.LBE38-.LBB38
 2526 0c3a 4D0C0000 		.4byte	0xc4d
 2527 0c3e 2C       		.uleb128 0x2c
 2528 0c3f 746D7000 		.ascii	"tmp\000"
 2529 0c43 01       		.byte	0x1
 2530 0c44 F401     		.2byte	0x1f4
 2531 0c46 A2000000 		.4byte	0xa2
 2532 0c4a 01       		.uleb128 0x1
 2533 0c4b 53       		.byte	0x53
 2534 0c4c 00       		.byte	0
 2535 0c4d 19       		.uleb128 0x19
 2536 0c4e 40000000 		.4byte	.LBB39
 2537 0c52 06000000 		.4byte	.LBE39-.LBB39
 2538 0c56 690C0000 		.4byte	0xc69
 2539 0c5a 2C       		.uleb128 0x2c
 2540 0c5b 746D7000 		.ascii	"tmp\000"
 2541 0c5f 01       		.byte	0x1
 2542 0c60 EE01     		.2byte	0x1ee
 2543 0c62 A2000000 		.4byte	0xa2
 2544 0c66 01       		.uleb128 0x1
 2545 0c67 53       		.byte	0x53
 2546 0c68 00       		.byte	0
 2547 0c69 22       		.uleb128 0x22
 2548 0c6a 2A000000 		.4byte	.LVL83
 2549 0c6e B10C0000 		.4byte	0xcb1
 2550 0c72 23       		.uleb128 0x23
 2551 0c73 01       		.uleb128 0x1
 2552 0c74 50       		.byte	0x50
 2553 0c75 01       		.uleb128 0x1
 2554 0c76 39       		.byte	0x39
 2555 0c77 00       		.byte	0
 2556 0c78 00       		.byte	0
 2557 0c79 2D       		.uleb128 0x2d
 2558 0c7a 86040000 		.4byte	.LASF96
 2559 0c7e 08       		.byte	0x8
 2560 0c7f 72       		.byte	0x72
 2561 0c80 70030000 		.4byte	0x370
 2562 0c84 2E       		.uleb128 0x2e
 2563 0c85 25040000 		.4byte	.LASF97
 2564 0c89 08       		.byte	0x8
 2565 0c8a 93       		.byte	0x93
ARM GAS  /tmp/cck3ChAw.s 			page 46


 2566 0c8b 2D020000 		.4byte	0x22d
 2567 0c8f 990C0000 		.4byte	0xc99
 2568 0c93 0F       		.uleb128 0xf
 2569 0c94 2D020000 		.4byte	0x22d
 2570 0c98 00       		.byte	0
 2571 0c99 2F       		.uleb128 0x2f
 2572 0c9a 05010000 		.4byte	.LASF98
 2573 0c9e 08       		.byte	0x8
 2574 0c9f 9F       		.byte	0x9f
 2575 0ca0 30       		.uleb128 0x30
 2576 0ca1 FB030000 		.4byte	.LASF91
 2577 0ca5 08       		.byte	0x8
 2578 0ca6 96       		.byte	0x96
 2579 0ca7 B10C0000 		.4byte	0xcb1
 2580 0cab 0F       		.uleb128 0xf
 2581 0cac B8000000 		.4byte	0xb8
 2582 0cb0 00       		.byte	0
 2583 0cb1 31       		.uleb128 0x31
 2584 0cb2 CC040000 		.4byte	.LASF92
 2585 0cb6 08       		.byte	0x8
 2586 0cb7 99       		.byte	0x99
 2587 0cb8 D9000000 		.4byte	0xd9
 2588 0cbc 0F       		.uleb128 0xf
 2589 0cbd B8000000 		.4byte	0xb8
 2590 0cc1 0F       		.uleb128 0xf
 2591 0cc2 FA000000 		.4byte	0xfa
 2592 0cc6 00       		.byte	0
 2593 0cc7 00       		.byte	0
 2594              		.section	.debug_abbrev,"",%progbits
 2595              	.Ldebug_abbrev0:
 2596 0000 01       		.uleb128 0x1
 2597 0001 11       		.uleb128 0x11
 2598 0002 01       		.byte	0x1
 2599 0003 25       		.uleb128 0x25
 2600 0004 0E       		.uleb128 0xe
 2601 0005 13       		.uleb128 0x13
 2602 0006 0B       		.uleb128 0xb
 2603 0007 03       		.uleb128 0x3
 2604 0008 0E       		.uleb128 0xe
 2605 0009 1B       		.uleb128 0x1b
 2606 000a 0E       		.uleb128 0xe
 2607 000b 55       		.uleb128 0x55
 2608 000c 17       		.uleb128 0x17
 2609 000d 11       		.uleb128 0x11
 2610 000e 01       		.uleb128 0x1
 2611 000f 10       		.uleb128 0x10
 2612 0010 17       		.uleb128 0x17
 2613 0011 00       		.byte	0
 2614 0012 00       		.byte	0
 2615 0013 02       		.uleb128 0x2
 2616 0014 24       		.uleb128 0x24
 2617 0015 00       		.byte	0
 2618 0016 0B       		.uleb128 0xb
 2619 0017 0B       		.uleb128 0xb
 2620 0018 3E       		.uleb128 0x3e
 2621 0019 0B       		.uleb128 0xb
 2622 001a 03       		.uleb128 0x3
ARM GAS  /tmp/cck3ChAw.s 			page 47


 2623 001b 08       		.uleb128 0x8
 2624 001c 00       		.byte	0
 2625 001d 00       		.byte	0
 2626 001e 03       		.uleb128 0x3
 2627 001f 24       		.uleb128 0x24
 2628 0020 00       		.byte	0
 2629 0021 0B       		.uleb128 0xb
 2630 0022 0B       		.uleb128 0xb
 2631 0023 3E       		.uleb128 0x3e
 2632 0024 0B       		.uleb128 0xb
 2633 0025 03       		.uleb128 0x3
 2634 0026 0E       		.uleb128 0xe
 2635 0027 00       		.byte	0
 2636 0028 00       		.byte	0
 2637 0029 04       		.uleb128 0x4
 2638 002a 16       		.uleb128 0x16
 2639 002b 00       		.byte	0
 2640 002c 03       		.uleb128 0x3
 2641 002d 0E       		.uleb128 0xe
 2642 002e 3A       		.uleb128 0x3a
 2643 002f 0B       		.uleb128 0xb
 2644 0030 3B       		.uleb128 0x3b
 2645 0031 0B       		.uleb128 0xb
 2646 0032 49       		.uleb128 0x49
 2647 0033 13       		.uleb128 0x13
 2648 0034 00       		.byte	0
 2649 0035 00       		.byte	0
 2650 0036 05       		.uleb128 0x5
 2651 0037 13       		.uleb128 0x13
 2652 0038 01       		.byte	0x1
 2653 0039 03       		.uleb128 0x3
 2654 003a 0E       		.uleb128 0xe
 2655 003b 0B       		.uleb128 0xb
 2656 003c 0B       		.uleb128 0xb
 2657 003d 3A       		.uleb128 0x3a
 2658 003e 0B       		.uleb128 0xb
 2659 003f 3B       		.uleb128 0x3b
 2660 0040 0B       		.uleb128 0xb
 2661 0041 01       		.uleb128 0x1
 2662 0042 13       		.uleb128 0x13
 2663 0043 00       		.byte	0
 2664 0044 00       		.byte	0
 2665 0045 06       		.uleb128 0x6
 2666 0046 0D       		.uleb128 0xd
 2667 0047 00       		.byte	0
 2668 0048 03       		.uleb128 0x3
 2669 0049 0E       		.uleb128 0xe
 2670 004a 3A       		.uleb128 0x3a
 2671 004b 0B       		.uleb128 0xb
 2672 004c 3B       		.uleb128 0x3b
 2673 004d 0B       		.uleb128 0xb
 2674 004e 49       		.uleb128 0x49
 2675 004f 13       		.uleb128 0x13
 2676 0050 38       		.uleb128 0x38
 2677 0051 0B       		.uleb128 0xb
 2678 0052 00       		.byte	0
 2679 0053 00       		.byte	0
ARM GAS  /tmp/cck3ChAw.s 			page 48


 2680 0054 07       		.uleb128 0x7
 2681 0055 0D       		.uleb128 0xd
 2682 0056 00       		.byte	0
 2683 0057 03       		.uleb128 0x3
 2684 0058 08       		.uleb128 0x8
 2685 0059 3A       		.uleb128 0x3a
 2686 005a 0B       		.uleb128 0xb
 2687 005b 3B       		.uleb128 0x3b
 2688 005c 0B       		.uleb128 0xb
 2689 005d 49       		.uleb128 0x49
 2690 005e 13       		.uleb128 0x13
 2691 005f 38       		.uleb128 0x38
 2692 0060 0B       		.uleb128 0xb
 2693 0061 00       		.byte	0
 2694 0062 00       		.byte	0
 2695 0063 08       		.uleb128 0x8
 2696 0064 13       		.uleb128 0x13
 2697 0065 01       		.byte	0x1
 2698 0066 0B       		.uleb128 0xb
 2699 0067 0B       		.uleb128 0xb
 2700 0068 3A       		.uleb128 0x3a
 2701 0069 0B       		.uleb128 0xb
 2702 006a 3B       		.uleb128 0x3b
 2703 006b 0B       		.uleb128 0xb
 2704 006c 01       		.uleb128 0x1
 2705 006d 13       		.uleb128 0x13
 2706 006e 00       		.byte	0
 2707 006f 00       		.byte	0
 2708 0070 09       		.uleb128 0x9
 2709 0071 0F       		.uleb128 0xf
 2710 0072 00       		.byte	0
 2711 0073 0B       		.uleb128 0xb
 2712 0074 0B       		.uleb128 0xb
 2713 0075 49       		.uleb128 0x49
 2714 0076 13       		.uleb128 0x13
 2715 0077 00       		.byte	0
 2716 0078 00       		.byte	0
 2717 0079 0A       		.uleb128 0xa
 2718 007a 0F       		.uleb128 0xf
 2719 007b 00       		.byte	0
 2720 007c 0B       		.uleb128 0xb
 2721 007d 0B       		.uleb128 0xb
 2722 007e 00       		.byte	0
 2723 007f 00       		.byte	0
 2724 0080 0B       		.uleb128 0xb
 2725 0081 0D       		.uleb128 0xd
 2726 0082 00       		.byte	0
 2727 0083 03       		.uleb128 0x3
 2728 0084 08       		.uleb128 0x8
 2729 0085 3A       		.uleb128 0x3a
 2730 0086 0B       		.uleb128 0xb
 2731 0087 3B       		.uleb128 0x3b
 2732 0088 05       		.uleb128 0x5
 2733 0089 49       		.uleb128 0x49
 2734 008a 13       		.uleb128 0x13
 2735 008b 38       		.uleb128 0x38
 2736 008c 0B       		.uleb128 0xb
ARM GAS  /tmp/cck3ChAw.s 			page 49


 2737 008d 00       		.byte	0
 2738 008e 00       		.byte	0
 2739 008f 0C       		.uleb128 0xc
 2740 0090 13       		.uleb128 0x13
 2741 0091 01       		.byte	0x1
 2742 0092 03       		.uleb128 0x3
 2743 0093 0E       		.uleb128 0xe
 2744 0094 0B       		.uleb128 0xb
 2745 0095 0B       		.uleb128 0xb
 2746 0096 3A       		.uleb128 0x3a
 2747 0097 0B       		.uleb128 0xb
 2748 0098 3B       		.uleb128 0x3b
 2749 0099 05       		.uleb128 0x5
 2750 009a 01       		.uleb128 0x1
 2751 009b 13       		.uleb128 0x13
 2752 009c 00       		.byte	0
 2753 009d 00       		.byte	0
 2754 009e 0D       		.uleb128 0xd
 2755 009f 35       		.uleb128 0x35
 2756 00a0 00       		.byte	0
 2757 00a1 49       		.uleb128 0x49
 2758 00a2 13       		.uleb128 0x13
 2759 00a3 00       		.byte	0
 2760 00a4 00       		.byte	0
 2761 00a5 0E       		.uleb128 0xe
 2762 00a6 15       		.uleb128 0x15
 2763 00a7 01       		.byte	0x1
 2764 00a8 27       		.uleb128 0x27
 2765 00a9 19       		.uleb128 0x19
 2766 00aa 01       		.uleb128 0x1
 2767 00ab 13       		.uleb128 0x13
 2768 00ac 00       		.byte	0
 2769 00ad 00       		.byte	0
 2770 00ae 0F       		.uleb128 0xf
 2771 00af 05       		.uleb128 0x5
 2772 00b0 00       		.byte	0
 2773 00b1 49       		.uleb128 0x49
 2774 00b2 13       		.uleb128 0x13
 2775 00b3 00       		.byte	0
 2776 00b4 00       		.byte	0
 2777 00b5 10       		.uleb128 0x10
 2778 00b6 17       		.uleb128 0x17
 2779 00b7 01       		.byte	0x1
 2780 00b8 0B       		.uleb128 0xb
 2781 00b9 0B       		.uleb128 0xb
 2782 00ba 3A       		.uleb128 0x3a
 2783 00bb 0B       		.uleb128 0xb
 2784 00bc 3B       		.uleb128 0x3b
 2785 00bd 0B       		.uleb128 0xb
 2786 00be 01       		.uleb128 0x1
 2787 00bf 13       		.uleb128 0x13
 2788 00c0 00       		.byte	0
 2789 00c1 00       		.byte	0
 2790 00c2 11       		.uleb128 0x11
 2791 00c3 0D       		.uleb128 0xd
 2792 00c4 00       		.byte	0
 2793 00c5 03       		.uleb128 0x3
ARM GAS  /tmp/cck3ChAw.s 			page 50


 2794 00c6 0E       		.uleb128 0xe
 2795 00c7 3A       		.uleb128 0x3a
 2796 00c8 0B       		.uleb128 0xb
 2797 00c9 3B       		.uleb128 0x3b
 2798 00ca 0B       		.uleb128 0xb
 2799 00cb 49       		.uleb128 0x49
 2800 00cc 13       		.uleb128 0x13
 2801 00cd 00       		.byte	0
 2802 00ce 00       		.byte	0
 2803 00cf 12       		.uleb128 0x12
 2804 00d0 26       		.uleb128 0x26
 2805 00d1 00       		.byte	0
 2806 00d2 49       		.uleb128 0x49
 2807 00d3 13       		.uleb128 0x13
 2808 00d4 00       		.byte	0
 2809 00d5 00       		.byte	0
 2810 00d6 13       		.uleb128 0x13
 2811 00d7 2E       		.uleb128 0x2e
 2812 00d8 01       		.byte	0x1
 2813 00d9 3F       		.uleb128 0x3f
 2814 00da 19       		.uleb128 0x19
 2815 00db 03       		.uleb128 0x3
 2816 00dc 0E       		.uleb128 0xe
 2817 00dd 3A       		.uleb128 0x3a
 2818 00de 0B       		.uleb128 0xb
 2819 00df 3B       		.uleb128 0x3b
 2820 00e0 0B       		.uleb128 0xb
 2821 00e1 27       		.uleb128 0x27
 2822 00e2 19       		.uleb128 0x19
 2823 00e3 20       		.uleb128 0x20
 2824 00e4 0B       		.uleb128 0xb
 2825 00e5 01       		.uleb128 0x1
 2826 00e6 13       		.uleb128 0x13
 2827 00e7 00       		.byte	0
 2828 00e8 00       		.byte	0
 2829 00e9 14       		.uleb128 0x14
 2830 00ea 05       		.uleb128 0x5
 2831 00eb 00       		.byte	0
 2832 00ec 03       		.uleb128 0x3
 2833 00ed 08       		.uleb128 0x8
 2834 00ee 3A       		.uleb128 0x3a
 2835 00ef 0B       		.uleb128 0xb
 2836 00f0 3B       		.uleb128 0x3b
 2837 00f1 0B       		.uleb128 0xb
 2838 00f2 49       		.uleb128 0x49
 2839 00f3 13       		.uleb128 0x13
 2840 00f4 00       		.byte	0
 2841 00f5 00       		.byte	0
 2842 00f6 15       		.uleb128 0x15
 2843 00f7 05       		.uleb128 0x5
 2844 00f8 00       		.byte	0
 2845 00f9 03       		.uleb128 0x3
 2846 00fa 0E       		.uleb128 0xe
 2847 00fb 3A       		.uleb128 0x3a
 2848 00fc 0B       		.uleb128 0xb
 2849 00fd 3B       		.uleb128 0x3b
 2850 00fe 0B       		.uleb128 0xb
ARM GAS  /tmp/cck3ChAw.s 			page 51


 2851 00ff 49       		.uleb128 0x49
 2852 0100 13       		.uleb128 0x13
 2853 0101 00       		.byte	0
 2854 0102 00       		.byte	0
 2855 0103 16       		.uleb128 0x16
 2856 0104 2E       		.uleb128 0x2e
 2857 0105 01       		.byte	0x1
 2858 0106 3F       		.uleb128 0x3f
 2859 0107 19       		.uleb128 0x19
 2860 0108 03       		.uleb128 0x3
 2861 0109 0E       		.uleb128 0xe
 2862 010a 3A       		.uleb128 0x3a
 2863 010b 0B       		.uleb128 0xb
 2864 010c 3B       		.uleb128 0x3b
 2865 010d 0B       		.uleb128 0xb
 2866 010e 27       		.uleb128 0x27
 2867 010f 19       		.uleb128 0x19
 2868 0110 11       		.uleb128 0x11
 2869 0111 01       		.uleb128 0x1
 2870 0112 12       		.uleb128 0x12
 2871 0113 06       		.uleb128 0x6
 2872 0114 40       		.uleb128 0x40
 2873 0115 18       		.uleb128 0x18
 2874 0116 9742     		.uleb128 0x2117
 2875 0118 19       		.uleb128 0x19
 2876 0119 01       		.uleb128 0x1
 2877 011a 13       		.uleb128 0x13
 2878 011b 00       		.byte	0
 2879 011c 00       		.byte	0
 2880 011d 17       		.uleb128 0x17
 2881 011e 05       		.uleb128 0x5
 2882 011f 00       		.byte	0
 2883 0120 03       		.uleb128 0x3
 2884 0121 08       		.uleb128 0x8
 2885 0122 3A       		.uleb128 0x3a
 2886 0123 0B       		.uleb128 0xb
 2887 0124 3B       		.uleb128 0x3b
 2888 0125 0B       		.uleb128 0xb
 2889 0126 49       		.uleb128 0x49
 2890 0127 13       		.uleb128 0x13
 2891 0128 02       		.uleb128 0x2
 2892 0129 18       		.uleb128 0x18
 2893 012a 00       		.byte	0
 2894 012b 00       		.byte	0
 2895 012c 18       		.uleb128 0x18
 2896 012d 05       		.uleb128 0x5
 2897 012e 00       		.byte	0
 2898 012f 03       		.uleb128 0x3
 2899 0130 0E       		.uleb128 0xe
 2900 0131 3A       		.uleb128 0x3a
 2901 0132 0B       		.uleb128 0xb
 2902 0133 3B       		.uleb128 0x3b
 2903 0134 0B       		.uleb128 0xb
 2904 0135 49       		.uleb128 0x49
 2905 0136 13       		.uleb128 0x13
 2906 0137 02       		.uleb128 0x2
 2907 0138 18       		.uleb128 0x18
ARM GAS  /tmp/cck3ChAw.s 			page 52


 2908 0139 00       		.byte	0
 2909 013a 00       		.byte	0
 2910 013b 19       		.uleb128 0x19
 2911 013c 0B       		.uleb128 0xb
 2912 013d 01       		.byte	0x1
 2913 013e 11       		.uleb128 0x11
 2914 013f 01       		.uleb128 0x1
 2915 0140 12       		.uleb128 0x12
 2916 0141 06       		.uleb128 0x6
 2917 0142 01       		.uleb128 0x1
 2918 0143 13       		.uleb128 0x13
 2919 0144 00       		.byte	0
 2920 0145 00       		.byte	0
 2921 0146 1A       		.uleb128 0x1a
 2922 0147 34       		.uleb128 0x34
 2923 0148 00       		.byte	0
 2924 0149 03       		.uleb128 0x3
 2925 014a 08       		.uleb128 0x8
 2926 014b 3A       		.uleb128 0x3a
 2927 014c 0B       		.uleb128 0xb
 2928 014d 3B       		.uleb128 0x3b
 2929 014e 0B       		.uleb128 0xb
 2930 014f 49       		.uleb128 0x49
 2931 0150 13       		.uleb128 0x13
 2932 0151 02       		.uleb128 0x2
 2933 0152 18       		.uleb128 0x18
 2934 0153 00       		.byte	0
 2935 0154 00       		.byte	0
 2936 0155 1B       		.uleb128 0x1b
 2937 0156 0B       		.uleb128 0xb
 2938 0157 01       		.byte	0x1
 2939 0158 55       		.uleb128 0x55
 2940 0159 17       		.uleb128 0x17
 2941 015a 00       		.byte	0
 2942 015b 00       		.byte	0
 2943 015c 1C       		.uleb128 0x1c
 2944 015d 34       		.uleb128 0x34
 2945 015e 00       		.byte	0
 2946 015f 03       		.uleb128 0x3
 2947 0160 08       		.uleb128 0x8
 2948 0161 3A       		.uleb128 0x3a
 2949 0162 0B       		.uleb128 0xb
 2950 0163 3B       		.uleb128 0x3b
 2951 0164 0B       		.uleb128 0xb
 2952 0165 49       		.uleb128 0x49
 2953 0166 13       		.uleb128 0x13
 2954 0167 02       		.uleb128 0x2
 2955 0168 17       		.uleb128 0x17
 2956 0169 00       		.byte	0
 2957 016a 00       		.byte	0
 2958 016b 1D       		.uleb128 0x1d
 2959 016c 2E       		.uleb128 0x2e
 2960 016d 01       		.byte	0x1
 2961 016e 3F       		.uleb128 0x3f
 2962 016f 19       		.uleb128 0x19
 2963 0170 03       		.uleb128 0x3
 2964 0171 0E       		.uleb128 0xe
ARM GAS  /tmp/cck3ChAw.s 			page 53


 2965 0172 3A       		.uleb128 0x3a
 2966 0173 0B       		.uleb128 0xb
 2967 0174 3B       		.uleb128 0x3b
 2968 0175 0B       		.uleb128 0xb
 2969 0176 27       		.uleb128 0x27
 2970 0177 19       		.uleb128 0x19
 2971 0178 49       		.uleb128 0x49
 2972 0179 13       		.uleb128 0x13
 2973 017a 11       		.uleb128 0x11
 2974 017b 01       		.uleb128 0x1
 2975 017c 12       		.uleb128 0x12
 2976 017d 06       		.uleb128 0x6
 2977 017e 40       		.uleb128 0x40
 2978 017f 18       		.uleb128 0x18
 2979 0180 9742     		.uleb128 0x2117
 2980 0182 19       		.uleb128 0x19
 2981 0183 01       		.uleb128 0x1
 2982 0184 13       		.uleb128 0x13
 2983 0185 00       		.byte	0
 2984 0186 00       		.byte	0
 2985 0187 1E       		.uleb128 0x1e
 2986 0188 05       		.uleb128 0x5
 2987 0189 00       		.byte	0
 2988 018a 03       		.uleb128 0x3
 2989 018b 0E       		.uleb128 0xe
 2990 018c 3A       		.uleb128 0x3a
 2991 018d 0B       		.uleb128 0xb
 2992 018e 3B       		.uleb128 0x3b
 2993 018f 0B       		.uleb128 0xb
 2994 0190 49       		.uleb128 0x49
 2995 0191 13       		.uleb128 0x13
 2996 0192 02       		.uleb128 0x2
 2997 0193 17       		.uleb128 0x17
 2998 0194 00       		.byte	0
 2999 0195 00       		.byte	0
 3000 0196 1F       		.uleb128 0x1f
 3001 0197 2E       		.uleb128 0x2e
 3002 0198 01       		.byte	0x1
 3003 0199 31       		.uleb128 0x31
 3004 019a 13       		.uleb128 0x13
 3005 019b 11       		.uleb128 0x11
 3006 019c 01       		.uleb128 0x1
 3007 019d 12       		.uleb128 0x12
 3008 019e 06       		.uleb128 0x6
 3009 019f 40       		.uleb128 0x40
 3010 01a0 18       		.uleb128 0x18
 3011 01a1 9742     		.uleb128 0x2117
 3012 01a3 19       		.uleb128 0x19
 3013 01a4 01       		.uleb128 0x1
 3014 01a5 13       		.uleb128 0x13
 3015 01a6 00       		.byte	0
 3016 01a7 00       		.byte	0
 3017 01a8 20       		.uleb128 0x20
 3018 01a9 05       		.uleb128 0x5
 3019 01aa 00       		.byte	0
 3020 01ab 31       		.uleb128 0x31
 3021 01ac 13       		.uleb128 0x13
ARM GAS  /tmp/cck3ChAw.s 			page 54


 3022 01ad 02       		.uleb128 0x2
 3023 01ae 17       		.uleb128 0x17
 3024 01af 00       		.byte	0
 3025 01b0 00       		.byte	0
 3026 01b1 21       		.uleb128 0x21
 3027 01b2 0B       		.uleb128 0xb
 3028 01b3 01       		.byte	0x1
 3029 01b4 11       		.uleb128 0x11
 3030 01b5 01       		.uleb128 0x1
 3031 01b6 12       		.uleb128 0x12
 3032 01b7 06       		.uleb128 0x6
 3033 01b8 00       		.byte	0
 3034 01b9 00       		.byte	0
 3035 01ba 22       		.uleb128 0x22
 3036 01bb 898201   		.uleb128 0x4109
 3037 01be 01       		.byte	0x1
 3038 01bf 11       		.uleb128 0x11
 3039 01c0 01       		.uleb128 0x1
 3040 01c1 31       		.uleb128 0x31
 3041 01c2 13       		.uleb128 0x13
 3042 01c3 00       		.byte	0
 3043 01c4 00       		.byte	0
 3044 01c5 23       		.uleb128 0x23
 3045 01c6 8A8201   		.uleb128 0x410a
 3046 01c9 00       		.byte	0
 3047 01ca 02       		.uleb128 0x2
 3048 01cb 18       		.uleb128 0x18
 3049 01cc 9142     		.uleb128 0x2111
 3050 01ce 18       		.uleb128 0x18
 3051 01cf 00       		.byte	0
 3052 01d0 00       		.byte	0
 3053 01d1 24       		.uleb128 0x24
 3054 01d2 05       		.uleb128 0x5
 3055 01d3 00       		.byte	0
 3056 01d4 03       		.uleb128 0x3
 3057 01d5 08       		.uleb128 0x8
 3058 01d6 3A       		.uleb128 0x3a
 3059 01d7 0B       		.uleb128 0xb
 3060 01d8 3B       		.uleb128 0x3b
 3061 01d9 0B       		.uleb128 0xb
 3062 01da 49       		.uleb128 0x49
 3063 01db 13       		.uleb128 0x13
 3064 01dc 02       		.uleb128 0x2
 3065 01dd 17       		.uleb128 0x17
 3066 01de 00       		.byte	0
 3067 01df 00       		.byte	0
 3068 01e0 25       		.uleb128 0x25
 3069 01e1 898201   		.uleb128 0x4109
 3070 01e4 01       		.byte	0x1
 3071 01e5 11       		.uleb128 0x11
 3072 01e6 01       		.uleb128 0x1
 3073 01e7 31       		.uleb128 0x31
 3074 01e8 13       		.uleb128 0x13
 3075 01e9 01       		.uleb128 0x1
 3076 01ea 13       		.uleb128 0x13
 3077 01eb 00       		.byte	0
 3078 01ec 00       		.byte	0
ARM GAS  /tmp/cck3ChAw.s 			page 55


 3079 01ed 26       		.uleb128 0x26
 3080 01ee 898201   		.uleb128 0x4109
 3081 01f1 00       		.byte	0
 3082 01f2 11       		.uleb128 0x11
 3083 01f3 01       		.uleb128 0x1
 3084 01f4 31       		.uleb128 0x31
 3085 01f5 13       		.uleb128 0x13
 3086 01f6 00       		.byte	0
 3087 01f7 00       		.byte	0
 3088 01f8 27       		.uleb128 0x27
 3089 01f9 2E       		.uleb128 0x2e
 3090 01fa 01       		.byte	0x1
 3091 01fb 3F       		.uleb128 0x3f
 3092 01fc 19       		.uleb128 0x19
 3093 01fd 03       		.uleb128 0x3
 3094 01fe 0E       		.uleb128 0xe
 3095 01ff 3A       		.uleb128 0x3a
 3096 0200 0B       		.uleb128 0xb
 3097 0201 3B       		.uleb128 0x3b
 3098 0202 05       		.uleb128 0x5
 3099 0203 27       		.uleb128 0x27
 3100 0204 19       		.uleb128 0x19
 3101 0205 11       		.uleb128 0x11
 3102 0206 01       		.uleb128 0x1
 3103 0207 12       		.uleb128 0x12
 3104 0208 06       		.uleb128 0x6
 3105 0209 40       		.uleb128 0x40
 3106 020a 18       		.uleb128 0x18
 3107 020b 9742     		.uleb128 0x2117
 3108 020d 19       		.uleb128 0x19
 3109 020e 01       		.uleb128 0x1
 3110 020f 13       		.uleb128 0x13
 3111 0210 00       		.byte	0
 3112 0211 00       		.byte	0
 3113 0212 28       		.uleb128 0x28
 3114 0213 05       		.uleb128 0x5
 3115 0214 00       		.byte	0
 3116 0215 03       		.uleb128 0x3
 3117 0216 0E       		.uleb128 0xe
 3118 0217 3A       		.uleb128 0x3a
 3119 0218 0B       		.uleb128 0xb
 3120 0219 3B       		.uleb128 0x3b
 3121 021a 05       		.uleb128 0x5
 3122 021b 49       		.uleb128 0x49
 3123 021c 13       		.uleb128 0x13
 3124 021d 02       		.uleb128 0x2
 3125 021e 17       		.uleb128 0x17
 3126 021f 00       		.byte	0
 3127 0220 00       		.byte	0
 3128 0221 29       		.uleb128 0x29
 3129 0222 34       		.uleb128 0x34
 3130 0223 00       		.byte	0
 3131 0224 03       		.uleb128 0x3
 3132 0225 08       		.uleb128 0x8
 3133 0226 3A       		.uleb128 0x3a
 3134 0227 0B       		.uleb128 0xb
 3135 0228 3B       		.uleb128 0x3b
ARM GAS  /tmp/cck3ChAw.s 			page 56


 3136 0229 05       		.uleb128 0x5
 3137 022a 49       		.uleb128 0x49
 3138 022b 13       		.uleb128 0x13
 3139 022c 02       		.uleb128 0x2
 3140 022d 17       		.uleb128 0x17
 3141 022e 00       		.byte	0
 3142 022f 00       		.byte	0
 3143 0230 2A       		.uleb128 0x2a
 3144 0231 898201   		.uleb128 0x4109
 3145 0234 01       		.byte	0x1
 3146 0235 11       		.uleb128 0x11
 3147 0236 01       		.uleb128 0x1
 3148 0237 00       		.byte	0
 3149 0238 00       		.byte	0
 3150 0239 2B       		.uleb128 0x2b
 3151 023a 2E       		.uleb128 0x2e
 3152 023b 01       		.byte	0x1
 3153 023c 3F       		.uleb128 0x3f
 3154 023d 19       		.uleb128 0x19
 3155 023e 03       		.uleb128 0x3
 3156 023f 0E       		.uleb128 0xe
 3157 0240 3A       		.uleb128 0x3a
 3158 0241 0B       		.uleb128 0xb
 3159 0242 3B       		.uleb128 0x3b
 3160 0243 05       		.uleb128 0x5
 3161 0244 27       		.uleb128 0x27
 3162 0245 19       		.uleb128 0x19
 3163 0246 49       		.uleb128 0x49
 3164 0247 13       		.uleb128 0x13
 3165 0248 11       		.uleb128 0x11
 3166 0249 01       		.uleb128 0x1
 3167 024a 12       		.uleb128 0x12
 3168 024b 06       		.uleb128 0x6
 3169 024c 40       		.uleb128 0x40
 3170 024d 18       		.uleb128 0x18
 3171 024e 9742     		.uleb128 0x2117
 3172 0250 19       		.uleb128 0x19
 3173 0251 01       		.uleb128 0x1
 3174 0252 13       		.uleb128 0x13
 3175 0253 00       		.byte	0
 3176 0254 00       		.byte	0
 3177 0255 2C       		.uleb128 0x2c
 3178 0256 34       		.uleb128 0x34
 3179 0257 00       		.byte	0
 3180 0258 03       		.uleb128 0x3
 3181 0259 08       		.uleb128 0x8
 3182 025a 3A       		.uleb128 0x3a
 3183 025b 0B       		.uleb128 0xb
 3184 025c 3B       		.uleb128 0x3b
 3185 025d 05       		.uleb128 0x5
 3186 025e 49       		.uleb128 0x49
 3187 025f 13       		.uleb128 0x13
 3188 0260 02       		.uleb128 0x2
 3189 0261 18       		.uleb128 0x18
 3190 0262 00       		.byte	0
 3191 0263 00       		.byte	0
 3192 0264 2D       		.uleb128 0x2d
ARM GAS  /tmp/cck3ChAw.s 			page 57


 3193 0265 34       		.uleb128 0x34
 3194 0266 00       		.byte	0
 3195 0267 03       		.uleb128 0x3
 3196 0268 0E       		.uleb128 0xe
 3197 0269 3A       		.uleb128 0x3a
 3198 026a 0B       		.uleb128 0xb
 3199 026b 3B       		.uleb128 0x3b
 3200 026c 0B       		.uleb128 0xb
 3201 026d 49       		.uleb128 0x49
 3202 026e 13       		.uleb128 0x13
 3203 026f 3F       		.uleb128 0x3f
 3204 0270 19       		.uleb128 0x19
 3205 0271 3C       		.uleb128 0x3c
 3206 0272 19       		.uleb128 0x19
 3207 0273 00       		.byte	0
 3208 0274 00       		.byte	0
 3209 0275 2E       		.uleb128 0x2e
 3210 0276 2E       		.uleb128 0x2e
 3211 0277 01       		.byte	0x1
 3212 0278 3F       		.uleb128 0x3f
 3213 0279 19       		.uleb128 0x19
 3214 027a 03       		.uleb128 0x3
 3215 027b 0E       		.uleb128 0xe
 3216 027c 3A       		.uleb128 0x3a
 3217 027d 0B       		.uleb128 0xb
 3218 027e 3B       		.uleb128 0x3b
 3219 027f 0B       		.uleb128 0xb
 3220 0280 27       		.uleb128 0x27
 3221 0281 19       		.uleb128 0x19
 3222 0282 49       		.uleb128 0x49
 3223 0283 13       		.uleb128 0x13
 3224 0284 3C       		.uleb128 0x3c
 3225 0285 19       		.uleb128 0x19
 3226 0286 01       		.uleb128 0x1
 3227 0287 13       		.uleb128 0x13
 3228 0288 00       		.byte	0
 3229 0289 00       		.byte	0
 3230 028a 2F       		.uleb128 0x2f
 3231 028b 2E       		.uleb128 0x2e
 3232 028c 00       		.byte	0
 3233 028d 3F       		.uleb128 0x3f
 3234 028e 19       		.uleb128 0x19
 3235 028f 03       		.uleb128 0x3
 3236 0290 0E       		.uleb128 0xe
 3237 0291 3A       		.uleb128 0x3a
 3238 0292 0B       		.uleb128 0xb
 3239 0293 3B       		.uleb128 0x3b
 3240 0294 0B       		.uleb128 0xb
 3241 0295 27       		.uleb128 0x27
 3242 0296 19       		.uleb128 0x19
 3243 0297 3C       		.uleb128 0x3c
 3244 0298 19       		.uleb128 0x19
 3245 0299 00       		.byte	0
 3246 029a 00       		.byte	0
 3247 029b 30       		.uleb128 0x30
 3248 029c 2E       		.uleb128 0x2e
 3249 029d 01       		.byte	0x1
ARM GAS  /tmp/cck3ChAw.s 			page 58


 3250 029e 3F       		.uleb128 0x3f
 3251 029f 19       		.uleb128 0x19
 3252 02a0 03       		.uleb128 0x3
 3253 02a1 0E       		.uleb128 0xe
 3254 02a2 3A       		.uleb128 0x3a
 3255 02a3 0B       		.uleb128 0xb
 3256 02a4 3B       		.uleb128 0x3b
 3257 02a5 0B       		.uleb128 0xb
 3258 02a6 27       		.uleb128 0x27
 3259 02a7 19       		.uleb128 0x19
 3260 02a8 3C       		.uleb128 0x3c
 3261 02a9 19       		.uleb128 0x19
 3262 02aa 01       		.uleb128 0x1
 3263 02ab 13       		.uleb128 0x13
 3264 02ac 00       		.byte	0
 3265 02ad 00       		.byte	0
 3266 02ae 31       		.uleb128 0x31
 3267 02af 2E       		.uleb128 0x2e
 3268 02b0 01       		.byte	0x1
 3269 02b1 3F       		.uleb128 0x3f
 3270 02b2 19       		.uleb128 0x19
 3271 02b3 03       		.uleb128 0x3
 3272 02b4 0E       		.uleb128 0xe
 3273 02b5 3A       		.uleb128 0x3a
 3274 02b6 0B       		.uleb128 0xb
 3275 02b7 3B       		.uleb128 0x3b
 3276 02b8 0B       		.uleb128 0xb
 3277 02b9 27       		.uleb128 0x27
 3278 02ba 19       		.uleb128 0x19
 3279 02bb 49       		.uleb128 0x49
 3280 02bc 13       		.uleb128 0x13
 3281 02bd 3C       		.uleb128 0x3c
 3282 02be 19       		.uleb128 0x19
 3283 02bf 00       		.byte	0
 3284 02c0 00       		.byte	0
 3285 02c1 00       		.byte	0
 3286              		.section	.debug_loc,"",%progbits
 3287              	.Ldebug_loc0:
 3288              	.LLST0:
 3289 0000 00000000 		.4byte	.LVL1
 3290 0004 0A000000 		.4byte	.LVL2
 3291 0008 0100     		.2byte	0x1
 3292 000a 50       		.byte	0x50
 3293 000b 0A000000 		.4byte	.LVL2
 3294 000f 2A000000 		.4byte	.LFE8
 3295 0013 0100     		.2byte	0x1
 3296 0015 52       		.byte	0x52
 3297 0016 00000000 		.4byte	0
 3298 001a 00000000 		.4byte	0
 3299              	.LLST1:
 3300 001e 00000000 		.4byte	.LVL4
 3301 0022 1C000000 		.4byte	.LVL6
 3302 0026 0100     		.2byte	0x1
 3303 0028 50       		.byte	0x50
 3304 0029 1C000000 		.4byte	.LVL6
 3305 002d 28000000 		.4byte	.LFE9
 3306 0031 0400     		.2byte	0x4
ARM GAS  /tmp/cck3ChAw.s 			page 59


 3307 0033 F3       		.byte	0xf3
 3308 0034 01       		.uleb128 0x1
 3309 0035 50       		.byte	0x50
 3310 0036 9F       		.byte	0x9f
 3311 0037 00000000 		.4byte	0
 3312 003b 00000000 		.4byte	0
 3313              	.LLST2:
 3314 003f 10000000 		.4byte	.LVL5
 3315 0043 1C000000 		.4byte	.LVL6
 3316 0047 0600     		.2byte	0x6
 3317 0049 70       		.byte	0x70
 3318 004a 00       		.sleb128 0
 3319 004b 72       		.byte	0x72
 3320 004c 00       		.sleb128 0
 3321 004d 1A       		.byte	0x1a
 3322 004e 9F       		.byte	0x9f
 3323 004f 1C000000 		.4byte	.LVL6
 3324 0053 28000000 		.4byte	.LFE9
 3325 0057 0100     		.2byte	0x1
 3326 0059 50       		.byte	0x50
 3327 005a 00000000 		.4byte	0
 3328 005e 00000000 		.4byte	0
 3329              	.LLST3:
 3330 0062 00000000 		.4byte	.LVL7
 3331 0066 10000000 		.4byte	.LVL8
 3332 006a 0100     		.2byte	0x1
 3333 006c 50       		.byte	0x50
 3334 006d 10000000 		.4byte	.LVL8
 3335 0071 12000000 		.4byte	.LVL9
 3336 0075 0400     		.2byte	0x4
 3337 0077 F3       		.byte	0xf3
 3338 0078 01       		.uleb128 0x1
 3339 0079 50       		.byte	0x50
 3340 007a 9F       		.byte	0x9f
 3341 007b 12000000 		.4byte	.LVL9
 3342 007f 1C000000 		.4byte	.LFE10
 3343 0083 0100     		.2byte	0x1
 3344 0085 50       		.byte	0x50
 3345 0086 00000000 		.4byte	0
 3346 008a 00000000 		.4byte	0
 3347              	.LLST4:
 3348 008e 00000000 		.4byte	.LVL10
 3349 0092 1F000000 		.4byte	.LVL13-1
 3350 0096 0100     		.2byte	0x1
 3351 0098 50       		.byte	0x50
 3352 0099 1F000000 		.4byte	.LVL13-1
 3353 009d 26000000 		.4byte	.LVL14
 3354 00a1 0400     		.2byte	0x4
 3355 00a3 F3       		.byte	0xf3
 3356 00a4 01       		.uleb128 0x1
 3357 00a5 50       		.byte	0x50
 3358 00a6 9F       		.byte	0x9f
 3359 00a7 26000000 		.4byte	.LVL14
 3360 00ab 2E000000 		.4byte	.LFE12
 3361 00af 0100     		.2byte	0x1
 3362 00b1 50       		.byte	0x50
 3363 00b2 00000000 		.4byte	0
ARM GAS  /tmp/cck3ChAw.s 			page 60


 3364 00b6 00000000 		.4byte	0
 3365              	.LLST5:
 3366 00ba 00000000 		.4byte	.LVL10
 3367 00be 08000000 		.4byte	.LVL11
 3368 00c2 0100     		.2byte	0x1
 3369 00c4 51       		.byte	0x51
 3370 00c5 08000000 		.4byte	.LVL11
 3371 00c9 2E000000 		.4byte	.LFE12
 3372 00cd 0400     		.2byte	0x4
 3373 00cf F3       		.byte	0xf3
 3374 00d0 01       		.uleb128 0x1
 3375 00d1 51       		.byte	0x51
 3376 00d2 9F       		.byte	0x9f
 3377 00d3 00000000 		.4byte	0
 3378 00d7 00000000 		.4byte	0
 3379              	.LLST6:
 3380 00db 1C000000 		.4byte	.LVL12
 3381 00df 26000000 		.4byte	.LVL14
 3382 00e3 0400     		.2byte	0x4
 3383 00e5 F3       		.byte	0xf3
 3384 00e6 01       		.uleb128 0x1
 3385 00e7 51       		.byte	0x51
 3386 00e8 9F       		.byte	0x9f
 3387 00e9 00000000 		.4byte	0
 3388 00ed 00000000 		.4byte	0
 3389              	.LLST7:
 3390 00f1 1C000000 		.4byte	.LVL12
 3391 00f5 1F000000 		.4byte	.LVL13-1
 3392 00f9 0100     		.2byte	0x1
 3393 00fb 50       		.byte	0x50
 3394 00fc 1F000000 		.4byte	.LVL13-1
 3395 0100 26000000 		.4byte	.LVL14
 3396 0104 0400     		.2byte	0x4
 3397 0106 F3       		.byte	0xf3
 3398 0107 01       		.uleb128 0x1
 3399 0108 50       		.byte	0x50
 3400 0109 9F       		.byte	0x9f
 3401 010a 00000000 		.4byte	0
 3402 010e 00000000 		.4byte	0
 3403              	.LLST8:
 3404 0112 00000000 		.4byte	.LVL15
 3405 0116 0B000000 		.4byte	.LVL16-1
 3406 011a 0100     		.2byte	0x1
 3407 011c 50       		.byte	0x50
 3408 011d 0B000000 		.4byte	.LVL16-1
 3409 0121 18000000 		.4byte	.LFE11
 3410 0125 0400     		.2byte	0x4
 3411 0127 F3       		.byte	0xf3
 3412 0128 01       		.uleb128 0x1
 3413 0129 50       		.byte	0x50
 3414 012a 9F       		.byte	0x9f
 3415 012b 00000000 		.4byte	0
 3416 012f 00000000 		.4byte	0
 3417              	.LLST9:
 3418 0133 00000000 		.4byte	.LVL15
 3419 0137 0B000000 		.4byte	.LVL16-1
 3420 013b 0100     		.2byte	0x1
ARM GAS  /tmp/cck3ChAw.s 			page 61


 3421 013d 51       		.byte	0x51
 3422 013e 0B000000 		.4byte	.LVL16-1
 3423 0142 18000000 		.4byte	.LFE11
 3424 0146 0400     		.2byte	0x4
 3425 0148 F3       		.byte	0xf3
 3426 0149 01       		.uleb128 0x1
 3427 014a 51       		.byte	0x51
 3428 014b 9F       		.byte	0x9f
 3429 014c 00000000 		.4byte	0
 3430 0150 00000000 		.4byte	0
 3431              	.LLST10:
 3432 0154 00000000 		.4byte	.LVL18
 3433 0158 0C000000 		.4byte	.LVL20
 3434 015c 0100     		.2byte	0x1
 3435 015e 50       		.byte	0x50
 3436 015f 0C000000 		.4byte	.LVL20
 3437 0163 1E000000 		.4byte	.LFE14
 3438 0167 0100     		.2byte	0x1
 3439 0169 55       		.byte	0x55
 3440 016a 00000000 		.4byte	0
 3441 016e 00000000 		.4byte	0
 3442              	.LLST11:
 3443 0172 00000000 		.4byte	.LVL18
 3444 0176 0C000000 		.4byte	.LVL20
 3445 017a 0100     		.2byte	0x1
 3446 017c 51       		.byte	0x51
 3447 017d 0C000000 		.4byte	.LVL20
 3448 0181 1E000000 		.4byte	.LFE14
 3449 0185 0100     		.2byte	0x1
 3450 0187 56       		.byte	0x56
 3451 0188 00000000 		.4byte	0
 3452 018c 00000000 		.4byte	0
 3453              	.LLST12:
 3454 0190 00000000 		.4byte	.LVL23
 3455 0194 0B000000 		.4byte	.LVL24-1
 3456 0198 0100     		.2byte	0x1
 3457 019a 50       		.byte	0x50
 3458 019b 0B000000 		.4byte	.LVL24-1
 3459 019f 18000000 		.4byte	.LFE13
 3460 01a3 0400     		.2byte	0x4
 3461 01a5 F3       		.byte	0xf3
 3462 01a6 01       		.uleb128 0x1
 3463 01a7 50       		.byte	0x50
 3464 01a8 9F       		.byte	0x9f
 3465 01a9 00000000 		.4byte	0
 3466 01ad 00000000 		.4byte	0
 3467              	.LLST13:
 3468 01b1 00000000 		.4byte	.LVL23
 3469 01b5 0B000000 		.4byte	.LVL24-1
 3470 01b9 0100     		.2byte	0x1
 3471 01bb 51       		.byte	0x51
 3472 01bc 0B000000 		.4byte	.LVL24-1
 3473 01c0 18000000 		.4byte	.LFE13
 3474 01c4 0400     		.2byte	0x4
 3475 01c6 F3       		.byte	0xf3
 3476 01c7 01       		.uleb128 0x1
 3477 01c8 51       		.byte	0x51
ARM GAS  /tmp/cck3ChAw.s 			page 62


 3478 01c9 9F       		.byte	0x9f
 3479 01ca 00000000 		.4byte	0
 3480 01ce 00000000 		.4byte	0
 3481              	.LLST14:
 3482 01d2 00000000 		.4byte	.LVL26
 3483 01d6 0C000000 		.4byte	.LVL27
 3484 01da 0100     		.2byte	0x1
 3485 01dc 50       		.byte	0x50
 3486 01dd 0C000000 		.4byte	.LVL27
 3487 01e1 32000000 		.4byte	.LVL32
 3488 01e5 0100     		.2byte	0x1
 3489 01e7 57       		.byte	0x57
 3490 01e8 32000000 		.4byte	.LVL32
 3491 01ec 34000000 		.4byte	.LFE15
 3492 01f0 0100     		.2byte	0x1
 3493 01f2 50       		.byte	0x50
 3494 01f3 00000000 		.4byte	0
 3495 01f7 00000000 		.4byte	0
 3496              	.LLST15:
 3497 01fb 00000000 		.4byte	.LVL26
 3498 01ff 0C000000 		.4byte	.LVL27
 3499 0203 0100     		.2byte	0x1
 3500 0205 51       		.byte	0x51
 3501 0206 0C000000 		.4byte	.LVL27
 3502 020a 32000000 		.4byte	.LVL32
 3503 020e 0100     		.2byte	0x1
 3504 0210 55       		.byte	0x55
 3505 0211 32000000 		.4byte	.LVL32
 3506 0215 34000000 		.4byte	.LFE15
 3507 0219 0100     		.2byte	0x1
 3508 021b 51       		.byte	0x51
 3509 021c 00000000 		.4byte	0
 3510 0220 00000000 		.4byte	0
 3511              	.LLST16:
 3512 0224 00000000 		.4byte	.LVL26
 3513 0228 0C000000 		.4byte	.LVL27
 3514 022c 0200     		.2byte	0x2
 3515 022e 30       		.byte	0x30
 3516 022f 9F       		.byte	0x9f
 3517 0230 0C000000 		.4byte	.LVL27
 3518 0234 32000000 		.4byte	.LVL32
 3519 0238 0100     		.2byte	0x1
 3520 023a 54       		.byte	0x54
 3521 023b 32000000 		.4byte	.LVL32
 3522 023f 34000000 		.4byte	.LFE15
 3523 0243 0200     		.2byte	0x2
 3524 0245 30       		.byte	0x30
 3525 0246 9F       		.byte	0x9f
 3526 0247 00000000 		.4byte	0
 3527 024b 00000000 		.4byte	0
 3528              	.LLST17:
 3529 024f 00000000 		.4byte	.LVL33
 3530 0253 1A000000 		.4byte	.LVL37
 3531 0257 0100     		.2byte	0x1
 3532 0259 50       		.byte	0x50
 3533 025a 1A000000 		.4byte	.LVL37
 3534 025e 24000000 		.4byte	.LVL39
ARM GAS  /tmp/cck3ChAw.s 			page 63


 3535 0262 0100     		.2byte	0x1
 3536 0264 54       		.byte	0x54
 3537 0265 24000000 		.4byte	.LVL39
 3538 0269 3C000000 		.4byte	.LFE16
 3539 026d 0400     		.2byte	0x4
 3540 026f F3       		.byte	0xf3
 3541 0270 01       		.uleb128 0x1
 3542 0271 50       		.byte	0x50
 3543 0272 9F       		.byte	0x9f
 3544 0273 00000000 		.4byte	0
 3545 0277 00000000 		.4byte	0
 3546              	.LLST18:
 3547 027b 06000000 		.4byte	.LVL34
 3548 027f 36000000 		.4byte	.LVL41
 3549 0283 0100     		.2byte	0x1
 3550 0285 55       		.byte	0x55
 3551 0286 00000000 		.4byte	0
 3552 028a 00000000 		.4byte	0
 3553              	.LLST19:
 3554 028e 0E000000 		.4byte	.LVL35
 3555 0292 12000000 		.4byte	.LVL36
 3556 0296 0600     		.2byte	0x6
 3557 0298 70       		.byte	0x70
 3558 0299 00       		.sleb128 0
 3559 029a 73       		.byte	0x73
 3560 029b 00       		.sleb128 0
 3561 029c 1A       		.byte	0x1a
 3562 029d 9F       		.byte	0x9f
 3563 029e 12000000 		.4byte	.LVL36
 3564 02a2 1D000000 		.4byte	.LVL38-1
 3565 02a6 0100     		.2byte	0x1
 3566 02a8 52       		.byte	0x52
 3567 02a9 24000000 		.4byte	.LVL39
 3568 02ad 28000000 		.4byte	.LVL40
 3569 02b1 0100     		.2byte	0x1
 3570 02b3 52       		.byte	0x52
 3571 02b4 28000000 		.4byte	.LVL40
 3572 02b8 3C000000 		.4byte	.LFE16
 3573 02bc 0100     		.2byte	0x1
 3574 02be 50       		.byte	0x50
 3575 02bf 00000000 		.4byte	0
 3576 02c3 00000000 		.4byte	0
 3577              	.LLST20:
 3578 02c7 00000000 		.4byte	.LVL42
 3579 02cb 1A000000 		.4byte	.LVL47
 3580 02cf 0100     		.2byte	0x1
 3581 02d1 50       		.byte	0x50
 3582 02d2 1A000000 		.4byte	.LVL47
 3583 02d6 22000000 		.4byte	.LVL49
 3584 02da 0100     		.2byte	0x1
 3585 02dc 54       		.byte	0x54
 3586 02dd 22000000 		.4byte	.LVL49
 3587 02e1 38000000 		.4byte	.LFE17
 3588 02e5 0400     		.2byte	0x4
 3589 02e7 F3       		.byte	0xf3
 3590 02e8 01       		.uleb128 0x1
 3591 02e9 50       		.byte	0x50
ARM GAS  /tmp/cck3ChAw.s 			page 64


 3592 02ea 9F       		.byte	0x9f
 3593 02eb 00000000 		.4byte	0
 3594 02ef 00000000 		.4byte	0
 3595              	.LLST21:
 3596 02f3 06000000 		.4byte	.LVL43
 3597 02f7 32000000 		.4byte	.LVL50
 3598 02fb 0100     		.2byte	0x1
 3599 02fd 55       		.byte	0x55
 3600 02fe 00000000 		.4byte	0
 3601 0302 00000000 		.4byte	0
 3602              	.LLST22:
 3603 0306 0E000000 		.4byte	.LVL44
 3604 030a 12000000 		.4byte	.LVL45
 3605 030e 0600     		.2byte	0x6
 3606 0310 70       		.byte	0x70
 3607 0311 00       		.sleb128 0
 3608 0312 73       		.byte	0x73
 3609 0313 00       		.sleb128 0
 3610 0314 1A       		.byte	0x1a
 3611 0315 9F       		.byte	0x9f
 3612 0316 12000000 		.4byte	.LVL45
 3613 031a 16000000 		.4byte	.LVL46
 3614 031e 0100     		.2byte	0x1
 3615 0320 54       		.byte	0x54
 3616 0321 16000000 		.4byte	.LVL46
 3617 0325 1A000000 		.4byte	.LVL47
 3618 0329 0600     		.2byte	0x6
 3619 032b 70       		.byte	0x70
 3620 032c 00       		.sleb128 0
 3621 032d 73       		.byte	0x73
 3622 032e 00       		.sleb128 0
 3623 032f 1A       		.byte	0x1a
 3624 0330 9F       		.byte	0x9f
 3625 0331 1A000000 		.4byte	.LVL47
 3626 0335 1D000000 		.4byte	.LVL48-1
 3627 0339 0600     		.2byte	0x6
 3628 033b 74       		.byte	0x74
 3629 033c 00       		.sleb128 0
 3630 033d 73       		.byte	0x73
 3631 033e 00       		.sleb128 0
 3632 033f 1A       		.byte	0x1a
 3633 0340 9F       		.byte	0x9f
 3634 0341 22000000 		.4byte	.LVL49
 3635 0345 32000000 		.4byte	.LVL50
 3636 0349 0100     		.2byte	0x1
 3637 034b 54       		.byte	0x54
 3638 034c 32000000 		.4byte	.LVL50
 3639 0350 38000000 		.4byte	.LFE17
 3640 0354 0100     		.2byte	0x1
 3641 0356 50       		.byte	0x50
 3642 0357 00000000 		.4byte	0
 3643 035b 00000000 		.4byte	0
 3644              	.LLST23:
 3645 035f 00000000 		.4byte	.LVL51
 3646 0363 1C000000 		.4byte	.LVL53
 3647 0367 0100     		.2byte	0x1
 3648 0369 50       		.byte	0x50
ARM GAS  /tmp/cck3ChAw.s 			page 65


 3649 036a 1C000000 		.4byte	.LVL53
 3650 036e 32000000 		.4byte	.LVL55
 3651 0372 0100     		.2byte	0x1
 3652 0374 54       		.byte	0x54
 3653 0375 32000000 		.4byte	.LVL55
 3654 0379 38000000 		.4byte	.LFE18
 3655 037d 0100     		.2byte	0x1
 3656 037f 50       		.byte	0x50
 3657 0380 00000000 		.4byte	0
 3658 0384 00000000 		.4byte	0
 3659              	.LLST24:
 3660 0388 08000000 		.4byte	.LVL52
 3661 038c 32000000 		.4byte	.LVL55
 3662 0390 0100     		.2byte	0x1
 3663 0392 55       		.byte	0x55
 3664 0393 00000000 		.4byte	0
 3665 0397 00000000 		.4byte	0
 3666              	.LLST25:
 3667 039b 00000000 		.4byte	.LVL56
 3668 039f 1E000000 		.4byte	.LVL60
 3669 03a3 0100     		.2byte	0x1
 3670 03a5 50       		.byte	0x50
 3671 03a6 1E000000 		.4byte	.LVL60
 3672 03aa 20000000 		.4byte	.LVL61
 3673 03ae 0400     		.2byte	0x4
 3674 03b0 F3       		.byte	0xf3
 3675 03b1 01       		.uleb128 0x1
 3676 03b2 50       		.byte	0x50
 3677 03b3 9F       		.byte	0x9f
 3678 03b4 20000000 		.4byte	.LVL61
 3679 03b8 26000000 		.4byte	.LVL62
 3680 03bc 0100     		.2byte	0x1
 3681 03be 50       		.byte	0x50
 3682 03bf 26000000 		.4byte	.LVL62
 3683 03c3 34000000 		.4byte	.LVL64
 3684 03c7 0100     		.2byte	0x1
 3685 03c9 55       		.byte	0x55
 3686 03ca 34000000 		.4byte	.LVL64
 3687 03ce 46000000 		.4byte	.LVL66
 3688 03d2 0400     		.2byte	0x4
 3689 03d4 F3       		.byte	0xf3
 3690 03d5 01       		.uleb128 0x1
 3691 03d6 50       		.byte	0x50
 3692 03d7 9F       		.byte	0x9f
 3693 03d8 46000000 		.4byte	.LVL66
 3694 03dc 50000000 		.4byte	.LVL67
 3695 03e0 0100     		.2byte	0x1
 3696 03e2 55       		.byte	0x55
 3697 03e3 50000000 		.4byte	.LVL67
 3698 03e7 54000000 		.4byte	.LFE19
 3699 03eb 0400     		.2byte	0x4
 3700 03ed F3       		.byte	0xf3
 3701 03ee 01       		.uleb128 0x1
 3702 03ef 50       		.byte	0x50
 3703 03f0 9F       		.byte	0x9f
 3704 03f1 00000000 		.4byte	0
 3705 03f5 00000000 		.4byte	0
ARM GAS  /tmp/cck3ChAw.s 			page 66


 3706              	.LLST26:
 3707 03f9 00000000 		.4byte	.LVL56
 3708 03fd 29000000 		.4byte	.LVL63-1
 3709 0401 0100     		.2byte	0x1
 3710 0403 51       		.byte	0x51
 3711 0404 29000000 		.4byte	.LVL63-1
 3712 0408 54000000 		.4byte	.LFE19
 3713 040c 0400     		.2byte	0x4
 3714 040e F3       		.byte	0xf3
 3715 040f 01       		.uleb128 0x1
 3716 0410 51       		.byte	0x51
 3717 0411 9F       		.byte	0x9f
 3718 0412 00000000 		.4byte	0
 3719 0416 00000000 		.4byte	0
 3720              	.LLST27:
 3721 041a 06000000 		.4byte	.LVL57
 3722 041e 50000000 		.4byte	.LVL67
 3723 0422 0100     		.2byte	0x1
 3724 0424 56       		.byte	0x56
 3725 0425 00000000 		.4byte	0
 3726 0429 00000000 		.4byte	0
 3727              	.LLST28:
 3728 042d 0E000000 		.4byte	.LVL58
 3729 0431 12000000 		.4byte	.LVL59
 3730 0435 0600     		.2byte	0x6
 3731 0437 70       		.byte	0x70
 3732 0438 00       		.sleb128 0
 3733 0439 72       		.byte	0x72
 3734 043a 00       		.sleb128 0
 3735 043b 1A       		.byte	0x1a
 3736 043c 9F       		.byte	0x9f
 3737 043d 12000000 		.4byte	.LVL59
 3738 0441 38000000 		.4byte	.LVL65
 3739 0445 0100     		.2byte	0x1
 3740 0447 54       		.byte	0x54
 3741 0448 38000000 		.4byte	.LVL65
 3742 044c 46000000 		.4byte	.LVL66
 3743 0450 0100     		.2byte	0x1
 3744 0452 50       		.byte	0x50
 3745 0453 46000000 		.4byte	.LVL66
 3746 0457 50000000 		.4byte	.LVL67
 3747 045b 0100     		.2byte	0x1
 3748 045d 54       		.byte	0x54
 3749 045e 50000000 		.4byte	.LVL67
 3750 0462 54000000 		.4byte	.LFE19
 3751 0466 0100     		.2byte	0x1
 3752 0468 50       		.byte	0x50
 3753 0469 00000000 		.4byte	0
 3754 046d 00000000 		.4byte	0
 3755              	.LLST29:
 3756 0471 00000000 		.4byte	.LVL68
 3757 0475 1E000000 		.4byte	.LVL72
 3758 0479 0100     		.2byte	0x1
 3759 047b 50       		.byte	0x50
 3760 047c 1E000000 		.4byte	.LVL72
 3761 0480 20000000 		.4byte	.LVL73
 3762 0484 0400     		.2byte	0x4
ARM GAS  /tmp/cck3ChAw.s 			page 67


 3763 0486 F3       		.byte	0xf3
 3764 0487 01       		.uleb128 0x1
 3765 0488 50       		.byte	0x50
 3766 0489 9F       		.byte	0x9f
 3767 048a 20000000 		.4byte	.LVL73
 3768 048e 26000000 		.4byte	.LVL74
 3769 0492 0100     		.2byte	0x1
 3770 0494 50       		.byte	0x50
 3771 0495 26000000 		.4byte	.LVL74
 3772 0499 34000000 		.4byte	.LVL76
 3773 049d 0100     		.2byte	0x1
 3774 049f 55       		.byte	0x55
 3775 04a0 34000000 		.4byte	.LVL76
 3776 04a4 44000000 		.4byte	.LVL77
 3777 04a8 0400     		.2byte	0x4
 3778 04aa F3       		.byte	0xf3
 3779 04ab 01       		.uleb128 0x1
 3780 04ac 50       		.byte	0x50
 3781 04ad 9F       		.byte	0x9f
 3782 04ae 44000000 		.4byte	.LVL77
 3783 04b2 4E000000 		.4byte	.LVL78
 3784 04b6 0100     		.2byte	0x1
 3785 04b8 55       		.byte	0x55
 3786 04b9 4E000000 		.4byte	.LVL78
 3787 04bd 54000000 		.4byte	.LFE20
 3788 04c1 0400     		.2byte	0x4
 3789 04c3 F3       		.byte	0xf3
 3790 04c4 01       		.uleb128 0x1
 3791 04c5 50       		.byte	0x50
 3792 04c6 9F       		.byte	0x9f
 3793 04c7 00000000 		.4byte	0
 3794 04cb 00000000 		.4byte	0
 3795              	.LLST30:
 3796 04cf 00000000 		.4byte	.LVL68
 3797 04d3 29000000 		.4byte	.LVL75-1
 3798 04d7 0100     		.2byte	0x1
 3799 04d9 51       		.byte	0x51
 3800 04da 29000000 		.4byte	.LVL75-1
 3801 04de 54000000 		.4byte	.LFE20
 3802 04e2 0400     		.2byte	0x4
 3803 04e4 F3       		.byte	0xf3
 3804 04e5 01       		.uleb128 0x1
 3805 04e6 51       		.byte	0x51
 3806 04e7 9F       		.byte	0x9f
 3807 04e8 00000000 		.4byte	0
 3808 04ec 00000000 		.4byte	0
 3809              	.LLST31:
 3810 04f0 06000000 		.4byte	.LVL69
 3811 04f4 4E000000 		.4byte	.LVL78
 3812 04f8 0100     		.2byte	0x1
 3813 04fa 56       		.byte	0x56
 3814 04fb 00000000 		.4byte	0
 3815 04ff 00000000 		.4byte	0
 3816              	.LLST32:
 3817 0503 0E000000 		.4byte	.LVL70
 3818 0507 12000000 		.4byte	.LVL71
 3819 050b 0600     		.2byte	0x6
ARM GAS  /tmp/cck3ChAw.s 			page 68


 3820 050d 70       		.byte	0x70
 3821 050e 00       		.sleb128 0
 3822 050f 72       		.byte	0x72
 3823 0510 00       		.sleb128 0
 3824 0511 1A       		.byte	0x1a
 3825 0512 9F       		.byte	0x9f
 3826 0513 12000000 		.4byte	.LVL71
 3827 0517 4E000000 		.4byte	.LVL78
 3828 051b 0100     		.2byte	0x1
 3829 051d 54       		.byte	0x54
 3830 051e 4E000000 		.4byte	.LVL78
 3831 0522 54000000 		.4byte	.LFE20
 3832 0526 0100     		.2byte	0x1
 3833 0528 50       		.byte	0x50
 3834 0529 00000000 		.4byte	0
 3835 052d 00000000 		.4byte	0
 3836              	.LLST33:
 3837 0531 00000000 		.4byte	.LVL79
 3838 0535 12000000 		.4byte	.LVL81
 3839 0539 0100     		.2byte	0x1
 3840 053b 50       		.byte	0x50
 3841 053c 12000000 		.4byte	.LVL81
 3842 0540 4A000000 		.4byte	.LVL85
 3843 0544 0100     		.2byte	0x1
 3844 0546 54       		.byte	0x54
 3845 0547 4A000000 		.4byte	.LVL85
 3846 054b 50000000 		.4byte	.LFE21
 3847 054f 0400     		.2byte	0x4
 3848 0551 F3       		.byte	0xf3
 3849 0552 01       		.uleb128 0x1
 3850 0553 50       		.byte	0x50
 3851 0554 9F       		.byte	0x9f
 3852 0555 00000000 		.4byte	0
 3853 0559 00000000 		.4byte	0
 3854              	.LLST34:
 3855 055d 00000000 		.4byte	.LVL79
 3856 0561 29000000 		.4byte	.LVL83-1
 3857 0565 0100     		.2byte	0x1
 3858 0567 51       		.byte	0x51
 3859 0568 29000000 		.4byte	.LVL83-1
 3860 056c 50000000 		.4byte	.LFE21
 3861 0570 0400     		.2byte	0x4
 3862 0572 F3       		.byte	0xf3
 3863 0573 01       		.uleb128 0x1
 3864 0574 51       		.byte	0x51
 3865 0575 9F       		.byte	0x9f
 3866 0576 00000000 		.4byte	0
 3867 057a 00000000 		.4byte	0
 3868              	.LLST35:
 3869 057e 08000000 		.4byte	.LVL80
 3870 0582 4A000000 		.4byte	.LVL85
 3871 0586 0100     		.2byte	0x1
 3872 0588 55       		.byte	0x55
 3873 0589 00000000 		.4byte	0
 3874 058d 00000000 		.4byte	0
 3875              		.section	.debug_aranges,"",%progbits
 3876 0000 8C000000 		.4byte	0x8c
ARM GAS  /tmp/cck3ChAw.s 			page 69


 3877 0004 0200     		.2byte	0x2
 3878 0006 00000000 		.4byte	.Ldebug_info0
 3879 000a 04       		.byte	0x4
 3880 000b 00       		.byte	0
 3881 000c 0000     		.2byte	0
 3882 000e 0000     		.2byte	0
 3883 0010 00000000 		.4byte	.LFB7
 3884 0014 28000000 		.4byte	.LFE7-.LFB7
 3885 0018 00000000 		.4byte	.LFB8
 3886 001c 2A000000 		.4byte	.LFE8-.LFB8
 3887 0020 00000000 		.4byte	.LFB9
 3888 0024 28000000 		.4byte	.LFE9-.LFB9
 3889 0028 00000000 		.4byte	.LFB10
 3890 002c 1C000000 		.4byte	.LFE10-.LFB10
 3891 0030 00000000 		.4byte	.LFB12
 3892 0034 2E000000 		.4byte	.LFE12-.LFB12
 3893 0038 00000000 		.4byte	.LFB11
 3894 003c 18000000 		.4byte	.LFE11-.LFB11
 3895 0040 00000000 		.4byte	.LFB14
 3896 0044 1E000000 		.4byte	.LFE14-.LFB14
 3897 0048 00000000 		.4byte	.LFB13
 3898 004c 18000000 		.4byte	.LFE13-.LFB13
 3899 0050 00000000 		.4byte	.LFB15
 3900 0054 34000000 		.4byte	.LFE15-.LFB15
 3901 0058 00000000 		.4byte	.LFB16
 3902 005c 3C000000 		.4byte	.LFE16-.LFB16
 3903 0060 00000000 		.4byte	.LFB17
 3904 0064 38000000 		.4byte	.LFE17-.LFB17
 3905 0068 00000000 		.4byte	.LFB18
 3906 006c 38000000 		.4byte	.LFE18-.LFB18
 3907 0070 00000000 		.4byte	.LFB19
 3908 0074 54000000 		.4byte	.LFE19-.LFB19
 3909 0078 00000000 		.4byte	.LFB20
 3910 007c 54000000 		.4byte	.LFE20-.LFB20
 3911 0080 00000000 		.4byte	.LFB21
 3912 0084 50000000 		.4byte	.LFE21-.LFB21
 3913 0088 00000000 		.4byte	0
 3914 008c 00000000 		.4byte	0
 3915              		.section	.debug_ranges,"",%progbits
 3916              	.Ldebug_ranges0:
 3917 0000 12000000 		.4byte	.LBB3
 3918 0004 14000000 		.4byte	.LBE3
 3919 0008 18000000 		.4byte	.LBB4
 3920 000c 1C000000 		.4byte	.LBE4
 3921 0010 00000000 		.4byte	0
 3922 0014 00000000 		.4byte	0
 3923 0018 16000000 		.4byte	.LBB6
 3924 001c 1E000000 		.4byte	.LBE6
 3925 0020 22000000 		.4byte	.LBB7
 3926 0024 2A000000 		.4byte	.LBE7
 3927 0028 00000000 		.4byte	0
 3928 002c 00000000 		.4byte	0
 3929 0030 0A000000 		.4byte	.LBB9
 3930 0034 0C000000 		.4byte	.LBE9
 3931 0038 16000000 		.4byte	.LBB10
 3932 003c 1A000000 		.4byte	.LBE10
 3933 0040 00000000 		.4byte	0
ARM GAS  /tmp/cck3ChAw.s 			page 70


 3934 0044 00000000 		.4byte	0
 3935 0048 08000000 		.4byte	.LBB12
 3936 004c 0A000000 		.4byte	.LBE12
 3937 0050 12000000 		.4byte	.LBB13
 3938 0054 16000000 		.4byte	.LBE13
 3939 0058 00000000 		.4byte	0
 3940 005c 00000000 		.4byte	0
 3941 0060 00000000 		.4byte	.LFB7
 3942 0064 28000000 		.4byte	.LFE7
 3943 0068 00000000 		.4byte	.LFB8
 3944 006c 2A000000 		.4byte	.LFE8
 3945 0070 00000000 		.4byte	.LFB9
 3946 0074 28000000 		.4byte	.LFE9
 3947 0078 00000000 		.4byte	.LFB10
 3948 007c 1C000000 		.4byte	.LFE10
 3949 0080 00000000 		.4byte	.LFB12
 3950 0084 2E000000 		.4byte	.LFE12
 3951 0088 00000000 		.4byte	.LFB11
 3952 008c 18000000 		.4byte	.LFE11
 3953 0090 00000000 		.4byte	.LFB14
 3954 0094 1E000000 		.4byte	.LFE14
 3955 0098 00000000 		.4byte	.LFB13
 3956 009c 18000000 		.4byte	.LFE13
 3957 00a0 00000000 		.4byte	.LFB15
 3958 00a4 34000000 		.4byte	.LFE15
 3959 00a8 00000000 		.4byte	.LFB16
 3960 00ac 3C000000 		.4byte	.LFE16
 3961 00b0 00000000 		.4byte	.LFB17
 3962 00b4 38000000 		.4byte	.LFE17
 3963 00b8 00000000 		.4byte	.LFB18
 3964 00bc 38000000 		.4byte	.LFE18
 3965 00c0 00000000 		.4byte	.LFB19
 3966 00c4 54000000 		.4byte	.LFE19
 3967 00c8 00000000 		.4byte	.LFB20
 3968 00cc 54000000 		.4byte	.LFE20
 3969 00d0 00000000 		.4byte	.LFB21
 3970 00d4 50000000 		.4byte	.LFE21
 3971 00d8 00000000 		.4byte	0
 3972 00dc 00000000 		.4byte	0
 3973              		.section	.debug_line,"",%progbits
 3974              	.Ldebug_line0:
 3975 0000 C3020000 		.section	.debug_str,"MS",%progbits,1
 3975      02002301 
 3975      00000201 
 3975      FB0E0D00 
 3975      01010101 
 3976              	.LASF38:
 3977 0000 705F6D73 		.ascii	"p_msg\000"
 3977      6700
 3978              	.LASF44:
 3979 0006 54687265 		.ascii	"ThreadsList\000"
 3979      6164734C 
 3979      69737400 
 3980              	.LASF68:
 3981 0012 7264796D 		.ascii	"rdymsg\000"
 3981      736700
 3982              	.LASF5:
ARM GAS  /tmp/cck3ChAw.s 			page 71


 3983 0019 5F5F7569 		.ascii	"__uint8_t\000"
 3983      6E74385F 
 3983      7400
 3984              	.LASF11:
 3985 0023 6C6F6E67 		.ascii	"long long unsigned int\000"
 3985      206C6F6E 
 3985      6720756E 
 3985      7369676E 
 3985      65642069 
 3986              	.LASF69:
 3987 003a 65786974 		.ascii	"exitcode\000"
 3987      636F6465 
 3987      00
 3988              	.LASF90:
 3989 0043 63684576 		.ascii	"chEvtSignalFlagsI\000"
 3989      74536967 
 3989      6E616C46 
 3989      6C616773 
 3989      4900
 3990              	.LASF88:
 3991 0055 63684576 		.ascii	"chEvtWaitAnyTimeout\000"
 3991      74576169 
 3991      74416E79 
 3991      54696D65 
 3991      6F757400 
 3992              	.LASF27:
 3993 0069 705F7072 		.ascii	"p_prio\000"
 3993      696F00
 3994              	.LASF10:
 3995 0070 6C6F6E67 		.ascii	"long long int\000"
 3995      206C6F6E 
 3995      6720696E 
 3995      7400
 3996              	.LASF1:
 3997 007e 7369676E 		.ascii	"signed char\000"
 3997      65642063 
 3997      68617200 
 3998              	.LASF89:
 3999 008a 63684576 		.ascii	"chEvtWaitAllTimeout\000"
 3999      74576169 
 3999      74416C6C 
 3999      54696D65 
 3999      6F757400 
 4000              	.LASF42:
 4001 009e 705F6D70 		.ascii	"p_mpool\000"
 4001      6F6F6C00 
 4002              	.LASF58:
 4003 00a6 6D5F7175 		.ascii	"m_queue\000"
 4003      65756500 
 4004              	.LASF77:
 4005 00ae 63684576 		.ascii	"chEvtAddFlags\000"
 4005      74416464 
 4005      466C6167 
 4005      7300
 4006              	.LASF7:
 4007 00bc 6C6F6E67 		.ascii	"long int\000"
 4007      20696E74 
ARM GAS  /tmp/cck3ChAw.s 			page 72


 4007      00
 4008              	.LASF16:
 4009 00c5 74737461 		.ascii	"tstate_t\000"
 4009      74655F74 
 4009      00
 4010              	.LASF85:
 4011 00ce 63684576 		.ascii	"chEvtWaitAll\000"
 4011      74576169 
 4011      74416C6C 
 4011      00
 4012              	.LASF84:
 4013 00db 63684576 		.ascii	"chEvtWaitAny\000"
 4013      74576169 
 4013      74416E79 
 4013      00
 4014              	.LASF79:
 4015 00e8 63684576 		.ascii	"chEvtBroadcastFlagsI\000"
 4015      7442726F 
 4015      61646361 
 4015      7374466C 
 4015      61677349 
 4016              	.LASF29:
 4017 00fd 705F6E65 		.ascii	"p_newer\000"
 4017      77657200 
 4018              	.LASF98:
 4019 0105 63685363 		.ascii	"chSchRescheduleS\000"
 4019      68526573 
 4019      63686564 
 4019      756C6553 
 4019      00
 4020              	.LASF8:
 4021 0116 5F5F7569 		.ascii	"__uint32_t\000"
 4021      6E743332 
 4021      5F7400
 4022              	.LASF73:
 4023 0121 6D61736B 		.ascii	"mask\000"
 4023      00
 4024              	.LASF45:
 4025 0126 72656761 		.ascii	"regarm_t\000"
 4025      726D5F74 
 4025      00
 4026              	.LASF80:
 4027 012f 63684576 		.ascii	"chEvtBroadcastFlags\000"
 4027      7442726F 
 4027      61646361 
 4027      7374466C 
 4027      61677300 
 4028              	.LASF20:
 4029 0143 6576656E 		.ascii	"eventid_t\000"
 4029      7469645F 
 4029      7400
 4030              	.LASF65:
 4031 014d 4576656E 		.ascii	"EventSource\000"
 4031      74536F75 
 4031      72636500 
 4032              	.LASF95:
 4033 0159 2F686F6D 		.ascii	"/home/raparram/Escritorio/blinkSAM\000"
ARM GAS  /tmp/cck3ChAw.s 			page 73


 4033      652F7261 
 4033      70617272 
 4033      616D2F45 
 4033      73637269 
 4034              	.LASF23:
 4035 017c 636E745F 		.ascii	"cnt_t\000"
 4035      7400
 4036              	.LASF0:
 4037 0182 756E7369 		.ascii	"unsigned int\000"
 4037      676E6564 
 4037      20696E74 
 4037      00
 4038              	.LASF9:
 4039 018f 6C6F6E67 		.ascii	"long unsigned int\000"
 4039      20756E73 
 4039      69676E65 
 4039      6420696E 
 4039      7400
 4040              	.LASF47:
 4041 01a1 636F6E74 		.ascii	"context\000"
 4041      65787400 
 4042              	.LASF4:
 4043 01a9 73686F72 		.ascii	"short unsigned int\000"
 4043      7420756E 
 4043      7369676E 
 4043      65642069 
 4043      6E7400
 4044              	.LASF74:
 4045 01bc 63684576 		.ascii	"chEvtRegisterMask\000"
 4045      74526567 
 4045      69737465 
 4045      724D6173 
 4045      6B00
 4046              	.LASF19:
 4047 01ce 6D73675F 		.ascii	"msg_t\000"
 4047      7400
 4048              	.LASF52:
 4049 01d4 725F6E65 		.ascii	"r_newer\000"
 4049      77657200 
 4050              	.LASF62:
 4051 01dc 656C5F6E 		.ascii	"el_next\000"
 4051      65787400 
 4052              	.LASF75:
 4053 01e4 63684576 		.ascii	"chEvtUnregister\000"
 4053      74556E72 
 4053      65676973 
 4053      74657200 
 4054              	.LASF15:
 4055 01f4 746D6F64 		.ascii	"tmode_t\000"
 4055      655F7400 
 4056              	.LASF94:
 4057 01fc 43686962 		.ascii	"ChibiOS//os/kernel/src/chevents.c\000"
 4057      694F532F 
 4057      2F6F732F 
 4057      6B65726E 
 4057      656C2F73 
 4058              	.LASF21:
ARM GAS  /tmp/cck3ChAw.s 			page 74


 4059 021e 6576656E 		.ascii	"eventmask_t\000"
 4059      746D6173 
 4059      6B5F7400 
 4060              	.LASF57:
 4061 022a 4D757465 		.ascii	"Mutex\000"
 4061      7800
 4062              	.LASF93:
 4063 0230 474E5520 		.ascii	"GNU C 4.9.3 20150529 (prerelease) -mcpu=cortex-m3 -"
 4063      4320342E 
 4063      392E3320 
 4063      32303135 
 4063      30353239 
 4064 0263 6D6E6F2D 		.ascii	"mno-thumb-interwork -mthumb -ggdb -O2 -std=gnu99 -f"
 4064      7468756D 
 4064      622D696E 
 4064      74657277 
 4064      6F726B20 
 4065 0296 6F6D6974 		.ascii	"omit-frame-pointer -falign-functions=16 -ffunction-"
 4065      2D667261 
 4065      6D652D70 
 4065      6F696E74 
 4065      6572202D 
 4066 02c9 73656374 		.ascii	"sections -fdata-sections -fno-common\000"
 4066      696F6E73 
 4066      202D6664 
 4066      6174612D 
 4066      73656374 
 4067              	.LASF48:
 4068 02ee 73697A65 		.ascii	"sizetype\000"
 4068      74797065 
 4068      00
 4069              	.LASF81:
 4070 02f7 63684576 		.ascii	"chEvtDispatch\000"
 4070      74446973 
 4070      70617463 
 4070      6800
 4071              	.LASF30:
 4072 0305 705F6F6C 		.ascii	"p_older\000"
 4072      64657200 
 4073              	.LASF51:
 4074 030d 725F6374 		.ascii	"r_ctx\000"
 4074      7800
 4075              	.LASF43:
 4076 0313 54687265 		.ascii	"ThreadsQueue\000"
 4076      61647351 
 4076      75657565 
 4076      00
 4077              	.LASF87:
 4078 0320 74696D65 		.ascii	"time\000"
 4078      00
 4079              	.LASF78:
 4080 0325 63684576 		.ascii	"chEvtSignalFlags\000"
 4080      74536967 
 4080      6E616C46 
 4080      6C616773 
 4080      00
 4081              	.LASF55:
ARM GAS  /tmp/cck3ChAw.s 			page 75


 4082 0336 725F6375 		.ascii	"r_current\000"
 4082      7272656E 
 4082      7400
 4083              	.LASF53:
 4084 0340 725F6F6C 		.ascii	"r_older\000"
 4084      64657200 
 4085              	.LASF64:
 4086 0348 656C5F6D 		.ascii	"el_mask\000"
 4086      61736B00 
 4087              	.LASF82:
 4088 0350 68616E64 		.ascii	"handlers\000"
 4088      6C657273 
 4088      00
 4089              	.LASF17:
 4090 0359 74726566 		.ascii	"trefs_t\000"
 4090      735F7400 
 4091              	.LASF26:
 4092 0361 705F7072 		.ascii	"p_prev\000"
 4092      657600
 4093              	.LASF18:
 4094 0368 74707269 		.ascii	"tprio_t\000"
 4094      6F5F7400 
 4095              	.LASF76:
 4096 0370 63684576 		.ascii	"chEvtClearFlags\000"
 4096      74436C65 
 4096      6172466C 
 4096      61677300 
 4097              	.LASF13:
 4098 0380 696E7433 		.ascii	"int32_t\000"
 4098      325F7400 
 4099              	.LASF2:
 4100 0388 756E7369 		.ascii	"unsigned char\000"
 4100      676E6564 
 4100      20636861 
 4100      7200
 4101              	.LASF83:
 4102 0396 63684576 		.ascii	"chEvtWaitOne\000"
 4102      74576169 
 4102      744F6E65 
 4102      00
 4103              	.LASF63:
 4104 03a3 656C5F6C 		.ascii	"el_listener\000"
 4104      69737465 
 4104      6E657200 
 4105              	.LASF40:
 4106 03af 705F6D74 		.ascii	"p_mtxlist\000"
 4106      786C6973 
 4106      7400
 4107              	.LASF3:
 4108 03b9 73686F72 		.ascii	"short int\000"
 4108      7420696E 
 4108      7400
 4109              	.LASF32:
 4110 03c3 705F7374 		.ascii	"p_state\000"
 4110      61746500 
 4111              	.LASF50:
 4112 03cb 725F7072 		.ascii	"r_prio\000"
ARM GAS  /tmp/cck3ChAw.s 			page 76


 4112      696F00
 4113              	.LASF71:
 4114 03d2 65776D61 		.ascii	"ewmask\000"
 4114      736B00
 4115              	.LASF25:
 4116 03d9 705F6E65 		.ascii	"p_next\000"
 4116      787400
 4117              	.LASF33:
 4118 03e0 705F666C 		.ascii	"p_flags\000"
 4118      61677300 
 4119              	.LASF67:
 4120 03e8 65766861 		.ascii	"evhandler_t\000"
 4120      6E646C65 
 4120      725F7400 
 4121              	.LASF24:
 4122 03f4 54687265 		.ascii	"Thread\000"
 4122      616400
 4123              	.LASF91:
 4124 03fb 63685363 		.ascii	"chSchGoSleepS\000"
 4124      68476F53 
 4124      6C656570 
 4124      5300
 4125              	.LASF39:
 4126 0409 705F6570 		.ascii	"p_epending\000"
 4126      656E6469 
 4126      6E6700
 4127              	.LASF14:
 4128 0414 75696E74 		.ascii	"uint32_t\000"
 4128      33325F74 
 4128      00
 4129              	.LASF49:
 4130 041d 725F7175 		.ascii	"r_queue\000"
 4130      65756500 
 4131              	.LASF97:
 4132 0425 63685363 		.ascii	"chSchReadyI\000"
 4132      68526561 
 4132      64794900 
 4133              	.LASF72:
 4134 0431 63686172 		.ascii	"char\000"
 4134      00
 4135              	.LASF60:
 4136 0436 6D5F6E65 		.ascii	"m_next\000"
 4136      787400
 4137              	.LASF22:
 4138 043d 73797374 		.ascii	"systime_t\000"
 4138      696D655F 
 4138      7400
 4139              	.LASF41:
 4140 0447 705F7265 		.ascii	"p_realprio\000"
 4140      616C7072 
 4140      696F00
 4141              	.LASF6:
 4142 0452 5F5F696E 		.ascii	"__int32_t\000"
 4142      7433325F 
 4142      7400
 4143              	.LASF35:
 4144 045c 705F7469 		.ascii	"p_time\000"
ARM GAS  /tmp/cck3ChAw.s 			page 77


 4144      6D6500
 4145              	.LASF46:
 4146 0463 696E7463 		.ascii	"intctx\000"
 4146      747800
 4147              	.LASF37:
 4148 046a 705F6D73 		.ascii	"p_msgqueue\000"
 4148      67717565 
 4148      756500
 4149              	.LASF34:
 4150 0475 705F7265 		.ascii	"p_refs\000"
 4150      667300
 4151              	.LASF56:
 4152 047c 52656164 		.ascii	"ReadyList\000"
 4152      794C6973 
 4152      7400
 4153              	.LASF96:
 4154 0486 726C6973 		.ascii	"rlist\000"
 4154      7400
 4155              	.LASF12:
 4156 048c 75696E74 		.ascii	"uint8_t\000"
 4156      385F7400 
 4157              	.LASF61:
 4158 0494 4576656E 		.ascii	"EventListener\000"
 4158      744C6973 
 4158      74656E65 
 4158      7200
 4159              	.LASF86:
 4160 04a2 63684576 		.ascii	"chEvtWaitOneTimeout\000"
 4160      74576169 
 4160      744F6E65 
 4160      54696D65 
 4160      6F757400 
 4161              	.LASF70:
 4162 04b6 77746F62 		.ascii	"wtobjp\000"
 4162      6A7000
 4163              	.LASF31:
 4164 04bd 705F6E61 		.ascii	"p_name\000"
 4164      6D6500
 4165              	.LASF66:
 4166 04c4 65735F6E 		.ascii	"es_next\000"
 4166      65787400 
 4167              	.LASF92:
 4168 04cc 63685363 		.ascii	"chSchGoSleepTimeoutS\000"
 4168      68476F53 
 4168      6C656570 
 4168      54696D65 
 4168      6F757453 
 4169              	.LASF54:
 4170 04e1 725F7072 		.ascii	"r_preempt\000"
 4170      65656D70 
 4170      7400
 4171              	.LASF59:
 4172 04eb 6D5F6F77 		.ascii	"m_owner\000"
 4172      6E657200 
 4173              	.LASF28:
 4174 04f3 705F6374 		.ascii	"p_ctx\000"
 4174      7800
ARM GAS  /tmp/cck3ChAw.s 			page 78


 4175              	.LASF36:
 4176 04f9 705F7761 		.ascii	"p_waiting\000"
 4176      6974696E 
 4176      6700
 4177              		.ident	"GCC: (15:4.9.3+svn231177-1) 4.9.3 20150529 (prerelease)"
ARM GAS  /tmp/cck3ChAw.s 			page 79


DEFINED SYMBOLS
                            *ABS*:0000000000000000 chevents.c
     /tmp/cck3ChAw.s:19     .text.chEvtRegisterMask:0000000000000000 $t
     /tmp/cck3ChAw.s:25     .text.chEvtRegisterMask:0000000000000000 chEvtRegisterMask
     /tmp/cck3ChAw.s:78     .text.chEvtRegisterMask:0000000000000024 $d
     /tmp/cck3ChAw.s:83     .text.chEvtUnregister:0000000000000000 $t
     /tmp/cck3ChAw.s:89     .text.chEvtUnregister:0000000000000000 chEvtUnregister
     /tmp/cck3ChAw.s:147    .text.chEvtClearFlags:0000000000000000 $t
     /tmp/cck3ChAw.s:153    .text.chEvtClearFlags:0000000000000000 chEvtClearFlags
     /tmp/cck3ChAw.s:202    .text.chEvtClearFlags:0000000000000024 $d
     /tmp/cck3ChAw.s:207    .text.chEvtAddFlags:0000000000000000 $t
     /tmp/cck3ChAw.s:213    .text.chEvtAddFlags:0000000000000000 chEvtAddFlags
     /tmp/cck3ChAw.s:254    .text.chEvtAddFlags:0000000000000018 $d
     /tmp/cck3ChAw.s:259    .text.chEvtSignalFlagsI:0000000000000000 $t
     /tmp/cck3ChAw.s:265    .text.chEvtSignalFlagsI:0000000000000000 chEvtSignalFlagsI
     /tmp/cck3ChAw.s:325    .text.chEvtSignalFlags:0000000000000000 $t
     /tmp/cck3ChAw.s:331    .text.chEvtSignalFlags:0000000000000000 chEvtSignalFlags
     /tmp/cck3ChAw.s:369    .text.chEvtBroadcastFlagsI:0000000000000000 $t
     /tmp/cck3ChAw.s:375    .text.chEvtBroadcastFlagsI:0000000000000000 chEvtBroadcastFlagsI
     /tmp/cck3ChAw.s:419    .text.chEvtBroadcastFlags:0000000000000000 $t
     /tmp/cck3ChAw.s:425    .text.chEvtBroadcastFlags:0000000000000000 chEvtBroadcastFlags
     /tmp/cck3ChAw.s:463    .text.chEvtDispatch:0000000000000000 $t
     /tmp/cck3ChAw.s:469    .text.chEvtDispatch:0000000000000000 chEvtDispatch
     /tmp/cck3ChAw.s:528    .text.chEvtWaitOne:0000000000000000 $t
     /tmp/cck3ChAw.s:534    .text.chEvtWaitOne:0000000000000000 chEvtWaitOne
     /tmp/cck3ChAw.s:599    .text.chEvtWaitOne:0000000000000038 $d
     /tmp/cck3ChAw.s:604    .text.chEvtWaitAny:0000000000000000 $t
     /tmp/cck3ChAw.s:610    .text.chEvtWaitAny:0000000000000000 chEvtWaitAny
     /tmp/cck3ChAw.s:673    .text.chEvtWaitAny:0000000000000034 $d
     /tmp/cck3ChAw.s:678    .text.chEvtWaitAll:0000000000000000 $t
     /tmp/cck3ChAw.s:684    .text.chEvtWaitAll:0000000000000000 chEvtWaitAll
     /tmp/cck3ChAw.s:744    .text.chEvtWaitAll:0000000000000034 $d
     /tmp/cck3ChAw.s:749    .text.chEvtWaitOneTimeout:0000000000000000 $t
     /tmp/cck3ChAw.s:755    .text.chEvtWaitOneTimeout:0000000000000000 chEvtWaitOneTimeout
     /tmp/cck3ChAw.s:853    .text.chEvtWaitOneTimeout:0000000000000050 $d
     /tmp/cck3ChAw.s:858    .text.chEvtWaitAnyTimeout:0000000000000000 $t
     /tmp/cck3ChAw.s:864    .text.chEvtWaitAnyTimeout:0000000000000000 chEvtWaitAnyTimeout
     /tmp/cck3ChAw.s:960    .text.chEvtWaitAnyTimeout:0000000000000050 $d
     /tmp/cck3ChAw.s:965    .text.chEvtWaitAllTimeout:0000000000000000 $t
     /tmp/cck3ChAw.s:971    .text.chEvtWaitAllTimeout:0000000000000000 chEvtWaitAllTimeout
     /tmp/cck3ChAw.s:1062   .text.chEvtWaitAllTimeout:000000000000004c $d
                     .debug_frame:0000000000000010 $d

UNDEFINED SYMBOLS
rlist
chSchReadyI
chSchRescheduleS
chSchGoSleepS
chSchGoSleepTimeoutS
