ARM GAS  /tmp/cck3ChAw.s 			page 1


   1              		.syntax unified
   2              		.cpu cortex-m3
   3              		.fpu softvfp
   4              		.eabi_attribute 20, 1
   5              		.eabi_attribute 21, 1
   6              		.eabi_attribute 23, 3
   7              		.eabi_attribute 24, 1
   8              		.eabi_attribute 25, 1
   9              		.eabi_attribute 26, 1
  10              		.eabi_attribute 30, 2
  11              		.eabi_attribute 34, 1
  12              		.eabi_attribute 18, 4
  13              		.thumb
  14              		.file	"chevents.c"
  15              		.text
  16              	.Ltext0:
  17              		.cfi_sections	.debug_frame
  18              		.section	.text.chEvtRegisterMask,"ax",%progbits
  19              		.align	2
  20              		.p2align 4,,15
  21              		.global	chEvtRegisterMask
  22              		.thumb
  23              		.thumb_func
  24              		.type	chEvtRegisterMask, %function
  25              	chEvtRegisterMask:
  26              	.LFB7:
  27              		.file 1 "ChibiOS//os/kernel/src/chevents.c"
  28              		.loc 1 82 0
  29              		.cfi_startproc
  30              		@ args = 0, pretend = 0, frame = 0
  31              		@ frame_needed = 0, uses_anonymous_args = 0
  32              		@ link register save eliminated.
  33              	.LVL0:
  34 0000 10B4     		push	{r4}
  35              		.cfi_def_cfa_offset 4
  36              		.cfi_offset 4, -4
  37              	.LBB2:
  38              		.loc 1 86 0
  39 0002 2023     		movs	r3, #32
  40              	@ 86 "ChibiOS//os/kernel/src/chevents.c" 1
  41 0004 83F31188 		msr     BASEPRI, r3
  42              	@ 0 "" 2
  43              		.thumb
  44              	.LBE2:
  45              		.loc 1 89 0
  46 0008 064C     		ldr	r4, .L3
  47              		.loc 1 87 0
  48 000a 0368     		ldr	r3, [r0]
  49              		.loc 1 89 0
  50 000c E469     		ldr	r4, [r4, #28]
  51              		.loc 1 87 0
  52 000e 0B60     		str	r3, [r1]
  53              		.loc 1 88 0
  54 0010 0160     		str	r1, [r0]
  55              	.LBB3:
  56              		.loc 1 91 0
  57 0012 0023     		movs	r3, #0
ARM GAS  /tmp/cck3ChAw.s 			page 2


  58              	.LBE3:
  59              		.loc 1 89 0
  60 0014 4C60     		str	r4, [r1, #4]
  61              		.loc 1 90 0
  62 0016 8A60     		str	r2, [r1, #8]
  63              	.LBB4:
  64              		.loc 1 91 0
  65              	@ 91 "ChibiOS//os/kernel/src/chevents.c" 1
  66 0018 83F31188 		msr     BASEPRI, r3
  67              	@ 0 "" 2
  68              		.thumb
  69              	.LBE4:
  70              		.loc 1 92 0
  71 001c 5DF8044B 		ldr	r4, [sp], #4
  72              		.cfi_restore 4
  73              		.cfi_def_cfa_offset 0
  74 0020 7047     		bx	lr
  75              	.L4:
  76 0022 00BF     		.align	2
  77              	.L3:
  78 0024 00000000 		.word	rlist
  79              		.cfi_endproc
  80              	.LFE7:
  81              		.size	chEvtRegisterMask, .-chEvtRegisterMask
  82              		.section	.text.chEvtUnregister,"ax",%progbits
  83              		.align	2
  84              		.p2align 4,,15
  85              		.global	chEvtUnregister
  86              		.thumb
  87              		.thumb_func
  88              		.type	chEvtUnregister, %function
  89              	chEvtUnregister:
  90              	.LFB8:
  91              		.loc 1 107 0
  92              		.cfi_startproc
  93              		@ args = 0, pretend = 0, frame = 0
  94              		@ frame_needed = 0, uses_anonymous_args = 0
  95              		@ link register save eliminated.
  96              	.LVL1:
  97              	.LBB5:
  98              		.loc 1 113 0
  99 0000 2023     		movs	r3, #32
 100              	@ 113 "ChibiOS//os/kernel/src/chevents.c" 1
 101 0002 83F31188 		msr     BASEPRI, r3
 102              	@ 0 "" 2
 103              		.thumb
 104              	.LBE5:
 105              		.loc 1 112 0
 106 0006 0246     		mov	r2, r0
 107              		.loc 1 114 0
 108 0008 02E0     		b	.L6
 109              	.LVL2:
 110              	.L8:
 111              		.loc 1 115 0
 112 000a 9942     		cmp	r1, r3
 113 000c 07D0     		beq	.L11
 114 000e 1A46     		mov	r2, r3
ARM GAS  /tmp/cck3ChAw.s 			page 3


 115              	.LVL3:
 116              	.L6:
 117              		.loc 1 114 0
 118 0010 1368     		ldr	r3, [r2]
 119 0012 8342     		cmp	r3, r0
 120 0014 F9D1     		bne	.L8
 121              	.LBB6:
 122              		.loc 1 121 0
 123 0016 0023     		movs	r3, #0
 124              	@ 121 "ChibiOS//os/kernel/src/chevents.c" 1
 125 0018 83F31188 		msr     BASEPRI, r3
 126              	@ 0 "" 2
 127              		.thumb
 128 001c 7047     		bx	lr
 129              	.L11:
 130              	.LBE6:
 131              		.loc 1 116 0
 132 001e 0B68     		ldr	r3, [r1]
 133 0020 1360     		str	r3, [r2]
 134              	.LBB7:
 135              		.loc 1 121 0
 136 0022 0023     		movs	r3, #0
 137              	@ 121 "ChibiOS//os/kernel/src/chevents.c" 1
 138 0024 83F31188 		msr     BASEPRI, r3
 139              	@ 0 "" 2
 140              		.thumb
 141 0028 7047     		bx	lr
 142              	.LBE7:
 143              		.cfi_endproc
 144              	.LFE8:
 145              		.size	chEvtUnregister, .-chEvtUnregister
 146 002a 00BF     		.section	.text.chEvtClearFlags,"ax",%progbits
 147              		.align	2
 148              		.p2align 4,,15
 149              		.global	chEvtClearFlags
 150              		.thumb
 151              		.thumb_func
 152              		.type	chEvtClearFlags, %function
 153              	chEvtClearFlags:
 154              	.LFB9:
 155              		.loc 1 132 0
 156              		.cfi_startproc
 157              		@ args = 0, pretend = 0, frame = 0
 158              		@ frame_needed = 0, uses_anonymous_args = 0
 159              		@ link register save eliminated.
 160              	.LVL4:
 161 0000 10B4     		push	{r4}
 162              		.cfi_def_cfa_offset 4
 163              		.cfi_offset 4, -4
 164              	.LBB8:
 165              		.loc 1 135 0
 166 0002 2023     		movs	r3, #32
 167              	@ 135 "ChibiOS//os/kernel/src/chevents.c" 1
 168 0004 83F31188 		msr     BASEPRI, r3
 169              	@ 0 "" 2
 170              		.thumb
 171              	.LBE8:
ARM GAS  /tmp/cck3ChAw.s 			page 4


 172              		.loc 1 137 0
 173 0008 064A     		ldr	r2, .L14
 174              	.LBB9:
 175              		.loc 1 140 0
 176 000a 0023     		movs	r3, #0
 177              	.LBE9:
 178              		.loc 1 137 0
 179 000c D169     		ldr	r1, [r2, #28]
 180 000e 8A6B     		ldr	r2, [r1, #56]
 181              	.LVL5:
 182              		.loc 1 138 0
 183 0010 22EA0004 		bic	r4, r2, r0
 184 0014 8C63     		str	r4, [r1, #56]
 185              	.LBB10:
 186              		.loc 1 140 0
 187              	@ 140 "ChibiOS//os/kernel/src/chevents.c" 1
 188 0016 83F31188 		msr     BASEPRI, r3
 189              	@ 0 "" 2
 190              		.thumb
 191              	.LBE10:
 192              		.loc 1 142 0
 193 001a 1040     		ands	r0, r0, r2
 194              	.LVL6:
 195 001c 5DF8044B 		ldr	r4, [sp], #4
 196              		.cfi_restore 4
 197              		.cfi_def_cfa_offset 0
 198 0020 7047     		bx	lr
 199              	.L15:
 200 0022 00BF     		.align	2
 201              	.L14:
 202 0024 00000000 		.word	rlist
 203              		.cfi_endproc
 204              	.LFE9:
 205              		.size	chEvtClearFlags, .-chEvtClearFlags
 206              		.section	.text.chEvtAddFlags,"ax",%progbits
 207              		.align	2
 208              		.p2align 4,,15
 209              		.global	chEvtAddFlags
 210              		.thumb
 211              		.thumb_func
 212              		.type	chEvtAddFlags, %function
 213              	chEvtAddFlags:
 214              	.LFB10:
 215              		.loc 1 153 0
 216              		.cfi_startproc
 217              		@ args = 0, pretend = 0, frame = 0
 218              		@ frame_needed = 0, uses_anonymous_args = 0
 219              		@ link register save eliminated.
 220              	.LVL7:
 221              	.LBB11:
 222              		.loc 1 155 0
 223 0000 2023     		movs	r3, #32
 224              	@ 155 "ChibiOS//os/kernel/src/chevents.c" 1
 225 0002 83F31188 		msr     BASEPRI, r3
 226              	@ 0 "" 2
 227              		.thumb
 228              	.LBE11:
ARM GAS  /tmp/cck3ChAw.s 			page 5


 229              		.loc 1 157 0
 230 0006 044A     		ldr	r2, .L17
 231              	.LBB12:
 232              		.loc 1 159 0
 233 0008 0023     		movs	r3, #0
 234              	.LBE12:
 235              		.loc 1 157 0
 236 000a D169     		ldr	r1, [r2, #28]
 237 000c 8A6B     		ldr	r2, [r1, #56]
 238 000e 1043     		orrs	r0, r0, r2
 239              	.LVL8:
 240 0010 8863     		str	r0, [r1, #56]
 241              	.LVL9:
 242              	.LBB13:
 243              		.loc 1 159 0
 244              	@ 159 "ChibiOS//os/kernel/src/chevents.c" 1
 245 0012 83F31188 		msr     BASEPRI, r3
 246              	@ 0 "" 2
 247              		.thumb
 248              	.LBE13:
 249              		.loc 1 161 0
 250 0016 7047     		bx	lr
 251              	.L18:
 252              		.align	2
 253              	.L17:
 254 0018 00000000 		.word	rlist
 255              		.cfi_endproc
 256              	.LFE10:
 257              		.size	chEvtAddFlags, .-chEvtAddFlags
 258              		.section	.text.chEvtSignalFlagsI,"ax",%progbits
 259              		.align	2
 260              		.p2align 4,,15
 261              		.global	chEvtSignalFlagsI
 262              		.thumb
 263              		.thumb_func
 264              		.type	chEvtSignalFlagsI, %function
 265              	chEvtSignalFlagsI:
 266              	.LFB12:
 267              		.loc 1 193 0
 268              		.cfi_startproc
 269              		@ args = 0, pretend = 0, frame = 0
 270              		@ frame_needed = 0, uses_anonymous_args = 0
 271              	.LVL10:
 272 0000 08B5     		push	{r3, lr}
 273              		.cfi_def_cfa_offset 8
 274              		.cfi_offset 3, -8
 275              		.cfi_offset 14, -4
 276              		.loc 1 198 0
 277 0002 836B     		ldr	r3, [r0, #56]
 278              		.loc 1 200 0
 279 0004 027F     		ldrb	r2, [r0, #28]	@ zero_extendqisi2
 280              		.loc 1 198 0
 281 0006 1943     		orrs	r1, r1, r3
 282              	.LVL11:
 283              		.loc 1 200 0
 284 0008 082A     		cmp	r2, #8
 285              		.loc 1 198 0
ARM GAS  /tmp/cck3ChAw.s 			page 6


 286 000a 8163     		str	r1, [r0, #56]
 287              		.loc 1 200 0
 288 000c 0BD0     		beq	.L24
 289              		.loc 1 201 0
 290 000e 092A     		cmp	r2, #9
 291 0010 00D0     		beq	.L25
 292              	.L19:
 293 0012 08BD     		pop	{r3, pc}
 294              	.L25:
 295              		.loc 1 203 0
 296 0014 436A     		ldr	r3, [r0, #36]
 297 0016 1940     		ands	r1, r1, r3
 298              		.loc 1 202 0
 299 0018 8B42     		cmp	r3, r1
 300 001a FAD1     		bne	.L19
 301              	.L21:
 302              	.LVL12:
 303              	.LBB16:
 304              	.LBB17:
 305              		.loc 1 204 0
 306 001c FFF7FEFF 		bl	chSchReadyI
 307              	.LVL13:
 308 0020 0023     		movs	r3, #0
 309 0022 4362     		str	r3, [r0, #36]
 310 0024 08BD     		pop	{r3, pc}
 311              	.LVL14:
 312              	.L24:
 313              	.LBE17:
 314              	.LBE16:
 315              		.loc 1 201 0 discriminator 1
 316 0026 436A     		ldr	r3, [r0, #36]
 317              		.loc 1 200 0 discriminator 1
 318 0028 1942     		tst	r1, r3
 319 002a F7D1     		bne	.L21
 320 002c 08BD     		pop	{r3, pc}
 321              		.cfi_endproc
 322              	.LFE12:
 323              		.size	chEvtSignalFlagsI, .-chEvtSignalFlagsI
 324 002e 00BF     		.section	.text.chEvtSignalFlags,"ax",%progbits
 325              		.align	2
 326              		.p2align 4,,15
 327              		.global	chEvtSignalFlags
 328              		.thumb
 329              		.thumb_func
 330              		.type	chEvtSignalFlags, %function
 331              	chEvtSignalFlags:
 332              	.LFB11:
 333              		.loc 1 171 0
 334              		.cfi_startproc
 335              		@ args = 0, pretend = 0, frame = 0
 336              		@ frame_needed = 0, uses_anonymous_args = 0
 337              	.LVL15:
 338 0000 08B5     		push	{r3, lr}
 339              		.cfi_def_cfa_offset 8
 340              		.cfi_offset 3, -8
 341              		.cfi_offset 14, -4
 342              	.LBB18:
ARM GAS  /tmp/cck3ChAw.s 			page 7


 343              		.loc 1 175 0
 344 0002 2023     		movs	r3, #32
 345              	@ 175 "ChibiOS//os/kernel/src/chevents.c" 1
 346 0004 83F31188 		msr     BASEPRI, r3
 347              	@ 0 "" 2
 348              		.thumb
 349              	.LBE18:
 350              		.loc 1 176 0
 351 0008 FFF7FEFF 		bl	chEvtSignalFlagsI
 352              	.LVL16:
 353              		.loc 1 177 0
 354 000c FFF7FEFF 		bl	chSchRescheduleS
 355              	.LVL17:
 356              	.LBB19:
 357              		.loc 1 178 0
 358 0010 0023     		movs	r3, #0
 359              	@ 178 "ChibiOS//os/kernel/src/chevents.c" 1
 360 0012 83F31188 		msr     BASEPRI, r3
 361              	@ 0 "" 2
 362              		.thumb
 363 0016 08BD     		pop	{r3, pc}
 364              	.LBE19:
 365              		.cfi_endproc
 366              	.LFE11:
 367              		.size	chEvtSignalFlags, .-chEvtSignalFlags
 368              		.section	.text.chEvtBroadcastFlagsI,"ax",%progbits
 369              		.align	2
 370              		.p2align 4,,15
 371              		.global	chEvtBroadcastFlagsI
 372              		.thumb
 373              		.thumb_func
 374              		.type	chEvtBroadcastFlagsI, %function
 375              	chEvtBroadcastFlagsI:
 376              	.LFB14:
 377              		.loc 1 245 0
 378              		.cfi_startproc
 379              		@ args = 0, pretend = 0, frame = 0
 380              		@ frame_needed = 0, uses_anonymous_args = 0
 381              	.LVL18:
 382 0000 70B5     		push	{r4, r5, r6, lr}
 383              		.cfi_def_cfa_offset 16
 384              		.cfi_offset 4, -16
 385              		.cfi_offset 5, -12
 386              		.cfi_offset 6, -8
 387              		.cfi_offset 14, -4
 388              		.loc 1 251 0
 389 0002 0468     		ldr	r4, [r0]
 390              	.LVL19:
 391              		.loc 1 245 0
 392 0004 0546     		mov	r5, r0
 393              		.loc 1 252 0
 394 0006 A042     		cmp	r0, r4
 395              		.loc 1 245 0
 396 0008 0E46     		mov	r6, r1
 397              		.loc 1 252 0
 398 000a 07D0     		beq	.L28
 399              	.LVL20:
ARM GAS  /tmp/cck3ChAw.s 			page 8


 400              	.L30:
 401              		.loc 1 253 0
 402 000c A168     		ldr	r1, [r4, #8]
 403 000e 6068     		ldr	r0, [r4, #4]
 404 0010 3143     		orrs	r1, r1, r6
 405 0012 FFF7FEFF 		bl	chEvtSignalFlagsI
 406              	.LVL21:
 407              		.loc 1 254 0
 408 0016 2468     		ldr	r4, [r4]
 409              	.LVL22:
 410              		.loc 1 252 0
 411 0018 A542     		cmp	r5, r4
 412 001a F7D1     		bne	.L30
 413              	.L28:
 414 001c 70BD     		pop	{r4, r5, r6, pc}
 415              		.cfi_endproc
 416              	.LFE14:
 417              		.size	chEvtBroadcastFlagsI, .-chEvtBroadcastFlagsI
 418 001e 00BF     		.section	.text.chEvtBroadcastFlags,"ax",%progbits
 419              		.align	2
 420              		.p2align 4,,15
 421              		.global	chEvtBroadcastFlags
 422              		.thumb
 423              		.thumb_func
 424              		.type	chEvtBroadcastFlags, %function
 425              	chEvtBroadcastFlags:
 426              	.LFB13:
 427              		.loc 1 220 0
 428              		.cfi_startproc
 429              		@ args = 0, pretend = 0, frame = 0
 430              		@ frame_needed = 0, uses_anonymous_args = 0
 431              	.LVL23:
 432 0000 08B5     		push	{r3, lr}
 433              		.cfi_def_cfa_offset 8
 434              		.cfi_offset 3, -8
 435              		.cfi_offset 14, -4
 436              	.LBB20:
 437              		.loc 1 222 0
 438 0002 2023     		movs	r3, #32
 439              	@ 222 "ChibiOS//os/kernel/src/chevents.c" 1
 440 0004 83F31188 		msr     BASEPRI, r3
 441              	@ 0 "" 2
 442              		.thumb
 443              	.LBE20:
 444              		.loc 1 223 0
 445 0008 FFF7FEFF 		bl	chEvtBroadcastFlagsI
 446              	.LVL24:
 447              		.loc 1 224 0
 448 000c FFF7FEFF 		bl	chSchRescheduleS
 449              	.LVL25:
 450              	.LBB21:
 451              		.loc 1 225 0
 452 0010 0023     		movs	r3, #0
 453              	@ 225 "ChibiOS//os/kernel/src/chevents.c" 1
 454 0012 83F31188 		msr     BASEPRI, r3
 455              	@ 0 "" 2
 456              		.thumb
ARM GAS  /tmp/cck3ChAw.s 			page 9


 457 0016 08BD     		pop	{r3, pc}
 458              	.LBE21:
 459              		.cfi_endproc
 460              	.LFE13:
 461              		.size	chEvtBroadcastFlags, .-chEvtBroadcastFlags
 462              		.section	.text.chEvtDispatch,"ax",%progbits
 463              		.align	2
 464              		.p2align 4,,15
 465              		.global	chEvtDispatch
 466              		.thumb
 467              		.thumb_func
 468              		.type	chEvtDispatch, %function
 469              	chEvtDispatch:
 470              	.LFB15:
 471              		.loc 1 267 0
 472              		.cfi_startproc
 473              		@ args = 0, pretend = 0, frame = 0
 474              		@ frame_needed = 0, uses_anonymous_args = 0
 475              	.LVL26:
 476 0000 F8B5     		push	{r3, r4, r5, r6, r7, lr}
 477              		.cfi_def_cfa_offset 24
 478              		.cfi_offset 3, -24
 479              		.cfi_offset 4, -20
 480              		.cfi_offset 5, -16
 481              		.cfi_offset 6, -12
 482              		.cfi_offset 7, -8
 483              		.cfi_offset 14, -4
 484              		.loc 1 273 0
 485 0002 0D46     		mov	r5, r1
 486 0004 A9B1     		cbz	r1, .L36
 487 0006 0746     		mov	r7, r0
 488 0008 0024     		movs	r4, #0
 489              		.loc 1 274 0
 490 000a 0126     		movs	r6, #1
 491              	.LVL27:
 492              	.L38:
 493 000c 06FA04F3 		lsl	r3, r6, r4
 494 0010 2B42     		tst	r3, r5
 495 0012 04D1     		bne	.L43
 496              	.L39:
 497              		.loc 1 281 0
 498 0014 0134     		adds	r4, r4, #1
 499              	.LVL28:
 500              		.loc 1 274 0
 501 0016 06FA04F3 		lsl	r3, r6, r4
 502 001a 2B42     		tst	r3, r5
 503 001c FAD0     		beq	.L39
 504              	.L43:
 505              		.loc 1 279 0
 506 001e 2046     		mov	r0, r4
 507              		.loc 1 278 0
 508 0020 25EA0305 		bic	r5, r5, r3
 509              	.LVL29:
 510              		.loc 1 279 0
 511 0024 57F82430 		ldr	r3, [r7, r4, lsl #2]
 512 0028 9847     		blx	r3
 513              	.LVL30:
ARM GAS  /tmp/cck3ChAw.s 			page 10


 514              		.loc 1 281 0
 515 002a 0134     		adds	r4, r4, #1
 516              	.LVL31:
 517              		.loc 1 273 0
 518 002c 002D     		cmp	r5, #0
 519 002e EDD1     		bne	.L38
 520 0030 F8BD     		pop	{r3, r4, r5, r6, r7, pc}
 521              	.LVL32:
 522              	.L36:
 523 0032 F8BD     		pop	{r3, r4, r5, r6, r7, pc}
 524              		.cfi_endproc
 525              	.LFE15:
 526              		.size	chEvtDispatch, .-chEvtDispatch
 527              		.section	.text.chEvtWaitOne,"ax",%progbits
 528              		.align	2
 529              		.p2align 4,,15
 530              		.global	chEvtWaitOne
 531              		.thumb
 532              		.thumb_func
 533              		.type	chEvtWaitOne, %function
 534              	chEvtWaitOne:
 535              	.LFB16:
 536              		.loc 1 302 0
 537              		.cfi_startproc
 538              		@ args = 0, pretend = 0, frame = 0
 539              		@ frame_needed = 0, uses_anonymous_args = 0
 540              	.LVL33:
 541 0000 38B5     		push	{r3, r4, r5, lr}
 542              		.cfi_def_cfa_offset 16
 543              		.cfi_offset 3, -16
 544              		.cfi_offset 4, -12
 545              		.cfi_offset 5, -8
 546              		.cfi_offset 14, -4
 547              		.loc 1 303 0
 548 0002 0D4B     		ldr	r3, .L47
 549 0004 DD69     		ldr	r5, [r3, #28]
 550              	.LVL34:
 551              	.LBB22:
 552              		.loc 1 306 0
 553 0006 2023     		movs	r3, #32
 554              	@ 306 "ChibiOS//os/kernel/src/chevents.c" 1
 555 0008 83F31188 		msr     BASEPRI, r3
 556              	@ 0 "" 2
 557              		.thumb
 558              	.LBE22:
 559              		.loc 1 308 0
 560 000c AB6B     		ldr	r3, [r5, #56]
 561              	.LVL35:
 562 000e 10EA0302 		ands	r2, r0, r3
 563              	.LVL36:
 564 0012 07D1     		bne	.L45
 565 0014 0446     		mov	r4, r0
 566              		.loc 1 309 0
 567 0016 6862     		str	r0, [r5, #36]
 568              		.loc 1 310 0
 569 0018 0820     		movs	r0, #8
 570              	.LVL37:
ARM GAS  /tmp/cck3ChAw.s 			page 11


 571 001a FFF7FEFF 		bl	chSchGoSleepS
 572              	.LVL38:
 573              		.loc 1 311 0
 574 001e AB6B     		ldr	r3, [r5, #56]
 575 0020 04EA0302 		and	r2, r4, r3
 576              	.LVL39:
 577              	.L45:
 578              		.loc 1 313 0
 579 0024 5042     		negs	r0, r2
 580 0026 1040     		ands	r0, r0, r2
 581              	.LVL40:
 582              		.loc 1 314 0
 583 0028 23EA0003 		bic	r3, r3, r0
 584 002c AB63     		str	r3, [r5, #56]
 585              	.LBB23:
 586              		.loc 1 316 0
 587 002e 0023     		movs	r3, #0
 588              	@ 316 "ChibiOS//os/kernel/src/chevents.c" 1
 589 0030 83F31188 		msr     BASEPRI, r3
 590              	@ 0 "" 2
 591              		.thumb
 592              	.LBE23:
 593              		.loc 1 318 0
 594 0034 38BD     		pop	{r3, r4, r5, pc}
 595              	.LVL41:
 596              	.L48:
 597 0036 00BF     		.align	2
 598              	.L47:
 599 0038 00000000 		.word	rlist
 600              		.cfi_endproc
 601              	.LFE16:
 602              		.size	chEvtWaitOne, .-chEvtWaitOne
 603              		.section	.text.chEvtWaitAny,"ax",%progbits
 604              		.align	2
 605              		.p2align 4,,15
 606              		.global	chEvtWaitAny
 607              		.thumb
 608              		.thumb_func
 609              		.type	chEvtWaitAny, %function
 610              	chEvtWaitAny:
 611              	.LFB17:
 612              		.loc 1 331 0
 613              		.cfi_startproc
 614              		@ args = 0, pretend = 0, frame = 0
 615              		@ frame_needed = 0, uses_anonymous_args = 0
 616              	.LVL42:
 617 0000 38B5     		push	{r3, r4, r5, lr}
 618              		.cfi_def_cfa_offset 16
 619              		.cfi_offset 3, -16
 620              		.cfi_offset 4, -12
 621              		.cfi_offset 5, -8
 622              		.cfi_offset 14, -4
 623              		.loc 1 332 0
 624 0002 0C4B     		ldr	r3, .L52
 625 0004 DD69     		ldr	r5, [r3, #28]
 626              	.LVL43:
 627              	.LBB24:
ARM GAS  /tmp/cck3ChAw.s 			page 12


 628              		.loc 1 335 0
 629 0006 2023     		movs	r3, #32
 630              	@ 335 "ChibiOS//os/kernel/src/chevents.c" 1
 631 0008 83F31188 		msr     BASEPRI, r3
 632              	@ 0 "" 2
 633              		.thumb
 634              	.LBE24:
 635              		.loc 1 337 0
 636 000c AB6B     		ldr	r3, [r5, #56]
 637              	.LVL44:
 638 000e 10EA0304 		ands	r4, r0, r3
 639              	.LVL45:
 640 0012 06D1     		bne	.L50
 641 0014 0446     		mov	r4, r0
 642              	.LVL46:
 643              		.loc 1 338 0
 644 0016 6862     		str	r0, [r5, #36]
 645              		.loc 1 339 0
 646 0018 0820     		movs	r0, #8
 647              	.LVL47:
 648 001a FFF7FEFF 		bl	chSchGoSleepS
 649              	.LVL48:
 650              		.loc 1 340 0
 651 001e AB6B     		ldr	r3, [r5, #56]
 652 0020 1C40     		ands	r4, r4, r3
 653              	.LVL49:
 654              	.L50:
 655              		.loc 1 342 0
 656 0022 23EA0403 		bic	r3, r3, r4
 657 0026 AB63     		str	r3, [r5, #56]
 658              	.LBB25:
 659              		.loc 1 344 0
 660 0028 0023     		movs	r3, #0
 661              	@ 344 "ChibiOS//os/kernel/src/chevents.c" 1
 662 002a 83F31188 		msr     BASEPRI, r3
 663              	@ 0 "" 2
 664              		.thumb
 665              	.LBE25:
 666              		.loc 1 346 0
 667 002e 2046     		mov	r0, r4
 668 0030 38BD     		pop	{r3, r4, r5, pc}
 669              	.LVL50:
 670              	.L53:
 671 0032 00BF     		.align	2
 672              	.L52:
 673 0034 00000000 		.word	rlist
 674              		.cfi_endproc
 675              	.LFE17:
 676              		.size	chEvtWaitAny, .-chEvtWaitAny
 677              		.section	.text.chEvtWaitAll,"ax",%progbits
 678              		.align	2
 679              		.p2align 4,,15
 680              		.global	chEvtWaitAll
 681              		.thumb
 682              		.thumb_func
 683              		.type	chEvtWaitAll, %function
 684              	chEvtWaitAll:
ARM GAS  /tmp/cck3ChAw.s 			page 13


 685              	.LFB18:
 686              		.loc 1 359 0
 687              		.cfi_startproc
 688              		@ args = 0, pretend = 0, frame = 0
 689              		@ frame_needed = 0, uses_anonymous_args = 0
 690              	.LVL51:
 691 0000 38B5     		push	{r3, r4, r5, lr}
 692              		.cfi_def_cfa_offset 16
 693              		.cfi_offset 3, -16
 694              		.cfi_offset 4, -12
 695              		.cfi_offset 5, -8
 696              		.cfi_offset 14, -4
 697              		.loc 1 360 0
 698 0002 0C4B     		ldr	r3, .L57
 699              		.loc 1 359 0
 700 0004 0446     		mov	r4, r0
 701              		.loc 1 360 0
 702 0006 DD69     		ldr	r5, [r3, #28]
 703              	.LVL52:
 704              	.LBB26:
 705              		.loc 1 362 0
 706 0008 2023     		movs	r3, #32
 707              	@ 362 "ChibiOS//os/kernel/src/chevents.c" 1
 708 000a 83F31188 		msr     BASEPRI, r3
 709              	@ 0 "" 2
 710              		.thumb
 711              	.LBE26:
 712              		.loc 1 364 0
 713 000e AB6B     		ldr	r3, [r5, #56]
 714 0010 00EA0302 		and	r2, r0, r3
 715 0014 8242     		cmp	r2, r0
 716 0016 04D0     		beq	.L55
 717              		.loc 1 365 0
 718 0018 6862     		str	r0, [r5, #36]
 719              		.loc 1 366 0
 720 001a 0920     		movs	r0, #9
 721              	.LVL53:
 722 001c FFF7FEFF 		bl	chSchGoSleepS
 723              	.LVL54:
 724 0020 AB6B     		ldr	r3, [r5, #56]
 725              	.L55:
 726              		.loc 1 368 0
 727 0022 23EA0403 		bic	r3, r3, r4
 728 0026 AB63     		str	r3, [r5, #56]
 729              	.LBB27:
 730              		.loc 1 370 0
 731 0028 0023     		movs	r3, #0
 732              	@ 370 "ChibiOS//os/kernel/src/chevents.c" 1
 733 002a 83F31188 		msr     BASEPRI, r3
 734              	@ 0 "" 2
 735              		.thumb
 736              	.LBE27:
 737              		.loc 1 372 0
 738 002e 2046     		mov	r0, r4
 739 0030 38BD     		pop	{r3, r4, r5, pc}
 740              	.LVL55:
 741              	.L58:
ARM GAS  /tmp/cck3ChAw.s 			page 14


 742 0032 00BF     		.align	2
 743              	.L57:
 744 0034 00000000 		.word	rlist
 745              		.cfi_endproc
 746              	.LFE18:
 747              		.size	chEvtWaitAll, .-chEvtWaitAll
 748              		.section	.text.chEvtWaitOneTimeout,"ax",%progbits
 749              		.align	2
 750              		.p2align 4,,15
 751              		.global	chEvtWaitOneTimeout
 752              		.thumb
 753              		.thumb_func
 754              		.type	chEvtWaitOneTimeout, %function
 755              	chEvtWaitOneTimeout:
 756              	.LFB19:
 757              		.loc 1 398 0
 758              		.cfi_startproc
 759              		@ args = 0, pretend = 0, frame = 0
 760              		@ frame_needed = 0, uses_anonymous_args = 0
 761              	.LVL56:
 762              		.loc 1 399 0
 763 0000 134B     		ldr	r3, .L66
 764              		.loc 1 398 0
 765 0002 70B5     		push	{r4, r5, r6, lr}
 766              		.cfi_def_cfa_offset 16
 767              		.cfi_offset 4, -16
 768              		.cfi_offset 5, -12
 769              		.cfi_offset 6, -8
 770              		.cfi_offset 14, -4
 771              		.loc 1 399 0
 772 0004 DE69     		ldr	r6, [r3, #28]
 773              	.LVL57:
 774              	.LBB28:
 775              		.loc 1 402 0
 776 0006 2023     		movs	r3, #32
 777              	@ 402 "ChibiOS//os/kernel/src/chevents.c" 1
 778 0008 83F31188 		msr     BASEPRI, r3
 779              	@ 0 "" 2
 780              		.thumb
 781              	.LBE28:
 782              		.loc 1 404 0
 783 000c B26B     		ldr	r2, [r6, #56]
 784              	.LVL58:
 785 000e 10EA0204 		ands	r4, r0, r2
 786              	.LVL59:
 787 0012 0FD1     		bne	.L60
 788              		.loc 1 405 0
 789 0014 21B9     		cbnz	r1, .L61
 790              	.LBB29:
 791              		.loc 1 406 0
 792 0016 0B46     		mov	r3, r1
 793              	@ 406 "ChibiOS//os/kernel/src/chevents.c" 1
 794 0018 83F31188 		msr     BASEPRI, r3
 795              	@ 0 "" 2
 796              		.thumb
 797              	.LBE29:
 798              		.loc 1 407 0
ARM GAS  /tmp/cck3ChAw.s 			page 15


 799 001c 0846     		mov	r0, r1
 800              	.LVL60:
 801 001e 70BD     		pop	{r4, r5, r6, pc}
 802              	.LVL61:
 803              	.L61:
 804              		.loc 1 409 0
 805 0020 7062     		str	r0, [r6, #36]
 806 0022 0546     		mov	r5, r0
 807              		.loc 1 410 0
 808 0024 0820     		movs	r0, #8
 809              	.LVL62:
 810 0026 FFF7FEFF 		bl	chSchGoSleepTimeoutS
 811              	.LVL63:
 812 002a 0028     		cmp	r0, #0
 813 002c 0BDB     		blt	.L65
 814              		.loc 1 414 0
 815 002e B26B     		ldr	r2, [r6, #56]
 816 0030 05EA0204 		and	r4, r5, r2
 817              	.LVL64:
 818              	.L60:
 819              		.loc 1 416 0
 820 0034 6042     		negs	r0, r4
 821 0036 2040     		ands	r0, r0, r4
 822              	.LVL65:
 823              		.loc 1 417 0
 824 0038 22EA0002 		bic	r2, r2, r0
 825 003c B263     		str	r2, [r6, #56]
 826              	.LBB30:
 827              		.loc 1 419 0
 828 003e 0023     		movs	r3, #0
 829              	@ 419 "ChibiOS//os/kernel/src/chevents.c" 1
 830 0040 83F31188 		msr     BASEPRI, r3
 831              	@ 0 "" 2
 832              		.thumb
 833              	.LBE30:
 834              		.loc 1 421 0
 835 0044 70BD     		pop	{r4, r5, r6, pc}
 836              	.LVL66:
 837              	.L65:
 838              	.LBB31:
 839              		.loc 1 411 0
 840 0046 2346     		mov	r3, r4
 841              	@ 411 "ChibiOS//os/kernel/src/chevents.c" 1
 842 0048 83F31188 		msr     BASEPRI, r3
 843              	@ 0 "" 2
 844              		.thumb
 845              	.LBE31:
 846              		.loc 1 412 0
 847 004c 2046     		mov	r0, r4
 848 004e 70BD     		pop	{r4, r5, r6, pc}
 849              	.LVL67:
 850              	.L67:
 851              		.align	2
 852              	.L66:
 853 0050 00000000 		.word	rlist
 854              		.cfi_endproc
 855              	.LFE19:
ARM GAS  /tmp/cck3ChAw.s 			page 16


 856              		.size	chEvtWaitOneTimeout, .-chEvtWaitOneTimeout
 857              		.section	.text.chEvtWaitAnyTimeout,"ax",%progbits
 858              		.align	2
 859              		.p2align 4,,15
 860              		.global	chEvtWaitAnyTimeout
 861              		.thumb
 862              		.thumb_func
 863              		.type	chEvtWaitAnyTimeout, %function
 864              	chEvtWaitAnyTimeout:
 865              	.LFB20:
 866              		.loc 1 441 0
 867              		.cfi_startproc
 868              		@ args = 0, pretend = 0, frame = 0
 869              		@ frame_needed = 0, uses_anonymous_args = 0
 870              	.LVL68:
 871              		.loc 1 442 0
 872 0000 134B     		ldr	r3, .L75
 873              		.loc 1 441 0
 874 0002 70B5     		push	{r4, r5, r6, lr}
 875              		.cfi_def_cfa_offset 16
 876              		.cfi_offset 4, -16
 877              		.cfi_offset 5, -12
 878              		.cfi_offset 6, -8
 879              		.cfi_offset 14, -4
 880              		.loc 1 442 0
 881 0004 DE69     		ldr	r6, [r3, #28]
 882              	.LVL69:
 883              	.LBB32:
 884              		.loc 1 445 0
 885 0006 2023     		movs	r3, #32
 886              	@ 445 "ChibiOS//os/kernel/src/chevents.c" 1
 887 0008 83F31188 		msr     BASEPRI, r3
 888              	@ 0 "" 2
 889              		.thumb
 890              	.LBE32:
 891              		.loc 1 447 0
 892 000c B26B     		ldr	r2, [r6, #56]
 893              	.LVL70:
 894 000e 10EA0204 		ands	r4, r0, r2
 895              	.LVL71:
 896 0012 0FD1     		bne	.L69
 897              		.loc 1 448 0
 898 0014 21B9     		cbnz	r1, .L70
 899              	.LBB33:
 900              		.loc 1 449 0
 901 0016 0B46     		mov	r3, r1
 902              	@ 449 "ChibiOS//os/kernel/src/chevents.c" 1
 903 0018 83F31188 		msr     BASEPRI, r3
 904              	@ 0 "" 2
 905              		.thumb
 906              	.LBE33:
 907              		.loc 1 450 0
 908 001c 0846     		mov	r0, r1
 909              	.LVL72:
 910 001e 70BD     		pop	{r4, r5, r6, pc}
 911              	.LVL73:
 912              	.L70:
ARM GAS  /tmp/cck3ChAw.s 			page 17


 913              		.loc 1 452 0
 914 0020 7062     		str	r0, [r6, #36]
 915 0022 0546     		mov	r5, r0
 916              		.loc 1 453 0
 917 0024 0820     		movs	r0, #8
 918              	.LVL74:
 919 0026 FFF7FEFF 		bl	chSchGoSleepTimeoutS
 920              	.LVL75:
 921 002a 0028     		cmp	r0, #0
 922 002c 0ADB     		blt	.L74
 923              		.loc 1 457 0
 924 002e B26B     		ldr	r2, [r6, #56]
 925 0030 05EA0204 		and	r4, r5, r2
 926              	.LVL76:
 927              	.L69:
 928              		.loc 1 459 0
 929 0034 22EA0402 		bic	r2, r2, r4
 930 0038 B263     		str	r2, [r6, #56]
 931              	.LBB34:
 932              		.loc 1 461 0
 933 003a 0023     		movs	r3, #0
 934              	@ 461 "ChibiOS//os/kernel/src/chevents.c" 1
 935 003c 83F31188 		msr     BASEPRI, r3
 936              	@ 0 "" 2
 937              		.thumb
 938              	.LBE34:
 939              		.loc 1 462 0
 940 0040 2046     		mov	r0, r4
 941              		.loc 1 463 0
 942 0042 70BD     		pop	{r4, r5, r6, pc}
 943              	.LVL77:
 944              	.L74:
 945              	.LBB35:
 946              		.loc 1 454 0
 947 0044 2346     		mov	r3, r4
 948              	@ 454 "ChibiOS//os/kernel/src/chevents.c" 1
 949 0046 83F31188 		msr     BASEPRI, r3
 950              	@ 0 "" 2
 951              		.thumb
 952              	.LBE35:
 953              		.loc 1 455 0
 954 004a 2046     		mov	r0, r4
 955 004c 70BD     		pop	{r4, r5, r6, pc}
 956              	.LVL78:
 957              	.L76:
 958 004e 00BF     		.align	2
 959              	.L75:
 960 0050 00000000 		.word	rlist
 961              		.cfi_endproc
 962              	.LFE20:
 963              		.size	chEvtWaitAnyTimeout, .-chEvtWaitAnyTimeout
 964              		.section	.text.chEvtWaitAllTimeout,"ax",%progbits
 965              		.align	2
 966              		.p2align 4,,15
 967              		.global	chEvtWaitAllTimeout
 968              		.thumb
 969              		.thumb_func
ARM GAS  /tmp/cck3ChAw.s 			page 18


 970              		.type	chEvtWaitAllTimeout, %function
 971              	chEvtWaitAllTimeout:
 972              	.LFB21:
 973              		.loc 1 482 0
 974              		.cfi_startproc
 975              		@ args = 0, pretend = 0, frame = 0
 976              		@ frame_needed = 0, uses_anonymous_args = 0
 977              	.LVL79:
 978 0000 38B5     		push	{r3, r4, r5, lr}
 979              		.cfi_def_cfa_offset 16
 980              		.cfi_offset 3, -16
 981              		.cfi_offset 4, -12
 982              		.cfi_offset 5, -8
 983              		.cfi_offset 14, -4
 984              		.loc 1 483 0
 985 0002 124B     		ldr	r3, .L83
 986              		.loc 1 482 0
 987 0004 0446     		mov	r4, r0
 988              		.loc 1 483 0
 989 0006 DD69     		ldr	r5, [r3, #28]
 990              	.LVL80:
 991              	.LBB36:
 992              		.loc 1 485 0
 993 0008 2023     		movs	r3, #32
 994              	@ 485 "ChibiOS//os/kernel/src/chevents.c" 1
 995 000a 83F31188 		msr     BASEPRI, r3
 996              	@ 0 "" 2
 997              		.thumb
 998              	.LBE36:
 999              		.loc 1 487 0
 1000 000e AB6B     		ldr	r3, [r5, #56]
 1001 0010 1840     		ands	r0, r0, r3
 1002              	.LVL81:
 1003 0012 A042     		cmp	r0, r4
 1004 0014 0CD0     		beq	.L78
 1005              		.loc 1 488 0
 1006 0016 21B9     		cbnz	r1, .L79
 1007              	.LBB37:
 1008              		.loc 1 489 0
 1009 0018 0B46     		mov	r3, r1
 1010              	@ 489 "ChibiOS//os/kernel/src/chevents.c" 1
 1011 001a 83F31188 		msr     BASEPRI, r3
 1012              	@ 0 "" 2
 1013              		.thumb
 1014              	.LBE37:
 1015              		.loc 1 490 0
 1016 001e 0846     		mov	r0, r1
 1017 0020 38BD     		pop	{r3, r4, r5, pc}
 1018              	.LVL82:
 1019              	.L79:
 1020              		.loc 1 492 0
 1021 0022 6C62     		str	r4, [r5, #36]
 1022              		.loc 1 493 0
 1023 0024 0920     		movs	r0, #9
 1024 0026 FFF7FEFF 		bl	chSchGoSleepTimeoutS
 1025              	.LVL83:
 1026 002a 0028     		cmp	r0, #0
ARM GAS  /tmp/cck3ChAw.s 			page 19


 1027 002c 08DB     		blt	.L81
 1028 002e AB6B     		ldr	r3, [r5, #56]
 1029              	.L78:
 1030              		.loc 1 498 0
 1031 0030 23EA0403 		bic	r3, r3, r4
 1032 0034 AB63     		str	r3, [r5, #56]
 1033              	.LBB38:
 1034              		.loc 1 500 0
 1035 0036 0023     		movs	r3, #0
 1036              	@ 500 "ChibiOS//os/kernel/src/chevents.c" 1
 1037 0038 83F31188 		msr     BASEPRI, r3
 1038              	@ 0 "" 2
 1039              		.thumb
 1040              	.LBE38:
 1041              		.loc 1 501 0
 1042 003c 2046     		mov	r0, r4
 1043              		.loc 1 502 0
 1044 003e 38BD     		pop	{r3, r4, r5, pc}
 1045              	.LVL84:
 1046              	.L81:
 1047              	.LBB39:
 1048              		.loc 1 494 0
 1049 0040 0023     		movs	r3, #0
 1050              	@ 494 "ChibiOS//os/kernel/src/chevents.c" 1
 1051 0042 83F31188 		msr     BASEPRI, r3
 1052              	@ 0 "" 2
 1053              		.thumb
 1054              	.LBE39:
 1055              		.loc 1 495 0
 1056 0046 1846     		mov	r0, r3
 1057 0048 38BD     		pop	{r3, r4, r5, pc}
 1058              	.LVL85:
 1059              	.L84:
 1060 004a 00BF     		.align	2
 1061              	.L83:
 1062 004c 00000000 		.word	rlist
 1063              		.cfi_endproc
 1064              	.LFE21:
 1065              		.size	chEvtWaitAllTimeout, .-chEvtWaitAllTimeout
 1066              		.text
 1067              	.Letext0:
 1068              		.file 2 "/usr/include/newlib/machine/_default_types.h"
 1069              		.file 3 "/usr/include/newlib/sys/_stdint.h"
 1070              		.file 4 "ChibiOS//os/ports/GCC/ARMCMx/chtypes.h"
 1071              		.file 5 "ChibiOS//os/kernel/include/chlists.h"
 1072              		.file 6 "ChibiOS//os/kernel/include/chthreads.h"
 1073              		.file 7 "ChibiOS//os/ports/GCC/ARMCMx/chcore_v7m.h"
 1074              		.file 8 "ChibiOS//os/kernel/include/chschd.h"
 1075              		.file 9 "ChibiOS//os/kernel/include/chmtx.h"
 1076              		.file 10 "ChibiOS//os/kernel/include/chevents.h"