ARM GAS  /tmp/ccjVFBhL.s 			page 1


   1              		.syntax unified
   2              		.cpu cortex-m3
   3              		.fpu softvfp
   4              		.eabi_attribute 20, 1
   5              		.eabi_attribute 21, 1
   6              		.eabi_attribute 23, 3
   7              		.eabi_attribute 24, 1
   8              		.eabi_attribute 25, 1
   9              		.eabi_attribute 26, 1
  10              		.eabi_attribute 30, 2
  11              		.eabi_attribute 34, 1
  12              		.eabi_attribute 18, 4
  13              		.thumb
  14              		.file	"chmboxes.c"
  15              		.text
  16              	.Ltext0:
  17              		.cfi_sections	.debug_frame
  18              		.section	.text.chMBInit,"ax",%progbits
  19              		.align	2
  20              		.p2align 4,,15
  21              		.global	chMBInit
  22              		.thumb
  23              		.thumb_func
  24              		.type	chMBInit, %function
  25              	chMBInit:
  26              	.LFB7:
  27              		.file 1 "ChibiOS//os/kernel/src/chmboxes.c"
  28              		.loc 1 72 0
  29              		.cfi_startproc
  30              		@ args = 0, pretend = 0, frame = 0
  31              		@ frame_needed = 0, uses_anonymous_args = 0
  32              	.LVL0:
  33 0000 0B46     		mov	r3, r1
  34 0002 10B5     		push	{r4, lr}
  35              		.cfi_def_cfa_offset 8
  36              		.cfi_offset 4, -8
  37              		.cfi_offset 14, -4
  38              		.loc 1 72 0
  39 0004 0446     		mov	r4, r0
  40              		.loc 1 77 0
  41 0006 01EB8201 		add	r1, r1, r2, lsl #2
  42              	.LVL1:
  43 000a 4160     		str	r1, [r0, #4]
  44              		.loc 1 76 0
  45 000c C360     		str	r3, [r0, #12]
  46 000e 8360     		str	r3, [r0, #8]
  47 0010 0360     		str	r3, [r0]
  48              		.loc 1 78 0
  49 0012 1146     		mov	r1, r2
  50 0014 1C30     		adds	r0, r0, #28
  51              	.LVL2:
  52 0016 FFF7FEFF 		bl	chSemInit
  53              	.LVL3:
  54              		.loc 1 79 0
  55 001a 04F11000 		add	r0, r4, #16
  56 001e 0021     		movs	r1, #0
  57              		.loc 1 80 0
ARM GAS  /tmp/ccjVFBhL.s 			page 2


  58 0020 BDE81040 		pop	{r4, lr}
  59              		.cfi_restore 14
  60              		.cfi_restore 4
  61              		.cfi_def_cfa_offset 0
  62              	.LVL4:
  63              		.loc 1 79 0
  64 0024 FFF7FEBF 		b	chSemInit
  65              	.LVL5:
  66              		.cfi_endproc
  67              	.LFE7:
  68              		.size	chMBInit, .-chMBInit
  69              		.section	.text.chMBReset,"ax",%progbits
  70              		.align	2
  71              		.p2align 4,,15
  72              		.global	chMBReset
  73              		.thumb
  74              		.thumb_func
  75              		.type	chMBReset, %function
  76              	chMBReset:
  77              	.LFB8:
  78              		.loc 1 91 0
  79              		.cfi_startproc
  80              		@ args = 0, pretend = 0, frame = 0
  81              		@ frame_needed = 0, uses_anonymous_args = 0
  82              	.LVL6:
  83 0000 10B5     		push	{r4, lr}
  84              		.cfi_def_cfa_offset 8
  85              		.cfi_offset 4, -8
  86              		.cfi_offset 14, -4
  87              	.LBB2:
  88              		.loc 1 95 0
  89 0002 2023     		movs	r3, #32
  90              	.LBE2:
  91              		.loc 1 91 0
  92 0004 0446     		mov	r4, r0
  93              	.LBB3:
  94              		.loc 1 95 0
  95              	@ 95 "ChibiOS//os/kernel/src/chmboxes.c" 1
  96 0006 83F31188 		msr     BASEPRI, r3
  97              	@ 0 "" 2
  98              		.thumb
  99              	.LBE3:
 100              		.loc 1 96 0
 101 000a 0368     		ldr	r3, [r0]
 102              		.loc 1 97 0
 103 000c 4168     		ldr	r1, [r0, #4]
 104              		.loc 1 96 0
 105 000e C360     		str	r3, [r0, #12]
 106              		.loc 1 97 0
 107 0010 C91A     		subs	r1, r1, r3
 108              		.loc 1 96 0
 109 0012 8360     		str	r3, [r0, #8]
 110              		.loc 1 97 0
 111 0014 8910     		asrs	r1, r1, #2
 112 0016 1C30     		adds	r0, r0, #28
 113              	.LVL7:
 114 0018 FFF7FEFF 		bl	chSemResetI
ARM GAS  /tmp/ccjVFBhL.s 			page 3


 115              	.LVL8:
 116              		.loc 1 98 0
 117 001c 04F11000 		add	r0, r4, #16
 118 0020 0021     		movs	r1, #0
 119 0022 FFF7FEFF 		bl	chSemResetI
 120              	.LVL9:
 121              		.loc 1 99 0
 122 0026 FFF7FEFF 		bl	chSchRescheduleS
 123              	.LVL10:
 124              	.LBB4:
 125              		.loc 1 100 0
 126 002a 0023     		movs	r3, #0
 127              	@ 100 "ChibiOS//os/kernel/src/chmboxes.c" 1
 128 002c 83F31188 		msr     BASEPRI, r3
 129              	@ 0 "" 2
 130              		.thumb
 131 0030 10BD     		pop	{r4, pc}
 132              	.LBE4:
 133              		.cfi_endproc
 134              	.LFE8:
 135              		.size	chMBReset, .-chMBReset
 136 0032 00BF     		.section	.text.chMBPostS,"ax",%progbits
 137              		.align	2
 138              		.p2align 4,,15
 139              		.global	chMBPostS
 140              		.thumb
 141              		.thumb_func
 142              		.type	chMBPostS, %function
 143              	chMBPostS:
 144              	.LFB10:
 145              		.loc 1 150 0
 146              		.cfi_startproc
 147              		@ args = 0, pretend = 0, frame = 0
 148              		@ frame_needed = 0, uses_anonymous_args = 0
 149              	.LVL11:
 150 0000 70B5     		push	{r4, r5, r6, lr}
 151              		.cfi_def_cfa_offset 16
 152              		.cfi_offset 4, -16
 153              		.cfi_offset 5, -12
 154              		.cfi_offset 6, -8
 155              		.cfi_offset 14, -4
 156              		.loc 1 150 0
 157 0002 0446     		mov	r4, r0
 158 0004 0E46     		mov	r6, r1
 159              		.loc 1 156 0
 160 0006 1C30     		adds	r0, r0, #28
 161              	.LVL12:
 162 0008 1146     		mov	r1, r2
 163              	.LVL13:
 164 000a FFF7FEFF 		bl	chSemWaitTimeoutS
 165              	.LVL14:
 166              		.loc 1 157 0
 167 000e 0546     		mov	r5, r0
 168 0010 78B9     		cbnz	r0, .L6
 169              	.LVL15:
 170              	.LBB7:
 171              	.LBB8:
ARM GAS  /tmp/ccjVFBhL.s 			page 4


 172              		.loc 1 158 0
 173 0012 A268     		ldr	r2, [r4, #8]
 174              		.loc 1 159 0
 175 0014 6168     		ldr	r1, [r4, #4]
 176              		.loc 1 158 0
 177 0016 131D     		adds	r3, r2, #4
 178              		.loc 1 159 0
 179 0018 8B42     		cmp	r3, r1
 180              		.loc 1 158 0
 181 001a A360     		str	r3, [r4, #8]
 182              		.loc 1 160 0
 183 001c 28BF     		it	cs
 184 001e 2368     		ldrcs	r3, [r4]
 185              		.loc 1 158 0
 186 0020 1660     		str	r6, [r2]
 187              		.loc 1 161 0
 188 0022 04F11000 		add	r0, r4, #16
 189              	.LVL16:
 190              		.loc 1 160 0
 191 0026 28BF     		it	cs
 192 0028 A360     		strcs	r3, [r4, #8]
 193              		.loc 1 161 0
 194 002a FFF7FEFF 		bl	chSemSignalI
 195              	.LVL17:
 196              		.loc 1 162 0
 197 002e FFF7FEFF 		bl	chSchRescheduleS
 198              	.LVL18:
 199              	.L6:
 200              	.LBE8:
 201              	.LBE7:
 202              		.loc 1 165 0
 203 0032 2846     		mov	r0, r5
 204 0034 70BD     		pop	{r4, r5, r6, pc}
 205              		.cfi_endproc
 206              	.LFE10:
 207              		.size	chMBPostS, .-chMBPostS
 208 0036 00BF     		.section	.text.chMBPost,"ax",%progbits
 209              		.align	2
 210              		.p2align 4,,15
 211              		.global	chMBPost
 212              		.thumb
 213              		.thumb_func
 214              		.type	chMBPost, %function
 215              	chMBPost:
 216              	.LFB9:
 217              		.loc 1 122 0
 218              		.cfi_startproc
 219              		@ args = 0, pretend = 0, frame = 0
 220              		@ frame_needed = 0, uses_anonymous_args = 0
 221              	.LVL19:
 222 0000 08B5     		push	{r3, lr}
 223              		.cfi_def_cfa_offset 8
 224              		.cfi_offset 3, -8
 225              		.cfi_offset 14, -4
 226              	.LBB9:
 227              		.loc 1 125 0
 228 0002 2023     		movs	r3, #32
ARM GAS  /tmp/ccjVFBhL.s 			page 5


 229              	@ 125 "ChibiOS//os/kernel/src/chmboxes.c" 1
 230 0004 83F31188 		msr     BASEPRI, r3
 231              	@ 0 "" 2
 232              		.thumb
 233              	.LBE9:
 234              		.loc 1 126 0
 235 0008 FFF7FEFF 		bl	chMBPostS
 236              	.LVL20:
 237              	.LBB10:
 238              		.loc 1 127 0
 239 000c 0023     		movs	r3, #0
 240              	@ 127 "ChibiOS//os/kernel/src/chmboxes.c" 1
 241 000e 83F31188 		msr     BASEPRI, r3
 242              	@ 0 "" 2
 243              		.thumb
 244              	.LBE10:
 245              		.loc 1 129 0
 246 0012 08BD     		pop	{r3, pc}
 247              		.cfi_endproc
 248              	.LFE9:
 249              		.size	chMBPost, .-chMBPost
 250              		.section	.text.chMBPostI,"ax",%progbits
 251              		.align	2
 252              		.p2align 4,,15
 253              		.global	chMBPostI
 254              		.thumb
 255              		.thumb_func
 256              		.type	chMBPostI, %function
 257              	chMBPostI:
 258              	.LFB11:
 259              		.loc 1 181 0
 260              		.cfi_startproc
 261              		@ args = 0, pretend = 0, frame = 0
 262              		@ frame_needed = 0, uses_anonymous_args = 0
 263              	.LVL21:
 264 0000 38B5     		push	{r3, r4, r5, lr}
 265              		.cfi_def_cfa_offset 16
 266              		.cfi_offset 3, -16
 267              		.cfi_offset 4, -12
 268              		.cfi_offset 5, -8
 269              		.cfi_offset 14, -4
 270              		.loc 1 186 0
 271 0002 436A     		ldr	r3, [r0, #36]
 272 0004 002B     		cmp	r3, #0
 273 0006 12DD     		ble	.L15
 274              		.loc 1 189 0
 275 0008 8468     		ldr	r4, [r0, #8]
 276              		.loc 1 190 0
 277 000a 4568     		ldr	r5, [r0, #4]
 278              		.loc 1 189 0
 279 000c 221D     		adds	r2, r4, #4
 280              		.loc 1 188 0
 281 000e 013B     		subs	r3, r3, #1
 282              		.loc 1 190 0
 283 0010 AA42     		cmp	r2, r5
 284              		.loc 1 188 0
 285 0012 4362     		str	r3, [r0, #36]
ARM GAS  /tmp/ccjVFBhL.s 			page 6


 286              		.loc 1 191 0
 287 0014 28BF     		it	cs
 288 0016 0368     		ldrcs	r3, [r0]
 289              		.loc 1 189 0
 290 0018 8260     		str	r2, [r0, #8]
 291 001a 2160     		str	r1, [r4]
 292              		.loc 1 192 0
 293 001c 00F11000 		add	r0, r0, #16
 294              	.LVL22:
 295              		.loc 1 191 0
 296 0020 28BF     		it	cs
 297 0022 40F8083C 		strcs	r3, [r0, #-8]
 298              		.loc 1 192 0
 299 0026 FFF7FEFF 		bl	chSemSignalI
 300              	.LVL23:
 301              		.loc 1 193 0
 302 002a 0020     		movs	r0, #0
 303 002c 38BD     		pop	{r3, r4, r5, pc}
 304              	.LVL24:
 305              	.L15:
 306              		.loc 1 187 0
 307 002e 4FF0FF30 		mov	r0, #-1
 308              	.LVL25:
 309              		.loc 1 194 0
 310 0032 38BD     		pop	{r3, r4, r5, pc}
 311              		.cfi_endproc
 312              	.LFE11:
 313              		.size	chMBPostI, .-chMBPostI
 314              		.section	.text.chMBPostAheadS,"ax",%progbits
 315              		.align	2
 316              		.p2align 4,,15
 317              		.global	chMBPostAheadS
 318              		.thumb
 319              		.thumb_func
 320              		.type	chMBPostAheadS, %function
 321              	chMBPostAheadS:
 322              	.LFB13:
 323              		.loc 1 243 0
 324              		.cfi_startproc
 325              		@ args = 0, pretend = 0, frame = 0
 326              		@ frame_needed = 0, uses_anonymous_args = 0
 327              	.LVL26:
 328 0000 70B5     		push	{r4, r5, r6, lr}
 329              		.cfi_def_cfa_offset 16
 330              		.cfi_offset 4, -16
 331              		.cfi_offset 5, -12
 332              		.cfi_offset 6, -8
 333              		.cfi_offset 14, -4
 334              		.loc 1 243 0
 335 0002 0446     		mov	r4, r0
 336 0004 0E46     		mov	r6, r1
 337              		.loc 1 249 0
 338 0006 1C30     		adds	r0, r0, #28
 339              	.LVL27:
 340 0008 1146     		mov	r1, r2
 341              	.LVL28:
 342 000a FFF7FEFF 		bl	chSemWaitTimeoutS
ARM GAS  /tmp/ccjVFBhL.s 			page 7


 343              	.LVL29:
 344              		.loc 1 250 0
 345 000e 0546     		mov	r5, r0
 346 0010 60B9     		cbnz	r0, .L18
 347              	.LVL30:
 348              	.LBB13:
 349              	.LBB14:
 350              		.loc 1 251 0
 351 0012 E368     		ldr	r3, [r4, #12]
 352 0014 2268     		ldr	r2, [r4]
 353 0016 043B     		subs	r3, r3, #4
 354 0018 9342     		cmp	r3, r2
 355 001a E360     		str	r3, [r4, #12]
 356 001c 08D3     		bcc	.L21
 357              	.L19:
 358              		.loc 1 253 0
 359 001e 1E60     		str	r6, [r3]
 360              		.loc 1 254 0
 361 0020 04F11000 		add	r0, r4, #16
 362              	.LVL31:
 363 0024 FFF7FEFF 		bl	chSemSignalI
 364              	.LVL32:
 365              		.loc 1 255 0
 366 0028 FFF7FEFF 		bl	chSchRescheduleS
 367              	.LVL33:
 368              	.L18:
 369              	.LBE14:
 370              	.LBE13:
 371              		.loc 1 258 0
 372 002c 2846     		mov	r0, r5
 373 002e 70BD     		pop	{r4, r5, r6, pc}
 374              	.LVL34:
 375              	.L21:
 376              	.LBB16:
 377              	.LBB15:
 378              		.loc 1 252 0
 379 0030 6368     		ldr	r3, [r4, #4]
 380 0032 043B     		subs	r3, r3, #4
 381 0034 E360     		str	r3, [r4, #12]
 382 0036 F2E7     		b	.L19
 383              	.LBE15:
 384              	.LBE16:
 385              		.cfi_endproc
 386              	.LFE13:
 387              		.size	chMBPostAheadS, .-chMBPostAheadS
 388              		.section	.text.chMBPostAhead,"ax",%progbits
 389              		.align	2
 390              		.p2align 4,,15
 391              		.global	chMBPostAhead
 392              		.thumb
 393              		.thumb_func
 394              		.type	chMBPostAhead, %function
 395              	chMBPostAhead:
 396              	.LFB12:
 397              		.loc 1 215 0
 398              		.cfi_startproc
 399              		@ args = 0, pretend = 0, frame = 0
ARM GAS  /tmp/ccjVFBhL.s 			page 8


 400              		@ frame_needed = 0, uses_anonymous_args = 0
 401              	.LVL35:
 402 0000 08B5     		push	{r3, lr}
 403              		.cfi_def_cfa_offset 8
 404              		.cfi_offset 3, -8
 405              		.cfi_offset 14, -4
 406              	.LBB17:
 407              		.loc 1 218 0
 408 0002 2023     		movs	r3, #32
 409              	@ 218 "ChibiOS//os/kernel/src/chmboxes.c" 1
 410 0004 83F31188 		msr     BASEPRI, r3
 411              	@ 0 "" 2
 412              		.thumb
 413              	.LBE17:
 414              		.loc 1 219 0
 415 0008 FFF7FEFF 		bl	chMBPostAheadS
 416              	.LVL36:
 417              	.LBB18:
 418              		.loc 1 220 0
 419 000c 0023     		movs	r3, #0
 420              	@ 220 "ChibiOS//os/kernel/src/chmboxes.c" 1
 421 000e 83F31188 		msr     BASEPRI, r3
 422              	@ 0 "" 2
 423              		.thumb
 424              	.LBE18:
 425              		.loc 1 222 0
 426 0012 08BD     		pop	{r3, pc}
 427              		.cfi_endproc
 428              	.LFE12:
 429              		.size	chMBPostAhead, .-chMBPostAhead
 430              		.section	.text.chMBPostAheadI,"ax",%progbits
 431              		.align	2
 432              		.p2align 4,,15
 433              		.global	chMBPostAheadI
 434              		.thumb
 435              		.thumb_func
 436              		.type	chMBPostAheadI, %function
 437              	chMBPostAheadI:
 438              	.LFB14:
 439              		.loc 1 274 0
 440              		.cfi_startproc
 441              		@ args = 0, pretend = 0, frame = 0
 442              		@ frame_needed = 0, uses_anonymous_args = 0
 443              	.LVL37:
 444              		.loc 1 279 0
 445 0000 426A     		ldr	r2, [r0, #36]
 446 0002 002A     		cmp	r2, #0
 447 0004 11DD     		ble	.L27
 448              		.loc 1 282 0
 449 0006 C368     		ldr	r3, [r0, #12]
 450              		.loc 1 274 0
 451 0008 10B5     		push	{r4, lr}
 452              		.cfi_def_cfa_offset 8
 453              		.cfi_offset 4, -8
 454              		.cfi_offset 14, -4
 455              		.loc 1 282 0
 456 000a 0468     		ldr	r4, [r0]
ARM GAS  /tmp/ccjVFBhL.s 			page 9


 457 000c 043B     		subs	r3, r3, #4
 458              		.loc 1 281 0
 459 000e 013A     		subs	r2, r2, #1
 460              		.loc 1 282 0
 461 0010 A342     		cmp	r3, r4
 462              		.loc 1 281 0
 463 0012 4262     		str	r2, [r0, #36]
 464              		.loc 1 282 0
 465 0014 C360     		str	r3, [r0, #12]
 466 0016 02D2     		bcs	.L26
 467              		.loc 1 283 0
 468 0018 4368     		ldr	r3, [r0, #4]
 469 001a 043B     		subs	r3, r3, #4
 470 001c C360     		str	r3, [r0, #12]
 471              	.L26:
 472              		.loc 1 284 0
 473 001e 1960     		str	r1, [r3]
 474              		.loc 1 285 0
 475 0020 1030     		adds	r0, r0, #16
 476              	.LVL38:
 477 0022 FFF7FEFF 		bl	chSemSignalI
 478              	.LVL39:
 479              		.loc 1 286 0
 480 0026 0020     		movs	r0, #0
 481 0028 10BD     		pop	{r4, pc}
 482              	.LVL40:
 483              	.L27:
 484              		.cfi_def_cfa_offset 0
 485              		.cfi_restore 4
 486              		.cfi_restore 14
 487              		.loc 1 280 0
 488 002a 4FF0FF30 		mov	r0, #-1
 489              	.LVL41:
 490 002e 7047     		bx	lr
 491              		.cfi_endproc
 492              	.LFE14:
 493              		.size	chMBPostAheadI, .-chMBPostAheadI
 494              		.section	.text.chMBFetchS,"ax",%progbits
 495              		.align	2
 496              		.p2align 4,,15
 497              		.global	chMBFetchS
 498              		.thumb
 499              		.thumb_func
 500              		.type	chMBFetchS, %function
 501              	chMBFetchS:
 502              	.LFB16:
 503              		.loc 1 336 0
 504              		.cfi_startproc
 505              		@ args = 0, pretend = 0, frame = 0
 506              		@ frame_needed = 0, uses_anonymous_args = 0
 507              	.LVL42:
 508 0000 70B5     		push	{r4, r5, r6, lr}
 509              		.cfi_def_cfa_offset 16
 510              		.cfi_offset 4, -16
 511              		.cfi_offset 5, -12
 512              		.cfi_offset 6, -8
 513              		.cfi_offset 14, -4
ARM GAS  /tmp/ccjVFBhL.s 			page 10


 514              		.loc 1 336 0
 515 0002 0446     		mov	r4, r0
 516 0004 0E46     		mov	r6, r1
 517              		.loc 1 342 0
 518 0006 1030     		adds	r0, r0, #16
 519              	.LVL43:
 520 0008 1146     		mov	r1, r2
 521              	.LVL44:
 522 000a FFF7FEFF 		bl	chSemWaitTimeoutS
 523              	.LVL45:
 524              		.loc 1 343 0
 525 000e 0546     		mov	r5, r0
 526 0010 80B9     		cbnz	r0, .L31
 527              	.LVL46:
 528              	.LBB21:
 529              	.LBB22:
 530              		.loc 1 344 0
 531 0012 E368     		ldr	r3, [r4, #12]
 532              		.loc 1 345 0
 533 0014 6268     		ldr	r2, [r4, #4]
 534              		.loc 1 344 0
 535 0016 1968     		ldr	r1, [r3]
 536 0018 0433     		adds	r3, r3, #4
 537              		.loc 1 345 0
 538 001a 9342     		cmp	r3, r2
 539              		.loc 1 344 0
 540 001c E360     		str	r3, [r4, #12]
 541              		.loc 1 346 0
 542 001e 28BF     		it	cs
 543 0020 2368     		ldrcs	r3, [r4]
 544              		.loc 1 344 0
 545 0022 3160     		str	r1, [r6]
 546              		.loc 1 347 0
 547 0024 04F11C00 		add	r0, r4, #28
 548              	.LVL47:
 549              		.loc 1 346 0
 550 0028 28BF     		it	cs
 551 002a E360     		strcs	r3, [r4, #12]
 552              		.loc 1 347 0
 553 002c FFF7FEFF 		bl	chSemSignalI
 554              	.LVL48:
 555              		.loc 1 348 0
 556 0030 FFF7FEFF 		bl	chSchRescheduleS
 557              	.LVL49:
 558              	.L31:
 559              	.LBE22:
 560              	.LBE21:
 561              		.loc 1 351 0
 562 0034 2846     		mov	r0, r5
 563 0036 70BD     		pop	{r4, r5, r6, pc}
 564              		.cfi_endproc
 565              	.LFE16:
 566              		.size	chMBFetchS, .-chMBFetchS
 567              		.section	.text.chMBFetch,"ax",%progbits
 568              		.align	2
 569              		.p2align 4,,15
 570              		.global	chMBFetch
ARM GAS  /tmp/ccjVFBhL.s 			page 11


 571              		.thumb
 572              		.thumb_func
 573              		.type	chMBFetch, %function
 574              	chMBFetch:
 575              	.LFB15:
 576              		.loc 1 308 0
 577              		.cfi_startproc
 578              		@ args = 0, pretend = 0, frame = 0
 579              		@ frame_needed = 0, uses_anonymous_args = 0
 580              	.LVL50:
 581 0000 08B5     		push	{r3, lr}
 582              		.cfi_def_cfa_offset 8
 583              		.cfi_offset 3, -8
 584              		.cfi_offset 14, -4
 585              	.LBB23:
 586              		.loc 1 311 0
 587 0002 2023     		movs	r3, #32
 588              	@ 311 "ChibiOS//os/kernel/src/chmboxes.c" 1
 589 0004 83F31188 		msr     BASEPRI, r3
 590              	@ 0 "" 2
 591              		.thumb
 592              	.LBE23:
 593              		.loc 1 312 0
 594 0008 FFF7FEFF 		bl	chMBFetchS
 595              	.LVL51:
 596              	.LBB24:
 597              		.loc 1 313 0
 598 000c 0023     		movs	r3, #0
 599              	@ 313 "ChibiOS//os/kernel/src/chmboxes.c" 1
 600 000e 83F31188 		msr     BASEPRI, r3
 601              	@ 0 "" 2
 602              		.thumb
 603              	.LBE24:
 604              		.loc 1 315 0
 605 0012 08BD     		pop	{r3, pc}
 606              		.cfi_endproc
 607              	.LFE15:
 608              		.size	chMBFetch, .-chMBFetch
 609              		.section	.text.chMBFetchI,"ax",%progbits
 610              		.align	2
 611              		.p2align 4,,15
 612              		.global	chMBFetchI
 613              		.thumb
 614              		.thumb_func
 615              		.type	chMBFetchI, %function
 616              	chMBFetchI:
 617              	.LFB17:
 618              		.loc 1 367 0
 619              		.cfi_startproc
 620              		@ args = 0, pretend = 0, frame = 0
 621              		@ frame_needed = 0, uses_anonymous_args = 0
 622              	.LVL52:
 623              		.loc 1 372 0
 624 0000 8369     		ldr	r3, [r0, #24]
 625 0002 002B     		cmp	r3, #0
 626 0004 14DD     		ble	.L39
 627              		.loc 1 374 0
ARM GAS  /tmp/ccjVFBhL.s 			page 12


 628 0006 5A1E     		subs	r2, r3, #1
 629              		.loc 1 375 0
 630 0008 C368     		ldr	r3, [r0, #12]
 631              		.loc 1 367 0
 632 000a 10B5     		push	{r4, lr}
 633              		.cfi_def_cfa_offset 8
 634              		.cfi_offset 4, -8
 635              		.cfi_offset 14, -4
 636              		.loc 1 374 0
 637 000c 8261     		str	r2, [r0, #24]
 638              		.loc 1 376 0
 639 000e 4268     		ldr	r2, [r0, #4]
 640              		.loc 1 375 0
 641 0010 1C68     		ldr	r4, [r3]
 642 0012 0433     		adds	r3, r3, #4
 643              		.loc 1 376 0
 644 0014 9342     		cmp	r3, r2
 645              		.loc 1 375 0
 646 0016 C360     		str	r3, [r0, #12]
 647              		.loc 1 377 0
 648 0018 28BF     		it	cs
 649 001a 0368     		ldrcs	r3, [r0]
 650              		.loc 1 375 0
 651 001c 0C60     		str	r4, [r1]
 652              		.loc 1 378 0
 653 001e 00F11C00 		add	r0, r0, #28
 654              	.LVL53:
 655              		.loc 1 377 0
 656 0022 28BF     		it	cs
 657 0024 40F8103C 		strcs	r3, [r0, #-16]
 658              		.loc 1 378 0
 659 0028 FFF7FEFF 		bl	chSemSignalI
 660              	.LVL54:
 661              		.loc 1 379 0
 662 002c 0020     		movs	r0, #0
 663 002e 10BD     		pop	{r4, pc}
 664              	.LVL55:
 665              	.L39:
 666              		.cfi_def_cfa_offset 0
 667              		.cfi_restore 4
 668              		.cfi_restore 14
 669              		.loc 1 373 0
 670 0030 4FF0FF30 		mov	r0, #-1
 671              	.LVL56:
 672 0034 7047     		bx	lr
 673              		.cfi_endproc
 674              	.LFE17:
 675              		.size	chMBFetchI, .-chMBFetchI
 676              		.text
 677              	.Letext0:
 678              		.file 2 "/usr/include/newlib/machine/_default_types.h"
 679              		.file 3 "/usr/include/newlib/sys/_stdint.h"
 680              		.file 4 "ChibiOS//os/ports/GCC/ARMCMx/chtypes.h"
 681              		.file 5 "ChibiOS//os/kernel/include/chlists.h"
 682              		.file 6 "ChibiOS//os/kernel/include/chthreads.h"
 683              		.file 7 "ChibiOS//os/ports/GCC/ARMCMx/chcore_v7m.h"
 684              		.file 8 "ChibiOS//os/kernel/include/chsem.h"
ARM GAS  /tmp/ccjVFBhL.s 			page 13


 685              		.file 9 "ChibiOS//os/kernel/include/chmtx.h"
 686              		.file 10 "ChibiOS//os/kernel/include/chmboxes.h"
 687              		.file 11 "ChibiOS//os/kernel/include/chschd.h"
 688              		.section	.debug_info,"",%progbits
 689              	.Ldebug_info0:
 690 0000 160B0000 		.4byte	0xb16
 691 0004 0400     		.2byte	0x4
 692 0006 00000000 		.4byte	.Ldebug_abbrev0
 693 000a 04       		.byte	0x4
 694 000b 01       		.uleb128 0x1
 695 000c C4010000 		.4byte	.LASF84
 696 0010 01       		.byte	0x1
 697 0011 63030000 		.4byte	.LASF85
 698 0015 FF000000 		.4byte	.LASF86
 699 0019 30000000 		.4byte	.Ldebug_ranges0+0x30
 700 001d 00000000 		.4byte	0
 701 0021 00000000 		.4byte	.Ldebug_line0
 702 0025 02       		.uleb128 0x2
 703 0026 04       		.byte	0x4
 704 0027 05       		.byte	0x5
 705 0028 696E7400 		.ascii	"int\000"
 706 002c 03       		.uleb128 0x3
 707 002d 04       		.byte	0x4
 708 002e 07       		.byte	0x7
 709 002f 28010000 		.4byte	.LASF0
 710 0033 03       		.uleb128 0x3
 711 0034 01       		.byte	0x1
 712 0035 06       		.byte	0x6
 713 0036 9C000000 		.4byte	.LASF1
 714 003a 04       		.uleb128 0x4
 715 003b 1A000000 		.4byte	.LASF5
 716 003f 02       		.byte	0x2
 717 0040 1D       		.byte	0x1d
 718 0041 45000000 		.4byte	0x45
 719 0045 03       		.uleb128 0x3
 720 0046 01       		.byte	0x1
 721 0047 08       		.byte	0x8
 722 0048 E1020000 		.4byte	.LASF2
 723 004c 03       		.uleb128 0x3
 724 004d 02       		.byte	0x2
 725 004e 05       		.byte	0x5
 726 004f 00030000 		.4byte	.LASF3
 727 0053 03       		.uleb128 0x3
 728 0054 02       		.byte	0x2
 729 0055 07       		.byte	0x7
 730 0056 6A010000 		.4byte	.LASF4
 731 005a 04       		.uleb128 0x4
 732 005b A1030000 		.4byte	.LASF6
 733 005f 02       		.byte	0x2
 734 0060 3F       		.byte	0x3f
 735 0061 65000000 		.4byte	0x65
 736 0065 03       		.uleb128 0x3
 737 0066 04       		.byte	0x4
 738 0067 05       		.byte	0x5
 739 0068 B8000000 		.4byte	.LASF7
 740 006c 04       		.uleb128 0x4
 741 006d EB000000 		.4byte	.LASF8
ARM GAS  /tmp/ccjVFBhL.s 			page 14


 742 0071 02       		.byte	0x2
 743 0072 41       		.byte	0x41
 744 0073 77000000 		.4byte	0x77
 745 0077 03       		.uleb128 0x3
 746 0078 04       		.byte	0x4
 747 0079 07       		.byte	0x7
 748 007a 3E010000 		.4byte	.LASF9
 749 007e 03       		.uleb128 0x3
 750 007f 08       		.byte	0x8
 751 0080 05       		.byte	0x5
 752 0081 8E000000 		.4byte	.LASF10
 753 0085 03       		.uleb128 0x3
 754 0086 08       		.byte	0x8
 755 0087 07       		.byte	0x7
 756 0088 4F000000 		.4byte	.LASF11
 757 008c 04       		.uleb128 0x4
 758 008d 04040000 		.4byte	.LASF12
 759 0091 03       		.byte	0x3
 760 0092 14       		.byte	0x14
 761 0093 3A000000 		.4byte	0x3a
 762 0097 04       		.uleb128 0x4
 763 0098 D9020000 		.4byte	.LASF13
 764 009c 03       		.byte	0x3
 765 009d 1F       		.byte	0x1f
 766 009e 5A000000 		.4byte	0x5a
 767 00a2 04       		.uleb128 0x4
 768 00a3 43030000 		.4byte	.LASF14
 769 00a7 03       		.byte	0x3
 770 00a8 20       		.byte	0x20
 771 00a9 6C000000 		.4byte	0x6c
 772 00ad 04       		.uleb128 0x4
 773 00ae 99010000 		.4byte	.LASF15
 774 00b2 04       		.byte	0x4
 775 00b3 2F       		.byte	0x2f
 776 00b4 8C000000 		.4byte	0x8c
 777 00b8 04       		.uleb128 0x4
 778 00b9 C1000000 		.4byte	.LASF16
 779 00bd 04       		.byte	0x4
 780 00be 30       		.byte	0x30
 781 00bf 8C000000 		.4byte	0x8c
 782 00c3 04       		.uleb128 0x4
 783 00c4 C2020000 		.4byte	.LASF17
 784 00c8 04       		.byte	0x4
 785 00c9 31       		.byte	0x31
 786 00ca 8C000000 		.4byte	0x8c
 787 00ce 04       		.uleb128 0x4
 788 00cf D1020000 		.4byte	.LASF18
 789 00d3 04       		.byte	0x4
 790 00d4 32       		.byte	0x32
 791 00d5 A2000000 		.4byte	0xa2
 792 00d9 04       		.uleb128 0x4
 793 00da 88010000 		.4byte	.LASF19
 794 00de 04       		.byte	0x4
 795 00df 33       		.byte	0x33
 796 00e0 97000000 		.4byte	0x97
 797 00e4 04       		.uleb128 0x4
 798 00e5 AD010000 		.4byte	.LASF20
ARM GAS  /tmp/ccjVFBhL.s 			page 15


 799 00e9 04       		.byte	0x4
 800 00ea 35       		.byte	0x35
 801 00eb A2000000 		.4byte	0xa2
 802 00ef 04       		.uleb128 0x4
 803 00f0 8C030000 		.4byte	.LASF21
 804 00f4 04       		.byte	0x4
 805 00f5 36       		.byte	0x36
 806 00f6 A2000000 		.4byte	0xa2
 807 00fa 04       		.uleb128 0x4
 808 00fb 22010000 		.4byte	.LASF22
 809 00ff 04       		.byte	0x4
 810 0100 37       		.byte	0x37
 811 0101 97000000 		.4byte	0x97
 812 0105 04       		.uleb128 0x4
 813 0106 31030000 		.4byte	.LASF23
 814 010a 05       		.byte	0x5
 815 010b 2A       		.byte	0x2a
 816 010c 10010000 		.4byte	0x110
 817 0110 05       		.uleb128 0x5
 818 0111 31030000 		.4byte	.LASF23
 819 0115 48       		.byte	0x48
 820 0116 06       		.byte	0x6
 821 0117 5E       		.byte	0x5e
 822 0118 01020000 		.4byte	0x201
 823 011c 06       		.uleb128 0x6
 824 011d 19030000 		.4byte	.LASF24
 825 0121 06       		.byte	0x6
 826 0122 5F       		.byte	0x5f
 827 0123 22020000 		.4byte	0x222
 828 0127 00       		.byte	0
 829 0128 06       		.uleb128 0x6
 830 0129 CA020000 		.4byte	.LASF25
 831 012d 06       		.byte	0x6
 832 012e 61       		.byte	0x61
 833 012f 22020000 		.4byte	0x222
 834 0133 04       		.byte	0x4
 835 0134 06       		.uleb128 0x6
 836 0135 87000000 		.4byte	.LASF26
 837 0139 06       		.byte	0x6
 838 013a 63       		.byte	0x63
 839 013b CE000000 		.4byte	0xce
 840 013f 08       		.byte	0x8
 841 0140 06       		.uleb128 0x6
 842 0141 22040000 		.4byte	.LASF27
 843 0145 06       		.byte	0x6
 844 0146 64       		.byte	0x64
 845 0147 DB020000 		.4byte	0x2db
 846 014b 0C       		.byte	0xc
 847 014c 06       		.uleb128 0x6
 848 014d CA000000 		.4byte	.LASF28
 849 0151 06       		.byte	0x6
 850 0152 66       		.byte	0x66
 851 0153 22020000 		.4byte	0x222
 852 0157 10       		.byte	0x10
 853 0158 06       		.uleb128 0x6
 854 0159 9E020000 		.4byte	.LASF29
 855 015d 06       		.byte	0x6
ARM GAS  /tmp/ccjVFBhL.s 			page 16


 856 015e 67       		.byte	0x67
 857 015f 22020000 		.4byte	0x222
 858 0163 14       		.byte	0x14
 859 0164 06       		.uleb128 0x6
 860 0165 13040000 		.4byte	.LASF30
 861 0169 06       		.byte	0x6
 862 016a 6E       		.byte	0x6e
 863 016b 11040000 		.4byte	0x411
 864 016f 18       		.byte	0x18
 865 0170 06       		.uleb128 0x6
 866 0171 0A030000 		.4byte	.LASF31
 867 0175 06       		.byte	0x6
 868 0176 79       		.byte	0x79
 869 0177 B8000000 		.4byte	0xb8
 870 017b 1C       		.byte	0x1c
 871 017c 06       		.uleb128 0x6
 872 017d 20030000 		.4byte	.LASF32
 873 0181 06       		.byte	0x6
 874 0182 7D       		.byte	0x7d
 875 0183 AD000000 		.4byte	0xad
 876 0187 1D       		.byte	0x1d
 877 0188 06       		.uleb128 0x6
 878 0189 F1030000 		.4byte	.LASF33
 879 018d 06       		.byte	0x6
 880 018e 82       		.byte	0x82
 881 018f C3000000 		.4byte	0xc3
 882 0193 1E       		.byte	0x1e
 883 0194 06       		.uleb128 0x6
 884 0195 AB030000 		.4byte	.LASF34
 885 0199 06       		.byte	0x6
 886 019a 89       		.byte	0x89
 887 019b 03030000 		.4byte	0x303
 888 019f 20       		.byte	0x20
 889 01a0 07       		.uleb128 0x7
 890 01a1 705F7500 		.ascii	"p_u\000"
 891 01a5 06       		.byte	0x6
 892 01a6 AE       		.byte	0xae
 893 01a7 DC030000 		.4byte	0x3dc
 894 01ab 24       		.byte	0x24
 895 01ac 06       		.uleb128 0x6
 896 01ad 28040000 		.4byte	.LASF35
 897 01b1 06       		.byte	0x6
 898 01b2 B3       		.byte	0xb3
 899 01b3 48020000 		.4byte	0x248
 900 01b7 28       		.byte	0x28
 901 01b8 06       		.uleb128 0x6
 902 01b9 C7030000 		.4byte	.LASF36
 903 01bd 06       		.byte	0x6
 904 01be B9       		.byte	0xb9
 905 01bf 28020000 		.4byte	0x228
 906 01c3 2C       		.byte	0x2c
 907 01c4 06       		.uleb128 0x6
 908 01c5 00000000 		.4byte	.LASF37
 909 01c9 06       		.byte	0x6
 910 01ca BD       		.byte	0xbd
 911 01cb D9000000 		.4byte	0xd9
 912 01cf 34       		.byte	0x34
ARM GAS  /tmp/ccjVFBhL.s 			page 17


 913 01d0 06       		.uleb128 0x6
 914 01d1 38030000 		.4byte	.LASF38
 915 01d5 06       		.byte	0x6
 916 01d6 C3       		.byte	0xc3
 917 01d7 E4000000 		.4byte	0xe4
 918 01db 38       		.byte	0x38
 919 01dc 06       		.uleb128 0x6
 920 01dd F6020000 		.4byte	.LASF39
 921 01e1 06       		.byte	0x6
 922 01e2 CA       		.byte	0xca
 923 01e3 23040000 		.4byte	0x423
 924 01e7 3C       		.byte	0x3c
 925 01e8 06       		.uleb128 0x6
 926 01e9 96030000 		.4byte	.LASF40
 927 01ed 06       		.byte	0x6
 928 01ee CE       		.byte	0xce
 929 01ef CE000000 		.4byte	0xce
 930 01f3 40       		.byte	0x40
 931 01f4 06       		.uleb128 0x6
 932 01f5 A8000000 		.4byte	.LASF41
 933 01f9 06       		.byte	0x6
 934 01fa D4       		.byte	0xd4
 935 01fb 5E020000 		.4byte	0x25e
 936 01ff 44       		.byte	0x44
 937 0200 00       		.byte	0
 938 0201 08       		.uleb128 0x8
 939 0202 08       		.byte	0x8
 940 0203 05       		.byte	0x5
 941 0204 61       		.byte	0x61
 942 0205 22020000 		.4byte	0x222
 943 0209 06       		.uleb128 0x6
 944 020a 19030000 		.4byte	.LASF24
 945 020e 05       		.byte	0x5
 946 020f 62       		.byte	0x62
 947 0210 22020000 		.4byte	0x222
 948 0214 00       		.byte	0
 949 0215 06       		.uleb128 0x6
 950 0216 CA020000 		.4byte	.LASF25
 951 021a 05       		.byte	0x5
 952 021b 64       		.byte	0x64
 953 021c 22020000 		.4byte	0x222
 954 0220 04       		.byte	0x4
 955 0221 00       		.byte	0
 956 0222 09       		.uleb128 0x9
 957 0223 04       		.byte	0x4
 958 0224 05010000 		.4byte	0x105
 959 0228 04       		.uleb128 0x4
 960 0229 A6020000 		.4byte	.LASF42
 961 022d 05       		.byte	0x5
 962 022e 66       		.byte	0x66
 963 022f 01020000 		.4byte	0x201
 964 0233 08       		.uleb128 0x8
 965 0234 04       		.byte	0x4
 966 0235 05       		.byte	0x5
 967 0236 6B       		.byte	0x6b
 968 0237 48020000 		.4byte	0x248
 969 023b 06       		.uleb128 0x6
ARM GAS  /tmp/ccjVFBhL.s 			page 18


 970 023c 19030000 		.4byte	.LASF24
 971 0240 05       		.byte	0x5
 972 0241 6D       		.byte	0x6d
 973 0242 22020000 		.4byte	0x222
 974 0246 00       		.byte	0
 975 0247 00       		.byte	0
 976 0248 04       		.uleb128 0x4
 977 0249 A1010000 		.4byte	.LASF43
 978 024d 05       		.byte	0x5
 979 024e 70       		.byte	0x70
 980 024f 33020000 		.4byte	0x233
 981 0253 04       		.uleb128 0x4
 982 0254 F6000000 		.4byte	.LASF44
 983 0258 07       		.byte	0x7
 984 0259 D7       		.byte	0xd7
 985 025a 5E020000 		.4byte	0x25e
 986 025e 0A       		.uleb128 0xa
 987 025f 04       		.byte	0x4
 988 0260 05       		.uleb128 0x5
 989 0261 C0030000 		.4byte	.LASF45
 990 0265 24       		.byte	0x24
 991 0266 07       		.byte	0x7
 992 0267 FE       		.byte	0xfe
 993 0268 DB020000 		.4byte	0x2db
 994 026c 0B       		.uleb128 0xb
 995 026d 723400   		.ascii	"r4\000"
 996 0270 07       		.byte	0x7
 997 0271 1101     		.2byte	0x111
 998 0273 53020000 		.4byte	0x253
 999 0277 00       		.byte	0
 1000 0278 0B       		.uleb128 0xb
 1001 0279 723500   		.ascii	"r5\000"
 1002 027c 07       		.byte	0x7
 1003 027d 1201     		.2byte	0x112
 1004 027f 53020000 		.4byte	0x253
 1005 0283 04       		.byte	0x4
 1006 0284 0B       		.uleb128 0xb
 1007 0285 723600   		.ascii	"r6\000"
 1008 0288 07       		.byte	0x7
 1009 0289 1301     		.2byte	0x113
 1010 028b 53020000 		.4byte	0x253
 1011 028f 08       		.byte	0x8
 1012 0290 0B       		.uleb128 0xb
 1013 0291 723700   		.ascii	"r7\000"
 1014 0294 07       		.byte	0x7
 1015 0295 1401     		.2byte	0x114
 1016 0297 53020000 		.4byte	0x253
 1017 029b 0C       		.byte	0xc
 1018 029c 0B       		.uleb128 0xb
 1019 029d 723800   		.ascii	"r8\000"
 1020 02a0 07       		.byte	0x7
 1021 02a1 1501     		.2byte	0x115
 1022 02a3 53020000 		.4byte	0x253
 1023 02a7 10       		.byte	0x10
 1024 02a8 0B       		.uleb128 0xb
 1025 02a9 723900   		.ascii	"r9\000"
 1026 02ac 07       		.byte	0x7
ARM GAS  /tmp/ccjVFBhL.s 			page 19


 1027 02ad 1601     		.2byte	0x116
 1028 02af 53020000 		.4byte	0x253
 1029 02b3 14       		.byte	0x14
 1030 02b4 0B       		.uleb128 0xb
 1031 02b5 72313000 		.ascii	"r10\000"
 1032 02b9 07       		.byte	0x7
 1033 02ba 1701     		.2byte	0x117
 1034 02bc 53020000 		.4byte	0x253
 1035 02c0 18       		.byte	0x18
 1036 02c1 0B       		.uleb128 0xb
 1037 02c2 72313100 		.ascii	"r11\000"
 1038 02c6 07       		.byte	0x7
 1039 02c7 1801     		.2byte	0x118
 1040 02c9 53020000 		.4byte	0x253
 1041 02cd 1C       		.byte	0x1c
 1042 02ce 0B       		.uleb128 0xb
 1043 02cf 6C7200   		.ascii	"lr\000"
 1044 02d2 07       		.byte	0x7
 1045 02d3 1901     		.2byte	0x119
 1046 02d5 53020000 		.4byte	0x253
 1047 02d9 20       		.byte	0x20
 1048 02da 00       		.byte	0
 1049 02db 0C       		.uleb128 0xc
 1050 02dc 62010000 		.4byte	.LASF46
 1051 02e0 04       		.byte	0x4
 1052 02e1 07       		.byte	0x7
 1053 02e2 2301     		.2byte	0x123
 1054 02e4 F6020000 		.4byte	0x2f6
 1055 02e8 0B       		.uleb128 0xb
 1056 02e9 72313300 		.ascii	"r13\000"
 1057 02ed 07       		.byte	0x7
 1058 02ee 2401     		.2byte	0x124
 1059 02f0 F6020000 		.4byte	0x2f6
 1060 02f4 00       		.byte	0
 1061 02f5 00       		.byte	0
 1062 02f6 09       		.uleb128 0x9
 1063 02f7 04       		.byte	0x4
 1064 02f8 60020000 		.4byte	0x260
 1065 02fc 03       		.uleb128 0x3
 1066 02fd 04       		.byte	0x4
 1067 02fe 07       		.byte	0x7
 1068 02ff 82020000 		.4byte	.LASF47
 1069 0303 0D       		.uleb128 0xd
 1070 0304 EF000000 		.4byte	0xef
 1071 0308 05       		.uleb128 0x5
 1072 0309 DC030000 		.4byte	.LASF48
 1073 030d 0C       		.byte	0xc
 1074 030e 08       		.byte	0x8
 1075 030f 2C       		.byte	0x2c
 1076 0310 2D030000 		.4byte	0x32d
 1077 0314 06       		.uleb128 0x6
 1078 0315 D2000000 		.4byte	.LASF49
 1079 0319 08       		.byte	0x8
 1080 031a 2D       		.byte	0x2d
 1081 031b 28020000 		.4byte	0x228
 1082 031f 00       		.byte	0
 1083 0320 06       		.uleb128 0x6
ARM GAS  /tmp/ccjVFBhL.s 			page 20


 1084 0321 5C010000 		.4byte	.LASF50
 1085 0325 08       		.byte	0x8
 1086 0326 2F       		.byte	0x2f
 1087 0327 FA000000 		.4byte	0xfa
 1088 032b 08       		.byte	0x8
 1089 032c 00       		.byte	0
 1090 032d 04       		.uleb128 0x4
 1091 032e DC030000 		.4byte	.LASF48
 1092 0332 08       		.byte	0x8
 1093 0333 30       		.byte	0x30
 1094 0334 08030000 		.4byte	0x308
 1095 0338 05       		.uleb128 0x5
 1096 0339 B9010000 		.4byte	.LASF51
 1097 033d 10       		.byte	0x10
 1098 033e 09       		.byte	0x9
 1099 033f 2C       		.byte	0x2c
 1100 0340 69030000 		.4byte	0x369
 1101 0344 06       		.uleb128 0x6
 1102 0345 B0000000 		.4byte	.LASF52
 1103 0349 09       		.byte	0x9
 1104 034a 2D       		.byte	0x2d
 1105 034b 28020000 		.4byte	0x228
 1106 034f 00       		.byte	0
 1107 0350 06       		.uleb128 0x6
 1108 0351 1A040000 		.4byte	.LASF53
 1109 0355 09       		.byte	0x9
 1110 0356 2F       		.byte	0x2f
 1111 0357 22020000 		.4byte	0x222
 1112 035b 08       		.byte	0x8
 1113 035c 06       		.uleb128 0x6
 1114 035d 85030000 		.4byte	.LASF54
 1115 0361 09       		.byte	0x9
 1116 0362 31       		.byte	0x31
 1117 0363 69030000 		.4byte	0x369
 1118 0367 0C       		.byte	0xc
 1119 0368 00       		.byte	0
 1120 0369 09       		.uleb128 0x9
 1121 036a 04       		.byte	0x4
 1122 036b 38030000 		.4byte	0x338
 1123 036f 04       		.uleb128 0x4
 1124 0370 B9010000 		.4byte	.LASF51
 1125 0374 09       		.byte	0x9
 1126 0375 33       		.byte	0x33
 1127 0376 38030000 		.4byte	0x338
 1128 037a 08       		.uleb128 0x8
 1129 037b 28       		.byte	0x28
 1130 037c 0A       		.byte	0xa
 1131 037d 33       		.byte	0x33
 1132 037e CB030000 		.4byte	0x3cb
 1133 0382 06       		.uleb128 0x6
 1134 0383 B3020000 		.4byte	.LASF55
 1135 0387 0A       		.byte	0xa
 1136 0388 34       		.byte	0x34
 1137 0389 CB030000 		.4byte	0x3cb
 1138 038d 00       		.byte	0
 1139 038e 06       		.uleb128 0x6
 1140 038f EF020000 		.4byte	.LASF56
ARM GAS  /tmp/ccjVFBhL.s 			page 21


 1141 0393 0A       		.byte	0xa
 1142 0394 36       		.byte	0x36
 1143 0395 CB030000 		.4byte	0x3cb
 1144 0399 04       		.byte	0x4
 1145 039a 06       		.uleb128 0x6
 1146 039b 7E000000 		.4byte	.LASF57
 1147 039f 0A       		.byte	0xa
 1148 03a0 38       		.byte	0x38
 1149 03a1 CB030000 		.4byte	0x3cb
 1150 03a5 08       		.byte	0x8
 1151 03a6 06       		.uleb128 0x6
 1152 03a7 8B020000 		.4byte	.LASF58
 1153 03ab 0A       		.byte	0xa
 1154 03ac 39       		.byte	0x39
 1155 03ad CB030000 		.4byte	0x3cb
 1156 03b1 0C       		.byte	0xc
 1157 03b2 06       		.uleb128 0x6
 1158 03b3 E6030000 		.4byte	.LASF59
 1159 03b7 0A       		.byte	0xa
 1160 03b8 3A       		.byte	0x3a
 1161 03b9 2D030000 		.4byte	0x32d
 1162 03bd 10       		.byte	0x10
 1163 03be 06       		.uleb128 0x6
 1164 03bf 50010000 		.4byte	.LASF60
 1165 03c3 0A       		.byte	0xa
 1166 03c4 3C       		.byte	0x3c
 1167 03c5 2D030000 		.4byte	0x32d
 1168 03c9 1C       		.byte	0x1c
 1169 03ca 00       		.byte	0
 1170 03cb 09       		.uleb128 0x9
 1171 03cc 04       		.byte	0x4
 1172 03cd D9000000 		.4byte	0xd9
 1173 03d1 04       		.uleb128 0x4
 1174 03d2 38000000 		.4byte	.LASF61
 1175 03d6 0A       		.byte	0xa
 1176 03d7 3E       		.byte	0x3e
 1177 03d8 7A030000 		.4byte	0x37a
 1178 03dc 0E       		.uleb128 0xe
 1179 03dd 04       		.byte	0x4
 1180 03de 06       		.byte	0x6
 1181 03df 90       		.byte	0x90
 1182 03e0 11040000 		.4byte	0x411
 1183 03e4 0F       		.uleb128 0xf
 1184 03e5 13000000 		.4byte	.LASF62
 1185 03e9 06       		.byte	0x6
 1186 03ea 97       		.byte	0x97
 1187 03eb D9000000 		.4byte	0xd9
 1188 03ef 0F       		.uleb128 0xf
 1189 03f0 66000000 		.4byte	.LASF63
 1190 03f4 06       		.byte	0x6
 1191 03f5 9E       		.byte	0x9e
 1192 03f6 D9000000 		.4byte	0xd9
 1193 03fa 0F       		.uleb128 0xf
 1194 03fb 0C040000 		.4byte	.LASF64
 1195 03ff 06       		.byte	0x6
 1196 0400 A5       		.byte	0xa5
 1197 0401 5E020000 		.4byte	0x25e
ARM GAS  /tmp/ccjVFBhL.s 			page 22


 1198 0405 0F       		.uleb128 0xf
 1199 0406 12030000 		.4byte	.LASF65
 1200 040a 06       		.byte	0x6
 1201 040b AC       		.byte	0xac
 1202 040c E4000000 		.4byte	0xe4
 1203 0410 00       		.byte	0
 1204 0411 09       		.uleb128 0x9
 1205 0412 04       		.byte	0x4
 1206 0413 17040000 		.4byte	0x417
 1207 0417 10       		.uleb128 0x10
 1208 0418 1C040000 		.4byte	0x41c
 1209 041c 03       		.uleb128 0x3
 1210 041d 01       		.byte	0x1
 1211 041e 08       		.byte	0x8
 1212 041f 4C030000 		.4byte	.LASF66
 1213 0423 09       		.uleb128 0x9
 1214 0424 04       		.byte	0x4
 1215 0425 6F030000 		.4byte	0x36f
 1216 0429 11       		.uleb128 0x11
 1217 042a 2E000000 		.4byte	.LASF68
 1218 042e 01       		.byte	0x1
 1219 042f 96       		.byte	0x96
 1220 0430 D9000000 		.4byte	0xd9
 1221 0434 01       		.byte	0x1
 1222 0435 66040000 		.4byte	0x466
 1223 0439 12       		.uleb128 0x12
 1224 043a 6D627000 		.ascii	"mbp\000"
 1225 043e 01       		.byte	0x1
 1226 043f 96       		.byte	0x96
 1227 0440 66040000 		.4byte	0x466
 1228 0444 12       		.uleb128 0x12
 1229 0445 6D736700 		.ascii	"msg\000"
 1230 0449 01       		.byte	0x1
 1231 044a 96       		.byte	0x96
 1232 044b D9000000 		.4byte	0xd9
 1233 044f 13       		.uleb128 0x13
 1234 0450 BD020000 		.4byte	.LASF67
 1235 0454 01       		.byte	0x1
 1236 0455 96       		.byte	0x96
 1237 0456 EF000000 		.4byte	0xef
 1238 045a 14       		.uleb128 0x14
 1239 045b 13000000 		.4byte	.LASF62
 1240 045f 01       		.byte	0x1
 1241 0460 97       		.byte	0x97
 1242 0461 D9000000 		.4byte	0xd9
 1243 0465 00       		.byte	0
 1244 0466 09       		.uleb128 0x9
 1245 0467 04       		.byte	0x4
 1246 0468 D1030000 		.4byte	0x3d1
 1247 046c 11       		.uleb128 0x11
 1248 046d 6F000000 		.4byte	.LASF69
 1249 0471 01       		.byte	0x1
 1250 0472 F3       		.byte	0xf3
 1251 0473 D9000000 		.4byte	0xd9
 1252 0477 01       		.byte	0x1
 1253 0478 A9040000 		.4byte	0x4a9
 1254 047c 12       		.uleb128 0x12
ARM GAS  /tmp/ccjVFBhL.s 			page 23


 1255 047d 6D627000 		.ascii	"mbp\000"
 1256 0481 01       		.byte	0x1
 1257 0482 F3       		.byte	0xf3
 1258 0483 66040000 		.4byte	0x466
 1259 0487 12       		.uleb128 0x12
 1260 0488 6D736700 		.ascii	"msg\000"
 1261 048c 01       		.byte	0x1
 1262 048d F3       		.byte	0xf3
 1263 048e D9000000 		.4byte	0xd9
 1264 0492 13       		.uleb128 0x13
 1265 0493 BD020000 		.4byte	.LASF67
 1266 0497 01       		.byte	0x1
 1267 0498 F3       		.byte	0xf3
 1268 0499 EF000000 		.4byte	0xef
 1269 049d 14       		.uleb128 0x14
 1270 049e 13000000 		.4byte	.LASF62
 1271 04a2 01       		.byte	0x1
 1272 04a3 F4       		.byte	0xf4
 1273 04a4 D9000000 		.4byte	0xd9
 1274 04a8 00       		.byte	0
 1275 04a9 15       		.uleb128 0x15
 1276 04aa 8E010000 		.4byte	.LASF70
 1277 04ae 01       		.byte	0x1
 1278 04af 5001     		.2byte	0x150
 1279 04b1 D9000000 		.4byte	0xd9
 1280 04b5 01       		.byte	0x1
 1281 04b6 EB040000 		.4byte	0x4eb
 1282 04ba 16       		.uleb128 0x16
 1283 04bb 6D627000 		.ascii	"mbp\000"
 1284 04bf 01       		.byte	0x1
 1285 04c0 5001     		.2byte	0x150
 1286 04c2 66040000 		.4byte	0x466
 1287 04c6 17       		.uleb128 0x17
 1288 04c7 BF010000 		.4byte	.LASF71
 1289 04cb 01       		.byte	0x1
 1290 04cc 5001     		.2byte	0x150
 1291 04ce CB030000 		.4byte	0x3cb
 1292 04d2 17       		.uleb128 0x17
 1293 04d3 BD020000 		.4byte	.LASF67
 1294 04d7 01       		.byte	0x1
 1295 04d8 5001     		.2byte	0x150
 1296 04da EF000000 		.4byte	0xef
 1297 04de 18       		.uleb128 0x18
 1298 04df 13000000 		.4byte	.LASF62
 1299 04e3 01       		.byte	0x1
 1300 04e4 5101     		.2byte	0x151
 1301 04e6 D9000000 		.4byte	0xd9
 1302 04ea 00       		.byte	0
 1303 04eb 19       		.uleb128 0x19
 1304 04ec 35010000 		.4byte	.LASF72
 1305 04f0 01       		.byte	0x1
 1306 04f1 48       		.byte	0x48
 1307 04f2 00000000 		.4byte	.LFB7
 1308 04f6 28000000 		.4byte	.LFE7-.LFB7
 1309 04fa 01       		.uleb128 0x1
 1310 04fb 9C       		.byte	0x9c
 1311 04fc 5F050000 		.4byte	0x55f
ARM GAS  /tmp/ccjVFBhL.s 			page 24


 1312 0500 1A       		.uleb128 0x1a
 1313 0501 6D627000 		.ascii	"mbp\000"
 1314 0505 01       		.byte	0x1
 1315 0506 48       		.byte	0x48
 1316 0507 66040000 		.4byte	0x466
 1317 050b 00000000 		.4byte	.LLST0
 1318 050f 1A       		.uleb128 0x1a
 1319 0510 62756600 		.ascii	"buf\000"
 1320 0514 01       		.byte	0x1
 1321 0515 48       		.byte	0x48
 1322 0516 CB030000 		.4byte	0x3cb
 1323 051a 39000000 		.4byte	.LLST1
 1324 051e 1A       		.uleb128 0x1a
 1325 051f 6E00     		.ascii	"n\000"
 1326 0521 01       		.byte	0x1
 1327 0522 48       		.byte	0x48
 1328 0523 FA000000 		.4byte	0xfa
 1329 0527 65000000 		.4byte	.LLST2
 1330 052b 1B       		.uleb128 0x1b
 1331 052c 1A000000 		.4byte	.LVL3
 1332 0530 B90A0000 		.4byte	0xab9
 1333 0534 46050000 		.4byte	0x546
 1334 0538 1C       		.uleb128 0x1c
 1335 0539 01       		.uleb128 0x1
 1336 053a 51       		.byte	0x51
 1337 053b 03       		.uleb128 0x3
 1338 053c F3       		.byte	0xf3
 1339 053d 01       		.uleb128 0x1
 1340 053e 52       		.byte	0x52
 1341 053f 1C       		.uleb128 0x1c
 1342 0540 01       		.uleb128 0x1
 1343 0541 50       		.byte	0x50
 1344 0542 02       		.uleb128 0x2
 1345 0543 74       		.byte	0x74
 1346 0544 1C       		.sleb128 28
 1347 0545 00       		.byte	0
 1348 0546 1D       		.uleb128 0x1d
 1349 0547 28000000 		.4byte	.LVL5
 1350 054b B90A0000 		.4byte	0xab9
 1351 054f 1C       		.uleb128 0x1c
 1352 0550 01       		.uleb128 0x1
 1353 0551 51       		.byte	0x51
 1354 0552 01       		.uleb128 0x1
 1355 0553 30       		.byte	0x30
 1356 0554 1C       		.uleb128 0x1c
 1357 0555 01       		.uleb128 0x1
 1358 0556 50       		.byte	0x50
 1359 0557 05       		.uleb128 0x5
 1360 0558 F3       		.byte	0xf3
 1361 0559 01       		.uleb128 0x1
 1362 055a 50       		.byte	0x50
 1363 055b 23       		.byte	0x23
 1364 055c 10       		.uleb128 0x10
 1365 055d 00       		.byte	0
 1366 055e 00       		.byte	0
 1367 055f 19       		.uleb128 0x19
 1368 0560 94020000 		.4byte	.LASF73
ARM GAS  /tmp/ccjVFBhL.s 			page 25


 1369 0564 01       		.byte	0x1
 1370 0565 5B       		.byte	0x5b
 1371 0566 00000000 		.4byte	.LFB8
 1372 056a 32000000 		.4byte	.LFE8-.LFB8
 1373 056e 01       		.uleb128 0x1
 1374 056f 9C       		.byte	0x9c
 1375 0570 EC050000 		.4byte	0x5ec
 1376 0574 1A       		.uleb128 0x1a
 1377 0575 6D627000 		.ascii	"mbp\000"
 1378 0579 01       		.byte	0x1
 1379 057a 5B       		.byte	0x5b
 1380 057b 66040000 		.4byte	0x466
 1381 057f 86000000 		.4byte	.LLST3
 1382 0583 1E       		.uleb128 0x1e
 1383 0584 00000000 		.4byte	.Ldebug_ranges0+0
 1384 0588 9A050000 		.4byte	0x59a
 1385 058c 1F       		.uleb128 0x1f
 1386 058d 746D7000 		.ascii	"tmp\000"
 1387 0591 01       		.byte	0x1
 1388 0592 5F       		.byte	0x5f
 1389 0593 A2000000 		.4byte	0xa2
 1390 0597 01       		.uleb128 0x1
 1391 0598 53       		.byte	0x53
 1392 0599 00       		.byte	0
 1393 059a 20       		.uleb128 0x20
 1394 059b 2A000000 		.4byte	.LBB4
 1395 059f 08000000 		.4byte	.LBE4-.LBB4
 1396 05a3 B5050000 		.4byte	0x5b5
 1397 05a7 1F       		.uleb128 0x1f
 1398 05a8 746D7000 		.ascii	"tmp\000"
 1399 05ac 01       		.byte	0x1
 1400 05ad 64       		.byte	0x64
 1401 05ae A2000000 		.4byte	0xa2
 1402 05b2 01       		.uleb128 0x1
 1403 05b3 53       		.byte	0x53
 1404 05b4 00       		.byte	0
 1405 05b5 1B       		.uleb128 0x1b
 1406 05b6 1C000000 		.4byte	.LVL8
 1407 05ba D50A0000 		.4byte	0xad5
 1408 05be C9050000 		.4byte	0x5c9
 1409 05c2 1C       		.uleb128 0x1c
 1410 05c3 01       		.uleb128 0x1
 1411 05c4 50       		.byte	0x50
 1412 05c5 02       		.uleb128 0x2
 1413 05c6 74       		.byte	0x74
 1414 05c7 1C       		.sleb128 28
 1415 05c8 00       		.byte	0
 1416 05c9 1B       		.uleb128 0x1b
 1417 05ca 26000000 		.4byte	.LVL9
 1418 05ce D50A0000 		.4byte	0xad5
 1419 05d2 E2050000 		.4byte	0x5e2
 1420 05d6 1C       		.uleb128 0x1c
 1421 05d7 01       		.uleb128 0x1
 1422 05d8 51       		.byte	0x51
 1423 05d9 01       		.uleb128 0x1
 1424 05da 30       		.byte	0x30
 1425 05db 1C       		.uleb128 0x1c
ARM GAS  /tmp/ccjVFBhL.s 			page 26


 1426 05dc 01       		.uleb128 0x1
 1427 05dd 50       		.byte	0x50
 1428 05de 02       		.uleb128 0x2
 1429 05df 74       		.byte	0x74
 1430 05e0 10       		.sleb128 16
 1431 05e1 00       		.byte	0
 1432 05e2 21       		.uleb128 0x21
 1433 05e3 2A000000 		.4byte	.LVL10
 1434 05e7 EB0A0000 		.4byte	0xaeb
 1435 05eb 00       		.byte	0
 1436 05ec 22       		.uleb128 0x22
 1437 05ed 29040000 		.4byte	0x429
 1438 05f1 00000000 		.4byte	.LFB10
 1439 05f5 36000000 		.4byte	.LFE10-.LFB10
 1440 05f9 01       		.uleb128 0x1
 1441 05fa 9C       		.byte	0x9c
 1442 05fb 90060000 		.4byte	0x690
 1443 05ff 23       		.uleb128 0x23
 1444 0600 39040000 		.4byte	0x439
 1445 0604 A4000000 		.4byte	.LLST4
 1446 0608 23       		.uleb128 0x23
 1447 0609 44040000 		.4byte	0x444
 1448 060d C2000000 		.4byte	.LLST5
 1449 0611 23       		.uleb128 0x23
 1450 0612 4F040000 		.4byte	0x44f
 1451 0616 E0000000 		.4byte	.LLST6
 1452 061a 24       		.uleb128 0x24
 1453 061b 5A040000 		.4byte	0x45a
 1454 061f 01010000 		.4byte	.LLST7
 1455 0623 20       		.uleb128 0x20
 1456 0624 12000000 		.4byte	.LBB7
 1457 0628 20000000 		.4byte	.LBE7-.LBB7
 1458 062c 78060000 		.4byte	0x678
 1459 0630 23       		.uleb128 0x23
 1460 0631 4F040000 		.4byte	0x44f
 1461 0635 1F010000 		.4byte	.LLST8
 1462 0639 23       		.uleb128 0x23
 1463 063a 44040000 		.4byte	0x444
 1464 063e 35010000 		.4byte	.LLST9
 1465 0642 23       		.uleb128 0x23
 1466 0643 39040000 		.4byte	0x439
 1467 0647 48010000 		.4byte	.LLST10
 1468 064b 25       		.uleb128 0x25
 1469 064c 12000000 		.4byte	.LBB8
 1470 0650 20000000 		.4byte	.LBE8-.LBB8
 1471 0654 26       		.uleb128 0x26
 1472 0655 5A040000 		.4byte	0x45a
 1473 0659 1B       		.uleb128 0x1b
 1474 065a 2E000000 		.4byte	.LVL17
 1475 065e F20A0000 		.4byte	0xaf2
 1476 0662 6D060000 		.4byte	0x66d
 1477 0666 1C       		.uleb128 0x1c
 1478 0667 01       		.uleb128 0x1
 1479 0668 50       		.byte	0x50
 1480 0669 02       		.uleb128 0x2
 1481 066a 74       		.byte	0x74
 1482 066b 10       		.sleb128 16
ARM GAS  /tmp/ccjVFBhL.s 			page 27


 1483 066c 00       		.byte	0
 1484 066d 21       		.uleb128 0x21
 1485 066e 32000000 		.4byte	.LVL18
 1486 0672 EB0A0000 		.4byte	0xaeb
 1487 0676 00       		.byte	0
 1488 0677 00       		.byte	0
 1489 0678 27       		.uleb128 0x27
 1490 0679 0E000000 		.4byte	.LVL14
 1491 067d 030B0000 		.4byte	0xb03
 1492 0681 1C       		.uleb128 0x1c
 1493 0682 01       		.uleb128 0x1
 1494 0683 51       		.byte	0x51
 1495 0684 03       		.uleb128 0x3
 1496 0685 F3       		.byte	0xf3
 1497 0686 01       		.uleb128 0x1
 1498 0687 52       		.byte	0x52
 1499 0688 1C       		.uleb128 0x1c
 1500 0689 01       		.uleb128 0x1
 1501 068a 50       		.byte	0x50
 1502 068b 02       		.uleb128 0x2
 1503 068c 74       		.byte	0x74
 1504 068d 1C       		.sleb128 28
 1505 068e 00       		.byte	0
 1506 068f 00       		.byte	0
 1507 0690 28       		.uleb128 0x28
 1508 0691 28030000 		.4byte	.LASF74
 1509 0695 01       		.byte	0x1
 1510 0696 7A       		.byte	0x7a
 1511 0697 D9000000 		.4byte	0xd9
 1512 069b 00000000 		.4byte	.LFB9
 1513 069f 14000000 		.4byte	.LFE9-.LFB9
 1514 06a3 01       		.uleb128 0x1
 1515 06a4 9C       		.byte	0x9c
 1516 06a5 39070000 		.4byte	0x739
 1517 06a9 1A       		.uleb128 0x1a
 1518 06aa 6D627000 		.ascii	"mbp\000"
 1519 06ae 01       		.byte	0x1
 1520 06af 7A       		.byte	0x7a
 1521 06b0 66040000 		.4byte	0x466
 1522 06b4 5B010000 		.4byte	.LLST11
 1523 06b8 1A       		.uleb128 0x1a
 1524 06b9 6D736700 		.ascii	"msg\000"
 1525 06bd 01       		.byte	0x1
 1526 06be 7A       		.byte	0x7a
 1527 06bf D9000000 		.4byte	0xd9
 1528 06c3 7C010000 		.4byte	.LLST12
 1529 06c7 29       		.uleb128 0x29
 1530 06c8 BD020000 		.4byte	.LASF67
 1531 06cc 01       		.byte	0x1
 1532 06cd 7A       		.byte	0x7a
 1533 06ce EF000000 		.4byte	0xef
 1534 06d2 9D010000 		.4byte	.LLST13
 1535 06d6 2A       		.uleb128 0x2a
 1536 06d7 13000000 		.4byte	.LASF62
 1537 06db 01       		.byte	0x1
 1538 06dc 7B       		.byte	0x7b
 1539 06dd D9000000 		.4byte	0xd9
ARM GAS  /tmp/ccjVFBhL.s 			page 28


 1540 06e1 01       		.uleb128 0x1
 1541 06e2 50       		.byte	0x50
 1542 06e3 20       		.uleb128 0x20
 1543 06e4 02000000 		.4byte	.LBB9
 1544 06e8 06000000 		.4byte	.LBE9-.LBB9
 1545 06ec FE060000 		.4byte	0x6fe
 1546 06f0 1F       		.uleb128 0x1f
 1547 06f1 746D7000 		.ascii	"tmp\000"
 1548 06f5 01       		.byte	0x1
 1549 06f6 7D       		.byte	0x7d
 1550 06f7 A2000000 		.4byte	0xa2
 1551 06fb 01       		.uleb128 0x1
 1552 06fc 53       		.byte	0x53
 1553 06fd 00       		.byte	0
 1554 06fe 20       		.uleb128 0x20
 1555 06ff 0C000000 		.4byte	.LBB10
 1556 0703 06000000 		.4byte	.LBE10-.LBB10
 1557 0707 19070000 		.4byte	0x719
 1558 070b 1F       		.uleb128 0x1f
 1559 070c 746D7000 		.ascii	"tmp\000"
 1560 0710 01       		.byte	0x1
 1561 0711 7F       		.byte	0x7f
 1562 0712 A2000000 		.4byte	0xa2
 1563 0716 01       		.uleb128 0x1
 1564 0717 53       		.byte	0x53
 1565 0718 00       		.byte	0
 1566 0719 27       		.uleb128 0x27
 1567 071a 0C000000 		.4byte	.LVL20
 1568 071e 29040000 		.4byte	0x429
 1569 0722 1C       		.uleb128 0x1c
 1570 0723 01       		.uleb128 0x1
 1571 0724 52       		.byte	0x52
 1572 0725 03       		.uleb128 0x3
 1573 0726 F3       		.byte	0xf3
 1574 0727 01       		.uleb128 0x1
 1575 0728 52       		.byte	0x52
 1576 0729 1C       		.uleb128 0x1c
 1577 072a 01       		.uleb128 0x1
 1578 072b 51       		.byte	0x51
 1579 072c 03       		.uleb128 0x3
 1580 072d F3       		.byte	0xf3
 1581 072e 01       		.uleb128 0x1
 1582 072f 51       		.byte	0x51
 1583 0730 1C       		.uleb128 0x1c
 1584 0731 01       		.uleb128 0x1
 1585 0732 50       		.byte	0x50
 1586 0733 03       		.uleb128 0x3
 1587 0734 F3       		.byte	0xf3
 1588 0735 01       		.uleb128 0x1
 1589 0736 50       		.byte	0x50
 1590 0737 00       		.byte	0
 1591 0738 00       		.byte	0
 1592 0739 28       		.uleb128 0x28
 1593 073a 24000000 		.4byte	.LASF75
 1594 073e 01       		.byte	0x1
 1595 073f B5       		.byte	0xb5
 1596 0740 D9000000 		.4byte	0xd9
ARM GAS  /tmp/ccjVFBhL.s 			page 29


 1597 0744 00000000 		.4byte	.LFB11
 1598 0748 34000000 		.4byte	.LFE11-.LFB11
 1599 074c 01       		.uleb128 0x1
 1600 074d 9C       		.byte	0x9c
 1601 074e 84070000 		.4byte	0x784
 1602 0752 1A       		.uleb128 0x1a
 1603 0753 6D627000 		.ascii	"mbp\000"
 1604 0757 01       		.byte	0x1
 1605 0758 B5       		.byte	0xb5
 1606 0759 66040000 		.4byte	0x466
 1607 075d BE010000 		.4byte	.LLST14
 1608 0761 1A       		.uleb128 0x1a
 1609 0762 6D736700 		.ascii	"msg\000"
 1610 0766 01       		.byte	0x1
 1611 0767 B5       		.byte	0xb5
 1612 0768 D9000000 		.4byte	0xd9
 1613 076c 05020000 		.4byte	.LLST15
 1614 0770 27       		.uleb128 0x27
 1615 0771 2A000000 		.4byte	.LVL23
 1616 0775 F20A0000 		.4byte	0xaf2
 1617 0779 1C       		.uleb128 0x1c
 1618 077a 01       		.uleb128 0x1
 1619 077b 50       		.byte	0x50
 1620 077c 05       		.uleb128 0x5
 1621 077d F3       		.byte	0xf3
 1622 077e 01       		.uleb128 0x1
 1623 077f 50       		.byte	0x50
 1624 0780 23       		.byte	0x23
 1625 0781 10       		.uleb128 0x10
 1626 0782 00       		.byte	0
 1627 0783 00       		.byte	0
 1628 0784 22       		.uleb128 0x22
 1629 0785 6C040000 		.4byte	0x46c
 1630 0789 00000000 		.4byte	.LFB13
 1631 078d 38000000 		.4byte	.LFE13-.LFB13
 1632 0791 01       		.uleb128 0x1
 1633 0792 9C       		.byte	0x9c
 1634 0793 20080000 		.4byte	0x820
 1635 0797 23       		.uleb128 0x23
 1636 0798 7C040000 		.4byte	0x47c
 1637 079c 31020000 		.4byte	.LLST16
 1638 07a0 23       		.uleb128 0x23
 1639 07a1 87040000 		.4byte	0x487
 1640 07a5 4F020000 		.4byte	.LLST17
 1641 07a9 23       		.uleb128 0x23
 1642 07aa 92040000 		.4byte	0x492
 1643 07ae 6D020000 		.4byte	.LLST18
 1644 07b2 24       		.uleb128 0x24
 1645 07b3 9D040000 		.4byte	0x49d
 1646 07b7 8E020000 		.4byte	.LLST19
 1647 07bb 1E       		.uleb128 0x1e
 1648 07bc 18000000 		.4byte	.Ldebug_ranges0+0x18
 1649 07c0 08080000 		.4byte	0x808
 1650 07c4 23       		.uleb128 0x23
 1651 07c5 92040000 		.4byte	0x492
 1652 07c9 B7020000 		.4byte	.LLST20
 1653 07cd 23       		.uleb128 0x23
ARM GAS  /tmp/ccjVFBhL.s 			page 30


 1654 07ce 87040000 		.4byte	0x487
 1655 07d2 DB020000 		.4byte	.LLST21
 1656 07d6 23       		.uleb128 0x23
 1657 07d7 7C040000 		.4byte	0x47c
 1658 07db F9020000 		.4byte	.LLST22
 1659 07df 2B       		.uleb128 0x2b
 1660 07e0 18000000 		.4byte	.Ldebug_ranges0+0x18
 1661 07e4 26       		.uleb128 0x26
 1662 07e5 9D040000 		.4byte	0x49d
 1663 07e9 1B       		.uleb128 0x1b
 1664 07ea 28000000 		.4byte	.LVL32
 1665 07ee F20A0000 		.4byte	0xaf2
 1666 07f2 FD070000 		.4byte	0x7fd
 1667 07f6 1C       		.uleb128 0x1c
 1668 07f7 01       		.uleb128 0x1
 1669 07f8 50       		.byte	0x50
 1670 07f9 02       		.uleb128 0x2
 1671 07fa 74       		.byte	0x74
 1672 07fb 10       		.sleb128 16
 1673 07fc 00       		.byte	0
 1674 07fd 21       		.uleb128 0x21
 1675 07fe 2C000000 		.4byte	.LVL33
 1676 0802 EB0A0000 		.4byte	0xaeb
 1677 0806 00       		.byte	0
 1678 0807 00       		.byte	0
 1679 0808 27       		.uleb128 0x27
 1680 0809 0E000000 		.4byte	.LVL29
 1681 080d 030B0000 		.4byte	0xb03
 1682 0811 1C       		.uleb128 0x1c
 1683 0812 01       		.uleb128 0x1
 1684 0813 51       		.byte	0x51
 1685 0814 03       		.uleb128 0x3
 1686 0815 F3       		.byte	0xf3
 1687 0816 01       		.uleb128 0x1
 1688 0817 52       		.byte	0x52
 1689 0818 1C       		.uleb128 0x1c
 1690 0819 01       		.uleb128 0x1
 1691 081a 50       		.byte	0x50
 1692 081b 02       		.uleb128 0x2
 1693 081c 74       		.byte	0x74
 1694 081d 1C       		.sleb128 28
 1695 081e 00       		.byte	0
 1696 081f 00       		.byte	0
 1697 0820 28       		.uleb128 0x28
 1698 0821 B2030000 		.4byte	.LASF76
 1699 0825 01       		.byte	0x1
 1700 0826 D7       		.byte	0xd7
 1701 0827 D9000000 		.4byte	0xd9
 1702 082b 00000000 		.4byte	.LFB12
 1703 082f 14000000 		.4byte	.LFE12-.LFB12
 1704 0833 01       		.uleb128 0x1
 1705 0834 9C       		.byte	0x9c
 1706 0835 C9080000 		.4byte	0x8c9
 1707 0839 1A       		.uleb128 0x1a
 1708 083a 6D627000 		.ascii	"mbp\000"
 1709 083e 01       		.byte	0x1
 1710 083f D7       		.byte	0xd7
ARM GAS  /tmp/ccjVFBhL.s 			page 31


 1711 0840 66040000 		.4byte	0x466
 1712 0844 17030000 		.4byte	.LLST23
 1713 0848 1A       		.uleb128 0x1a
 1714 0849 6D736700 		.ascii	"msg\000"
 1715 084d 01       		.byte	0x1
 1716 084e D7       		.byte	0xd7
 1717 084f D9000000 		.4byte	0xd9
 1718 0853 38030000 		.4byte	.LLST24
 1719 0857 29       		.uleb128 0x29
 1720 0858 BD020000 		.4byte	.LASF67
 1721 085c 01       		.byte	0x1
 1722 085d D7       		.byte	0xd7
 1723 085e EF000000 		.4byte	0xef
 1724 0862 59030000 		.4byte	.LLST25
 1725 0866 2A       		.uleb128 0x2a
 1726 0867 13000000 		.4byte	.LASF62
 1727 086b 01       		.byte	0x1
 1728 086c D8       		.byte	0xd8
 1729 086d D9000000 		.4byte	0xd9
 1730 0871 01       		.uleb128 0x1
 1731 0872 50       		.byte	0x50
 1732 0873 20       		.uleb128 0x20
 1733 0874 02000000 		.4byte	.LBB17
 1734 0878 06000000 		.4byte	.LBE17-.LBB17
 1735 087c 8E080000 		.4byte	0x88e
 1736 0880 1F       		.uleb128 0x1f
 1737 0881 746D7000 		.ascii	"tmp\000"
 1738 0885 01       		.byte	0x1
 1739 0886 DA       		.byte	0xda
 1740 0887 A2000000 		.4byte	0xa2
 1741 088b 01       		.uleb128 0x1
 1742 088c 53       		.byte	0x53
 1743 088d 00       		.byte	0
 1744 088e 20       		.uleb128 0x20
 1745 088f 0C000000 		.4byte	.LBB18
 1746 0893 06000000 		.4byte	.LBE18-.LBB18
 1747 0897 A9080000 		.4byte	0x8a9
 1748 089b 1F       		.uleb128 0x1f
 1749 089c 746D7000 		.ascii	"tmp\000"
 1750 08a0 01       		.byte	0x1
 1751 08a1 DC       		.byte	0xdc
 1752 08a2 A2000000 		.4byte	0xa2
 1753 08a6 01       		.uleb128 0x1
 1754 08a7 53       		.byte	0x53
 1755 08a8 00       		.byte	0
 1756 08a9 27       		.uleb128 0x27
 1757 08aa 0C000000 		.4byte	.LVL36
 1758 08ae 6C040000 		.4byte	0x46c
 1759 08b2 1C       		.uleb128 0x1c
 1760 08b3 01       		.uleb128 0x1
 1761 08b4 52       		.byte	0x52
 1762 08b5 03       		.uleb128 0x3
 1763 08b6 F3       		.byte	0xf3
 1764 08b7 01       		.uleb128 0x1
 1765 08b8 52       		.byte	0x52
 1766 08b9 1C       		.uleb128 0x1c
 1767 08ba 01       		.uleb128 0x1
ARM GAS  /tmp/ccjVFBhL.s 			page 32


 1768 08bb 51       		.byte	0x51
 1769 08bc 03       		.uleb128 0x3
 1770 08bd F3       		.byte	0xf3
 1771 08be 01       		.uleb128 0x1
 1772 08bf 51       		.byte	0x51
 1773 08c0 1C       		.uleb128 0x1c
 1774 08c1 01       		.uleb128 0x1
 1775 08c2 50       		.byte	0x50
 1776 08c3 03       		.uleb128 0x3
 1777 08c4 F3       		.byte	0xf3
 1778 08c5 01       		.uleb128 0x1
 1779 08c6 50       		.byte	0x50
 1780 08c7 00       		.byte	0
 1781 08c8 00       		.byte	0
 1782 08c9 2C       		.uleb128 0x2c
 1783 08ca 40000000 		.4byte	.LASF77
 1784 08ce 01       		.byte	0x1
 1785 08cf 1201     		.2byte	0x112
 1786 08d1 D9000000 		.4byte	0xd9
 1787 08d5 00000000 		.4byte	.LFB14
 1788 08d9 30000000 		.4byte	.LFE14-.LFB14
 1789 08dd 01       		.uleb128 0x1
 1790 08de 9C       		.byte	0x9c
 1791 08df 17090000 		.4byte	0x917
 1792 08e3 2D       		.uleb128 0x2d
 1793 08e4 6D627000 		.ascii	"mbp\000"
 1794 08e8 01       		.byte	0x1
 1795 08e9 1201     		.2byte	0x112
 1796 08eb 66040000 		.4byte	0x466
 1797 08ef 7A030000 		.4byte	.LLST26
 1798 08f3 2D       		.uleb128 0x2d
 1799 08f4 6D736700 		.ascii	"msg\000"
 1800 08f8 01       		.byte	0x1
 1801 08f9 1201     		.2byte	0x112
 1802 08fb D9000000 		.4byte	0xd9
 1803 08ff C1030000 		.4byte	.LLST27
 1804 0903 27       		.uleb128 0x27
 1805 0904 26000000 		.4byte	.LVL39
 1806 0908 F20A0000 		.4byte	0xaf2
 1807 090c 1C       		.uleb128 0x1c
 1808 090d 01       		.uleb128 0x1
 1809 090e 50       		.byte	0x50
 1810 090f 05       		.uleb128 0x5
 1811 0910 F3       		.byte	0xf3
 1812 0911 01       		.uleb128 0x1
 1813 0912 50       		.byte	0x50
 1814 0913 23       		.byte	0x23
 1815 0914 10       		.uleb128 0x10
 1816 0915 00       		.byte	0
 1817 0916 00       		.byte	0
 1818 0917 22       		.uleb128 0x22
 1819 0918 A9040000 		.4byte	0x4a9
 1820 091c 00000000 		.4byte	.LFB16
 1821 0920 38000000 		.4byte	.LFE16-.LFB16
 1822 0924 01       		.uleb128 0x1
 1823 0925 9C       		.byte	0x9c
 1824 0926 BB090000 		.4byte	0x9bb
ARM GAS  /tmp/ccjVFBhL.s 			page 33


 1825 092a 23       		.uleb128 0x23
 1826 092b BA040000 		.4byte	0x4ba
 1827 092f ED030000 		.4byte	.LLST28
 1828 0933 23       		.uleb128 0x23
 1829 0934 C6040000 		.4byte	0x4c6
 1830 0938 0B040000 		.4byte	.LLST29
 1831 093c 23       		.uleb128 0x23
 1832 093d D2040000 		.4byte	0x4d2
 1833 0941 29040000 		.4byte	.LLST30
 1834 0945 24       		.uleb128 0x24
 1835 0946 DE040000 		.4byte	0x4de
 1836 094a 4A040000 		.4byte	.LLST31
 1837 094e 20       		.uleb128 0x20
 1838 094f 12000000 		.4byte	.LBB21
 1839 0953 22000000 		.4byte	.LBE21-.LBB21
 1840 0957 A3090000 		.4byte	0x9a3
 1841 095b 23       		.uleb128 0x23
 1842 095c D2040000 		.4byte	0x4d2
 1843 0960 68040000 		.4byte	.LLST32
 1844 0964 23       		.uleb128 0x23
 1845 0965 C6040000 		.4byte	0x4c6
 1846 0969 7E040000 		.4byte	.LLST33
 1847 096d 23       		.uleb128 0x23
 1848 096e BA040000 		.4byte	0x4ba
 1849 0972 91040000 		.4byte	.LLST34
 1850 0976 25       		.uleb128 0x25
 1851 0977 12000000 		.4byte	.LBB22
 1852 097b 22000000 		.4byte	.LBE22-.LBB22
 1853 097f 26       		.uleb128 0x26
 1854 0980 DE040000 		.4byte	0x4de
 1855 0984 1B       		.uleb128 0x1b
 1856 0985 30000000 		.4byte	.LVL48
 1857 0989 F20A0000 		.4byte	0xaf2
 1858 098d 98090000 		.4byte	0x998
 1859 0991 1C       		.uleb128 0x1c
 1860 0992 01       		.uleb128 0x1
 1861 0993 50       		.byte	0x50
 1862 0994 02       		.uleb128 0x2
 1863 0995 74       		.byte	0x74
 1864 0996 1C       		.sleb128 28
 1865 0997 00       		.byte	0
 1866 0998 21       		.uleb128 0x21
 1867 0999 34000000 		.4byte	.LVL49
 1868 099d EB0A0000 		.4byte	0xaeb
 1869 09a1 00       		.byte	0
 1870 09a2 00       		.byte	0
 1871 09a3 27       		.uleb128 0x27
 1872 09a4 0E000000 		.4byte	.LVL45
 1873 09a8 030B0000 		.4byte	0xb03
 1874 09ac 1C       		.uleb128 0x1c
 1875 09ad 01       		.uleb128 0x1
 1876 09ae 51       		.byte	0x51
 1877 09af 03       		.uleb128 0x3
 1878 09b0 F3       		.byte	0xf3
 1879 09b1 01       		.uleb128 0x1
 1880 09b2 52       		.byte	0x52
 1881 09b3 1C       		.uleb128 0x1c
ARM GAS  /tmp/ccjVFBhL.s 			page 34


 1882 09b4 01       		.uleb128 0x1
 1883 09b5 50       		.byte	0x50
 1884 09b6 02       		.uleb128 0x2
 1885 09b7 74       		.byte	0x74
 1886 09b8 10       		.sleb128 16
 1887 09b9 00       		.byte	0
 1888 09ba 00       		.byte	0
 1889 09bb 2C       		.uleb128 0x2c
 1890 09bc D2030000 		.4byte	.LASF78
 1891 09c0 01       		.byte	0x1
 1892 09c1 3401     		.2byte	0x134
 1893 09c3 D9000000 		.4byte	0xd9
 1894 09c7 00000000 		.4byte	.LFB15
 1895 09cb 14000000 		.4byte	.LFE15-.LFB15
 1896 09cf 01       		.uleb128 0x1
 1897 09d0 9C       		.byte	0x9c
 1898 09d1 6B0A0000 		.4byte	0xa6b
 1899 09d5 2D       		.uleb128 0x2d
 1900 09d6 6D627000 		.ascii	"mbp\000"
 1901 09da 01       		.byte	0x1
 1902 09db 3401     		.2byte	0x134
 1903 09dd 66040000 		.4byte	0x466
 1904 09e1 A4040000 		.4byte	.LLST35
 1905 09e5 2E       		.uleb128 0x2e
 1906 09e6 BF010000 		.4byte	.LASF71
 1907 09ea 01       		.byte	0x1
 1908 09eb 3401     		.2byte	0x134
 1909 09ed CB030000 		.4byte	0x3cb
 1910 09f1 C5040000 		.4byte	.LLST36
 1911 09f5 2E       		.uleb128 0x2e
 1912 09f6 BD020000 		.4byte	.LASF67
 1913 09fa 01       		.byte	0x1
 1914 09fb 3401     		.2byte	0x134
 1915 09fd EF000000 		.4byte	0xef
 1916 0a01 E6040000 		.4byte	.LLST37
 1917 0a05 2F       		.uleb128 0x2f
 1918 0a06 13000000 		.4byte	.LASF62
 1919 0a0a 01       		.byte	0x1
 1920 0a0b 3501     		.2byte	0x135
 1921 0a0d D9000000 		.4byte	0xd9
 1922 0a11 01       		.uleb128 0x1
 1923 0a12 50       		.byte	0x50
 1924 0a13 20       		.uleb128 0x20
 1925 0a14 02000000 		.4byte	.LBB23
 1926 0a18 06000000 		.4byte	.LBE23-.LBB23
 1927 0a1c 2F0A0000 		.4byte	0xa2f
 1928 0a20 30       		.uleb128 0x30
 1929 0a21 746D7000 		.ascii	"tmp\000"
 1930 0a25 01       		.byte	0x1
 1931 0a26 3701     		.2byte	0x137
 1932 0a28 A2000000 		.4byte	0xa2
 1933 0a2c 01       		.uleb128 0x1
 1934 0a2d 53       		.byte	0x53
 1935 0a2e 00       		.byte	0
 1936 0a2f 20       		.uleb128 0x20
 1937 0a30 0C000000 		.4byte	.LBB24
 1938 0a34 06000000 		.4byte	.LBE24-.LBB24
ARM GAS  /tmp/ccjVFBhL.s 			page 35


 1939 0a38 4B0A0000 		.4byte	0xa4b
 1940 0a3c 30       		.uleb128 0x30
 1941 0a3d 746D7000 		.ascii	"tmp\000"
 1942 0a41 01       		.byte	0x1
 1943 0a42 3901     		.2byte	0x139
 1944 0a44 A2000000 		.4byte	0xa2
 1945 0a48 01       		.uleb128 0x1
 1946 0a49 53       		.byte	0x53
 1947 0a4a 00       		.byte	0
 1948 0a4b 27       		.uleb128 0x27
 1949 0a4c 0C000000 		.4byte	.LVL51
 1950 0a50 A9040000 		.4byte	0x4a9
 1951 0a54 1C       		.uleb128 0x1c
 1952 0a55 01       		.uleb128 0x1
 1953 0a56 52       		.byte	0x52
 1954 0a57 03       		.uleb128 0x3
 1955 0a58 F3       		.byte	0xf3
 1956 0a59 01       		.uleb128 0x1
 1957 0a5a 52       		.byte	0x52
 1958 0a5b 1C       		.uleb128 0x1c
 1959 0a5c 01       		.uleb128 0x1
 1960 0a5d 51       		.byte	0x51
 1961 0a5e 03       		.uleb128 0x3
 1962 0a5f F3       		.byte	0xf3
 1963 0a60 01       		.uleb128 0x1
 1964 0a61 51       		.byte	0x51
 1965 0a62 1C       		.uleb128 0x1c
 1966 0a63 01       		.uleb128 0x1
 1967 0a64 50       		.byte	0x50
 1968 0a65 03       		.uleb128 0x3
 1969 0a66 F3       		.byte	0xf3
 1970 0a67 01       		.uleb128 0x1
 1971 0a68 50       		.byte	0x50
 1972 0a69 00       		.byte	0
 1973 0a6a 00       		.byte	0
 1974 0a6b 2C       		.uleb128 0x2c
 1975 0a6c 7D010000 		.4byte	.LASF79
 1976 0a70 01       		.byte	0x1
 1977 0a71 6F01     		.2byte	0x16f
 1978 0a73 D9000000 		.4byte	0xd9
 1979 0a77 00000000 		.4byte	.LFB17
 1980 0a7b 36000000 		.4byte	.LFE17-.LFB17
 1981 0a7f 01       		.uleb128 0x1
 1982 0a80 9C       		.byte	0x9c
 1983 0a81 B90A0000 		.4byte	0xab9
 1984 0a85 2D       		.uleb128 0x2d
 1985 0a86 6D627000 		.ascii	"mbp\000"
 1986 0a8a 01       		.byte	0x1
 1987 0a8b 6F01     		.2byte	0x16f
 1988 0a8d 66040000 		.4byte	0x466
 1989 0a91 07050000 		.4byte	.LLST38
 1990 0a95 2E       		.uleb128 0x2e
 1991 0a96 BF010000 		.4byte	.LASF71
 1992 0a9a 01       		.byte	0x1
 1993 0a9b 6F01     		.2byte	0x16f
 1994 0a9d CB030000 		.4byte	0x3cb
 1995 0aa1 4E050000 		.4byte	.LLST39
ARM GAS  /tmp/ccjVFBhL.s 			page 36


 1996 0aa5 27       		.uleb128 0x27
 1997 0aa6 2C000000 		.4byte	.LVL54
 1998 0aaa F20A0000 		.4byte	0xaf2
 1999 0aae 1C       		.uleb128 0x1c
 2000 0aaf 01       		.uleb128 0x1
 2001 0ab0 50       		.byte	0x50
 2002 0ab1 05       		.uleb128 0x5
 2003 0ab2 F3       		.byte	0xf3
 2004 0ab3 01       		.uleb128 0x1
 2005 0ab4 50       		.byte	0x50
 2006 0ab5 23       		.byte	0x23
 2007 0ab6 1C       		.uleb128 0x1c
 2008 0ab7 00       		.byte	0
 2009 0ab8 00       		.byte	0
 2010 0ab9 31       		.uleb128 0x31
 2011 0aba 32040000 		.4byte	.LASF80
 2012 0abe 08       		.byte	0x8
 2013 0abf 35       		.byte	0x35
 2014 0ac0 CF0A0000 		.4byte	0xacf
 2015 0ac4 32       		.uleb128 0x32
 2016 0ac5 CF0A0000 		.4byte	0xacf
 2017 0ac9 32       		.uleb128 0x32
 2018 0aca FA000000 		.4byte	0xfa
 2019 0ace 00       		.byte	0
 2020 0acf 09       		.uleb128 0x9
 2021 0ad0 04       		.byte	0x4
 2022 0ad1 2D030000 		.4byte	0x32d
 2023 0ad5 31       		.uleb128 0x31
 2024 0ad6 F8030000 		.4byte	.LASF81
 2025 0ada 08       		.byte	0x8
 2026 0adb 37       		.byte	0x37
 2027 0adc EB0A0000 		.4byte	0xaeb
 2028 0ae0 32       		.uleb128 0x32
 2029 0ae1 CF0A0000 		.4byte	0xacf
 2030 0ae5 32       		.uleb128 0x32
 2031 0ae6 FA000000 		.4byte	0xfa
 2032 0aea 00       		.byte	0
 2033 0aeb 33       		.uleb128 0x33
 2034 0aec DA000000 		.4byte	.LASF87
 2035 0af0 0B       		.byte	0xb
 2036 0af1 9F       		.byte	0x9f
 2037 0af2 31       		.uleb128 0x31
 2038 0af3 06000000 		.4byte	.LASF82
 2039 0af7 08       		.byte	0x8
 2040 0af8 3D       		.byte	0x3d
 2041 0af9 030B0000 		.4byte	0xb03
 2042 0afd 32       		.uleb128 0x32
 2043 0afe CF0A0000 		.4byte	0xacf
 2044 0b02 00       		.byte	0
 2045 0b03 34       		.uleb128 0x34
 2046 0b04 51030000 		.4byte	.LASF83
 2047 0b08 08       		.byte	0x8
 2048 0b09 3B       		.byte	0x3b
 2049 0b0a D9000000 		.4byte	0xd9
 2050 0b0e 32       		.uleb128 0x32
 2051 0b0f CF0A0000 		.4byte	0xacf
 2052 0b13 32       		.uleb128 0x32
ARM GAS  /tmp/ccjVFBhL.s 			page 37


 2053 0b14 EF000000 		.4byte	0xef
 2054 0b18 00       		.byte	0
 2055 0b19 00       		.byte	0
 2056              		.section	.debug_abbrev,"",%progbits
 2057              	.Ldebug_abbrev0:
 2058 0000 01       		.uleb128 0x1
 2059 0001 11       		.uleb128 0x11
 2060 0002 01       		.byte	0x1
 2061 0003 25       		.uleb128 0x25
 2062 0004 0E       		.uleb128 0xe
 2063 0005 13       		.uleb128 0x13
 2064 0006 0B       		.uleb128 0xb
 2065 0007 03       		.uleb128 0x3
 2066 0008 0E       		.uleb128 0xe
 2067 0009 1B       		.uleb128 0x1b
 2068 000a 0E       		.uleb128 0xe
 2069 000b 55       		.uleb128 0x55
 2070 000c 17       		.uleb128 0x17
 2071 000d 11       		.uleb128 0x11
 2072 000e 01       		.uleb128 0x1
 2073 000f 10       		.uleb128 0x10
 2074 0010 17       		.uleb128 0x17
 2075 0011 00       		.byte	0
 2076 0012 00       		.byte	0
 2077 0013 02       		.uleb128 0x2
 2078 0014 24       		.uleb128 0x24
 2079 0015 00       		.byte	0
 2080 0016 0B       		.uleb128 0xb
 2081 0017 0B       		.uleb128 0xb
 2082 0018 3E       		.uleb128 0x3e
 2083 0019 0B       		.uleb128 0xb
 2084 001a 03       		.uleb128 0x3
 2085 001b 08       		.uleb128 0x8
 2086 001c 00       		.byte	0
 2087 001d 00       		.byte	0
 2088 001e 03       		.uleb128 0x3
 2089 001f 24       		.uleb128 0x24
 2090 0020 00       		.byte	0
 2091 0021 0B       		.uleb128 0xb
 2092 0022 0B       		.uleb128 0xb
 2093 0023 3E       		.uleb128 0x3e
 2094 0024 0B       		.uleb128 0xb
 2095 0025 03       		.uleb128 0x3
 2096 0026 0E       		.uleb128 0xe
 2097 0027 00       		.byte	0
 2098 0028 00       		.byte	0
 2099 0029 04       		.uleb128 0x4
 2100 002a 16       		.uleb128 0x16
 2101 002b 00       		.byte	0
 2102 002c 03       		.uleb128 0x3
 2103 002d 0E       		.uleb128 0xe
 2104 002e 3A       		.uleb128 0x3a
 2105 002f 0B       		.uleb128 0xb
 2106 0030 3B       		.uleb128 0x3b
 2107 0031 0B       		.uleb128 0xb
 2108 0032 49       		.uleb128 0x49
 2109 0033 13       		.uleb128 0x13
ARM GAS  /tmp/ccjVFBhL.s 			page 38


 2110 0034 00       		.byte	0
 2111 0035 00       		.byte	0
 2112 0036 05       		.uleb128 0x5
 2113 0037 13       		.uleb128 0x13
 2114 0038 01       		.byte	0x1
 2115 0039 03       		.uleb128 0x3
 2116 003a 0E       		.uleb128 0xe
 2117 003b 0B       		.uleb128 0xb
 2118 003c 0B       		.uleb128 0xb
 2119 003d 3A       		.uleb128 0x3a
 2120 003e 0B       		.uleb128 0xb
 2121 003f 3B       		.uleb128 0x3b
 2122 0040 0B       		.uleb128 0xb
 2123 0041 01       		.uleb128 0x1
 2124 0042 13       		.uleb128 0x13
 2125 0043 00       		.byte	0
 2126 0044 00       		.byte	0
 2127 0045 06       		.uleb128 0x6
 2128 0046 0D       		.uleb128 0xd
 2129 0047 00       		.byte	0
 2130 0048 03       		.uleb128 0x3
 2131 0049 0E       		.uleb128 0xe
 2132 004a 3A       		.uleb128 0x3a
 2133 004b 0B       		.uleb128 0xb
 2134 004c 3B       		.uleb128 0x3b
 2135 004d 0B       		.uleb128 0xb
 2136 004e 49       		.uleb128 0x49
 2137 004f 13       		.uleb128 0x13
 2138 0050 38       		.uleb128 0x38
 2139 0051 0B       		.uleb128 0xb
 2140 0052 00       		.byte	0
 2141 0053 00       		.byte	0
 2142 0054 07       		.uleb128 0x7
 2143 0055 0D       		.uleb128 0xd
 2144 0056 00       		.byte	0
 2145 0057 03       		.uleb128 0x3
 2146 0058 08       		.uleb128 0x8
 2147 0059 3A       		.uleb128 0x3a
 2148 005a 0B       		.uleb128 0xb
 2149 005b 3B       		.uleb128 0x3b
 2150 005c 0B       		.uleb128 0xb
 2151 005d 49       		.uleb128 0x49
 2152 005e 13       		.uleb128 0x13
 2153 005f 38       		.uleb128 0x38
 2154 0060 0B       		.uleb128 0xb
 2155 0061 00       		.byte	0
 2156 0062 00       		.byte	0
 2157 0063 08       		.uleb128 0x8
 2158 0064 13       		.uleb128 0x13
 2159 0065 01       		.byte	0x1
 2160 0066 0B       		.uleb128 0xb
 2161 0067 0B       		.uleb128 0xb
 2162 0068 3A       		.uleb128 0x3a
 2163 0069 0B       		.uleb128 0xb
 2164 006a 3B       		.uleb128 0x3b
 2165 006b 0B       		.uleb128 0xb
 2166 006c 01       		.uleb128 0x1
ARM GAS  /tmp/ccjVFBhL.s 			page 39


 2167 006d 13       		.uleb128 0x13
 2168 006e 00       		.byte	0
 2169 006f 00       		.byte	0
 2170 0070 09       		.uleb128 0x9
 2171 0071 0F       		.uleb128 0xf
 2172 0072 00       		.byte	0
 2173 0073 0B       		.uleb128 0xb
 2174 0074 0B       		.uleb128 0xb
 2175 0075 49       		.uleb128 0x49
 2176 0076 13       		.uleb128 0x13
 2177 0077 00       		.byte	0
 2178 0078 00       		.byte	0
 2179 0079 0A       		.uleb128 0xa
 2180 007a 0F       		.uleb128 0xf
 2181 007b 00       		.byte	0
 2182 007c 0B       		.uleb128 0xb
 2183 007d 0B       		.uleb128 0xb
 2184 007e 00       		.byte	0
 2185 007f 00       		.byte	0
 2186 0080 0B       		.uleb128 0xb
 2187 0081 0D       		.uleb128 0xd
 2188 0082 00       		.byte	0
 2189 0083 03       		.uleb128 0x3
 2190 0084 08       		.uleb128 0x8
 2191 0085 3A       		.uleb128 0x3a
 2192 0086 0B       		.uleb128 0xb
 2193 0087 3B       		.uleb128 0x3b
 2194 0088 05       		.uleb128 0x5
 2195 0089 49       		.uleb128 0x49
 2196 008a 13       		.uleb128 0x13
 2197 008b 38       		.uleb128 0x38
 2198 008c 0B       		.uleb128 0xb
 2199 008d 00       		.byte	0
 2200 008e 00       		.byte	0
 2201 008f 0C       		.uleb128 0xc
 2202 0090 13       		.uleb128 0x13
 2203 0091 01       		.byte	0x1
 2204 0092 03       		.uleb128 0x3
 2205 0093 0E       		.uleb128 0xe
 2206 0094 0B       		.uleb128 0xb
 2207 0095 0B       		.uleb128 0xb
 2208 0096 3A       		.uleb128 0x3a
 2209 0097 0B       		.uleb128 0xb
 2210 0098 3B       		.uleb128 0x3b
 2211 0099 05       		.uleb128 0x5
 2212 009a 01       		.uleb128 0x1
 2213 009b 13       		.uleb128 0x13
 2214 009c 00       		.byte	0
 2215 009d 00       		.byte	0
 2216 009e 0D       		.uleb128 0xd
 2217 009f 35       		.uleb128 0x35
 2218 00a0 00       		.byte	0
 2219 00a1 49       		.uleb128 0x49
 2220 00a2 13       		.uleb128 0x13
 2221 00a3 00       		.byte	0
 2222 00a4 00       		.byte	0
 2223 00a5 0E       		.uleb128 0xe
ARM GAS  /tmp/ccjVFBhL.s 			page 40


 2224 00a6 17       		.uleb128 0x17
 2225 00a7 01       		.byte	0x1
 2226 00a8 0B       		.uleb128 0xb
 2227 00a9 0B       		.uleb128 0xb
 2228 00aa 3A       		.uleb128 0x3a
 2229 00ab 0B       		.uleb128 0xb
 2230 00ac 3B       		.uleb128 0x3b
 2231 00ad 0B       		.uleb128 0xb
 2232 00ae 01       		.uleb128 0x1
 2233 00af 13       		.uleb128 0x13
 2234 00b0 00       		.byte	0
 2235 00b1 00       		.byte	0
 2236 00b2 0F       		.uleb128 0xf
 2237 00b3 0D       		.uleb128 0xd
 2238 00b4 00       		.byte	0
 2239 00b5 03       		.uleb128 0x3
 2240 00b6 0E       		.uleb128 0xe
 2241 00b7 3A       		.uleb128 0x3a
 2242 00b8 0B       		.uleb128 0xb
 2243 00b9 3B       		.uleb128 0x3b
 2244 00ba 0B       		.uleb128 0xb
 2245 00bb 49       		.uleb128 0x49
 2246 00bc 13       		.uleb128 0x13
 2247 00bd 00       		.byte	0
 2248 00be 00       		.byte	0
 2249 00bf 10       		.uleb128 0x10
 2250 00c0 26       		.uleb128 0x26
 2251 00c1 00       		.byte	0
 2252 00c2 49       		.uleb128 0x49
 2253 00c3 13       		.uleb128 0x13
 2254 00c4 00       		.byte	0
 2255 00c5 00       		.byte	0
 2256 00c6 11       		.uleb128 0x11
 2257 00c7 2E       		.uleb128 0x2e
 2258 00c8 01       		.byte	0x1
 2259 00c9 3F       		.uleb128 0x3f
 2260 00ca 19       		.uleb128 0x19
 2261 00cb 03       		.uleb128 0x3
 2262 00cc 0E       		.uleb128 0xe
 2263 00cd 3A       		.uleb128 0x3a
 2264 00ce 0B       		.uleb128 0xb
 2265 00cf 3B       		.uleb128 0x3b
 2266 00d0 0B       		.uleb128 0xb
 2267 00d1 27       		.uleb128 0x27
 2268 00d2 19       		.uleb128 0x19
 2269 00d3 49       		.uleb128 0x49
 2270 00d4 13       		.uleb128 0x13
 2271 00d5 20       		.uleb128 0x20
 2272 00d6 0B       		.uleb128 0xb
 2273 00d7 01       		.uleb128 0x1
 2274 00d8 13       		.uleb128 0x13
 2275 00d9 00       		.byte	0
 2276 00da 00       		.byte	0
 2277 00db 12       		.uleb128 0x12
 2278 00dc 05       		.uleb128 0x5
 2279 00dd 00       		.byte	0
 2280 00de 03       		.uleb128 0x3
ARM GAS  /tmp/ccjVFBhL.s 			page 41


 2281 00df 08       		.uleb128 0x8
 2282 00e0 3A       		.uleb128 0x3a
 2283 00e1 0B       		.uleb128 0xb
 2284 00e2 3B       		.uleb128 0x3b
 2285 00e3 0B       		.uleb128 0xb
 2286 00e4 49       		.uleb128 0x49
 2287 00e5 13       		.uleb128 0x13
 2288 00e6 00       		.byte	0
 2289 00e7 00       		.byte	0
 2290 00e8 13       		.uleb128 0x13
 2291 00e9 05       		.uleb128 0x5
 2292 00ea 00       		.byte	0
 2293 00eb 03       		.uleb128 0x3
 2294 00ec 0E       		.uleb128 0xe
 2295 00ed 3A       		.uleb128 0x3a
 2296 00ee 0B       		.uleb128 0xb
 2297 00ef 3B       		.uleb128 0x3b
 2298 00f0 0B       		.uleb128 0xb
 2299 00f1 49       		.uleb128 0x49
 2300 00f2 13       		.uleb128 0x13
 2301 00f3 00       		.byte	0
 2302 00f4 00       		.byte	0
 2303 00f5 14       		.uleb128 0x14
 2304 00f6 34       		.uleb128 0x34
 2305 00f7 00       		.byte	0
 2306 00f8 03       		.uleb128 0x3
 2307 00f9 0E       		.uleb128 0xe
 2308 00fa 3A       		.uleb128 0x3a
 2309 00fb 0B       		.uleb128 0xb
 2310 00fc 3B       		.uleb128 0x3b
 2311 00fd 0B       		.uleb128 0xb
 2312 00fe 49       		.uleb128 0x49
 2313 00ff 13       		.uleb128 0x13
 2314 0100 00       		.byte	0
 2315 0101 00       		.byte	0
 2316 0102 15       		.uleb128 0x15
 2317 0103 2E       		.uleb128 0x2e
 2318 0104 01       		.byte	0x1
 2319 0105 3F       		.uleb128 0x3f
 2320 0106 19       		.uleb128 0x19
 2321 0107 03       		.uleb128 0x3
 2322 0108 0E       		.uleb128 0xe
 2323 0109 3A       		.uleb128 0x3a
 2324 010a 0B       		.uleb128 0xb
 2325 010b 3B       		.uleb128 0x3b
 2326 010c 05       		.uleb128 0x5
 2327 010d 27       		.uleb128 0x27
 2328 010e 19       		.uleb128 0x19
 2329 010f 49       		.uleb128 0x49
 2330 0110 13       		.uleb128 0x13
 2331 0111 20       		.uleb128 0x20
 2332 0112 0B       		.uleb128 0xb
 2333 0113 01       		.uleb128 0x1
 2334 0114 13       		.uleb128 0x13
 2335 0115 00       		.byte	0
 2336 0116 00       		.byte	0
 2337 0117 16       		.uleb128 0x16
ARM GAS  /tmp/ccjVFBhL.s 			page 42


 2338 0118 05       		.uleb128 0x5
 2339 0119 00       		.byte	0
 2340 011a 03       		.uleb128 0x3
 2341 011b 08       		.uleb128 0x8
 2342 011c 3A       		.uleb128 0x3a
 2343 011d 0B       		.uleb128 0xb
 2344 011e 3B       		.uleb128 0x3b
 2345 011f 05       		.uleb128 0x5
 2346 0120 49       		.uleb128 0x49
 2347 0121 13       		.uleb128 0x13
 2348 0122 00       		.byte	0
 2349 0123 00       		.byte	0
 2350 0124 17       		.uleb128 0x17
 2351 0125 05       		.uleb128 0x5
 2352 0126 00       		.byte	0
 2353 0127 03       		.uleb128 0x3
 2354 0128 0E       		.uleb128 0xe
 2355 0129 3A       		.uleb128 0x3a
 2356 012a 0B       		.uleb128 0xb
 2357 012b 3B       		.uleb128 0x3b
 2358 012c 05       		.uleb128 0x5
 2359 012d 49       		.uleb128 0x49
 2360 012e 13       		.uleb128 0x13
 2361 012f 00       		.byte	0
 2362 0130 00       		.byte	0
 2363 0131 18       		.uleb128 0x18
 2364 0132 34       		.uleb128 0x34
 2365 0133 00       		.byte	0
 2366 0134 03       		.uleb128 0x3
 2367 0135 0E       		.uleb128 0xe
 2368 0136 3A       		.uleb128 0x3a
 2369 0137 0B       		.uleb128 0xb
 2370 0138 3B       		.uleb128 0x3b
 2371 0139 05       		.uleb128 0x5
 2372 013a 49       		.uleb128 0x49
 2373 013b 13       		.uleb128 0x13
 2374 013c 00       		.byte	0
 2375 013d 00       		.byte	0
 2376 013e 19       		.uleb128 0x19
 2377 013f 2E       		.uleb128 0x2e
 2378 0140 01       		.byte	0x1
 2379 0141 3F       		.uleb128 0x3f
 2380 0142 19       		.uleb128 0x19
 2381 0143 03       		.uleb128 0x3
 2382 0144 0E       		.uleb128 0xe
 2383 0145 3A       		.uleb128 0x3a
 2384 0146 0B       		.uleb128 0xb
 2385 0147 3B       		.uleb128 0x3b
 2386 0148 0B       		.uleb128 0xb
 2387 0149 27       		.uleb128 0x27
 2388 014a 19       		.uleb128 0x19
 2389 014b 11       		.uleb128 0x11
 2390 014c 01       		.uleb128 0x1
 2391 014d 12       		.uleb128 0x12
 2392 014e 06       		.uleb128 0x6
 2393 014f 40       		.uleb128 0x40
 2394 0150 18       		.uleb128 0x18
ARM GAS  /tmp/ccjVFBhL.s 			page 43


 2395 0151 9742     		.uleb128 0x2117
 2396 0153 19       		.uleb128 0x19
 2397 0154 01       		.uleb128 0x1
 2398 0155 13       		.uleb128 0x13
 2399 0156 00       		.byte	0
 2400 0157 00       		.byte	0
 2401 0158 1A       		.uleb128 0x1a
 2402 0159 05       		.uleb128 0x5
 2403 015a 00       		.byte	0
 2404 015b 03       		.uleb128 0x3
 2405 015c 08       		.uleb128 0x8
 2406 015d 3A       		.uleb128 0x3a
 2407 015e 0B       		.uleb128 0xb
 2408 015f 3B       		.uleb128 0x3b
 2409 0160 0B       		.uleb128 0xb
 2410 0161 49       		.uleb128 0x49
 2411 0162 13       		.uleb128 0x13
 2412 0163 02       		.uleb128 0x2
 2413 0164 17       		.uleb128 0x17
 2414 0165 00       		.byte	0
 2415 0166 00       		.byte	0
 2416 0167 1B       		.uleb128 0x1b
 2417 0168 898201   		.uleb128 0x4109
 2418 016b 01       		.byte	0x1
 2419 016c 11       		.uleb128 0x11
 2420 016d 01       		.uleb128 0x1
 2421 016e 31       		.uleb128 0x31
 2422 016f 13       		.uleb128 0x13
 2423 0170 01       		.uleb128 0x1
 2424 0171 13       		.uleb128 0x13
 2425 0172 00       		.byte	0
 2426 0173 00       		.byte	0
 2427 0174 1C       		.uleb128 0x1c
 2428 0175 8A8201   		.uleb128 0x410a
 2429 0178 00       		.byte	0
 2430 0179 02       		.uleb128 0x2
 2431 017a 18       		.uleb128 0x18
 2432 017b 9142     		.uleb128 0x2111
 2433 017d 18       		.uleb128 0x18
 2434 017e 00       		.byte	0
 2435 017f 00       		.byte	0
 2436 0180 1D       		.uleb128 0x1d
 2437 0181 898201   		.uleb128 0x4109
 2438 0184 01       		.byte	0x1
 2439 0185 11       		.uleb128 0x11
 2440 0186 01       		.uleb128 0x1
 2441 0187 9542     		.uleb128 0x2115
 2442 0189 19       		.uleb128 0x19
 2443 018a 31       		.uleb128 0x31
 2444 018b 13       		.uleb128 0x13
 2445 018c 00       		.byte	0
 2446 018d 00       		.byte	0
 2447 018e 1E       		.uleb128 0x1e
 2448 018f 0B       		.uleb128 0xb
 2449 0190 01       		.byte	0x1
 2450 0191 55       		.uleb128 0x55
 2451 0192 17       		.uleb128 0x17
ARM GAS  /tmp/ccjVFBhL.s 			page 44


 2452 0193 01       		.uleb128 0x1
 2453 0194 13       		.uleb128 0x13
 2454 0195 00       		.byte	0
 2455 0196 00       		.byte	0
 2456 0197 1F       		.uleb128 0x1f
 2457 0198 34       		.uleb128 0x34
 2458 0199 00       		.byte	0
 2459 019a 03       		.uleb128 0x3
 2460 019b 08       		.uleb128 0x8
 2461 019c 3A       		.uleb128 0x3a
 2462 019d 0B       		.uleb128 0xb
 2463 019e 3B       		.uleb128 0x3b
 2464 019f 0B       		.uleb128 0xb
 2465 01a0 49       		.uleb128 0x49
 2466 01a1 13       		.uleb128 0x13
 2467 01a2 02       		.uleb128 0x2
 2468 01a3 18       		.uleb128 0x18
 2469 01a4 00       		.byte	0
 2470 01a5 00       		.byte	0
 2471 01a6 20       		.uleb128 0x20
 2472 01a7 0B       		.uleb128 0xb
 2473 01a8 01       		.byte	0x1
 2474 01a9 11       		.uleb128 0x11
 2475 01aa 01       		.uleb128 0x1
 2476 01ab 12       		.uleb128 0x12
 2477 01ac 06       		.uleb128 0x6
 2478 01ad 01       		.uleb128 0x1
 2479 01ae 13       		.uleb128 0x13
 2480 01af 00       		.byte	0
 2481 01b0 00       		.byte	0
 2482 01b1 21       		.uleb128 0x21
 2483 01b2 898201   		.uleb128 0x4109
 2484 01b5 00       		.byte	0
 2485 01b6 11       		.uleb128 0x11
 2486 01b7 01       		.uleb128 0x1
 2487 01b8 31       		.uleb128 0x31
 2488 01b9 13       		.uleb128 0x13
 2489 01ba 00       		.byte	0
 2490 01bb 00       		.byte	0
 2491 01bc 22       		.uleb128 0x22
 2492 01bd 2E       		.uleb128 0x2e
 2493 01be 01       		.byte	0x1
 2494 01bf 31       		.uleb128 0x31
 2495 01c0 13       		.uleb128 0x13
 2496 01c1 11       		.uleb128 0x11
 2497 01c2 01       		.uleb128 0x1
 2498 01c3 12       		.uleb128 0x12
 2499 01c4 06       		.uleb128 0x6
 2500 01c5 40       		.uleb128 0x40
 2501 01c6 18       		.uleb128 0x18
 2502 01c7 9742     		.uleb128 0x2117
 2503 01c9 19       		.uleb128 0x19
 2504 01ca 01       		.uleb128 0x1
 2505 01cb 13       		.uleb128 0x13
 2506 01cc 00       		.byte	0
 2507 01cd 00       		.byte	0
 2508 01ce 23       		.uleb128 0x23
ARM GAS  /tmp/ccjVFBhL.s 			page 45


 2509 01cf 05       		.uleb128 0x5
 2510 01d0 00       		.byte	0
 2511 01d1 31       		.uleb128 0x31
 2512 01d2 13       		.uleb128 0x13
 2513 01d3 02       		.uleb128 0x2
 2514 01d4 17       		.uleb128 0x17
 2515 01d5 00       		.byte	0
 2516 01d6 00       		.byte	0
 2517 01d7 24       		.uleb128 0x24
 2518 01d8 34       		.uleb128 0x34
 2519 01d9 00       		.byte	0
 2520 01da 31       		.uleb128 0x31
 2521 01db 13       		.uleb128 0x13
 2522 01dc 02       		.uleb128 0x2
 2523 01dd 17       		.uleb128 0x17
 2524 01de 00       		.byte	0
 2525 01df 00       		.byte	0
 2526 01e0 25       		.uleb128 0x25
 2527 01e1 0B       		.uleb128 0xb
 2528 01e2 01       		.byte	0x1
 2529 01e3 11       		.uleb128 0x11
 2530 01e4 01       		.uleb128 0x1
 2531 01e5 12       		.uleb128 0x12
 2532 01e6 06       		.uleb128 0x6
 2533 01e7 00       		.byte	0
 2534 01e8 00       		.byte	0
 2535 01e9 26       		.uleb128 0x26
 2536 01ea 34       		.uleb128 0x34
 2537 01eb 00       		.byte	0
 2538 01ec 31       		.uleb128 0x31
 2539 01ed 13       		.uleb128 0x13
 2540 01ee 00       		.byte	0
 2541 01ef 00       		.byte	0
 2542 01f0 27       		.uleb128 0x27
 2543 01f1 898201   		.uleb128 0x4109
 2544 01f4 01       		.byte	0x1
 2545 01f5 11       		.uleb128 0x11
 2546 01f6 01       		.uleb128 0x1
 2547 01f7 31       		.uleb128 0x31
 2548 01f8 13       		.uleb128 0x13
 2549 01f9 00       		.byte	0
 2550 01fa 00       		.byte	0
 2551 01fb 28       		.uleb128 0x28
 2552 01fc 2E       		.uleb128 0x2e
 2553 01fd 01       		.byte	0x1
 2554 01fe 3F       		.uleb128 0x3f
 2555 01ff 19       		.uleb128 0x19
 2556 0200 03       		.uleb128 0x3
 2557 0201 0E       		.uleb128 0xe
 2558 0202 3A       		.uleb128 0x3a
 2559 0203 0B       		.uleb128 0xb
 2560 0204 3B       		.uleb128 0x3b
 2561 0205 0B       		.uleb128 0xb
 2562 0206 27       		.uleb128 0x27
 2563 0207 19       		.uleb128 0x19
 2564 0208 49       		.uleb128 0x49
 2565 0209 13       		.uleb128 0x13
ARM GAS  /tmp/ccjVFBhL.s 			page 46


 2566 020a 11       		.uleb128 0x11
 2567 020b 01       		.uleb128 0x1
 2568 020c 12       		.uleb128 0x12
 2569 020d 06       		.uleb128 0x6
 2570 020e 40       		.uleb128 0x40
 2571 020f 18       		.uleb128 0x18
 2572 0210 9742     		.uleb128 0x2117
 2573 0212 19       		.uleb128 0x19
 2574 0213 01       		.uleb128 0x1
 2575 0214 13       		.uleb128 0x13
 2576 0215 00       		.byte	0
 2577 0216 00       		.byte	0
 2578 0217 29       		.uleb128 0x29
 2579 0218 05       		.uleb128 0x5
 2580 0219 00       		.byte	0
 2581 021a 03       		.uleb128 0x3
 2582 021b 0E       		.uleb128 0xe
 2583 021c 3A       		.uleb128 0x3a
 2584 021d 0B       		.uleb128 0xb
 2585 021e 3B       		.uleb128 0x3b
 2586 021f 0B       		.uleb128 0xb
 2587 0220 49       		.uleb128 0x49
 2588 0221 13       		.uleb128 0x13
 2589 0222 02       		.uleb128 0x2
 2590 0223 17       		.uleb128 0x17
 2591 0224 00       		.byte	0
 2592 0225 00       		.byte	0
 2593 0226 2A       		.uleb128 0x2a
 2594 0227 34       		.uleb128 0x34
 2595 0228 00       		.byte	0
 2596 0229 03       		.uleb128 0x3
 2597 022a 0E       		.uleb128 0xe
 2598 022b 3A       		.uleb128 0x3a
 2599 022c 0B       		.uleb128 0xb
 2600 022d 3B       		.uleb128 0x3b
 2601 022e 0B       		.uleb128 0xb
 2602 022f 49       		.uleb128 0x49
 2603 0230 13       		.uleb128 0x13
 2604 0231 02       		.uleb128 0x2
 2605 0232 18       		.uleb128 0x18
 2606 0233 00       		.byte	0
 2607 0234 00       		.byte	0
 2608 0235 2B       		.uleb128 0x2b
 2609 0236 0B       		.uleb128 0xb
 2610 0237 01       		.byte	0x1
 2611 0238 55       		.uleb128 0x55
 2612 0239 17       		.uleb128 0x17
 2613 023a 00       		.byte	0
 2614 023b 00       		.byte	0
 2615 023c 2C       		.uleb128 0x2c
 2616 023d 2E       		.uleb128 0x2e
 2617 023e 01       		.byte	0x1
 2618 023f 3F       		.uleb128 0x3f
 2619 0240 19       		.uleb128 0x19
 2620 0241 03       		.uleb128 0x3
 2621 0242 0E       		.uleb128 0xe
 2622 0243 3A       		.uleb128 0x3a
ARM GAS  /tmp/ccjVFBhL.s 			page 47


 2623 0244 0B       		.uleb128 0xb
 2624 0245 3B       		.uleb128 0x3b
 2625 0246 05       		.uleb128 0x5
 2626 0247 27       		.uleb128 0x27
 2627 0248 19       		.uleb128 0x19
 2628 0249 49       		.uleb128 0x49
 2629 024a 13       		.uleb128 0x13
 2630 024b 11       		.uleb128 0x11
 2631 024c 01       		.uleb128 0x1
 2632 024d 12       		.uleb128 0x12
 2633 024e 06       		.uleb128 0x6
 2634 024f 40       		.uleb128 0x40
 2635 0250 18       		.uleb128 0x18
 2636 0251 9742     		.uleb128 0x2117
 2637 0253 19       		.uleb128 0x19
 2638 0254 01       		.uleb128 0x1
 2639 0255 13       		.uleb128 0x13
 2640 0256 00       		.byte	0
 2641 0257 00       		.byte	0
 2642 0258 2D       		.uleb128 0x2d
 2643 0259 05       		.uleb128 0x5
 2644 025a 00       		.byte	0
 2645 025b 03       		.uleb128 0x3
 2646 025c 08       		.uleb128 0x8
 2647 025d 3A       		.uleb128 0x3a
 2648 025e 0B       		.uleb128 0xb
 2649 025f 3B       		.uleb128 0x3b
 2650 0260 05       		.uleb128 0x5
 2651 0261 49       		.uleb128 0x49
 2652 0262 13       		.uleb128 0x13
 2653 0263 02       		.uleb128 0x2
 2654 0264 17       		.uleb128 0x17
 2655 0265 00       		.byte	0
 2656 0266 00       		.byte	0
 2657 0267 2E       		.uleb128 0x2e
 2658 0268 05       		.uleb128 0x5
 2659 0269 00       		.byte	0
 2660 026a 03       		.uleb128 0x3
 2661 026b 0E       		.uleb128 0xe
 2662 026c 3A       		.uleb128 0x3a
 2663 026d 0B       		.uleb128 0xb
 2664 026e 3B       		.uleb128 0x3b
 2665 026f 05       		.uleb128 0x5
 2666 0270 49       		.uleb128 0x49
 2667 0271 13       		.uleb128 0x13
 2668 0272 02       		.uleb128 0x2
 2669 0273 17       		.uleb128 0x17
 2670 0274 00       		.byte	0
 2671 0275 00       		.byte	0
 2672 0276 2F       		.uleb128 0x2f
 2673 0277 34       		.uleb128 0x34
 2674 0278 00       		.byte	0
 2675 0279 03       		.uleb128 0x3
 2676 027a 0E       		.uleb128 0xe
 2677 027b 3A       		.uleb128 0x3a
 2678 027c 0B       		.uleb128 0xb
 2679 027d 3B       		.uleb128 0x3b
ARM GAS  /tmp/ccjVFBhL.s 			page 48


 2680 027e 05       		.uleb128 0x5
 2681 027f 49       		.uleb128 0x49
 2682 0280 13       		.uleb128 0x13
 2683 0281 02       		.uleb128 0x2
 2684 0282 18       		.uleb128 0x18
 2685 0283 00       		.byte	0
 2686 0284 00       		.byte	0
 2687 0285 30       		.uleb128 0x30
 2688 0286 34       		.uleb128 0x34
 2689 0287 00       		.byte	0
 2690 0288 03       		.uleb128 0x3
 2691 0289 08       		.uleb128 0x8
 2692 028a 3A       		.uleb128 0x3a
 2693 028b 0B       		.uleb128 0xb
 2694 028c 3B       		.uleb128 0x3b
 2695 028d 05       		.uleb128 0x5
 2696 028e 49       		.uleb128 0x49
 2697 028f 13       		.uleb128 0x13
 2698 0290 02       		.uleb128 0x2
 2699 0291 18       		.uleb128 0x18
 2700 0292 00       		.byte	0
 2701 0293 00       		.byte	0
 2702 0294 31       		.uleb128 0x31
 2703 0295 2E       		.uleb128 0x2e
 2704 0296 01       		.byte	0x1
 2705 0297 3F       		.uleb128 0x3f
 2706 0298 19       		.uleb128 0x19
 2707 0299 03       		.uleb128 0x3
 2708 029a 0E       		.uleb128 0xe
 2709 029b 3A       		.uleb128 0x3a
 2710 029c 0B       		.uleb128 0xb
 2711 029d 3B       		.uleb128 0x3b
 2712 029e 0B       		.uleb128 0xb
 2713 029f 27       		.uleb128 0x27
 2714 02a0 19       		.uleb128 0x19
 2715 02a1 3C       		.uleb128 0x3c
 2716 02a2 19       		.uleb128 0x19
 2717 02a3 01       		.uleb128 0x1
 2718 02a4 13       		.uleb128 0x13
 2719 02a5 00       		.byte	0
 2720 02a6 00       		.byte	0
 2721 02a7 32       		.uleb128 0x32
 2722 02a8 05       		.uleb128 0x5
 2723 02a9 00       		.byte	0
 2724 02aa 49       		.uleb128 0x49
 2725 02ab 13       		.uleb128 0x13
 2726 02ac 00       		.byte	0
 2727 02ad 00       		.byte	0
 2728 02ae 33       		.uleb128 0x33
 2729 02af 2E       		.uleb128 0x2e
 2730 02b0 00       		.byte	0
 2731 02b1 3F       		.uleb128 0x3f
 2732 02b2 19       		.uleb128 0x19
 2733 02b3 03       		.uleb128 0x3
 2734 02b4 0E       		.uleb128 0xe
 2735 02b5 3A       		.uleb128 0x3a
 2736 02b6 0B       		.uleb128 0xb
ARM GAS  /tmp/ccjVFBhL.s 			page 49


 2737 02b7 3B       		.uleb128 0x3b
 2738 02b8 0B       		.uleb128 0xb
 2739 02b9 27       		.uleb128 0x27
 2740 02ba 19       		.uleb128 0x19
 2741 02bb 3C       		.uleb128 0x3c
 2742 02bc 19       		.uleb128 0x19
 2743 02bd 00       		.byte	0
 2744 02be 00       		.byte	0
 2745 02bf 34       		.uleb128 0x34
 2746 02c0 2E       		.uleb128 0x2e
 2747 02c1 01       		.byte	0x1
 2748 02c2 3F       		.uleb128 0x3f
 2749 02c3 19       		.uleb128 0x19
 2750 02c4 03       		.uleb128 0x3
 2751 02c5 0E       		.uleb128 0xe
 2752 02c6 3A       		.uleb128 0x3a
 2753 02c7 0B       		.uleb128 0xb
 2754 02c8 3B       		.uleb128 0x3b
 2755 02c9 0B       		.uleb128 0xb
 2756 02ca 27       		.uleb128 0x27
 2757 02cb 19       		.uleb128 0x19
 2758 02cc 49       		.uleb128 0x49
 2759 02cd 13       		.uleb128 0x13
 2760 02ce 3C       		.uleb128 0x3c
 2761 02cf 19       		.uleb128 0x19
 2762 02d0 00       		.byte	0
 2763 02d1 00       		.byte	0
 2764 02d2 00       		.byte	0
 2765              		.section	.debug_loc,"",%progbits
 2766              	.Ldebug_loc0:
 2767              	.LLST0:
 2768 0000 00000000 		.4byte	.LVL0
 2769 0004 16000000 		.4byte	.LVL2
 2770 0008 0100     		.2byte	0x1
 2771 000a 50       		.byte	0x50
 2772 000b 16000000 		.4byte	.LVL2
 2773 000f 24000000 		.4byte	.LVL4
 2774 0013 0100     		.2byte	0x1
 2775 0015 54       		.byte	0x54
 2776 0016 24000000 		.4byte	.LVL4
 2777 001a 27000000 		.4byte	.LVL5-1
 2778 001e 0300     		.2byte	0x3
 2779 0020 70       		.byte	0x70
 2780 0021 70       		.sleb128 -16
 2781 0022 9F       		.byte	0x9f
 2782 0023 27000000 		.4byte	.LVL5-1
 2783 0027 28000000 		.4byte	.LFE7
 2784 002b 0400     		.2byte	0x4
 2785 002d F3       		.byte	0xf3
 2786 002e 01       		.uleb128 0x1
 2787 002f 50       		.byte	0x50
 2788 0030 9F       		.byte	0x9f
 2789 0031 00000000 		.4byte	0
 2790 0035 00000000 		.4byte	0
 2791              	.LLST1:
 2792 0039 00000000 		.4byte	.LVL0
 2793 003d 0A000000 		.4byte	.LVL1
ARM GAS  /tmp/ccjVFBhL.s 			page 50


 2794 0041 0100     		.2byte	0x1
 2795 0043 51       		.byte	0x51
 2796 0044 0A000000 		.4byte	.LVL1
 2797 0048 19000000 		.4byte	.LVL3-1
 2798 004c 0100     		.2byte	0x1
 2799 004e 53       		.byte	0x53
 2800 004f 19000000 		.4byte	.LVL3-1
 2801 0053 28000000 		.4byte	.LFE7
 2802 0057 0400     		.2byte	0x4
 2803 0059 F3       		.byte	0xf3
 2804 005a 01       		.uleb128 0x1
 2805 005b 51       		.byte	0x51
 2806 005c 9F       		.byte	0x9f
 2807 005d 00000000 		.4byte	0
 2808 0061 00000000 		.4byte	0
 2809              	.LLST2:
 2810 0065 00000000 		.4byte	.LVL0
 2811 0069 19000000 		.4byte	.LVL3-1
 2812 006d 0100     		.2byte	0x1
 2813 006f 52       		.byte	0x52
 2814 0070 19000000 		.4byte	.LVL3-1
 2815 0074 28000000 		.4byte	.LFE7
 2816 0078 0400     		.2byte	0x4
 2817 007a F3       		.byte	0xf3
 2818 007b 01       		.uleb128 0x1
 2819 007c 52       		.byte	0x52
 2820 007d 9F       		.byte	0x9f
 2821 007e 00000000 		.4byte	0
 2822 0082 00000000 		.4byte	0
 2823              	.LLST3:
 2824 0086 00000000 		.4byte	.LVL6
 2825 008a 18000000 		.4byte	.LVL7
 2826 008e 0100     		.2byte	0x1
 2827 0090 50       		.byte	0x50
 2828 0091 18000000 		.4byte	.LVL7
 2829 0095 32000000 		.4byte	.LFE8
 2830 0099 0100     		.2byte	0x1
 2831 009b 54       		.byte	0x54
 2832 009c 00000000 		.4byte	0
 2833 00a0 00000000 		.4byte	0
 2834              	.LLST4:
 2835 00a4 00000000 		.4byte	.LVL11
 2836 00a8 08000000 		.4byte	.LVL12
 2837 00ac 0100     		.2byte	0x1
 2838 00ae 50       		.byte	0x50
 2839 00af 08000000 		.4byte	.LVL12
 2840 00b3 36000000 		.4byte	.LFE10
 2841 00b7 0100     		.2byte	0x1
 2842 00b9 54       		.byte	0x54
 2843 00ba 00000000 		.4byte	0
 2844 00be 00000000 		.4byte	0
 2845              	.LLST5:
 2846 00c2 00000000 		.4byte	.LVL11
 2847 00c6 0A000000 		.4byte	.LVL13
 2848 00ca 0100     		.2byte	0x1
 2849 00cc 51       		.byte	0x51
 2850 00cd 0A000000 		.4byte	.LVL13
ARM GAS  /tmp/ccjVFBhL.s 			page 51


 2851 00d1 36000000 		.4byte	.LFE10
 2852 00d5 0100     		.2byte	0x1
 2853 00d7 56       		.byte	0x56
 2854 00d8 00000000 		.4byte	0
 2855 00dc 00000000 		.4byte	0
 2856              	.LLST6:
 2857 00e0 00000000 		.4byte	.LVL11
 2858 00e4 0D000000 		.4byte	.LVL14-1
 2859 00e8 0100     		.2byte	0x1
 2860 00ea 52       		.byte	0x52
 2861 00eb 0D000000 		.4byte	.LVL14-1
 2862 00ef 36000000 		.4byte	.LFE10
 2863 00f3 0400     		.2byte	0x4
 2864 00f5 F3       		.byte	0xf3
 2865 00f6 01       		.uleb128 0x1
 2866 00f7 52       		.byte	0x52
 2867 00f8 9F       		.byte	0x9f
 2868 00f9 00000000 		.4byte	0
 2869 00fd 00000000 		.4byte	0
 2870              	.LLST7:
 2871 0101 0E000000 		.4byte	.LVL14
 2872 0105 26000000 		.4byte	.LVL16
 2873 0109 0100     		.2byte	0x1
 2874 010b 50       		.byte	0x50
 2875 010c 26000000 		.4byte	.LVL16
 2876 0110 36000000 		.4byte	.LFE10
 2877 0114 0100     		.2byte	0x1
 2878 0116 55       		.byte	0x55
 2879 0117 00000000 		.4byte	0
 2880 011b 00000000 		.4byte	0
 2881              	.LLST8:
 2882 011f 12000000 		.4byte	.LVL15
 2883 0123 32000000 		.4byte	.LVL18
 2884 0127 0400     		.2byte	0x4
 2885 0129 F3       		.byte	0xf3
 2886 012a 01       		.uleb128 0x1
 2887 012b 52       		.byte	0x52
 2888 012c 9F       		.byte	0x9f
 2889 012d 00000000 		.4byte	0
 2890 0131 00000000 		.4byte	0
 2891              	.LLST9:
 2892 0135 12000000 		.4byte	.LVL15
 2893 0139 32000000 		.4byte	.LVL18
 2894 013d 0100     		.2byte	0x1
 2895 013f 56       		.byte	0x56
 2896 0140 00000000 		.4byte	0
 2897 0144 00000000 		.4byte	0
 2898              	.LLST10:
 2899 0148 12000000 		.4byte	.LVL15
 2900 014c 32000000 		.4byte	.LVL18
 2901 0150 0100     		.2byte	0x1
 2902 0152 54       		.byte	0x54
 2903 0153 00000000 		.4byte	0
 2904 0157 00000000 		.4byte	0
 2905              	.LLST11:
 2906 015b 00000000 		.4byte	.LVL19
 2907 015f 0B000000 		.4byte	.LVL20-1
ARM GAS  /tmp/ccjVFBhL.s 			page 52


 2908 0163 0100     		.2byte	0x1
 2909 0165 50       		.byte	0x50
 2910 0166 0B000000 		.4byte	.LVL20-1
 2911 016a 14000000 		.4byte	.LFE9
 2912 016e 0400     		.2byte	0x4
 2913 0170 F3       		.byte	0xf3
 2914 0171 01       		.uleb128 0x1
 2915 0172 50       		.byte	0x50
 2916 0173 9F       		.byte	0x9f
 2917 0174 00000000 		.4byte	0
 2918 0178 00000000 		.4byte	0
 2919              	.LLST12:
 2920 017c 00000000 		.4byte	.LVL19
 2921 0180 0B000000 		.4byte	.LVL20-1
 2922 0184 0100     		.2byte	0x1
 2923 0186 51       		.byte	0x51
 2924 0187 0B000000 		.4byte	.LVL20-1
 2925 018b 14000000 		.4byte	.LFE9
 2926 018f 0400     		.2byte	0x4
 2927 0191 F3       		.byte	0xf3
 2928 0192 01       		.uleb128 0x1
 2929 0193 51       		.byte	0x51
 2930 0194 9F       		.byte	0x9f
 2931 0195 00000000 		.4byte	0
 2932 0199 00000000 		.4byte	0
 2933              	.LLST13:
 2934 019d 00000000 		.4byte	.LVL19
 2935 01a1 0B000000 		.4byte	.LVL20-1
 2936 01a5 0100     		.2byte	0x1
 2937 01a7 52       		.byte	0x52
 2938 01a8 0B000000 		.4byte	.LVL20-1
 2939 01ac 14000000 		.4byte	.LFE9
 2940 01b0 0400     		.2byte	0x4
 2941 01b2 F3       		.byte	0xf3
 2942 01b3 01       		.uleb128 0x1
 2943 01b4 52       		.byte	0x52
 2944 01b5 9F       		.byte	0x9f
 2945 01b6 00000000 		.4byte	0
 2946 01ba 00000000 		.4byte	0
 2947              	.LLST14:
 2948 01be 00000000 		.4byte	.LVL21
 2949 01c2 20000000 		.4byte	.LVL22
 2950 01c6 0100     		.2byte	0x1
 2951 01c8 50       		.byte	0x50
 2952 01c9 20000000 		.4byte	.LVL22
 2953 01cd 29000000 		.4byte	.LVL23-1
 2954 01d1 0300     		.2byte	0x3
 2955 01d3 70       		.byte	0x70
 2956 01d4 70       		.sleb128 -16
 2957 01d5 9F       		.byte	0x9f
 2958 01d6 29000000 		.4byte	.LVL23-1
 2959 01da 2E000000 		.4byte	.LVL24
 2960 01de 0400     		.2byte	0x4
 2961 01e0 F3       		.byte	0xf3
 2962 01e1 01       		.uleb128 0x1
 2963 01e2 50       		.byte	0x50
 2964 01e3 9F       		.byte	0x9f
ARM GAS  /tmp/ccjVFBhL.s 			page 53


 2965 01e4 2E000000 		.4byte	.LVL24
 2966 01e8 32000000 		.4byte	.LVL25
 2967 01ec 0100     		.2byte	0x1
 2968 01ee 50       		.byte	0x50
 2969 01ef 32000000 		.4byte	.LVL25
 2970 01f3 34000000 		.4byte	.LFE11
 2971 01f7 0400     		.2byte	0x4
 2972 01f9 F3       		.byte	0xf3
 2973 01fa 01       		.uleb128 0x1
 2974 01fb 50       		.byte	0x50
 2975 01fc 9F       		.byte	0x9f
 2976 01fd 00000000 		.4byte	0
 2977 0201 00000000 		.4byte	0
 2978              	.LLST15:
 2979 0205 00000000 		.4byte	.LVL21
 2980 0209 29000000 		.4byte	.LVL23-1
 2981 020d 0100     		.2byte	0x1
 2982 020f 51       		.byte	0x51
 2983 0210 29000000 		.4byte	.LVL23-1
 2984 0214 2E000000 		.4byte	.LVL24
 2985 0218 0400     		.2byte	0x4
 2986 021a F3       		.byte	0xf3
 2987 021b 01       		.uleb128 0x1
 2988 021c 51       		.byte	0x51
 2989 021d 9F       		.byte	0x9f
 2990 021e 2E000000 		.4byte	.LVL24
 2991 0222 34000000 		.4byte	.LFE11
 2992 0226 0100     		.2byte	0x1
 2993 0228 51       		.byte	0x51
 2994 0229 00000000 		.4byte	0
 2995 022d 00000000 		.4byte	0
 2996              	.LLST16:
 2997 0231 00000000 		.4byte	.LVL26
 2998 0235 08000000 		.4byte	.LVL27
 2999 0239 0100     		.2byte	0x1
 3000 023b 50       		.byte	0x50
 3001 023c 08000000 		.4byte	.LVL27
 3002 0240 38000000 		.4byte	.LFE13
 3003 0244 0100     		.2byte	0x1
 3004 0246 54       		.byte	0x54
 3005 0247 00000000 		.4byte	0
 3006 024b 00000000 		.4byte	0
 3007              	.LLST17:
 3008 024f 00000000 		.4byte	.LVL26
 3009 0253 0A000000 		.4byte	.LVL28
 3010 0257 0100     		.2byte	0x1
 3011 0259 51       		.byte	0x51
 3012 025a 0A000000 		.4byte	.LVL28
 3013 025e 38000000 		.4byte	.LFE13
 3014 0262 0100     		.2byte	0x1
 3015 0264 56       		.byte	0x56
 3016 0265 00000000 		.4byte	0
 3017 0269 00000000 		.4byte	0
 3018              	.LLST18:
 3019 026d 00000000 		.4byte	.LVL26
 3020 0271 0D000000 		.4byte	.LVL29-1
 3021 0275 0100     		.2byte	0x1
ARM GAS  /tmp/ccjVFBhL.s 			page 54


 3022 0277 52       		.byte	0x52
 3023 0278 0D000000 		.4byte	.LVL29-1
 3024 027c 38000000 		.4byte	.LFE13
 3025 0280 0400     		.2byte	0x4
 3026 0282 F3       		.byte	0xf3
 3027 0283 01       		.uleb128 0x1
 3028 0284 52       		.byte	0x52
 3029 0285 9F       		.byte	0x9f
 3030 0286 00000000 		.4byte	0
 3031 028a 00000000 		.4byte	0
 3032              	.LLST19:
 3033 028e 0E000000 		.4byte	.LVL29
 3034 0292 24000000 		.4byte	.LVL31
 3035 0296 0100     		.2byte	0x1
 3036 0298 50       		.byte	0x50
 3037 0299 24000000 		.4byte	.LVL31
 3038 029d 30000000 		.4byte	.LVL34
 3039 02a1 0100     		.2byte	0x1
 3040 02a3 55       		.byte	0x55
 3041 02a4 30000000 		.4byte	.LVL34
 3042 02a8 38000000 		.4byte	.LFE13
 3043 02ac 0100     		.2byte	0x1
 3044 02ae 50       		.byte	0x50
 3045 02af 00000000 		.4byte	0
 3046 02b3 00000000 		.4byte	0
 3047              	.LLST20:
 3048 02b7 12000000 		.4byte	.LVL30
 3049 02bb 2C000000 		.4byte	.LVL33
 3050 02bf 0400     		.2byte	0x4
 3051 02c1 F3       		.byte	0xf3
 3052 02c2 01       		.uleb128 0x1
 3053 02c3 52       		.byte	0x52
 3054 02c4 9F       		.byte	0x9f
 3055 02c5 30000000 		.4byte	.LVL34
 3056 02c9 38000000 		.4byte	.LFE13
 3057 02cd 0400     		.2byte	0x4
 3058 02cf F3       		.byte	0xf3
 3059 02d0 01       		.uleb128 0x1
 3060 02d1 52       		.byte	0x52
 3061 02d2 9F       		.byte	0x9f
 3062 02d3 00000000 		.4byte	0
 3063 02d7 00000000 		.4byte	0
 3064              	.LLST21:
 3065 02db 12000000 		.4byte	.LVL30
 3066 02df 2C000000 		.4byte	.LVL33
 3067 02e3 0100     		.2byte	0x1
 3068 02e5 56       		.byte	0x56
 3069 02e6 30000000 		.4byte	.LVL34
 3070 02ea 38000000 		.4byte	.LFE13
 3071 02ee 0100     		.2byte	0x1
 3072 02f0 56       		.byte	0x56
 3073 02f1 00000000 		.4byte	0
 3074 02f5 00000000 		.4byte	0
 3075              	.LLST22:
 3076 02f9 12000000 		.4byte	.LVL30
 3077 02fd 2C000000 		.4byte	.LVL33
 3078 0301 0100     		.2byte	0x1
ARM GAS  /tmp/ccjVFBhL.s 			page 55


 3079 0303 54       		.byte	0x54
 3080 0304 30000000 		.4byte	.LVL34
 3081 0308 38000000 		.4byte	.LFE13
 3082 030c 0100     		.2byte	0x1
 3083 030e 54       		.byte	0x54
 3084 030f 00000000 		.4byte	0
 3085 0313 00000000 		.4byte	0
 3086              	.LLST23:
 3087 0317 00000000 		.4byte	.LVL35
 3088 031b 0B000000 		.4byte	.LVL36-1
 3089 031f 0100     		.2byte	0x1
 3090 0321 50       		.byte	0x50
 3091 0322 0B000000 		.4byte	.LVL36-1
 3092 0326 14000000 		.4byte	.LFE12
 3093 032a 0400     		.2byte	0x4
 3094 032c F3       		.byte	0xf3
 3095 032d 01       		.uleb128 0x1
 3096 032e 50       		.byte	0x50
 3097 032f 9F       		.byte	0x9f
 3098 0330 00000000 		.4byte	0
 3099 0334 00000000 		.4byte	0
 3100              	.LLST24:
 3101 0338 00000000 		.4byte	.LVL35
 3102 033c 0B000000 		.4byte	.LVL36-1
 3103 0340 0100     		.2byte	0x1
 3104 0342 51       		.byte	0x51
 3105 0343 0B000000 		.4byte	.LVL36-1
 3106 0347 14000000 		.4byte	.LFE12
 3107 034b 0400     		.2byte	0x4
 3108 034d F3       		.byte	0xf3
 3109 034e 01       		.uleb128 0x1
 3110 034f 51       		.byte	0x51
 3111 0350 9F       		.byte	0x9f
 3112 0351 00000000 		.4byte	0
 3113 0355 00000000 		.4byte	0
 3114              	.LLST25:
 3115 0359 00000000 		.4byte	.LVL35
 3116 035d 0B000000 		.4byte	.LVL36-1
 3117 0361 0100     		.2byte	0x1
 3118 0363 52       		.byte	0x52
 3119 0364 0B000000 		.4byte	.LVL36-1
 3120 0368 14000000 		.4byte	.LFE12
 3121 036c 0400     		.2byte	0x4
 3122 036e F3       		.byte	0xf3
 3123 036f 01       		.uleb128 0x1
 3124 0370 52       		.byte	0x52
 3125 0371 9F       		.byte	0x9f
 3126 0372 00000000 		.4byte	0
 3127 0376 00000000 		.4byte	0
 3128              	.LLST26:
 3129 037a 00000000 		.4byte	.LVL37
 3130 037e 22000000 		.4byte	.LVL38
 3131 0382 0100     		.2byte	0x1
 3132 0384 50       		.byte	0x50
 3133 0385 22000000 		.4byte	.LVL38
 3134 0389 25000000 		.4byte	.LVL39-1
 3135 038d 0300     		.2byte	0x3
ARM GAS  /tmp/ccjVFBhL.s 			page 56


 3136 038f 70       		.byte	0x70
 3137 0390 70       		.sleb128 -16
 3138 0391 9F       		.byte	0x9f
 3139 0392 25000000 		.4byte	.LVL39-1
 3140 0396 2A000000 		.4byte	.LVL40
 3141 039a 0400     		.2byte	0x4
 3142 039c F3       		.byte	0xf3
 3143 039d 01       		.uleb128 0x1
 3144 039e 50       		.byte	0x50
 3145 039f 9F       		.byte	0x9f
 3146 03a0 2A000000 		.4byte	.LVL40
 3147 03a4 2E000000 		.4byte	.LVL41
 3148 03a8 0100     		.2byte	0x1
 3149 03aa 50       		.byte	0x50
 3150 03ab 2E000000 		.4byte	.LVL41
 3151 03af 30000000 		.4byte	.LFE14
 3152 03b3 0400     		.2byte	0x4
 3153 03b5 F3       		.byte	0xf3
 3154 03b6 01       		.uleb128 0x1
 3155 03b7 50       		.byte	0x50
 3156 03b8 9F       		.byte	0x9f
 3157 03b9 00000000 		.4byte	0
 3158 03bd 00000000 		.4byte	0
 3159              	.LLST27:
 3160 03c1 00000000 		.4byte	.LVL37
 3161 03c5 25000000 		.4byte	.LVL39-1
 3162 03c9 0100     		.2byte	0x1
 3163 03cb 51       		.byte	0x51
 3164 03cc 25000000 		.4byte	.LVL39-1
 3165 03d0 2A000000 		.4byte	.LVL40
 3166 03d4 0400     		.2byte	0x4
 3167 03d6 F3       		.byte	0xf3
 3168 03d7 01       		.uleb128 0x1
 3169 03d8 51       		.byte	0x51
 3170 03d9 9F       		.byte	0x9f
 3171 03da 2A000000 		.4byte	.LVL40
 3172 03de 30000000 		.4byte	.LFE14
 3173 03e2 0100     		.2byte	0x1
 3174 03e4 51       		.byte	0x51
 3175 03e5 00000000 		.4byte	0
 3176 03e9 00000000 		.4byte	0
 3177              	.LLST28:
 3178 03ed 00000000 		.4byte	.LVL42
 3179 03f1 08000000 		.4byte	.LVL43
 3180 03f5 0100     		.2byte	0x1
 3181 03f7 50       		.byte	0x50
 3182 03f8 08000000 		.4byte	.LVL43
 3183 03fc 38000000 		.4byte	.LFE16
 3184 0400 0100     		.2byte	0x1
 3185 0402 54       		.byte	0x54
 3186 0403 00000000 		.4byte	0
 3187 0407 00000000 		.4byte	0
 3188              	.LLST29:
 3189 040b 00000000 		.4byte	.LVL42
 3190 040f 0A000000 		.4byte	.LVL44
 3191 0413 0100     		.2byte	0x1
 3192 0415 51       		.byte	0x51
ARM GAS  /tmp/ccjVFBhL.s 			page 57


 3193 0416 0A000000 		.4byte	.LVL44
 3194 041a 38000000 		.4byte	.LFE16
 3195 041e 0100     		.2byte	0x1
 3196 0420 56       		.byte	0x56
 3197 0421 00000000 		.4byte	0
 3198 0425 00000000 		.4byte	0
 3199              	.LLST30:
 3200 0429 00000000 		.4byte	.LVL42
 3201 042d 0D000000 		.4byte	.LVL45-1
 3202 0431 0100     		.2byte	0x1
 3203 0433 52       		.byte	0x52
 3204 0434 0D000000 		.4byte	.LVL45-1
 3205 0438 38000000 		.4byte	.LFE16
 3206 043c 0400     		.2byte	0x4
 3207 043e F3       		.byte	0xf3
 3208 043f 01       		.uleb128 0x1
 3209 0440 52       		.byte	0x52
 3210 0441 9F       		.byte	0x9f
 3211 0442 00000000 		.4byte	0
 3212 0446 00000000 		.4byte	0
 3213              	.LLST31:
 3214 044a 0E000000 		.4byte	.LVL45
 3215 044e 28000000 		.4byte	.LVL47
 3216 0452 0100     		.2byte	0x1
 3217 0454 50       		.byte	0x50
 3218 0455 28000000 		.4byte	.LVL47
 3219 0459 38000000 		.4byte	.LFE16
 3220 045d 0100     		.2byte	0x1
 3221 045f 55       		.byte	0x55
 3222 0460 00000000 		.4byte	0
 3223 0464 00000000 		.4byte	0
 3224              	.LLST32:
 3225 0468 12000000 		.4byte	.LVL46
 3226 046c 34000000 		.4byte	.LVL49
 3227 0470 0400     		.2byte	0x4
 3228 0472 F3       		.byte	0xf3
 3229 0473 01       		.uleb128 0x1
 3230 0474 52       		.byte	0x52
 3231 0475 9F       		.byte	0x9f
 3232 0476 00000000 		.4byte	0
 3233 047a 00000000 		.4byte	0
 3234              	.LLST33:
 3235 047e 12000000 		.4byte	.LVL46
 3236 0482 34000000 		.4byte	.LVL49
 3237 0486 0100     		.2byte	0x1
 3238 0488 56       		.byte	0x56
 3239 0489 00000000 		.4byte	0
 3240 048d 00000000 		.4byte	0
 3241              	.LLST34:
 3242 0491 12000000 		.4byte	.LVL46
 3243 0495 34000000 		.4byte	.LVL49
 3244 0499 0100     		.2byte	0x1
 3245 049b 54       		.byte	0x54
 3246 049c 00000000 		.4byte	0
 3247 04a0 00000000 		.4byte	0
 3248              	.LLST35:
 3249 04a4 00000000 		.4byte	.LVL50
ARM GAS  /tmp/ccjVFBhL.s 			page 58


 3250 04a8 0B000000 		.4byte	.LVL51-1
 3251 04ac 0100     		.2byte	0x1
 3252 04ae 50       		.byte	0x50
 3253 04af 0B000000 		.4byte	.LVL51-1
 3254 04b3 14000000 		.4byte	.LFE15
 3255 04b7 0400     		.2byte	0x4
 3256 04b9 F3       		.byte	0xf3
 3257 04ba 01       		.uleb128 0x1
 3258 04bb 50       		.byte	0x50
 3259 04bc 9F       		.byte	0x9f
 3260 04bd 00000000 		.4byte	0
 3261 04c1 00000000 		.4byte	0
 3262              	.LLST36:
 3263 04c5 00000000 		.4byte	.LVL50
 3264 04c9 0B000000 		.4byte	.LVL51-1
 3265 04cd 0100     		.2byte	0x1
 3266 04cf 51       		.byte	0x51
 3267 04d0 0B000000 		.4byte	.LVL51-1
 3268 04d4 14000000 		.4byte	.LFE15
 3269 04d8 0400     		.2byte	0x4
 3270 04da F3       		.byte	0xf3
 3271 04db 01       		.uleb128 0x1
 3272 04dc 51       		.byte	0x51
 3273 04dd 9F       		.byte	0x9f
 3274 04de 00000000 		.4byte	0
 3275 04e2 00000000 		.4byte	0
 3276              	.LLST37:
 3277 04e6 00000000 		.4byte	.LVL50
 3278 04ea 0B000000 		.4byte	.LVL51-1
 3279 04ee 0100     		.2byte	0x1
 3280 04f0 52       		.byte	0x52
 3281 04f1 0B000000 		.4byte	.LVL51-1
 3282 04f5 14000000 		.4byte	.LFE15
 3283 04f9 0400     		.2byte	0x4
 3284 04fb F3       		.byte	0xf3
 3285 04fc 01       		.uleb128 0x1
 3286 04fd 52       		.byte	0x52
 3287 04fe 9F       		.byte	0x9f
 3288 04ff 00000000 		.4byte	0
 3289 0503 00000000 		.4byte	0
 3290              	.LLST38:
 3291 0507 00000000 		.4byte	.LVL52
 3292 050b 22000000 		.4byte	.LVL53
 3293 050f 0100     		.2byte	0x1
 3294 0511 50       		.byte	0x50
 3295 0512 22000000 		.4byte	.LVL53
 3296 0516 2B000000 		.4byte	.LVL54-1
 3297 051a 0300     		.2byte	0x3
 3298 051c 70       		.byte	0x70
 3299 051d 64       		.sleb128 -28
 3300 051e 9F       		.byte	0x9f
 3301 051f 2B000000 		.4byte	.LVL54-1
 3302 0523 30000000 		.4byte	.LVL55
 3303 0527 0400     		.2byte	0x4
 3304 0529 F3       		.byte	0xf3
 3305 052a 01       		.uleb128 0x1
 3306 052b 50       		.byte	0x50
ARM GAS  /tmp/ccjVFBhL.s 			page 59


 3307 052c 9F       		.byte	0x9f
 3308 052d 30000000 		.4byte	.LVL55
 3309 0531 34000000 		.4byte	.LVL56
 3310 0535 0100     		.2byte	0x1
 3311 0537 50       		.byte	0x50
 3312 0538 34000000 		.4byte	.LVL56
 3313 053c 36000000 		.4byte	.LFE17
 3314 0540 0400     		.2byte	0x4
 3315 0542 F3       		.byte	0xf3
 3316 0543 01       		.uleb128 0x1
 3317 0544 50       		.byte	0x50
 3318 0545 9F       		.byte	0x9f
 3319 0546 00000000 		.4byte	0
 3320 054a 00000000 		.4byte	0
 3321              	.LLST39:
 3322 054e 00000000 		.4byte	.LVL52
 3323 0552 2B000000 		.4byte	.LVL54-1
 3324 0556 0100     		.2byte	0x1
 3325 0558 51       		.byte	0x51
 3326 0559 2B000000 		.4byte	.LVL54-1
 3327 055d 30000000 		.4byte	.LVL55
 3328 0561 0400     		.2byte	0x4
 3329 0563 F3       		.byte	0xf3
 3330 0564 01       		.uleb128 0x1
 3331 0565 51       		.byte	0x51
 3332 0566 9F       		.byte	0x9f
 3333 0567 30000000 		.4byte	.LVL55
 3334 056b 36000000 		.4byte	.LFE17
 3335 056f 0100     		.2byte	0x1
 3336 0571 51       		.byte	0x51
 3337 0572 00000000 		.4byte	0
 3338 0576 00000000 		.4byte	0
 3339              		.section	.debug_aranges,"",%progbits
 3340 0000 6C000000 		.4byte	0x6c
 3341 0004 0200     		.2byte	0x2
 3342 0006 00000000 		.4byte	.Ldebug_info0
 3343 000a 04       		.byte	0x4
 3344 000b 00       		.byte	0
 3345 000c 0000     		.2byte	0
 3346 000e 0000     		.2byte	0
 3347 0010 00000000 		.4byte	.LFB7
 3348 0014 28000000 		.4byte	.LFE7-.LFB7
 3349 0018 00000000 		.4byte	.LFB8
 3350 001c 32000000 		.4byte	.LFE8-.LFB8
 3351 0020 00000000 		.4byte	.LFB10
 3352 0024 36000000 		.4byte	.LFE10-.LFB10
 3353 0028 00000000 		.4byte	.LFB9
 3354 002c 14000000 		.4byte	.LFE9-.LFB9
 3355 0030 00000000 		.4byte	.LFB11
 3356 0034 34000000 		.4byte	.LFE11-.LFB11
 3357 0038 00000000 		.4byte	.LFB13
 3358 003c 38000000 		.4byte	.LFE13-.LFB13
 3359 0040 00000000 		.4byte	.LFB12
 3360 0044 14000000 		.4byte	.LFE12-.LFB12
 3361 0048 00000000 		.4byte	.LFB14
 3362 004c 30000000 		.4byte	.LFE14-.LFB14
 3363 0050 00000000 		.4byte	.LFB16
ARM GAS  /tmp/ccjVFBhL.s 			page 60


 3364 0054 38000000 		.4byte	.LFE16-.LFB16
 3365 0058 00000000 		.4byte	.LFB15
 3366 005c 14000000 		.4byte	.LFE15-.LFB15
 3367 0060 00000000 		.4byte	.LFB17
 3368 0064 36000000 		.4byte	.LFE17-.LFB17
 3369 0068 00000000 		.4byte	0
 3370 006c 00000000 		.4byte	0
 3371              		.section	.debug_ranges,"",%progbits
 3372              	.Ldebug_ranges0:
 3373 0000 02000000 		.4byte	.LBB2
 3374 0004 04000000 		.4byte	.LBE2
 3375 0008 06000000 		.4byte	.LBB3
 3376 000c 0A000000 		.4byte	.LBE3
 3377 0010 00000000 		.4byte	0
 3378 0014 00000000 		.4byte	0
 3379 0018 12000000 		.4byte	.LBB13
 3380 001c 2C000000 		.4byte	.LBE13
 3381 0020 30000000 		.4byte	.LBB16
 3382 0024 38000000 		.4byte	.LBE16
 3383 0028 00000000 		.4byte	0
 3384 002c 00000000 		.4byte	0
 3385 0030 00000000 		.4byte	.LFB7
 3386 0034 28000000 		.4byte	.LFE7
 3387 0038 00000000 		.4byte	.LFB8
 3388 003c 32000000 		.4byte	.LFE8
 3389 0040 00000000 		.4byte	.LFB10
 3390 0044 36000000 		.4byte	.LFE10
 3391 0048 00000000 		.4byte	.LFB9
 3392 004c 14000000 		.4byte	.LFE9
 3393 0050 00000000 		.4byte	.LFB11
 3394 0054 34000000 		.4byte	.LFE11
 3395 0058 00000000 		.4byte	.LFB13
 3396 005c 38000000 		.4byte	.LFE13
 3397 0060 00000000 		.4byte	.LFB12
 3398 0064 14000000 		.4byte	.LFE12
 3399 0068 00000000 		.4byte	.LFB14
 3400 006c 30000000 		.4byte	.LFE14
 3401 0070 00000000 		.4byte	.LFB16
 3402 0074 38000000 		.4byte	.LFE16
 3403 0078 00000000 		.4byte	.LFB15
 3404 007c 14000000 		.4byte	.LFE15
 3405 0080 00000000 		.4byte	.LFB17
 3406 0084 36000000 		.4byte	.LFE17
 3407 0088 00000000 		.4byte	0
 3408 008c 00000000 		.4byte	0
 3409              		.section	.debug_line,"",%progbits
 3410              	.Ldebug_line0:
 3411 0000 62020000 		.section	.debug_str,"MS",%progbits,1
 3411      02002E01 
 3411      00000201 
 3411      FB0E0D00 
 3411      01010101 
 3412              	.LASF37:
 3413 0000 705F6D73 		.ascii	"p_msg\000"
 3413      6700
 3414              	.LASF82:
 3415 0006 63685365 		.ascii	"chSemSignalI\000"
ARM GAS  /tmp/ccjVFBhL.s 			page 61


 3415      6D536967 
 3415      6E616C49 
 3415      00
 3416              	.LASF62:
 3417 0013 7264796D 		.ascii	"rdymsg\000"
 3417      736700
 3418              	.LASF5:
 3419 001a 5F5F7569 		.ascii	"__uint8_t\000"
 3419      6E74385F 
 3419      7400
 3420              	.LASF75:
 3421 0024 63684D42 		.ascii	"chMBPostI\000"
 3421      506F7374 
 3421      4900
 3422              	.LASF68:
 3423 002e 63684D42 		.ascii	"chMBPostS\000"
 3423      506F7374 
 3423      5300
 3424              	.LASF61:
 3425 0038 4D61696C 		.ascii	"Mailbox\000"
 3425      626F7800 
 3426              	.LASF77:
 3427 0040 63684D42 		.ascii	"chMBPostAheadI\000"
 3427      506F7374 
 3427      41686561 
 3427      644900
 3428              	.LASF11:
 3429 004f 6C6F6E67 		.ascii	"long long unsigned int\000"
 3429      206C6F6E 
 3429      6720756E 
 3429      7369676E 
 3429      65642069 
 3430              	.LASF63:
 3431 0066 65786974 		.ascii	"exitcode\000"
 3431      636F6465 
 3431      00
 3432              	.LASF69:
 3433 006f 63684D42 		.ascii	"chMBPostAheadS\000"
 3433      506F7374 
 3433      41686561 
 3433      645300
 3434              	.LASF57:
 3435 007e 6D625F77 		.ascii	"mb_wrptr\000"
 3435      72707472 
 3435      00
 3436              	.LASF26:
 3437 0087 705F7072 		.ascii	"p_prio\000"
 3437      696F00
 3438              	.LASF10:
 3439 008e 6C6F6E67 		.ascii	"long long int\000"
 3439      206C6F6E 
 3439      6720696E 
 3439      7400
 3440              	.LASF1:
 3441 009c 7369676E 		.ascii	"signed char\000"
 3441      65642063 
 3441      68617200 
ARM GAS  /tmp/ccjVFBhL.s 			page 62


 3442              	.LASF41:
 3443 00a8 705F6D70 		.ascii	"p_mpool\000"
 3443      6F6F6C00 
 3444              	.LASF52:
 3445 00b0 6D5F7175 		.ascii	"m_queue\000"
 3445      65756500 
 3446              	.LASF7:
 3447 00b8 6C6F6E67 		.ascii	"long int\000"
 3447      20696E74 
 3447      00
 3448              	.LASF16:
 3449 00c1 74737461 		.ascii	"tstate_t\000"
 3449      74655F74 
 3449      00
 3450              	.LASF28:
 3451 00ca 705F6E65 		.ascii	"p_newer\000"
 3451      77657200 
 3452              	.LASF49:
 3453 00d2 735F7175 		.ascii	"s_queue\000"
 3453      65756500 
 3454              	.LASF87:
 3455 00da 63685363 		.ascii	"chSchRescheduleS\000"
 3455      68526573 
 3455      63686564 
 3455      756C6553 
 3455      00
 3456              	.LASF8:
 3457 00eb 5F5F7569 		.ascii	"__uint32_t\000"
 3457      6E743332 
 3457      5F7400
 3458              	.LASF44:
 3459 00f6 72656761 		.ascii	"regarm_t\000"
 3459      726D5F74 
 3459      00
 3460              	.LASF86:
 3461 00ff 2F686F6D 		.ascii	"/home/raparram/Escritorio/blinkSAM\000"
 3461      652F7261 
 3461      70617272 
 3461      616D2F45 
 3461      73637269 
 3462              	.LASF22:
 3463 0122 636E745F 		.ascii	"cnt_t\000"
 3463      7400
 3464              	.LASF0:
 3465 0128 756E7369 		.ascii	"unsigned int\000"
 3465      676E6564 
 3465      20696E74 
 3465      00
 3466              	.LASF72:
 3467 0135 63684D42 		.ascii	"chMBInit\000"
 3467      496E6974 
 3467      00
 3468              	.LASF9:
 3469 013e 6C6F6E67 		.ascii	"long unsigned int\000"
 3469      20756E73 
 3469      69676E65 
 3469      6420696E 
ARM GAS  /tmp/ccjVFBhL.s 			page 63


 3469      7400
 3470              	.LASF60:
 3471 0150 6D625F65 		.ascii	"mb_emptysem\000"
 3471      6D707479 
 3471      73656D00 
 3472              	.LASF50:
 3473 015c 735F636E 		.ascii	"s_cnt\000"
 3473      7400
 3474              	.LASF46:
 3475 0162 636F6E74 		.ascii	"context\000"
 3475      65787400 
 3476              	.LASF4:
 3477 016a 73686F72 		.ascii	"short unsigned int\000"
 3477      7420756E 
 3477      7369676E 
 3477      65642069 
 3477      6E7400
 3478              	.LASF79:
 3479 017d 63684D42 		.ascii	"chMBFetchI\000"
 3479      46657463 
 3479      684900
 3480              	.LASF19:
 3481 0188 6D73675F 		.ascii	"msg_t\000"
 3481      7400
 3482              	.LASF70:
 3483 018e 63684D42 		.ascii	"chMBFetchS\000"
 3483      46657463 
 3483      685300
 3484              	.LASF15:
 3485 0199 746D6F64 		.ascii	"tmode_t\000"
 3485      655F7400 
 3486              	.LASF43:
 3487 01a1 54687265 		.ascii	"ThreadsList\000"
 3487      6164734C 
 3487      69737400 
 3488              	.LASF20:
 3489 01ad 6576656E 		.ascii	"eventmask_t\000"
 3489      746D6173 
 3489      6B5F7400 
 3490              	.LASF51:
 3491 01b9 4D757465 		.ascii	"Mutex\000"
 3491      7800
 3492              	.LASF71:
 3493 01bf 6D736770 		.ascii	"msgp\000"
 3493      00
 3494              	.LASF84:
 3495 01c4 474E5520 		.ascii	"GNU C 4.9.3 20150529 (prerelease) -mcpu=cortex-m3 -"
 3495      4320342E 
 3495      392E3320 
 3495      32303135 
 3495      30353239 
 3496 01f7 6D6E6F2D 		.ascii	"mno-thumb-interwork -mthumb -ggdb -O2 -std=gnu99 -f"
 3496      7468756D 
 3496      622D696E 
 3496      74657277 
 3496      6F726B20 
 3497 022a 6F6D6974 		.ascii	"omit-frame-pointer -falign-functions=16 -ffunction-"
ARM GAS  /tmp/ccjVFBhL.s 			page 64


 3497      2D667261 
 3497      6D652D70 
 3497      6F696E74 
 3497      6572202D 
 3498 025d 73656374 		.ascii	"sections -fdata-sections -fno-common\000"
 3498      696F6E73 
 3498      202D6664 
 3498      6174612D 
 3498      73656374 
 3499              	.LASF47:
 3500 0282 73697A65 		.ascii	"sizetype\000"
 3500      74797065 
 3500      00
 3501              	.LASF58:
 3502 028b 6D625F72 		.ascii	"mb_rdptr\000"
 3502      64707472 
 3502      00
 3503              	.LASF73:
 3504 0294 63684D42 		.ascii	"chMBReset\000"
 3504      52657365 
 3504      7400
 3505              	.LASF29:
 3506 029e 705F6F6C 		.ascii	"p_older\000"
 3506      64657200 
 3507              	.LASF42:
 3508 02a6 54687265 		.ascii	"ThreadsQueue\000"
 3508      61647351 
 3508      75657565 
 3508      00
 3509              	.LASF55:
 3510 02b3 6D625F62 		.ascii	"mb_buffer\000"
 3510      75666665 
 3510      7200
 3511              	.LASF67:
 3512 02bd 74696D65 		.ascii	"time\000"
 3512      00
 3513              	.LASF17:
 3514 02c2 74726566 		.ascii	"trefs_t\000"
 3514      735F7400 
 3515              	.LASF25:
 3516 02ca 705F7072 		.ascii	"p_prev\000"
 3516      657600
 3517              	.LASF18:
 3518 02d1 74707269 		.ascii	"tprio_t\000"
 3518      6F5F7400 
 3519              	.LASF13:
 3520 02d9 696E7433 		.ascii	"int32_t\000"
 3520      325F7400 
 3521              	.LASF2:
 3522 02e1 756E7369 		.ascii	"unsigned char\000"
 3522      676E6564 
 3522      20636861 
 3522      7200
 3523              	.LASF56:
 3524 02ef 6D625F74 		.ascii	"mb_top\000"
 3524      6F7000
 3525              	.LASF39:
ARM GAS  /tmp/ccjVFBhL.s 			page 65


 3526 02f6 705F6D74 		.ascii	"p_mtxlist\000"
 3526      786C6973 
 3526      7400
 3527              	.LASF3:
 3528 0300 73686F72 		.ascii	"short int\000"
 3528      7420696E 
 3528      7400
 3529              	.LASF31:
 3530 030a 705F7374 		.ascii	"p_state\000"
 3530      61746500 
 3531              	.LASF65:
 3532 0312 65776D61 		.ascii	"ewmask\000"
 3532      736B00
 3533              	.LASF24:
 3534 0319 705F6E65 		.ascii	"p_next\000"
 3534      787400
 3535              	.LASF32:
 3536 0320 705F666C 		.ascii	"p_flags\000"
 3536      61677300 
 3537              	.LASF74:
 3538 0328 63684D42 		.ascii	"chMBPost\000"
 3538      506F7374 
 3538      00
 3539              	.LASF23:
 3540 0331 54687265 		.ascii	"Thread\000"
 3540      616400
 3541              	.LASF38:
 3542 0338 705F6570 		.ascii	"p_epending\000"
 3542      656E6469 
 3542      6E6700
 3543              	.LASF14:
 3544 0343 75696E74 		.ascii	"uint32_t\000"
 3544      33325F74 
 3544      00
 3545              	.LASF66:
 3546 034c 63686172 		.ascii	"char\000"
 3546      00
 3547              	.LASF83:
 3548 0351 63685365 		.ascii	"chSemWaitTimeoutS\000"
 3548      6D576169 
 3548      7454696D 
 3548      656F7574 
 3548      5300
 3549              	.LASF85:
 3550 0363 43686962 		.ascii	"ChibiOS//os/kernel/src/chmboxes.c\000"
 3550      694F532F 
 3550      2F6F732F 
 3550      6B65726E 
 3550      656C2F73 
 3551              	.LASF54:
 3552 0385 6D5F6E65 		.ascii	"m_next\000"
 3552      787400
 3553              	.LASF21:
 3554 038c 73797374 		.ascii	"systime_t\000"
 3554      696D655F 
 3554      7400
 3555              	.LASF40:
ARM GAS  /tmp/ccjVFBhL.s 			page 66


 3556 0396 705F7265 		.ascii	"p_realprio\000"
 3556      616C7072 
 3556      696F00
 3557              	.LASF6:
 3558 03a1 5F5F696E 		.ascii	"__int32_t\000"
 3558      7433325F 
 3558      7400
 3559              	.LASF34:
 3560 03ab 705F7469 		.ascii	"p_time\000"
 3560      6D6500
 3561              	.LASF76:
 3562 03b2 63684D42 		.ascii	"chMBPostAhead\000"
 3562      506F7374 
 3562      41686561 
 3562      6400
 3563              	.LASF45:
 3564 03c0 696E7463 		.ascii	"intctx\000"
 3564      747800
 3565              	.LASF36:
 3566 03c7 705F6D73 		.ascii	"p_msgqueue\000"
 3566      67717565 
 3566      756500
 3567              	.LASF78:
 3568 03d2 63684D42 		.ascii	"chMBFetch\000"
 3568      46657463 
 3568      6800
 3569              	.LASF48:
 3570 03dc 53656D61 		.ascii	"Semaphore\000"
 3570      70686F72 
 3570      6500
 3571              	.LASF59:
 3572 03e6 6D625F66 		.ascii	"mb_fullsem\000"
 3572      756C6C73 
 3572      656D00
 3573              	.LASF33:
 3574 03f1 705F7265 		.ascii	"p_refs\000"
 3574      667300
 3575              	.LASF81:
 3576 03f8 63685365 		.ascii	"chSemResetI\000"
 3576      6D526573 
 3576      65744900 
 3577              	.LASF12:
 3578 0404 75696E74 		.ascii	"uint8_t\000"
 3578      385F7400 
 3579              	.LASF64:
 3580 040c 77746F62 		.ascii	"wtobjp\000"
 3580      6A7000
 3581              	.LASF30:
 3582 0413 705F6E61 		.ascii	"p_name\000"
 3582      6D6500
 3583              	.LASF53:
 3584 041a 6D5F6F77 		.ascii	"m_owner\000"
 3584      6E657200 
 3585              	.LASF27:
 3586 0422 705F6374 		.ascii	"p_ctx\000"
 3586      7800
 3587              	.LASF35:
ARM GAS  /tmp/ccjVFBhL.s 			page 67


 3588 0428 705F7761 		.ascii	"p_waiting\000"
 3588      6974696E 
 3588      6700
 3589              	.LASF80:
 3590 0432 63685365 		.ascii	"chSemInit\000"
 3590      6D496E69 
 3590      7400
 3591              		.ident	"GCC: (15:4.9.3+svn231177-1) 4.9.3 20150529 (prerelease)"
ARM GAS  /tmp/ccjVFBhL.s 			page 68


DEFINED SYMBOLS
                            *ABS*:0000000000000000 chmboxes.c
     /tmp/ccjVFBhL.s:19     .text.chMBInit:0000000000000000 $t
     /tmp/ccjVFBhL.s:25     .text.chMBInit:0000000000000000 chMBInit
     /tmp/ccjVFBhL.s:70     .text.chMBReset:0000000000000000 $t
     /tmp/ccjVFBhL.s:76     .text.chMBReset:0000000000000000 chMBReset
     /tmp/ccjVFBhL.s:137    .text.chMBPostS:0000000000000000 $t
     /tmp/ccjVFBhL.s:143    .text.chMBPostS:0000000000000000 chMBPostS
     /tmp/ccjVFBhL.s:209    .text.chMBPost:0000000000000000 $t
     /tmp/ccjVFBhL.s:215    .text.chMBPost:0000000000000000 chMBPost
     /tmp/ccjVFBhL.s:251    .text.chMBPostI:0000000000000000 $t
     /tmp/ccjVFBhL.s:257    .text.chMBPostI:0000000000000000 chMBPostI
     /tmp/ccjVFBhL.s:315    .text.chMBPostAheadS:0000000000000000 $t
     /tmp/ccjVFBhL.s:321    .text.chMBPostAheadS:0000000000000000 chMBPostAheadS
     /tmp/ccjVFBhL.s:389    .text.chMBPostAhead:0000000000000000 $t
     /tmp/ccjVFBhL.s:395    .text.chMBPostAhead:0000000000000000 chMBPostAhead
     /tmp/ccjVFBhL.s:431    .text.chMBPostAheadI:0000000000000000 $t
     /tmp/ccjVFBhL.s:437    .text.chMBPostAheadI:0000000000000000 chMBPostAheadI
     /tmp/ccjVFBhL.s:495    .text.chMBFetchS:0000000000000000 $t
     /tmp/ccjVFBhL.s:501    .text.chMBFetchS:0000000000000000 chMBFetchS
     /tmp/ccjVFBhL.s:568    .text.chMBFetch:0000000000000000 $t
     /tmp/ccjVFBhL.s:574    .text.chMBFetch:0000000000000000 chMBFetch
     /tmp/ccjVFBhL.s:610    .text.chMBFetchI:0000000000000000 $t
     /tmp/ccjVFBhL.s:616    .text.chMBFetchI:0000000000000000 chMBFetchI
                     .debug_frame:0000000000000010 $d

UNDEFINED SYMBOLS
chSemInit
chSemResetI
chSchRescheduleS
chSemWaitTimeoutS
chSemSignalI
