ARM GAS  /tmp/ccjVFBhL.s 			page 1


   1              		.syntax unified
   2              		.cpu cortex-m3
   3              		.fpu softvfp
   4              		.eabi_attribute 20, 1
   5              		.eabi_attribute 21, 1
   6              		.eabi_attribute 23, 3
   7              		.eabi_attribute 24, 1
   8              		.eabi_attribute 25, 1
   9              		.eabi_attribute 26, 1
  10              		.eabi_attribute 30, 2
  11              		.eabi_attribute 34, 1
  12              		.eabi_attribute 18, 4
  13              		.thumb
  14              		.file	"chmboxes.c"
  15              		.text
  16              	.Ltext0:
  17              		.cfi_sections	.debug_frame
  18              		.section	.text.chMBInit,"ax",%progbits
  19              		.align	2
  20              		.p2align 4,,15
  21              		.global	chMBInit
  22              		.thumb
  23              		.thumb_func
  24              		.type	chMBInit, %function
  25              	chMBInit:
  26              	.LFB7:
  27              		.file 1 "ChibiOS//os/kernel/src/chmboxes.c"
  28              		.loc 1 72 0
  29              		.cfi_startproc
  30              		@ args = 0, pretend = 0, frame = 0
  31              		@ frame_needed = 0, uses_anonymous_args = 0
  32              	.LVL0:
  33 0000 0B46     		mov	r3, r1
  34 0002 10B5     		push	{r4, lr}
  35              		.cfi_def_cfa_offset 8
  36              		.cfi_offset 4, -8
  37              		.cfi_offset 14, -4
  38              		.loc 1 72 0
  39 0004 0446     		mov	r4, r0
  40              		.loc 1 77 0
  41 0006 01EB8201 		add	r1, r1, r2, lsl #2
  42              	.LVL1:
  43 000a 4160     		str	r1, [r0, #4]
  44              		.loc 1 76 0
  45 000c C360     		str	r3, [r0, #12]
  46 000e 8360     		str	r3, [r0, #8]
  47 0010 0360     		str	r3, [r0]
  48              		.loc 1 78 0
  49 0012 1146     		mov	r1, r2
  50 0014 1C30     		adds	r0, r0, #28
  51              	.LVL2:
  52 0016 FFF7FEFF 		bl	chSemInit
  53              	.LVL3:
  54              		.loc 1 79 0
  55 001a 04F11000 		add	r0, r4, #16
  56 001e 0021     		movs	r1, #0
  57              		.loc 1 80 0
ARM GAS  /tmp/ccjVFBhL.s 			page 2


  58 0020 BDE81040 		pop	{r4, lr}
  59              		.cfi_restore 14
  60              		.cfi_restore 4
  61              		.cfi_def_cfa_offset 0
  62              	.LVL4:
  63              		.loc 1 79 0
  64 0024 FFF7FEBF 		b	chSemInit
  65              	.LVL5:
  66              		.cfi_endproc
  67              	.LFE7:
  68              		.size	chMBInit, .-chMBInit
  69              		.section	.text.chMBReset,"ax",%progbits
  70              		.align	2
  71              		.p2align 4,,15
  72              		.global	chMBReset
  73              		.thumb
  74              		.thumb_func
  75              		.type	chMBReset, %function
  76              	chMBReset:
  77              	.LFB8:
  78              		.loc 1 91 0
  79              		.cfi_startproc
  80              		@ args = 0, pretend = 0, frame = 0
  81              		@ frame_needed = 0, uses_anonymous_args = 0
  82              	.LVL6:
  83 0000 10B5     		push	{r4, lr}
  84              		.cfi_def_cfa_offset 8
  85              		.cfi_offset 4, -8
  86              		.cfi_offset 14, -4
  87              	.LBB2:
  88              		.loc 1 95 0
  89 0002 2023     		movs	r3, #32
  90              	.LBE2:
  91              		.loc 1 91 0
  92 0004 0446     		mov	r4, r0
  93              	.LBB3:
  94              		.loc 1 95 0
  95              	@ 95 "ChibiOS//os/kernel/src/chmboxes.c" 1
  96 0006 83F31188 		msr     BASEPRI, r3
  97              	@ 0 "" 2
  98              		.thumb
  99              	.LBE3:
 100              		.loc 1 96 0
 101 000a 0368     		ldr	r3, [r0]
 102              		.loc 1 97 0
 103 000c 4168     		ldr	r1, [r0, #4]
 104              		.loc 1 96 0
 105 000e C360     		str	r3, [r0, #12]
 106              		.loc 1 97 0
 107 0010 C91A     		subs	r1, r1, r3
 108              		.loc 1 96 0
 109 0012 8360     		str	r3, [r0, #8]
 110              		.loc 1 97 0
 111 0014 8910     		asrs	r1, r1, #2
 112 0016 1C30     		adds	r0, r0, #28
 113              	.LVL7:
 114 0018 FFF7FEFF 		bl	chSemResetI
ARM GAS  /tmp/ccjVFBhL.s 			page 3


 115              	.LVL8:
 116              		.loc 1 98 0
 117 001c 04F11000 		add	r0, r4, #16
 118 0020 0021     		movs	r1, #0
 119 0022 FFF7FEFF 		bl	chSemResetI
 120              	.LVL9:
 121              		.loc 1 99 0
 122 0026 FFF7FEFF 		bl	chSchRescheduleS
 123              	.LVL10:
 124              	.LBB4:
 125              		.loc 1 100 0
 126 002a 0023     		movs	r3, #0
 127              	@ 100 "ChibiOS//os/kernel/src/chmboxes.c" 1
 128 002c 83F31188 		msr     BASEPRI, r3
 129              	@ 0 "" 2
 130              		.thumb
 131 0030 10BD     		pop	{r4, pc}
 132              	.LBE4:
 133              		.cfi_endproc
 134              	.LFE8:
 135              		.size	chMBReset, .-chMBReset
 136 0032 00BF     		.section	.text.chMBPostS,"ax",%progbits
 137              		.align	2
 138              		.p2align 4,,15
 139              		.global	chMBPostS
 140              		.thumb
 141              		.thumb_func
 142              		.type	chMBPostS, %function
 143              	chMBPostS:
 144              	.LFB10:
 145              		.loc 1 150 0
 146              		.cfi_startproc
 147              		@ args = 0, pretend = 0, frame = 0
 148              		@ frame_needed = 0, uses_anonymous_args = 0
 149              	.LVL11:
 150 0000 70B5     		push	{r4, r5, r6, lr}
 151              		.cfi_def_cfa_offset 16
 152              		.cfi_offset 4, -16
 153              		.cfi_offset 5, -12
 154              		.cfi_offset 6, -8
 155              		.cfi_offset 14, -4
 156              		.loc 1 150 0
 157 0002 0446     		mov	r4, r0
 158 0004 0E46     		mov	r6, r1
 159              		.loc 1 156 0
 160 0006 1C30     		adds	r0, r0, #28
 161              	.LVL12:
 162 0008 1146     		mov	r1, r2
 163              	.LVL13:
 164 000a FFF7FEFF 		bl	chSemWaitTimeoutS
 165              	.LVL14:
 166              		.loc 1 157 0
 167 000e 0546     		mov	r5, r0
 168 0010 78B9     		cbnz	r0, .L6
 169              	.LVL15:
 170              	.LBB7:
 171              	.LBB8:
ARM GAS  /tmp/ccjVFBhL.s 			page 4


 172              		.loc 1 158 0
 173 0012 A268     		ldr	r2, [r4, #8]
 174              		.loc 1 159 0
 175 0014 6168     		ldr	r1, [r4, #4]
 176              		.loc 1 158 0
 177 0016 131D     		adds	r3, r2, #4
 178              		.loc 1 159 0
 179 0018 8B42     		cmp	r3, r1
 180              		.loc 1 158 0
 181 001a A360     		str	r3, [r4, #8]
 182              		.loc 1 160 0
 183 001c 28BF     		it	cs
 184 001e 2368     		ldrcs	r3, [r4]
 185              		.loc 1 158 0
 186 0020 1660     		str	r6, [r2]
 187              		.loc 1 161 0
 188 0022 04F11000 		add	r0, r4, #16
 189              	.LVL16:
 190              		.loc 1 160 0
 191 0026 28BF     		it	cs
 192 0028 A360     		strcs	r3, [r4, #8]
 193              		.loc 1 161 0
 194 002a FFF7FEFF 		bl	chSemSignalI
 195              	.LVL17:
 196              		.loc 1 162 0
 197 002e FFF7FEFF 		bl	chSchRescheduleS
 198              	.LVL18:
 199              	.L6:
 200              	.LBE8:
 201              	.LBE7:
 202              		.loc 1 165 0
 203 0032 2846     		mov	r0, r5
 204 0034 70BD     		pop	{r4, r5, r6, pc}
 205              		.cfi_endproc
 206              	.LFE10:
 207              		.size	chMBPostS, .-chMBPostS
 208 0036 00BF     		.section	.text.chMBPost,"ax",%progbits
 209              		.align	2
 210              		.p2align 4,,15
 211              		.global	chMBPost
 212              		.thumb
 213              		.thumb_func
 214              		.type	chMBPost, %function
 215              	chMBPost:
 216              	.LFB9:
 217              		.loc 1 122 0
 218              		.cfi_startproc
 219              		@ args = 0, pretend = 0, frame = 0
 220              		@ frame_needed = 0, uses_anonymous_args = 0
 221              	.LVL19:
 222 0000 08B5     		push	{r3, lr}
 223              		.cfi_def_cfa_offset 8
 224              		.cfi_offset 3, -8
 225              		.cfi_offset 14, -4
 226              	.LBB9:
 227              		.loc 1 125 0
 228 0002 2023     		movs	r3, #32
ARM GAS  /tmp/ccjVFBhL.s 			page 5


 229              	@ 125 "ChibiOS//os/kernel/src/chmboxes.c" 1
 230 0004 83F31188 		msr     BASEPRI, r3
 231              	@ 0 "" 2
 232              		.thumb
 233              	.LBE9:
 234              		.loc 1 126 0
 235 0008 FFF7FEFF 		bl	chMBPostS
 236              	.LVL20:
 237              	.LBB10:
 238              		.loc 1 127 0
 239 000c 0023     		movs	r3, #0
 240              	@ 127 "ChibiOS//os/kernel/src/chmboxes.c" 1
 241 000e 83F31188 		msr     BASEPRI, r3
 242              	@ 0 "" 2
 243              		.thumb
 244              	.LBE10:
 245              		.loc 1 129 0
 246 0012 08BD     		pop	{r3, pc}
 247              		.cfi_endproc
 248              	.LFE9:
 249              		.size	chMBPost, .-chMBPost
 250              		.section	.text.chMBPostI,"ax",%progbits
 251              		.align	2
 252              		.p2align 4,,15
 253              		.global	chMBPostI
 254              		.thumb
 255              		.thumb_func
 256              		.type	chMBPostI, %function
 257              	chMBPostI:
 258              	.LFB11:
 259              		.loc 1 181 0
 260              		.cfi_startproc
 261              		@ args = 0, pretend = 0, frame = 0
 262              		@ frame_needed = 0, uses_anonymous_args = 0
 263              	.LVL21:
 264 0000 38B5     		push	{r3, r4, r5, lr}
 265              		.cfi_def_cfa_offset 16
 266              		.cfi_offset 3, -16
 267              		.cfi_offset 4, -12
 268              		.cfi_offset 5, -8
 269              		.cfi_offset 14, -4
 270              		.loc 1 186 0
 271 0002 436A     		ldr	r3, [r0, #36]
 272 0004 002B     		cmp	r3, #0
 273 0006 12DD     		ble	.L15
 274              		.loc 1 189 0
 275 0008 8468     		ldr	r4, [r0, #8]
 276              		.loc 1 190 0
 277 000a 4568     		ldr	r5, [r0, #4]
 278              		.loc 1 189 0
 279 000c 221D     		adds	r2, r4, #4
 280              		.loc 1 188 0
 281 000e 013B     		subs	r3, r3, #1
 282              		.loc 1 190 0
 283 0010 AA42     		cmp	r2, r5
 284              		.loc 1 188 0
 285 0012 4362     		str	r3, [r0, #36]
ARM GAS  /tmp/ccjVFBhL.s 			page 6


 286              		.loc 1 191 0
 287 0014 28BF     		it	cs
 288 0016 0368     		ldrcs	r3, [r0]
 289              		.loc 1 189 0
 290 0018 8260     		str	r2, [r0, #8]
 291 001a 2160     		str	r1, [r4]
 292              		.loc 1 192 0
 293 001c 00F11000 		add	r0, r0, #16
 294              	.LVL22:
 295              		.loc 1 191 0
 296 0020 28BF     		it	cs
 297 0022 40F8083C 		strcs	r3, [r0, #-8]
 298              		.loc 1 192 0
 299 0026 FFF7FEFF 		bl	chSemSignalI
 300              	.LVL23:
 301              		.loc 1 193 0
 302 002a 0020     		movs	r0, #0
 303 002c 38BD     		pop	{r3, r4, r5, pc}
 304              	.LVL24:
 305              	.L15:
 306              		.loc 1 187 0
 307 002e 4FF0FF30 		mov	r0, #-1
 308              	.LVL25:
 309              		.loc 1 194 0
 310 0032 38BD     		pop	{r3, r4, r5, pc}
 311              		.cfi_endproc
 312              	.LFE11:
 313              		.size	chMBPostI, .-chMBPostI
 314              		.section	.text.chMBPostAheadS,"ax",%progbits
 315              		.align	2
 316              		.p2align 4,,15
 317              		.global	chMBPostAheadS
 318              		.thumb
 319              		.thumb_func
 320              		.type	chMBPostAheadS, %function
 321              	chMBPostAheadS:
 322              	.LFB13:
 323              		.loc 1 243 0
 324              		.cfi_startproc
 325              		@ args = 0, pretend = 0, frame = 0
 326              		@ frame_needed = 0, uses_anonymous_args = 0
 327              	.LVL26:
 328 0000 70B5     		push	{r4, r5, r6, lr}
 329              		.cfi_def_cfa_offset 16
 330              		.cfi_offset 4, -16
 331              		.cfi_offset 5, -12
 332              		.cfi_offset 6, -8
 333              		.cfi_offset 14, -4
 334              		.loc 1 243 0
 335 0002 0446     		mov	r4, r0
 336 0004 0E46     		mov	r6, r1
 337              		.loc 1 249 0
 338 0006 1C30     		adds	r0, r0, #28
 339              	.LVL27:
 340 0008 1146     		mov	r1, r2
 341              	.LVL28:
 342 000a FFF7FEFF 		bl	chSemWaitTimeoutS
ARM GAS  /tmp/ccjVFBhL.s 			page 7


 343              	.LVL29:
 344              		.loc 1 250 0
 345 000e 0546     		mov	r5, r0
 346 0010 60B9     		cbnz	r0, .L18
 347              	.LVL30:
 348              	.LBB13:
 349              	.LBB14:
 350              		.loc 1 251 0
 351 0012 E368     		ldr	r3, [r4, #12]
 352 0014 2268     		ldr	r2, [r4]
 353 0016 043B     		subs	r3, r3, #4
 354 0018 9342     		cmp	r3, r2
 355 001a E360     		str	r3, [r4, #12]
 356 001c 08D3     		bcc	.L21
 357              	.L19:
 358              		.loc 1 253 0
 359 001e 1E60     		str	r6, [r3]
 360              		.loc 1 254 0
 361 0020 04F11000 		add	r0, r4, #16
 362              	.LVL31:
 363 0024 FFF7FEFF 		bl	chSemSignalI
 364              	.LVL32:
 365              		.loc 1 255 0
 366 0028 FFF7FEFF 		bl	chSchRescheduleS
 367              	.LVL33:
 368              	.L18:
 369              	.LBE14:
 370              	.LBE13:
 371              		.loc 1 258 0
 372 002c 2846     		mov	r0, r5
 373 002e 70BD     		pop	{r4, r5, r6, pc}
 374              	.LVL34:
 375              	.L21:
 376              	.LBB16:
 377              	.LBB15:
 378              		.loc 1 252 0
 379 0030 6368     		ldr	r3, [r4, #4]
 380 0032 043B     		subs	r3, r3, #4
 381 0034 E360     		str	r3, [r4, #12]
 382 0036 F2E7     		b	.L19
 383              	.LBE15:
 384              	.LBE16:
 385              		.cfi_endproc
 386              	.LFE13:
 387              		.size	chMBPostAheadS, .-chMBPostAheadS
 388              		.section	.text.chMBPostAhead,"ax",%progbits
 389              		.align	2
 390              		.p2align 4,,15
 391              		.global	chMBPostAhead
 392              		.thumb
 393              		.thumb_func
 394              		.type	chMBPostAhead, %function
 395              	chMBPostAhead:
 396              	.LFB12:
 397              		.loc 1 215 0
 398              		.cfi_startproc
 399              		@ args = 0, pretend = 0, frame = 0
ARM GAS  /tmp/ccjVFBhL.s 			page 8


 400              		@ frame_needed = 0, uses_anonymous_args = 0
 401              	.LVL35:
 402 0000 08B5     		push	{r3, lr}
 403              		.cfi_def_cfa_offset 8
 404              		.cfi_offset 3, -8
 405              		.cfi_offset 14, -4
 406              	.LBB17:
 407              		.loc 1 218 0
 408 0002 2023     		movs	r3, #32
 409              	@ 218 "ChibiOS//os/kernel/src/chmboxes.c" 1
 410 0004 83F31188 		msr     BASEPRI, r3
 411              	@ 0 "" 2
 412              		.thumb
 413              	.LBE17:
 414              		.loc 1 219 0
 415 0008 FFF7FEFF 		bl	chMBPostAheadS
 416              	.LVL36:
 417              	.LBB18:
 418              		.loc 1 220 0
 419 000c 0023     		movs	r3, #0
 420              	@ 220 "ChibiOS//os/kernel/src/chmboxes.c" 1
 421 000e 83F31188 		msr     BASEPRI, r3
 422              	@ 0 "" 2
 423              		.thumb
 424              	.LBE18:
 425              		.loc 1 222 0
 426 0012 08BD     		pop	{r3, pc}
 427              		.cfi_endproc
 428              	.LFE12:
 429              		.size	chMBPostAhead, .-chMBPostAhead
 430              		.section	.text.chMBPostAheadI,"ax",%progbits
 431              		.align	2
 432              		.p2align 4,,15
 433              		.global	chMBPostAheadI
 434              		.thumb
 435              		.thumb_func
 436              		.type	chMBPostAheadI, %function
 437              	chMBPostAheadI:
 438              	.LFB14:
 439              		.loc 1 274 0
 440              		.cfi_startproc
 441              		@ args = 0, pretend = 0, frame = 0
 442              		@ frame_needed = 0, uses_anonymous_args = 0
 443              	.LVL37:
 444              		.loc 1 279 0
 445 0000 426A     		ldr	r2, [r0, #36]
 446 0002 002A     		cmp	r2, #0
 447 0004 11DD     		ble	.L27
 448              		.loc 1 282 0
 449 0006 C368     		ldr	r3, [r0, #12]
 450              		.loc 1 274 0
 451 0008 10B5     		push	{r4, lr}
 452              		.cfi_def_cfa_offset 8
 453              		.cfi_offset 4, -8
 454              		.cfi_offset 14, -4
 455              		.loc 1 282 0
 456 000a 0468     		ldr	r4, [r0]
ARM GAS  /tmp/ccjVFBhL.s 			page 9


 457 000c 043B     		subs	r3, r3, #4
 458              		.loc 1 281 0
 459 000e 013A     		subs	r2, r2, #1
 460              		.loc 1 282 0
 461 0010 A342     		cmp	r3, r4
 462              		.loc 1 281 0
 463 0012 4262     		str	r2, [r0, #36]
 464              		.loc 1 282 0
 465 0014 C360     		str	r3, [r0, #12]
 466 0016 02D2     		bcs	.L26
 467              		.loc 1 283 0
 468 0018 4368     		ldr	r3, [r0, #4]
 469 001a 043B     		subs	r3, r3, #4
 470 001c C360     		str	r3, [r0, #12]
 471              	.L26:
 472              		.loc 1 284 0
 473 001e 1960     		str	r1, [r3]
 474              		.loc 1 285 0
 475 0020 1030     		adds	r0, r0, #16
 476              	.LVL38:
 477 0022 FFF7FEFF 		bl	chSemSignalI
 478              	.LVL39:
 479              		.loc 1 286 0
 480 0026 0020     		movs	r0, #0
 481 0028 10BD     		pop	{r4, pc}
 482              	.LVL40:
 483              	.L27:
 484              		.cfi_def_cfa_offset 0
 485              		.cfi_restore 4
 486              		.cfi_restore 14
 487              		.loc 1 280 0
 488 002a 4FF0FF30 		mov	r0, #-1
 489              	.LVL41:
 490 002e 7047     		bx	lr
 491              		.cfi_endproc
 492              	.LFE14:
 493              		.size	chMBPostAheadI, .-chMBPostAheadI
 494              		.section	.text.chMBFetchS,"ax",%progbits
 495              		.align	2
 496              		.p2align 4,,15
 497              		.global	chMBFetchS
 498              		.thumb
 499              		.thumb_func
 500              		.type	chMBFetchS, %function
 501              	chMBFetchS:
 502              	.LFB16:
 503              		.loc 1 336 0
 504              		.cfi_startproc
 505              		@ args = 0, pretend = 0, frame = 0
 506              		@ frame_needed = 0, uses_anonymous_args = 0
 507              	.LVL42:
 508 0000 70B5     		push	{r4, r5, r6, lr}
 509              		.cfi_def_cfa_offset 16
 510              		.cfi_offset 4, -16
 511              		.cfi_offset 5, -12
 512              		.cfi_offset 6, -8
 513              		.cfi_offset 14, -4
ARM GAS  /tmp/ccjVFBhL.s 			page 10


 514              		.loc 1 336 0
 515 0002 0446     		mov	r4, r0
 516 0004 0E46     		mov	r6, r1
 517              		.loc 1 342 0
 518 0006 1030     		adds	r0, r0, #16
 519              	.LVL43:
 520 0008 1146     		mov	r1, r2
 521              	.LVL44:
 522 000a FFF7FEFF 		bl	chSemWaitTimeoutS
 523              	.LVL45:
 524              		.loc 1 343 0
 525 000e 0546     		mov	r5, r0
 526 0010 80B9     		cbnz	r0, .L31
 527              	.LVL46:
 528              	.LBB21:
 529              	.LBB22:
 530              		.loc 1 344 0
 531 0012 E368     		ldr	r3, [r4, #12]
 532              		.loc 1 345 0
 533 0014 6268     		ldr	r2, [r4, #4]
 534              		.loc 1 344 0
 535 0016 1968     		ldr	r1, [r3]
 536 0018 0433     		adds	r3, r3, #4
 537              		.loc 1 345 0
 538 001a 9342     		cmp	r3, r2
 539              		.loc 1 344 0
 540 001c E360     		str	r3, [r4, #12]
 541              		.loc 1 346 0
 542 001e 28BF     		it	cs
 543 0020 2368     		ldrcs	r3, [r4]
 544              		.loc 1 344 0
 545 0022 3160     		str	r1, [r6]
 546              		.loc 1 347 0
 547 0024 04F11C00 		add	r0, r4, #28
 548              	.LVL47:
 549              		.loc 1 346 0
 550 0028 28BF     		it	cs
 551 002a E360     		strcs	r3, [r4, #12]
 552              		.loc 1 347 0
 553 002c FFF7FEFF 		bl	chSemSignalI
 554              	.LVL48:
 555              		.loc 1 348 0
 556 0030 FFF7FEFF 		bl	chSchRescheduleS
 557              	.LVL49:
 558              	.L31:
 559              	.LBE22:
 560              	.LBE21:
 561              		.loc 1 351 0
 562 0034 2846     		mov	r0, r5
 563 0036 70BD     		pop	{r4, r5, r6, pc}
 564              		.cfi_endproc
 565              	.LFE16:
 566              		.size	chMBFetchS, .-chMBFetchS
 567              		.section	.text.chMBFetch,"ax",%progbits
 568              		.align	2
 569              		.p2align 4,,15
 570              		.global	chMBFetch
ARM GAS  /tmp/ccjVFBhL.s 			page 11


 571              		.thumb
 572              		.thumb_func
 573              		.type	chMBFetch, %function
 574              	chMBFetch:
 575              	.LFB15:
 576              		.loc 1 308 0
 577              		.cfi_startproc
 578              		@ args = 0, pretend = 0, frame = 0
 579              		@ frame_needed = 0, uses_anonymous_args = 0
 580              	.LVL50:
 581 0000 08B5     		push	{r3, lr}
 582              		.cfi_def_cfa_offset 8
 583              		.cfi_offset 3, -8
 584              		.cfi_offset 14, -4
 585              	.LBB23:
 586              		.loc 1 311 0
 587 0002 2023     		movs	r3, #32
 588              	@ 311 "ChibiOS//os/kernel/src/chmboxes.c" 1
 589 0004 83F31188 		msr     BASEPRI, r3
 590              	@ 0 "" 2
 591              		.thumb
 592              	.LBE23:
 593              		.loc 1 312 0
 594 0008 FFF7FEFF 		bl	chMBFetchS
 595              	.LVL51:
 596              	.LBB24:
 597              		.loc 1 313 0
 598 000c 0023     		movs	r3, #0
 599              	@ 313 "ChibiOS//os/kernel/src/chmboxes.c" 1
 600 000e 83F31188 		msr     BASEPRI, r3
 601              	@ 0 "" 2
 602              		.thumb
 603              	.LBE24:
 604              		.loc 1 315 0
 605 0012 08BD     		pop	{r3, pc}
 606              		.cfi_endproc
 607              	.LFE15:
 608              		.size	chMBFetch, .-chMBFetch
 609              		.section	.text.chMBFetchI,"ax",%progbits
 610              		.align	2
 611              		.p2align 4,,15
 612              		.global	chMBFetchI
 613              		.thumb
 614              		.thumb_func
 615              		.type	chMBFetchI, %function
 616              	chMBFetchI:
 617              	.LFB17:
 618              		.loc 1 367 0
 619              		.cfi_startproc
 620              		@ args = 0, pretend = 0, frame = 0
 621              		@ frame_needed = 0, uses_anonymous_args = 0
 622              	.LVL52:
 623              		.loc 1 372 0
 624 0000 8369     		ldr	r3, [r0, #24]
 625 0002 002B     		cmp	r3, #0
 626 0004 14DD     		ble	.L39
 627              		.loc 1 374 0
ARM GAS  /tmp/ccjVFBhL.s 			page 12


 628 0006 5A1E     		subs	r2, r3, #1
 629              		.loc 1 375 0
 630 0008 C368     		ldr	r3, [r0, #12]
 631              		.loc 1 367 0
 632 000a 10B5     		push	{r4, lr}
 633              		.cfi_def_cfa_offset 8
 634              		.cfi_offset 4, -8
 635              		.cfi_offset 14, -4
 636              		.loc 1 374 0
 637 000c 8261     		str	r2, [r0, #24]
 638              		.loc 1 376 0
 639 000e 4268     		ldr	r2, [r0, #4]
 640              		.loc 1 375 0
 641 0010 1C68     		ldr	r4, [r3]
 642 0012 0433     		adds	r3, r3, #4
 643              		.loc 1 376 0
 644 0014 9342     		cmp	r3, r2
 645              		.loc 1 375 0
 646 0016 C360     		str	r3, [r0, #12]
 647              		.loc 1 377 0
 648 0018 28BF     		it	cs
 649 001a 0368     		ldrcs	r3, [r0]
 650              		.loc 1 375 0
 651 001c 0C60     		str	r4, [r1]
 652              		.loc 1 378 0
 653 001e 00F11C00 		add	r0, r0, #28
 654              	.LVL53:
 655              		.loc 1 377 0
 656 0022 28BF     		it	cs
 657 0024 40F8103C 		strcs	r3, [r0, #-16]
 658              		.loc 1 378 0
 659 0028 FFF7FEFF 		bl	chSemSignalI
 660              	.LVL54:
 661              		.loc 1 379 0
 662 002c 0020     		movs	r0, #0
 663 002e 10BD     		pop	{r4, pc}
 664              	.LVL55:
 665              	.L39:
 666              		.cfi_def_cfa_offset 0
 667              		.cfi_restore 4
 668              		.cfi_restore 14
 669              		.loc 1 373 0
 670 0030 4FF0FF30 		mov	r0, #-1
 671              	.LVL56:
 672 0034 7047     		bx	lr
 673              		.cfi_endproc
 674              	.LFE17:
 675              		.size	chMBFetchI, .-chMBFetchI
 676              		.text
 677              	.Letext0:
 678              		.file 2 "/usr/include/newlib/machine/_default_types.h"
 679              		.file 3 "/usr/include/newlib/sys/_stdint.h"
 680              		.file 4 "ChibiOS//os/ports/GCC/ARMCMx/chtypes.h"
 681              		.file 5 "ChibiOS//os/kernel/include/chlists.h"
 682              		.file 6 "ChibiOS//os/kernel/include/chthreads.h"
 683              		.file 7 "ChibiOS//os/ports/GCC/ARMCMx/chcore_v7m.h"
 684              		.file 8 "ChibiOS//os/kernel/include/chsem.h"
ARM GAS  /tmp/ccjVFBhL.s 			page 13


 685              		.file 9 "ChibiOS//os/kernel/include/chmtx.h"
 686              		.file 10 "ChibiOS//os/kernel/include/chmboxes.h"
 687              		.file 11 "ChibiOS//os/kernel/include/chschd.h"