ARM GAS  /tmp/ccxvZghf.s 			page 1


   1              		.syntax unified
   2              		.cpu cortex-m3
   3              		.fpu softvfp
   4              		.eabi_attribute 20, 1
   5              		.eabi_attribute 21, 1
   6              		.eabi_attribute 23, 3
   7              		.eabi_attribute 24, 1
   8              		.eabi_attribute 25, 1
   9              		.eabi_attribute 26, 1
  10              		.eabi_attribute 30, 2
  11              		.eabi_attribute 34, 1
  12              		.eabi_attribute 18, 4
  13              		.thumb
  14              		.file	"chprintf.c"
  15              		.text
  16              	.Ltext0:
  17              		.cfi_sections	.debug_frame
  18              		.section	.text.ltoa,"ax",%progbits
  19              		.align	2
  20              		.p2align 4,,15
  21              		.thumb
  22              		.thumb_func
  23              		.type	ltoa, %function
  24              	ltoa:
  25              	.LFB7:
  26              		.file 1 "../../os/various/chprintf.c"
  27              		.loc 1 42 0
  28              		.cfi_startproc
  29              		@ args = 0, pretend = 0, frame = 0
  30              		@ frame_needed = 0, uses_anonymous_args = 0
  31              		@ link register save eliminated.
  32              	.LVL0:
  33 0000 70B4     		push	{r4, r5, r6}
  34              		.cfi_def_cfa_offset 12
  35              		.cfi_offset 4, -12
  36              		.cfi_offset 5, -8
  37              		.cfi_offset 6, -4
  38              		.loc 1 46 0
  39 0002 00F10B06 		add	r6, r0, #11
  40              	.LVL1:
  41 0006 00F10A04 		add	r4, r0, #10
  42              	.LVL2:
  43              	.L4:
  44              		.loc 1 48 0
  45 000a B1FBF2F5 		udiv	r5, r1, r2
  46 000e 02FB1511 		mls	r1, r2, r5, r1
  47              	.LVL3:
  48              		.loc 1 49 0
  49 0012 01F13003 		add	r3, r1, #48
  50              	.LVL4:
  51              		.loc 1 50 0
  52 0016 392B     		cmp	r3, #57
  53              		.loc 1 51 0
  54 0018 C8BF     		it	gt
  55 001a 01F13703 		addgt	r3, r1, #55
  56              	.LVL5:
  57              		.loc 1 52 0
ARM GAS  /tmp/ccxvZghf.s 			page 2


  58 001e DBB2     		uxtb	r3, r3
  59              	.LVL6:
  60              		.loc 1 53 0
  61 0020 2946     		mov	r1, r5
  62              	.LVL7:
  63              		.loc 1 52 0
  64 0022 2546     		mov	r5, r4
  65              	.LVL8:
  66 0024 04F80139 		strb	r3, [r4], #-1
  67              	.LVL9:
  68              		.loc 1 53 0
  69 0028 0029     		cmp	r1, #0
  70 002a EED1     		bne	.L4
  71              	.LVL10:
  72              		.loc 1 55 0
  73 002c 711B     		subs	r1, r6, r5
  74              	.LVL11:
  75 002e 2A46     		mov	r2, r5
  76              	.LVL12:
  77 0030 0144     		add	r1, r1, r0
  78 0032 01E0     		b	.L6
  79              	.LVL13:
  80              	.L9:
  81 0034 12F8013F 		ldrb	r3, [r2, #1]!	@ zero_extendqisi2
  82              	.LVL14:
  83              	.L6:
  84              		.loc 1 57 0 discriminator 1
  85 0038 00F8013B 		strb	r3, [r0], #1
  86              	.LVL15:
  87              		.loc 1 58 0 discriminator 1
  88 003c 8842     		cmp	r0, r1
  89 003e F9D1     		bne	.L9
  90              		.loc 1 61 0
  91 0040 70BC     		pop	{r4, r5, r6}
  92              	.LVL16:
  93 0042 7047     		bx	lr
  94              		.cfi_endproc
  95              	.LFE7:
  96              		.size	ltoa, .-ltoa
  97 0044 AFF30080 		.section	.text.chprintf,"ax",%progbits
  97      AFF30080 
  97      AFF30080 
  98              		.align	2
  99              		.p2align 4,,15
 100              		.global	chprintf
 101              		.thumb
 102              		.thumb_func
 103              		.type	chprintf, %function
 104              	chprintf:
 105              	.LFB8:
 106              		.loc 1 86 0
 107              		.cfi_startproc
 108              		@ args = 4, pretend = 12, frame = 24
 109              		@ frame_needed = 0, uses_anonymous_args = 1
 110              	.LVL17:
 111 0000 0EB4     		push	{r1, r2, r3}
 112              		.cfi_def_cfa_offset 12
ARM GAS  /tmp/ccxvZghf.s 			page 3


 113              		.cfi_offset 1, -12
 114              		.cfi_offset 2, -8
 115              		.cfi_offset 3, -4
 116 0002 2DE9F04F 		push	{r4, r5, r6, r7, r8, r9, r10, fp, lr}
 117              		.cfi_def_cfa_offset 48
 118              		.cfi_offset 4, -48
 119              		.cfi_offset 5, -44
 120              		.cfi_offset 6, -40
 121              		.cfi_offset 7, -36
 122              		.cfi_offset 8, -32
 123              		.cfi_offset 9, -28
 124              		.cfi_offset 10, -24
 125              		.cfi_offset 11, -20
 126              		.cfi_offset 14, -16
 127 0006 86B0     		sub	sp, sp, #24
 128              		.cfi_def_cfa_offset 72
 129              		.loc 1 86 0
 130 0008 0FAA     		add	r2, sp, #60
 131 000a 0DF10D03 		add	r3, sp, #13
 132 000e 52F8044B 		ldr	r4, [r2], #4
 133 0012 0DF10C09 		add	r9, sp, #12
 134 0016 0093     		str	r3, [sp]
 135 0018 C9EB0303 		rsb	r3, r9, r3
 136 001c 8346     		mov	fp, r0
 137              		.loc 1 94 0
 138 001e 0292     		str	r2, [sp, #8]
 139 0020 0193     		str	r3, [sp, #4]
 140              	.LVL18:
 141              	.L11:
 142              		.loc 1 96 0
 143 0022 2178     		ldrb	r1, [r4]	@ zero_extendqisi2
 144 0024 651C     		adds	r5, r4, #1
 145              	.LVL19:
 146              		.loc 1 97 0
 147 0026 69B1     		cbz	r1, .L68
 148              	.LVL20:
 149              	.L69:
 150              		.loc 1 101 0
 151 0028 2529     		cmp	r1, #37
 152 002a 10D0     		beq	.L13
 153              		.loc 1 102 0
 154 002c DBF80020 		ldr	r2, [fp]
 155              		.loc 1 96 0
 156 0030 2C46     		mov	r4, r5
 157              		.loc 1 102 0
 158 0032 1669     		ldr	r6, [r2, #16]
 159 0034 5846     		mov	r0, fp
 160 0036 4FF0FF32 		mov	r2, #-1
 161 003a B047     		blx	r6
 162              	.LVL21:
 163              		.loc 1 96 0
 164 003c 2178     		ldrb	r1, [r4]	@ zero_extendqisi2
 165 003e 651C     		adds	r5, r4, #1
 166              	.LVL22:
 167              		.loc 1 97 0
 168 0040 0029     		cmp	r1, #0
 169 0042 F1D1     		bne	.L69
ARM GAS  /tmp/ccxvZghf.s 			page 4


 170              	.LVL23:
 171              	.L68:
 172              		.loc 1 222 0
 173 0044 06B0     		add	sp, sp, #24
 174              		@ sp needed
 175 0046 BDE8F04F 		pop	{r4, r5, r6, r7, r8, r9, r10, fp, lr}
 176              	.LVL24:
 177 004a 03B0     		add	sp, sp, #12
 178 004c 7047     		bx	lr
 179              	.LVL25:
 180              	.L13:
 181              		.loc 1 108 0
 182 004e 6178     		ldrb	r1, [r4, #1]	@ zero_extendqisi2
 183 0050 0298     		ldr	r0, [sp, #8]
 184 0052 2D29     		cmp	r1, #45
 185 0054 03BF     		ittte	eq
 186 0056 A178     		ldrbeq	r1, [r4, #2]	@ zero_extendqisi2
 187              		.loc 1 109 0
 188 0058 A51C     		addeq	r5, r4, #2
 189              	.LVL26:
 190              		.loc 1 110 0
 191 005a 4FF0010A 		moveq	r10, #1
 192              		.loc 1 107 0
 193 005e 4FF0000A 		movne	r10, #0
 194              	.LVL27:
 195              		.loc 1 113 0
 196 0062 2E29     		cmp	r1, #46
 197 0064 04BF     		itt	eq
 198 0066 6978     		ldrbeq	r1, [r5, #1]	@ zero_extendqisi2
 199              		.loc 1 114 0
 200 0068 0135     		addeq	r5, r5, #1
 201              	.LVL28:
 202              		.loc 1 115 0
 203 006a 2C46     		mov	r4, r5
 204 006c 0CBF     		ite	eq
 205 006e 3026     		moveq	r6, #48
 206              		.loc 1 112 0
 207 0070 2026     		movne	r6, #32
 208              	.LVL29:
 209              		.loc 1 117 0
 210 0072 0025     		movs	r5, #0
 211 0074 06E0     		b	.L19
 212              	.LVL30:
 213              	.L70:
 214              		.loc 1 123 0
 215 0076 0278     		ldrb	r2, [r0]	@ zero_extendqisi2
 216              	.LVL31:
 217 0078 0430     		adds	r0, r0, #4
 218              	.LVL32:
 219              	.L17:
 220              		.loc 1 126 0
 221 007a 05EB8505 		add	r5, r5, r5, lsl #2
 222              	.LVL33:
 223 007e 2178     		ldrb	r1, [r4]	@ zero_extendqisi2
 224 0080 02EB4505 		add	r5, r2, r5, lsl #1
 225              	.LVL34:
 226              	.L19:
ARM GAS  /tmp/ccxvZghf.s 			page 5


 227              		.loc 1 120 0
 228 0084 A1F13002 		sub	r2, r1, #48
 229 0088 D2B2     		uxtb	r2, r2
 230 008a 092A     		cmp	r2, #9
 231              		.loc 1 119 0
 232 008c 04F10104 		add	r4, r4, #1
 233              	.LVL35:
 234              		.loc 1 120 0
 235 0090 F3D9     		bls	.L17
 236              		.loc 1 122 0
 237 0092 2A29     		cmp	r1, #42
 238 0094 EFD0     		beq	.L70
 239              		.loc 1 129 0
 240 0096 2E29     		cmp	r1, #46
 241 0098 0290     		str	r0, [sp, #8]
 242              	.LVL36:
 243 009a 4FF00007 		mov	r7, #0
 244 009e 29D0     		beq	.L23
 245              	.LVL37:
 246              		.loc 1 143 0
 247 00a0 01F0DF02 		and	r2, r1, #223
 248 00a4 4C2A     		cmp	r2, #76
 249 00a6 35D0     		beq	.L71
 250              	.LVL38:
 251              	.L24:
 252              		.loc 1 152 0
 253 00a8 A1F14402 		sub	r2, r1, #68
 254 00ac 342A     		cmp	r2, #52
 255 00ae 00F2B780 		bhi	.L25
 256 00b2 DFE802F0 		tbb	[pc, r2]
 257              	.L27:
 258 00b6 A6       		.byte	(.L26-.L27)/2
 259 00b7 B5       		.byte	(.L25-.L27)/2
 260 00b8 B5       		.byte	(.L25-.L27)/2
 261 00b9 B5       		.byte	(.L25-.L27)/2
 262 00ba B5       		.byte	(.L25-.L27)/2
 263 00bb B5       		.byte	(.L25-.L27)/2
 264 00bc B5       		.byte	(.L25-.L27)/2
 265 00bd B5       		.byte	(.L25-.L27)/2
 266 00be B5       		.byte	(.L25-.L27)/2
 267 00bf B5       		.byte	(.L25-.L27)/2
 268 00c0 B5       		.byte	(.L25-.L27)/2
 269 00c1 A4       		.byte	(.L28-.L27)/2
 270 00c2 B5       		.byte	(.L25-.L27)/2
 271 00c3 B5       		.byte	(.L25-.L27)/2
 272 00c4 B5       		.byte	(.L25-.L27)/2
 273 00c5 B5       		.byte	(.L25-.L27)/2
 274 00c6 B5       		.byte	(.L25-.L27)/2
 275 00c7 35       		.byte	(.L51-.L27)/2
 276 00c8 B5       		.byte	(.L25-.L27)/2
 277 00c9 B5       		.byte	(.L25-.L27)/2
 278 00ca 75       		.byte	(.L30-.L27)/2
 279 00cb B5       		.byte	(.L25-.L27)/2
 280 00cc B5       		.byte	(.L25-.L27)/2
 281 00cd B5       		.byte	(.L25-.L27)/2
 282 00ce B5       		.byte	(.L25-.L27)/2
 283 00cf B5       		.byte	(.L25-.L27)/2
ARM GAS  /tmp/ccxvZghf.s 			page 6


 284 00d0 B5       		.byte	(.L25-.L27)/2
 285 00d1 B5       		.byte	(.L25-.L27)/2
 286 00d2 B5       		.byte	(.L25-.L27)/2
 287 00d3 B5       		.byte	(.L25-.L27)/2
 288 00d4 B5       		.byte	(.L25-.L27)/2
 289 00d5 99       		.byte	(.L31-.L27)/2
 290 00d6 A6       		.byte	(.L26-.L27)/2
 291 00d7 B5       		.byte	(.L25-.L27)/2
 292 00d8 B5       		.byte	(.L25-.L27)/2
 293 00d9 B5       		.byte	(.L25-.L27)/2
 294 00da B5       		.byte	(.L25-.L27)/2
 295 00db B5       		.byte	(.L25-.L27)/2
 296 00dc B5       		.byte	(.L25-.L27)/2
 297 00dd B5       		.byte	(.L25-.L27)/2
 298 00de B5       		.byte	(.L25-.L27)/2
 299 00df B5       		.byte	(.L25-.L27)/2
 300 00e0 B5       		.byte	(.L25-.L27)/2
 301 00e1 A4       		.byte	(.L28-.L27)/2
 302 00e2 B5       		.byte	(.L25-.L27)/2
 303 00e3 B5       		.byte	(.L25-.L27)/2
 304 00e4 B5       		.byte	(.L25-.L27)/2
 305 00e5 77       		.byte	(.L32-.L27)/2
 306 00e6 B5       		.byte	(.L25-.L27)/2
 307 00e7 35       		.byte	(.L51-.L27)/2
 308 00e8 B5       		.byte	(.L25-.L27)/2
 309 00e9 B5       		.byte	(.L25-.L27)/2
 310 00ea 75       		.byte	(.L30-.L27)/2
 311              	.LVL39:
 312 00eb 00       		.p2align 1
 313              	.L22:
 314              		.loc 1 135 0
 315 00ec 0278     		ldrb	r2, [r0]	@ zero_extendqisi2
 316              	.LVL40:
 317 00ee 0430     		adds	r0, r0, #4
 318              	.LVL41:
 319              	.L21:
 320              		.loc 1 139 0
 321 00f0 02EB4807 		add	r7, r2, r8, lsl #1
 322              	.LVL42:
 323              	.L23:
 324              		.loc 1 131 0
 325 00f4 14F8011B 		ldrb	r1, [r4], #1	@ zero_extendqisi2
 326              	.LVL43:
 327              		.loc 1 138 0
 328 00f8 07EB8708 		add	r8, r7, r7, lsl #2
 329              		.loc 1 132 0
 330 00fc A1F13002 		sub	r2, r1, #48
 331 0100 D2B2     		uxtb	r2, r2
 332 0102 092A     		cmp	r2, #9
 333 0104 F4D9     		bls	.L21
 334              		.loc 1 134 0
 335 0106 2A29     		cmp	r1, #42
 336 0108 F0D0     		beq	.L22
 337              		.loc 1 143 0
 338 010a 01F0DF02 		and	r2, r1, #223
 339 010e 4C2A     		cmp	r2, #76
 340 0110 0290     		str	r0, [sp, #8]
ARM GAS  /tmp/ccxvZghf.s 			page 7


 341              	.LVL44:
 342 0112 C9D1     		bne	.L24
 343              	.LVL45:
 344              	.L71:
 345              		.loc 1 145 0
 346 0114 2278     		ldrb	r2, [r4]	@ zero_extendqisi2
 347 0116 002A     		cmp	r2, #0
 348 0118 C6D0     		beq	.L24
 349              		.loc 1 146 0
 350 011a 0134     		adds	r4, r4, #1
 351              	.LVL46:
 352 011c 1146     		mov	r1, r2
 353 011e C3E7     		b	.L24
 354              	.LVL47:
 355              	.L51:
 356              		.loc 1 152 0
 357 0120 0A22     		movs	r2, #10
 358              	.LVL48:
 359              	.L29:
 360              		.loc 1 191 0
 361 0122 0299     		ldr	r1, [sp, #8]
 362              		.loc 1 194 0
 363 0124 4846     		mov	r0, r9
 364              		.loc 1 191 0
 365 0126 0F1D     		adds	r7, r1, #4
 366              		.loc 1 194 0
 367 0128 0968     		ldr	r1, [r1]
 368              		.loc 1 191 0
 369 012a 0297     		str	r7, [sp, #8]
 370              	.LVL49:
 371              		.loc 1 194 0
 372 012c FFF7FEFF 		bl	ltoa
 373              	.LVL50:
 374 0130 C9EB0000 		rsb	r0, r9, r0
 375              	.LVL51:
 376 0134 471E     		subs	r7, r0, #1
 377              		.loc 1 106 0
 378 0136 C846     		mov	r8, r9
 379              	.LVL52:
 380              	.L33:
 381              		.loc 1 201 0
 382 0138 2D1A     		subs	r5, r5, r0
 383              	.LVL53:
 384 013a 25EAE575 		bic	r5, r5, r5, asr #31
 385              	.LVL54:
 386              		.loc 1 203 0
 387 013e BAF1000F 		cmp	r10, #0
 388 0142 0FD1     		bne	.L40
 389              		.loc 1 204 0
 390 0144 6D42     		negs	r5, r5
 391              	.LVL55:
 392              		.loc 1 205 0
 393 0146 6DB1     		cbz	r5, .L40
 394              		.loc 1 206 0
 395 0148 98F80010 		ldrb	r1, [r8]	@ zero_extendqisi2
 396 014c 2D29     		cmp	r1, #45
 397 014e 6DD0     		beq	.L72
ARM GAS  /tmp/ccxvZghf.s 			page 8


 398              	.LVL56:
 399              	.L42:
 400              		.loc 1 211 0 discriminator 1
 401 0150 DBF80020 		ldr	r2, [fp]
 402 0154 5846     		mov	r0, fp
 403 0156 1369     		ldr	r3, [r2, #16]
 404 0158 3146     		mov	r1, r6
 405 015a 4FF0FF32 		mov	r2, #-1
 406 015e 9847     		blx	r3
 407              	.LVL57:
 408              		.loc 1 212 0 discriminator 1
 409 0160 0135     		adds	r5, r5, #1
 410              	.LVL58:
 411 0162 F5D1     		bne	.L42
 412              	.L40:
 413              		.loc 1 214 0 discriminator 1
 414 0164 002F     		cmp	r7, #0
 415 0166 0DDB     		blt	.L45
 416 0168 4744     		add	r7, r7, r8
 417 016a 08F1FF38 		add	r8, r8, #-1
 418              	.LVL59:
 419              	.L46:
 420              		.loc 1 215 0
 421 016e DBF80020 		ldr	r2, [fp]
 422 0172 18F8011F 		ldrb	r1, [r8, #1]!	@ zero_extendqisi2
 423              	.LVL60:
 424 0176 1369     		ldr	r3, [r2, #16]
 425 0178 5846     		mov	r0, fp
 426 017a 4FF0FF32 		mov	r2, #-1
 427 017e 9847     		blx	r3
 428              	.LVL61:
 429              		.loc 1 214 0
 430 0180 B845     		cmp	r8, r7
 431 0182 F4D1     		bne	.L46
 432              	.LVL62:
 433              	.L45:
 434              		.loc 1 217 0
 435 0184 002D     		cmp	r5, #0
 436 0186 3FF44CAF 		beq	.L11
 437              	.L47:
 438              		.loc 1 218 0
 439 018a DBF80020 		ldr	r2, [fp]
 440 018e 5846     		mov	r0, fp
 441 0190 1769     		ldr	r7, [r2, #16]
 442 0192 3146     		mov	r1, r6
 443 0194 4FF0FF32 		mov	r2, #-1
 444 0198 B847     		blx	r7
 445              	.LVL63:
 446              		.loc 1 217 0
 447 019a 013D     		subs	r5, r5, #1
 448              	.LVL64:
 449 019c F5D1     		bne	.L47
 450 019e 40E7     		b	.L11
 451              	.LVL65:
 452              	.L30:
 453              		.loc 1 152 0
 454 01a0 1022     		movs	r2, #16
ARM GAS  /tmp/ccxvZghf.s 			page 9


 455 01a2 BEE7     		b	.L29
 456              	.L32:
 457              	.LVL66:
 458              		.loc 1 159 0
 459 01a4 029A     		ldr	r2, [sp, #8]
 460              		.loc 1 160 0
 461 01a6 3049     		ldr	r1, .L75
 462              	.LVL67:
 463              		.loc 1 159 0
 464 01a8 D2F80080 		ldr	r8, [r2]
 465 01ac 0432     		adds	r2, r2, #4
 466              		.loc 1 160 0
 467 01ae B8F1000F 		cmp	r8, #0
 468 01b2 08BF     		it	eq
 469 01b4 8846     		moveq	r8, r1
 470              		.loc 1 163 0
 471 01b6 98F80000 		ldrb	r0, [r8]	@ zero_extendqisi2
 472              		.loc 1 162 0
 473 01ba 47F6FF71 		movw	r1, #32767
 474              		.loc 1 159 0
 475 01be 0292     		str	r2, [sp, #8]
 476              	.LVL68:
 477              		.loc 1 162 0
 478 01c0 002F     		cmp	r7, #0
 479 01c2 08BF     		it	eq
 480 01c4 0F46     		moveq	r7, r1
 481              	.LVL69:
 482              		.loc 1 163 0
 483 01c6 0028     		cmp	r0, #0
 484 01c8 49D0     		beq	.L54
 485 01ca 07EB0800 		add	r0, r7, r8
 486 01ce 4246     		mov	r2, r8
 487              	.LVL70:
 488 01d0 01E0     		b	.L38
 489              	.LVL71:
 490              	.L36:
 491              		.loc 1 163 0 is_stmt 0 discriminator 2
 492 01d2 9042     		cmp	r0, r2
 493 01d4 37D0     		beq	.L73
 494              	.LVL72:
 495              	.L38:
 496              		.loc 1 163 0 discriminator 1
 497 01d6 5178     		ldrb	r1, [r2, #1]	@ zero_extendqisi2
 498 01d8 0132     		adds	r2, r2, #1
 499              	.LVL73:
 500 01da 0029     		cmp	r1, #0
 501 01dc F9D1     		bne	.L36
 502 01de C8EB0200 		rsb	r0, r8, r2
 503 01e2 471E     		subs	r7, r0, #1
 504              		.loc 1 158 0 is_stmt 1
 505 01e4 2026     		movs	r6, #32
 506 01e6 A7E7     		b	.L33
 507              	.LVL74:
 508              	.L31:
 509              		.loc 1 155 0
 510 01e8 029A     		ldr	r2, [sp, #8]
 511 01ea 0198     		ldr	r0, [sp, #4]
ARM GAS  /tmp/ccxvZghf.s 			page 10


 512 01ec 1168     		ldr	r1, [r2]
 513              	.LVL75:
 514 01ee 0432     		adds	r2, r2, #4
 515 01f0 8DF80C10 		strb	r1, [sp, #12]
 516 01f4 0292     		str	r2, [sp, #8]
 517 01f6 471E     		subs	r7, r0, #1
 518              		.loc 1 154 0
 519 01f8 2026     		movs	r6, #32
 520              		.loc 1 106 0
 521 01fa C846     		mov	r8, r9
 522              		.loc 1 156 0
 523 01fc 9CE7     		b	.L33
 524              	.LVL76:
 525              	.L28:
 526 01fe 0822     		movs	r2, #8
 527 0200 8FE7     		b	.L29
 528              	.LVL77:
 529              	.L26:
 530              		.loc 1 169 0
 531 0202 029A     		ldr	r2, [sp, #8]
 532 0204 1168     		ldr	r1, [r2]
 533              	.LVL78:
 534 0206 0432     		adds	r2, r2, #4
 535              		.loc 1 172 0
 536 0208 0029     		cmp	r1, #0
 537              		.loc 1 169 0
 538 020a 0292     		str	r2, [sp, #8]
 539              		.loc 1 172 0
 540 020c 20DB     		blt	.L74
 541              		.loc 1 105 0
 542 020e 4846     		mov	r0, r9
 543              	.LVL79:
 544              	.L39:
 545              		.loc 1 176 0
 546 0210 0A22     		movs	r2, #10
 547 0212 FFF7FEFF 		bl	ltoa
 548              	.LVL80:
 549 0216 C9EB0000 		rsb	r0, r9, r0
 550              	.LVL81:
 551 021a 471E     		subs	r7, r0, #1
 552              		.loc 1 106 0
 553 021c C846     		mov	r8, r9
 554              		.loc 1 177 0
 555 021e 8BE7     		b	.L33
 556              	.LVL82:
 557              	.L25:
 558 0220 0198     		ldr	r0, [sp, #4]
 559              		.loc 1 197 0
 560 0222 8DF80C10 		strb	r1, [sp, #12]
 561 0226 471E     		subs	r7, r0, #1
 562              		.loc 1 106 0
 563 0228 C846     		mov	r8, r9
 564              		.loc 1 198 0
 565 022a 85E7     		b	.L33
 566              	.LVL83:
 567              	.L72:
 568              		.loc 1 206 0 discriminator 1
ARM GAS  /tmp/ccxvZghf.s 			page 11


 569 022c 302E     		cmp	r6, #48
 570 022e 8FD1     		bne	.L42
 571              	.LVL84:
 572              		.loc 1 207 0
 573 0230 DBF80020 		ldr	r2, [fp]
 574 0234 5846     		mov	r0, fp
 575              	.LVL85:
 576 0236 1369     		ldr	r3, [r2, #16]
 577 0238 4FF0FF32 		mov	r2, #-1
 578 023c 9847     		blx	r3
 579              	.LVL86:
 580 023e 08F10108 		add	r8, r8, #1
 581              	.LVL87:
 582 0242 013F     		subs	r7, r7, #1
 583              	.LVL88:
 584 0244 84E7     		b	.L42
 585              	.LVL89:
 586              	.L73:
 587 0246 C8EB0000 		rsb	r0, r8, r0
 588 024a 471E     		subs	r7, r0, #1
 589              		.loc 1 158 0
 590 024c 2026     		movs	r6, #32
 591 024e 73E7     		b	.L33
 592              	.LVL90:
 593              	.L74:
 594              		.loc 1 173 0
 595 0250 2D22     		movs	r2, #45
 596              		.loc 1 174 0
 597 0252 4942     		negs	r1, r1
 598              	.LVL91:
 599              		.loc 1 173 0
 600 0254 8DF80C20 		strb	r2, [sp, #12]
 601 0258 0DF10D00 		add	r0, sp, #13
 602 025c D8E7     		b	.L39
 603              	.LVL92:
 604              	.L54:
 605              		.loc 1 163 0
 606 025e 4FF0FF37 		mov	r7, #-1
 607              		.loc 1 158 0
 608 0262 2026     		movs	r6, #32
 609 0264 68E7     		b	.L33
 610              	.L76:
 611 0266 00BF     		.align	2
 612              	.L75:
 613 0268 00000000 		.word	.LC0
 614              		.cfi_endproc
 615              	.LFE8:
 616              		.size	chprintf, .-chprintf
 617 026c AFF30080 		.section	.rodata.str1.4,"aMS",%progbits,1
 618              		.align	2
 619              	.LC0:
 620 0000 286E756C 		.ascii	"(null)\000"
 620      6C2900
 621 0007 00       		.text
 622              	.Letext0:
 623              		.file 2 "/usr/local/gcc-arm-none-eabi-4_8-2014q2/lib/gcc/arm-none-eabi/4.8.4/include/stdarg.h"
 624              		.file 3 "/usr/local/gcc-arm-none-eabi-4_8-2014q2/lib/gcc/arm-none-eabi/4.8.4/include/stddef.h"
ARM GAS  /tmp/ccxvZghf.s 			page 12


 625              		.file 4 "/usr/local/gcc-arm-none-eabi-4_8-2014q2/arm-none-eabi/include/machine/_default_types.h"
 626              		.file 5 "/usr/local/gcc-arm-none-eabi-4_8-2014q2/arm-none-eabi/include/stdint.h"
 627              		.file 6 "../../os/ports/GCC/ARMCMx/chtypes.h"
 628              		.file 7 "<built-in>"
 629              		.file 8 "../../os/kernel/include/chioch.h"