ARM GAS  /tmp/ccwOtApU.s 			page 1


   1              		.syntax unified
   2              		.cpu cortex-m3
   3              		.fpu softvfp
   4              		.eabi_attribute 20, 1
   5              		.eabi_attribute 21, 1
   6              		.eabi_attribute 23, 3
   7              		.eabi_attribute 24, 1
   8              		.eabi_attribute 25, 1
   9              		.eabi_attribute 26, 1
  10              		.eabi_attribute 30, 2
  11              		.eabi_attribute 34, 1
  12              		.eabi_attribute 18, 4
  13              		.thumb
  14              		.file	"chschd.c"
  15              		.text
  16              	.Ltext0:
  17              		.cfi_sections	.debug_frame
  18              		.section	.text.wakeup,"ax",%progbits
  19              		.align	2
  20              		.p2align 4,,15
  21              		.thumb
  22              		.thumb_func
  23              		.type	wakeup, %function
  24              	wakeup:
  25              	.LFB10:
  26              		.file 1 "../../os/kernel/src/chschd.c"
  27              		.loc 1 133 0
  28              		.cfi_startproc
  29              		@ args = 0, pretend = 0, frame = 0
  30              		@ frame_needed = 0, uses_anonymous_args = 0
  31              		@ link register save eliminated.
  32              	.LVL0:
  33              		.loc 1 136 0
  34 0000 037F     		ldrb	r3, [r0, #28]	@ zero_extendqisi2
  35              		.loc 1 133 0
  36 0002 10B4     		push	{r4}
  37              		.cfi_def_cfa_offset 4
  38              		.cfi_offset 4, -4
  39              		.loc 1 136 0
  40 0004 0D2B     		cmp	r3, #13
  41 0006 11D8     		bhi	.L2
  42 0008 DFE803F0 		tbb	[pc, r3]
  43              	.L4:
  44 000c 20       		.byte	(.L1-.L4)/2
  45 000d 10       		.byte	(.L2-.L4)/2
  46 000e 10       		.byte	(.L2-.L4)/2
  47 000f 07       		.byte	(.L5-.L4)/2
  48 0010 10       		.byte	(.L2-.L4)/2
  49 0011 0B       		.byte	(.L6-.L4)/2
  50 0012 10       		.byte	(.L2-.L4)/2
  51 0013 10       		.byte	(.L2-.L4)/2
  52 0014 10       		.byte	(.L2-.L4)/2
  53 0015 10       		.byte	(.L2-.L4)/2
  54 0016 10       		.byte	(.L2-.L4)/2
  55 0017 10       		.byte	(.L2-.L4)/2
  56 0018 10       		.byte	(.L2-.L4)/2
  57 0019 0B       		.byte	(.L6-.L4)/2
ARM GAS  /tmp/ccwOtApU.s 			page 2


  58              		.p2align 1
  59              	.L5:
  60              		.loc 1 145 0
  61 001a 436A     		ldr	r3, [r0, #36]
  62 001c 9A68     		ldr	r2, [r3, #8]
  63 001e 0132     		adds	r2, r2, #1
  64 0020 9A60     		str	r2, [r3, #8]
  65              	.L6:
  66              	.LVL1:
  67              	.LBB17:
  68              	.LBB18:
  69              		.file 2 "../../os/kernel/include/chinline.h"
  70              		.loc 2 75 0
  71 0022 90E80C00 		ldmia	r0, {r2, r3}
  72 0026 1A60     		str	r2, [r3]
  73              		.loc 2 76 0
  74 0028 0268     		ldr	r2, [r0]
  75 002a 5360     		str	r3, [r2, #4]
  76              	.LVL2:
  77              	.L2:
  78              	.LBE18:
  79              	.LBE17:
  80              		.loc 1 158 0
  81 002c 4FF0FF34 		mov	r4, #-1
  82              	.LBB19:
  83              	.LBB20:
  84              		.loc 1 91 0
  85 0030 0022     		movs	r2, #0
  86 0032 8168     		ldr	r1, [r0, #8]
  87              		.loc 1 92 0
  88 0034 074B     		ldr	r3, .L10
  89              	.LBE20:
  90              	.LBE19:
  91              		.loc 1 158 0
  92 0036 4462     		str	r4, [r0, #36]
  93              	.LVL3:
  94              	.LBB22:
  95              	.LBB21:
  96              		.loc 1 91 0
  97 0038 0277     		strb	r2, [r0, #28]
  98              	.LVL4:
  99              	.L8:
 100              		.loc 1 94 0
 101 003a 1B68     		ldr	r3, [r3]
 102              	.LVL5:
 103              		.loc 1 95 0
 104 003c 9A68     		ldr	r2, [r3, #8]
 105 003e 8A42     		cmp	r2, r1
 106 0040 FBD2     		bcs	.L8
 107              		.loc 1 98 0
 108 0042 5A68     		ldr	r2, [r3, #4]
 109              		.loc 1 97 0
 110 0044 0360     		str	r3, [r0]
 111              		.loc 1 98 0
 112 0046 4260     		str	r2, [r0, #4]
 113              		.loc 1 99 0
 114 0048 5860     		str	r0, [r3, #4]
ARM GAS  /tmp/ccwOtApU.s 			page 3


 115 004a 1060     		str	r0, [r2]
 116              	.LVL6:
 117              	.L1:
 118              	.LBE21:
 119              	.LBE22:
 120              		.loc 1 160 0
 121 004c 5DF8044B 		ldr	r4, [sp], #4
 122 0050 7047     		bx	lr
 123              	.L11:
 124 0052 00BF     		.align	2
 125              	.L10:
 126 0054 00000000 		.word	.LANCHOR0
 127              		.cfi_endproc
 128              	.LFE10:
 129              		.size	wakeup, .-wakeup
 130              		.section	.text._scheduler_init,"ax",%progbits
 131              		.align	2
 132              		.p2align 4,,15
 133              		.global	_scheduler_init
 134              		.thumb
 135              		.thumb_func
 136              		.type	_scheduler_init, %function
 137              	_scheduler_init:
 138              	.LFB7:
 139              		.loc 1 55 0
 140              		.cfi_startproc
 141              		@ args = 0, pretend = 0, frame = 0
 142              		@ frame_needed = 0, uses_anonymous_args = 0
 143              		@ link register save eliminated.
 144              		.loc 1 57 0
 145 0000 044B     		ldr	r3, .L13
 146              		.loc 1 58 0
 147 0002 0021     		movs	r1, #0
 148              		.loc 1 60 0
 149 0004 1422     		movs	r2, #20
 150              		.loc 1 57 0
 151 0006 5B60     		str	r3, [r3, #4]
 152 0008 1B60     		str	r3, [r3]
 153              		.loc 1 63 0
 154 000a 5B61     		str	r3, [r3, #20]
 155 000c 1B61     		str	r3, [r3, #16]
 156              		.loc 1 58 0
 157 000e 9960     		str	r1, [r3, #8]
 158              		.loc 1 60 0
 159 0010 9A61     		str	r2, [r3, #24]
 160 0012 7047     		bx	lr
 161              	.L14:
 162              		.align	2
 163              	.L13:
 164 0014 00000000 		.word	.LANCHOR0
 165              		.cfi_endproc
 166              	.LFE7:
 167              		.size	_scheduler_init, .-_scheduler_init
 168 0018 AFF30080 		.section	.text.chSchReadyI,"ax",%progbits
 168      AFF30080 
 169              		.align	2
 170              		.p2align 4,,15
ARM GAS  /tmp/ccwOtApU.s 			page 4


 171              		.global	chSchReadyI
 172              		.thumb
 173              		.thumb_func
 174              		.type	chSchReadyI, %function
 175              	chSchReadyI:
 176              	.LFB8:
 177              		.loc 1 82 0
 178              		.cfi_startproc
 179              		@ args = 0, pretend = 0, frame = 0
 180              		@ frame_needed = 0, uses_anonymous_args = 0
 181              		@ link register save eliminated.
 182              	.LVL7:
 183              		.loc 1 91 0
 184 0000 0022     		movs	r2, #0
 185 0002 8168     		ldr	r1, [r0, #8]
 186              		.loc 1 92 0
 187 0004 084B     		ldr	r3, .L18
 188              		.loc 1 82 0
 189 0006 10B4     		push	{r4}
 190              		.cfi_def_cfa_offset 4
 191              		.cfi_offset 4, -4
 192              		.loc 1 82 0
 193 0008 0446     		mov	r4, r0
 194              		.loc 1 91 0
 195 000a 0277     		strb	r2, [r0, #28]
 196              	.LVL8:
 197              	.L17:
 198              		.loc 1 94 0 discriminator 1
 199 000c 1B68     		ldr	r3, [r3]
 200              	.LVL9:
 201              		.loc 1 95 0 discriminator 1
 202 000e 9A68     		ldr	r2, [r3, #8]
 203 0010 8A42     		cmp	r2, r1
 204 0012 FBD2     		bcs	.L17
 205              		.loc 1 98 0
 206 0014 5A68     		ldr	r2, [r3, #4]
 207              		.loc 1 101 0
 208 0016 2046     		mov	r0, r4
 209              	.LVL10:
 210              		.loc 1 97 0
 211 0018 2360     		str	r3, [r4]
 212              		.loc 1 98 0
 213 001a 6260     		str	r2, [r4, #4]
 214              		.loc 1 99 0
 215 001c 5C60     		str	r4, [r3, #4]
 216 001e 1460     		str	r4, [r2]
 217              		.loc 1 101 0
 218 0020 5DF8044B 		ldr	r4, [sp], #4
 219              	.LVL11:
 220 0024 7047     		bx	lr
 221              	.L19:
 222 0026 00BF     		.align	2
 223              	.L18:
 224 0028 00000000 		.word	.LANCHOR0
 225              		.cfi_endproc
 226              	.LFE8:
 227              		.size	chSchReadyI, .-chSchReadyI
ARM GAS  /tmp/ccwOtApU.s 			page 5


 228 002c AFF30080 		.section	.text.chSchGoSleepS,"ax",%progbits
 229              		.align	2
 230              		.p2align 4,,15
 231              		.global	chSchGoSleepS
 232              		.thumb
 233              		.thumb_func
 234              		.type	chSchGoSleepS, %function
 235              	chSchGoSleepS:
 236              	.LFB9:
 237              		.loc 1 114 0
 238              		.cfi_startproc
 239              		@ args = 0, pretend = 0, frame = 0
 240              		@ frame_needed = 0, uses_anonymous_args = 0
 241              		@ link register save eliminated.
 242              	.LVL12:
 243              		.loc 1 119 0
 244 0000 084B     		ldr	r3, .L21
 245              		.loc 1 114 0
 246 0002 70B4     		push	{r4, r5, r6}
 247              		.cfi_def_cfa_offset 12
 248              		.cfi_offset 4, -12
 249              		.cfi_offset 5, -8
 250              		.cfi_offset 6, -4
 251              	.LBB23:
 252              	.LBB24:
 253              		.loc 2 60 0
 254 0004 1A68     		ldr	r2, [r3]
 255              	.LBE24:
 256              	.LBE23:
 257              		.loc 1 119 0
 258 0006 D969     		ldr	r1, [r3, #28]
 259              	.LVL13:
 260              	.LBB28:
 261              	.LBB25:
 262              		.loc 2 62 0
 263 0008 1468     		ldr	r4, [r2]
 264              	.LBE25:
 265              	.LBE28:
 266              		.loc 1 121 0
 267 000a 1426     		movs	r6, #20
 268              		.loc 1 124 0
 269 000c 0125     		movs	r5, #1
 270              		.loc 1 119 0
 271 000e 0877     		strb	r0, [r1, #28]
 272              		.loc 1 121 0
 273 0010 9E61     		str	r6, [r3, #24]
 274              	.LVL14:
 275              	.LBB29:
 276              	.LBB26:
 277              		.loc 2 62 0
 278 0012 6360     		str	r3, [r4, #4]
 279              	.LBE26:
 280              	.LBE29:
 281              		.loc 1 123 0
 282 0014 DA61     		str	r2, [r3, #28]
 283              		.loc 1 124 0
 284 0016 1577     		strb	r5, [r2, #28]
ARM GAS  /tmp/ccwOtApU.s 			page 6


 285              	.LBB30:
 286              	.LBB27:
 287              		.loc 2 62 0
 288 0018 1C60     		str	r4, [r3]
 289              	.LBE27:
 290              	.LBE30:
 291              		.loc 1 125 0
 292 001a 1046     		mov	r0, r2
 293              	.LVL15:
 294              		.loc 1 126 0
 295 001c 70BC     		pop	{r4, r5, r6}
 296              		.loc 1 125 0
 297 001e FFF7FEBF 		b	_port_switch
 298              	.LVL16:
 299              	.L22:
 300 0022 00BF     		.align	2
 301              	.L21:
 302 0024 00000000 		.word	.LANCHOR0
 303              		.cfi_endproc
 304              	.LFE9:
 305              		.size	chSchGoSleepS, .-chSchGoSleepS
 306 0028 AFF30080 		.section	.text.chSchGoSleepTimeoutS,"ax",%progbits
 306      AFF30080 
 307              		.align	2
 308              		.p2align 4,,15
 309              		.global	chSchGoSleepTimeoutS
 310              		.thumb
 311              		.thumb_func
 312              		.type	chSchGoSleepTimeoutS, %function
 313              	chSchGoSleepTimeoutS:
 314              	.LFB11:
 315              		.loc 1 183 0
 316              		.cfi_startproc
 317              		@ args = 0, pretend = 0, frame = 24
 318              		@ frame_needed = 0, uses_anonymous_args = 0
 319              	.LVL17:
 320 0000 30B5     		push	{r4, r5, lr}
 321              		.cfi_def_cfa_offset 12
 322              		.cfi_offset 4, -12
 323              		.cfi_offset 5, -8
 324              		.cfi_offset 14, -4
 325              		.loc 1 187 0
 326 0002 4B1C     		adds	r3, r1, #1
 327              		.loc 1 183 0
 328 0004 87B0     		sub	sp, sp, #28
 329              		.cfi_def_cfa_offset 40
 330              		.loc 1 183 0
 331 0006 0546     		mov	r5, r0
 332              		.loc 1 187 0
 333 0008 11D0     		beq	.L24
 334              	.LBB31:
 335              		.loc 1 190 0
 336 000a 0C4C     		ldr	r4, .L30
 337 000c 01A8     		add	r0, sp, #4
 338              	.LVL18:
 339 000e E369     		ldr	r3, [r4, #28]
 340 0010 0B4A     		ldr	r2, .L30+4
ARM GAS  /tmp/ccwOtApU.s 			page 7


 341 0012 FFF7FEFF 		bl	chVTSetI
 342              	.LVL19:
 343              		.loc 1 191 0
 344 0016 2846     		mov	r0, r5
 345 0018 FFF7FEFF 		bl	chSchGoSleepS
 346              	.LVL20:
 347              		.loc 1 192 0
 348 001c 049B     		ldr	r3, [sp, #16]
 349 001e 13B1     		cbz	r3, .L26
 350              		.loc 1 193 0
 351 0020 01A8     		add	r0, sp, #4
 352 0022 FFF7FEFF 		bl	chVTResetI
 353              	.LVL21:
 354              	.L26:
 355              	.LBE31:
 356              		.loc 1 197 0
 357 0026 E369     		ldr	r3, [r4, #28]
 358              		.loc 1 198 0
 359 0028 586A     		ldr	r0, [r3, #36]
 360 002a 07B0     		add	sp, sp, #28
 361              		@ sp needed
 362 002c 30BD     		pop	{r4, r5, pc}
 363              	.LVL22:
 364              	.L24:
 365              		.loc 1 196 0
 366 002e FFF7FEFF 		bl	chSchGoSleepS
 367              	.LVL23:
 368 0032 024C     		ldr	r4, .L30
 369              		.loc 1 197 0
 370 0034 E369     		ldr	r3, [r4, #28]
 371              		.loc 1 198 0
 372 0036 586A     		ldr	r0, [r3, #36]
 373 0038 07B0     		add	sp, sp, #28
 374              		@ sp needed
 375 003a 30BD     		pop	{r4, r5, pc}
 376              	.L31:
 377              		.align	2
 378              	.L30:
 379 003c 00000000 		.word	.LANCHOR0
 380 0040 00000000 		.word	wakeup
 381              		.cfi_endproc
 382              	.LFE11:
 383              		.size	chSchGoSleepTimeoutS, .-chSchGoSleepTimeoutS
 384 0044 AFF30080 		.section	.text.chSchWakeupS,"ax",%progbits
 384      AFF30080 
 384      AFF30080 
 385              		.align	2
 386              		.p2align 4,,15
 387              		.global	chSchWakeupS
 388              		.thumb
 389              		.thumb_func
 390              		.type	chSchWakeupS, %function
 391              	chSchWakeupS:
 392              	.LFB12:
 393              		.loc 1 219 0
 394              		.cfi_startproc
 395              		@ args = 0, pretend = 0, frame = 0
ARM GAS  /tmp/ccwOtApU.s 			page 8


 396              		@ frame_needed = 0, uses_anonymous_args = 0
 397              		@ link register save eliminated.
 398              	.LVL24:
 399              		.loc 1 228 0
 400 0000 DFF860C0 		ldr	ip, .L40
 401              		.loc 1 219 0
 402 0004 F0B4     		push	{r4, r5, r6, r7}
 403              		.cfi_def_cfa_offset 16
 404              		.cfi_offset 4, -16
 405              		.cfi_offset 5, -12
 406              		.cfi_offset 6, -8
 407              		.cfi_offset 7, -4
 408              		.loc 1 228 0
 409 0006 DCF81C70 		ldr	r7, [ip, #28]
 410 000a 8568     		ldr	r5, [r0, #8]
 411 000c BC68     		ldr	r4, [r7, #8]
 412              		.loc 1 219 0
 413 000e 0646     		mov	r6, r0
 414              		.loc 1 228 0
 415 0010 A542     		cmp	r5, r4
 416              		.loc 1 223 0
 417 0012 4162     		str	r1, [r0, #36]
 418              		.loc 1 228 0
 419 0014 0DD8     		bhi	.L33
 420              	.LVL25:
 421              	.LBB32:
 422              	.LBB33:
 423              		.loc 1 91 0
 424 0016 0022     		movs	r2, #0
 425              		.loc 1 92 0
 426 0018 6346     		mov	r3, ip
 427              		.loc 1 91 0
 428 001a 0277     		strb	r2, [r0, #28]
 429              	.LVL26:
 430              	.L35:
 431              		.loc 1 94 0
 432 001c 1B68     		ldr	r3, [r3]
 433              	.LVL27:
 434              		.loc 1 95 0
 435 001e 9A68     		ldr	r2, [r3, #8]
 436 0020 9542     		cmp	r5, r2
 437 0022 FBD9     		bls	.L35
 438              		.loc 1 98 0
 439 0024 5A68     		ldr	r2, [r3, #4]
 440              		.loc 1 97 0
 441 0026 3360     		str	r3, [r6]
 442              		.loc 1 98 0
 443 0028 7260     		str	r2, [r6, #4]
 444              		.loc 1 99 0
 445 002a 5E60     		str	r6, [r3, #4]
 446 002c 1660     		str	r6, [r2]
 447              	.LBE33:
 448              	.LBE32:
 449              		.loc 1 239 0
 450 002e F0BC     		pop	{r4, r5, r6, r7}
 451 0030 7047     		bx	lr
 452              	.LVL28:
ARM GAS  /tmp/ccwOtApU.s 			page 9


 453              	.L33:
 454              	.LBB34:
 455              	.LBB35:
 456              	.LBB36:
 457              		.loc 1 91 0
 458 0032 0023     		movs	r3, #0
 459 0034 3B77     		strb	r3, [r7, #28]
 460              	.LVL29:
 461              		.loc 1 92 0
 462 0036 6346     		mov	r3, ip
 463              	.LVL30:
 464              	.L38:
 465              		.loc 1 94 0
 466 0038 1B68     		ldr	r3, [r3]
 467              	.LVL31:
 468              		.loc 1 95 0
 469 003a 9A68     		ldr	r2, [r3, #8]
 470 003c 9442     		cmp	r4, r2
 471 003e FBD9     		bls	.L38
 472              		.loc 1 98 0
 473 0040 5A68     		ldr	r2, [r3, #4]
 474              	.LBE36:
 475              	.LBE35:
 476              		.loc 1 236 0
 477 0042 0124     		movs	r4, #1
 478              	.LBB38:
 479              	.LBB37:
 480              		.loc 1 97 0
 481 0044 3B60     		str	r3, [r7]
 482              		.loc 1 98 0
 483 0046 7A60     		str	r2, [r7, #4]
 484              		.loc 1 99 0
 485 0048 5F60     		str	r7, [r3, #4]
 486 004a 1760     		str	r7, [r2]
 487              	.LBE37:
 488              	.LBE38:
 489              		.loc 1 235 0
 490 004c CCF81C60 		str	r6, [ip, #28]
 491              		.loc 1 236 0
 492 0050 3477     		strb	r4, [r6, #28]
 493              		.loc 1 237 0
 494 0052 3946     		mov	r1, r7
 495              	.LVL32:
 496 0054 3046     		mov	r0, r6
 497              	.LVL33:
 498              		.loc 1 233 0
 499 0056 1423     		movs	r3, #20
 500              	.LVL34:
 501              	.LBE34:
 502              		.loc 1 239 0
 503 0058 F0BC     		pop	{r4, r5, r6, r7}
 504              	.LVL35:
 505              	.LBB39:
 506              		.loc 1 233 0
 507 005a CCF81830 		str	r3, [ip, #24]
 508              		.loc 1 237 0
 509 005e FFF7FEBF 		b	_port_switch
ARM GAS  /tmp/ccwOtApU.s 			page 10


 510              	.LVL36:
 511              	.L41:
 512 0062 00BF     		.align	2
 513              	.L40:
 514 0064 00000000 		.word	.LANCHOR0
 515              	.LBE39:
 516              		.cfi_endproc
 517              	.LFE12:
 518              		.size	chSchWakeupS, .-chSchWakeupS
 519 0068 AFF30080 		.section	.text.chSchDoReschedule,"ax",%progbits
 519      AFF30080 
 520              		.align	2
 521              		.p2align 4,,15
 522              		.global	chSchDoReschedule
 523              		.thumb
 524              		.thumb_func
 525              		.type	chSchDoReschedule, %function
 526              	chSchDoReschedule:
 527              	.LFB14:
 528              		.loc 1 298 0
 529              		.cfi_startproc
 530              		@ args = 0, pretend = 0, frame = 0
 531              		@ frame_needed = 0, uses_anonymous_args = 0
 532              		@ link register save eliminated.
 533              		.loc 1 302 0
 534 0000 0E4A     		ldr	r2, .L46
 535              		.loc 1 298 0
 536 0002 F0B4     		push	{r4, r5, r6, r7}
 537              		.cfi_def_cfa_offset 16
 538              		.cfi_offset 4, -16
 539              		.cfi_offset 5, -12
 540              		.cfi_offset 6, -8
 541              		.cfi_offset 7, -4
 542              	.LBB40:
 543              	.LBB41:
 544              		.loc 2 60 0
 545 0004 1068     		ldr	r0, [r2]
 546              	.LBE41:
 547              	.LBE40:
 548              		.loc 1 304 0
 549 0006 D569     		ldr	r5, [r2, #28]
 550              	.LVL37:
 551              	.LBB45:
 552              	.LBB42:
 553              		.loc 2 62 0
 554 0008 0368     		ldr	r3, [r0]
 555              	.LBE42:
 556              	.LBE45:
 557              		.loc 1 302 0
 558 000a 1427     		movs	r7, #20
 559              		.loc 1 307 0
 560 000c 0126     		movs	r6, #1
 561              	.LBB46:
 562              	.LBB47:
 563              		.loc 1 91 0
 564 000e 0021     		movs	r1, #0
 565 0010 AC68     		ldr	r4, [r5, #8]
ARM GAS  /tmp/ccwOtApU.s 			page 11


 566              	.LBE47:
 567              	.LBE46:
 568              	.LBB51:
 569              	.LBB43:
 570              		.loc 2 62 0
 571 0012 1360     		str	r3, [r2]
 572              	.LBE43:
 573              	.LBE51:
 574              		.loc 1 302 0
 575 0014 9761     		str	r7, [r2, #24]
 576              	.LBB52:
 577              	.LBB44:
 578              		.loc 2 62 0
 579 0016 5A60     		str	r2, [r3, #4]
 580              	.LBE44:
 581              	.LBE52:
 582              		.loc 1 306 0
 583 0018 D061     		str	r0, [r2, #28]
 584              	.LBB53:
 585              	.LBB48:
 586              		.loc 1 91 0
 587 001a 0346     		mov	r3, r0
 588              	.LBE48:
 589              	.LBE53:
 590              		.loc 1 307 0
 591 001c 0677     		strb	r6, [r0, #28]
 592              	.LVL38:
 593              	.LBB54:
 594              	.LBB49:
 595              		.loc 1 91 0
 596 001e 2977     		strb	r1, [r5, #28]
 597              	.LVL39:
 598 0020 00E0     		b	.L44
 599              	.LVL40:
 600              	.L45:
 601 0022 1B68     		ldr	r3, [r3]
 602              	.LVL41:
 603              	.L44:
 604              		.loc 1 95 0
 605 0024 9A68     		ldr	r2, [r3, #8]
 606 0026 A242     		cmp	r2, r4
 607 0028 FBD2     		bcs	.L45
 608              		.loc 1 98 0
 609 002a 5A68     		ldr	r2, [r3, #4]
 610              	.LBE49:
 611              	.LBE54:
 612              		.loc 1 309 0
 613 002c 2946     		mov	r1, r5
 614              	.LBB55:
 615              	.LBB50:
 616              		.loc 1 97 0
 617 002e 2B60     		str	r3, [r5]
 618              		.loc 1 98 0
 619 0030 6A60     		str	r2, [r5, #4]
 620              		.loc 1 99 0
 621 0032 5D60     		str	r5, [r3, #4]
 622 0034 1560     		str	r5, [r2]
ARM GAS  /tmp/ccwOtApU.s 			page 12


 623              	.LBE50:
 624              	.LBE55:
 625              		.loc 1 310 0
 626 0036 F0BC     		pop	{r4, r5, r6, r7}
 627              	.LVL42:
 628              		.loc 1 309 0
 629 0038 FFF7FEBF 		b	_port_switch
 630              	.LVL43:
 631              	.L47:
 632              		.align	2
 633              	.L46:
 634 003c 00000000 		.word	.LANCHOR0
 635              		.cfi_endproc
 636              	.LFE14:
 637              		.size	chSchDoReschedule, .-chSchDoReschedule
 638              		.section	.text.chSchRescheduleS,"ax",%progbits
 639              		.align	2
 640              		.p2align 4,,15
 641              		.global	chSchRescheduleS
 642              		.thumb
 643              		.thumb_func
 644              		.type	chSchRescheduleS, %function
 645              	chSchRescheduleS:
 646              	.LFB13:
 647              		.loc 1 250 0
 648              		.cfi_startproc
 649              		@ args = 0, pretend = 0, frame = 0
 650              		@ frame_needed = 0, uses_anonymous_args = 0
 651              		@ link register save eliminated.
 652              		.loc 1 254 0
 653 0000 044B     		ldr	r3, .L51
 654 0002 1A68     		ldr	r2, [r3]
 655 0004 DB69     		ldr	r3, [r3, #28]
 656 0006 9268     		ldr	r2, [r2, #8]
 657 0008 9B68     		ldr	r3, [r3, #8]
 658 000a 9A42     		cmp	r2, r3
 659 000c 00D8     		bhi	.L50
 660 000e 7047     		bx	lr
 661              	.L50:
 662              		.loc 1 255 0
 663 0010 FFF7FEBF 		b	chSchDoReschedule
 664              	.LVL44:
 665              	.L52:
 666              		.align	2
 667              	.L51:
 668 0014 00000000 		.word	.LANCHOR0
 669              		.cfi_endproc
 670              	.LFE13:
 671              		.size	chSchRescheduleS, .-chSchRescheduleS
 672              		.global	rlist
 673 0018 AFF30080 		.section	.bss.rlist,"aw",%nobits
 673      AFF30080 
 674              		.align	2
 675              		.set	.LANCHOR0,. + 0
 676              		.type	rlist, %object
 677              		.size	rlist, 32
 678              	rlist:
ARM GAS  /tmp/ccwOtApU.s 			page 13


 679 0000 00000000 		.space	32
 679      00000000 
 679      00000000 
 679      00000000 
 679      00000000 
 680              		.text
 681              	.Letext0:
 682              		.file 3 "/usr/local/gcc-arm-none-eabi-4_8-2014q2/arm-none-eabi/include/machine/_default_types.h"
 683              		.file 4 "/usr/local/gcc-arm-none-eabi-4_8-2014q2/arm-none-eabi/include/stdint.h"
 684              		.file 5 "../../os/ports/GCC/ARMCMx/chtypes.h"
 685              		.file 6 "../../os/kernel/include/chlists.h"
 686              		.file 7 "../../os/kernel/include/chthreads.h"
 687              		.file 8 "../../os/ports/GCC/ARMCMx/chcore_v7m.h"
 688              		.file 9 "../../os/kernel/include/chvt.h"
 689              		.file 10 "../../os/kernel/include/chschd.h"
 690              		.file 11 "../../os/kernel/include/chsem.h"
 691              		.file 12 "../../os/kernel/include/chmtx.h"