ARM GAS  /tmp/ccTSH6Z5.s 			page 1


   1              		.syntax unified
   2              		.cpu cortex-m3
   3              		.fpu softvfp
   4              		.eabi_attribute 20, 1
   5              		.eabi_attribute 21, 1
   6              		.eabi_attribute 23, 3
   7              		.eabi_attribute 24, 1
   8              		.eabi_attribute 25, 1
   9              		.eabi_attribute 26, 1
  10              		.eabi_attribute 30, 2
  11              		.eabi_attribute 34, 1
  12              		.eabi_attribute 18, 4
  13              		.thumb
  14              		.file	"chsem.c"
  15              		.text
  16              	.Ltext0:
  17              		.cfi_sections	.debug_frame
  18              		.section	.text.chSemInit,"ax",%progbits
  19              		.align	2
  20              		.p2align 4,,15
  21              		.global	chSemInit
  22              		.thumb
  23              		.thumb_func
  24              		.type	chSemInit, %function
  25              	chSemInit:
  26              	.LFB7:
  27              		.file 1 "ChibiOS//os/kernel/src/chsem.c"
  28              		.loc 1 86 0
  29              		.cfi_startproc
  30              		@ args = 0, pretend = 0, frame = 0
  31              		@ frame_needed = 0, uses_anonymous_args = 0
  32              		@ link register save eliminated.
  33              	.LVL0:
  34              		.loc 1 90 0
  35 0000 4060     		str	r0, [r0, #4]
  36 0002 0060     		str	r0, [r0]
  37              		.loc 1 91 0
  38 0004 8160     		str	r1, [r0, #8]
  39 0006 7047     		bx	lr
  40              		.cfi_endproc
  41              	.LFE7:
  42              		.size	chSemInit, .-chSemInit
  43              		.section	.text.chSemResetI,"ax",%progbits
  44              		.align	2
  45              		.p2align 4,,15
  46              		.global	chSemResetI
  47              		.thumb
  48              		.thumb_func
  49              		.type	chSemResetI, %function
  50              	chSemResetI:
  51              	.LFB9:
  52              		.loc 1 136 0
  53              		.cfi_startproc
  54              		@ args = 0, pretend = 0, frame = 0
  55              		@ frame_needed = 0, uses_anonymous_args = 0
  56              	.LVL1:
  57 0000 70B5     		push	{r4, r5, r6, lr}
ARM GAS  /tmp/ccTSH6Z5.s 			page 2


  58              		.cfi_def_cfa_offset 16
  59              		.cfi_offset 4, -16
  60              		.cfi_offset 5, -12
  61              		.cfi_offset 6, -8
  62              		.cfi_offset 14, -4
  63              		.loc 1 141 0
  64 0002 8568     		ldr	r5, [r0, #8]
  65              	.LVL2:
  66              		.loc 1 147 0
  67 0004 8160     		str	r1, [r0, #8]
  68              		.loc 1 148 0
  69 0006 0135     		adds	r5, r5, #1
  70              	.LVL3:
  71 0008 002D     		cmp	r5, #0
  72 000a 0CDC     		bgt	.L2
  73 000c 0446     		mov	r4, r0
  74              		.loc 1 149 0
  75 000e 6FF00106 		mvn	r6, #1
  76              	.LVL4:
  77              	.L4:
  78              	.LBB32:
  79              	.LBB33:
  80              		.file 2 "ChibiOS//os/kernel/include/chinline.h"
  81              		.loc 2 67 0
  82 0012 6068     		ldr	r0, [r4, #4]
  83              	.LVL5:
  84              	.LBE33:
  85              	.LBE32:
  86              		.loc 1 148 0
  87 0014 0135     		adds	r5, r5, #1
  88              	.LVL6:
  89              	.LBB35:
  90              	.LBB34:
  91              		.loc 2 69 0
  92 0016 4368     		ldr	r3, [r0, #4]
  93 0018 6360     		str	r3, [r4, #4]
  94 001a 1C60     		str	r4, [r3]
  95              	.LBE34:
  96              	.LBE35:
  97              		.loc 1 149 0
  98 001c FFF7FEFF 		bl	chSchReadyI
  99              	.LVL7:
 100              		.loc 1 148 0
 101 0020 012D     		cmp	r5, #1
 102              		.loc 1 149 0
 103 0022 4662     		str	r6, [r0, #36]
 104              	.LVL8:
 105              		.loc 1 148 0
 106 0024 F5D1     		bne	.L4
 107              	.LVL9:
 108              	.L2:
 109 0026 70BD     		pop	{r4, r5, r6, pc}
 110              		.cfi_endproc
 111              	.LFE9:
 112              		.size	chSemResetI, .-chSemResetI
 113              		.section	.text.chSemReset,"ax",%progbits
 114              		.align	2
ARM GAS  /tmp/ccTSH6Z5.s 			page 3


 115              		.p2align 4,,15
 116              		.global	chSemReset
 117              		.thumb
 118              		.thumb_func
 119              		.type	chSemReset, %function
 120              	chSemReset:
 121              	.LFB8:
 122              		.loc 1 109 0
 123              		.cfi_startproc
 124              		@ args = 0, pretend = 0, frame = 0
 125              		@ frame_needed = 0, uses_anonymous_args = 0
 126              	.LVL10:
 127 0000 08B5     		push	{r3, lr}
 128              		.cfi_def_cfa_offset 8
 129              		.cfi_offset 3, -8
 130              		.cfi_offset 14, -4
 131              	.LBB36:
 132              		.loc 1 111 0
 133 0002 2023     		movs	r3, #32
 134              	@ 111 "ChibiOS//os/kernel/src/chsem.c" 1
 135 0004 83F31188 		msr     BASEPRI, r3
 136              	@ 0 "" 2
 137              		.thumb
 138              	.LBE36:
 139              		.loc 1 112 0
 140 0008 FFF7FEFF 		bl	chSemResetI
 141              	.LVL11:
 142              		.loc 1 113 0
 143 000c FFF7FEFF 		bl	chSchRescheduleS
 144              	.LVL12:
 145              	.LBB37:
 146              		.loc 1 114 0
 147 0010 0023     		movs	r3, #0
 148              	@ 114 "ChibiOS//os/kernel/src/chsem.c" 1
 149 0012 83F31188 		msr     BASEPRI, r3
 150              	@ 0 "" 2
 151              		.thumb
 152 0016 08BD     		pop	{r3, pc}
 153              	.LBE37:
 154              		.cfi_endproc
 155              	.LFE8:
 156              		.size	chSemReset, .-chSemReset
 157              		.section	.text.chSemWait,"ax",%progbits
 158              		.align	2
 159              		.p2align 4,,15
 160              		.global	chSemWait
 161              		.thumb
 162              		.thumb_func
 163              		.type	chSemWait, %function
 164              	chSemWait:
 165              	.LFB10:
 166              		.loc 1 164 0
 167              		.cfi_startproc
 168              		@ args = 0, pretend = 0, frame = 0
 169              		@ frame_needed = 0, uses_anonymous_args = 0
 170              	.LVL13:
 171              	.LBB46:
ARM GAS  /tmp/ccTSH6Z5.s 			page 4


 172              		.loc 1 167 0
 173 0000 2023     		movs	r3, #32
 174              	@ 167 "ChibiOS//os/kernel/src/chsem.c" 1
 175 0002 83F31188 		msr     BASEPRI, r3
 176              	@ 0 "" 2
 177              	.LVL14:
 178              		.thumb
 179              	.LBE46:
 180              	.LBB47:
 181              	.LBB48:
 182              		.loc 1 194 0
 183 0006 8368     		ldr	r3, [r0, #8]
 184 0008 013B     		subs	r3, r3, #1
 185 000a 002B     		cmp	r3, #0
 186 000c 8360     		str	r3, [r0, #8]
 187 000e 04DB     		blt	.L16
 188              		.loc 1 200 0
 189 0010 0020     		movs	r0, #0
 190              	.LVL15:
 191              	.LBE48:
 192              	.LBE47:
 193              	.LBB54:
 194              		.loc 1 169 0
 195 0012 0023     		movs	r3, #0
 196              	@ 169 "ChibiOS//os/kernel/src/chsem.c" 1
 197 0014 83F31188 		msr     BASEPRI, r3
 198              	@ 0 "" 2
 199              		.thumb
 200              	.LBE54:
 201              		.loc 1 171 0
 202 0018 7047     		bx	lr
 203              	.LVL16:
 204              	.L16:
 205 001a 0346     		mov	r3, r0
 206              	.LVL17:
 207              		.loc 1 164 0
 208 001c 10B5     		push	{r4, lr}
 209              		.cfi_def_cfa_offset 8
 210              		.cfi_offset 4, -8
 211              		.cfi_offset 14, -4
 212              	.LBB55:
 213              	.LBB53:
 214              	.LBB49:
 215              	.LBB50:
 216              		.loc 1 195 0
 217 001e 084C     		ldr	r4, .L17
 218              		.loc 1 197 0
 219 0020 0320     		movs	r0, #3
 220              	.LVL18:
 221              		.loc 1 195 0
 222 0022 E269     		ldr	r2, [r4, #28]
 223 0024 5362     		str	r3, [r2, #36]
 224              	.LVL19:
 225              	.LBB51:
 226              	.LBB52:
 227              		.loc 2 55 0
 228 0026 5968     		ldr	r1, [r3, #4]
ARM GAS  /tmp/ccTSH6Z5.s 			page 5


 229              		.loc 2 54 0
 230 0028 1360     		str	r3, [r2]
 231              		.loc 2 55 0
 232 002a 5160     		str	r1, [r2, #4]
 233              		.loc 2 56 0
 234 002c 5A60     		str	r2, [r3, #4]
 235 002e 0A60     		str	r2, [r1]
 236              	.LBE52:
 237              	.LBE51:
 238              		.loc 1 197 0
 239 0030 FFF7FEFF 		bl	chSchGoSleepS
 240              	.LVL20:
 241              		.loc 1 198 0
 242 0034 E369     		ldr	r3, [r4, #28]
 243 0036 586A     		ldr	r0, [r3, #36]
 244              	.LBE50:
 245              	.LBE49:
 246              	.LBE53:
 247              	.LBE55:
 248              	.LBB56:
 249              		.loc 1 169 0
 250 0038 0023     		movs	r3, #0
 251              	@ 169 "ChibiOS//os/kernel/src/chsem.c" 1
 252 003a 83F31188 		msr     BASEPRI, r3
 253              	@ 0 "" 2
 254              		.thumb
 255              	.LBE56:
 256              		.loc 1 171 0
 257 003e 10BD     		pop	{r4, pc}
 258              	.L18:
 259              		.align	2
 260              	.L17:
 261 0040 00000000 		.word	rlist
 262              		.cfi_endproc
 263              	.LFE10:
 264              		.size	chSemWait, .-chSemWait
 265              		.section	.text.chSemWaitS,"ax",%progbits
 266              		.align	2
 267              		.p2align 4,,15
 268              		.global	chSemWaitS
 269              		.thumb
 270              		.thumb_func
 271              		.type	chSemWaitS, %function
 272              	chSemWaitS:
 273              	.LFB11:
 274              		.loc 1 185 0
 275              		.cfi_startproc
 276              		@ args = 0, pretend = 0, frame = 0
 277              		@ frame_needed = 0, uses_anonymous_args = 0
 278              	.LVL21:
 279              		.loc 1 194 0
 280 0000 8368     		ldr	r3, [r0, #8]
 281 0002 013B     		subs	r3, r3, #1
 282 0004 002B     		cmp	r3, #0
 283 0006 8360     		str	r3, [r0, #8]
 284 0008 01DB     		blt	.L24
 285              		.loc 1 200 0
ARM GAS  /tmp/ccTSH6Z5.s 			page 6


 286 000a 0020     		movs	r0, #0
 287              	.LVL22:
 288 000c 7047     		bx	lr
 289              	.LVL23:
 290              	.L24:
 291 000e 0346     		mov	r3, r0
 292              	.LVL24:
 293              		.loc 1 185 0
 294 0010 10B5     		push	{r4, lr}
 295              		.cfi_def_cfa_offset 8
 296              		.cfi_offset 4, -8
 297              		.cfi_offset 14, -4
 298              	.LBB61:
 299              	.LBB62:
 300              		.loc 1 195 0
 301 0012 074C     		ldr	r4, .L25
 302              		.loc 1 197 0
 303 0014 0320     		movs	r0, #3
 304              	.LVL25:
 305              		.loc 1 195 0
 306 0016 E269     		ldr	r2, [r4, #28]
 307 0018 5362     		str	r3, [r2, #36]
 308              	.LVL26:
 309              	.LBB63:
 310              	.LBB64:
 311              		.loc 2 55 0
 312 001a 5968     		ldr	r1, [r3, #4]
 313              		.loc 2 54 0
 314 001c 1360     		str	r3, [r2]
 315              		.loc 2 55 0
 316 001e 5160     		str	r1, [r2, #4]
 317              		.loc 2 56 0
 318 0020 5A60     		str	r2, [r3, #4]
 319 0022 0A60     		str	r2, [r1]
 320              	.LBE64:
 321              	.LBE63:
 322              		.loc 1 197 0
 323 0024 FFF7FEFF 		bl	chSchGoSleepS
 324              	.LVL27:
 325              		.loc 1 198 0
 326 0028 E369     		ldr	r3, [r4, #28]
 327 002a 586A     		ldr	r0, [r3, #36]
 328 002c 10BD     		pop	{r4, pc}
 329              	.L26:
 330 002e 00BF     		.align	2
 331              	.L25:
 332 0030 00000000 		.word	rlist
 333              	.LBE62:
 334              	.LBE61:
 335              		.cfi_endproc
 336              	.LFE11:
 337              		.size	chSemWaitS, .-chSemWaitS
 338              		.section	.text.chSemWaitTimeoutS,"ax",%progbits
 339              		.align	2
 340              		.p2align 4,,15
 341              		.global	chSemWaitTimeoutS
 342              		.thumb
ARM GAS  /tmp/ccTSH6Z5.s 			page 7


 343              		.thumb_func
 344              		.type	chSemWaitTimeoutS, %function
 345              	chSemWaitTimeoutS:
 346              	.LFB13:
 347              		.loc 1 250 0
 348              		.cfi_startproc
 349              		@ args = 0, pretend = 0, frame = 0
 350              		@ frame_needed = 0, uses_anonymous_args = 0
 351              		@ link register save eliminated.
 352              	.LVL28:
 353 0000 0346     		mov	r3, r0
 354              		.loc 1 254 0
 355 0002 8068     		ldr	r0, [r0, #8]
 356              	.LVL29:
 357              		.loc 1 259 0
 358 0004 421E     		subs	r2, r0, #1
 359 0006 002A     		cmp	r2, #0
 360 0008 9A60     		str	r2, [r3, #8]
 361 000a 01DB     		blt	.L33
 362              		.loc 1 268 0
 363 000c 0020     		movs	r0, #0
 364 000e 7047     		bx	lr
 365              	.L33:
 366              		.loc 1 250 0
 367 0010 10B4     		push	{r4}
 368              		.cfi_def_cfa_offset 4
 369              		.cfi_offset 4, -4
 370              		.loc 1 260 0
 371 0012 61B1     		cbz	r1, .L34
 372              	.LVL30:
 373              	.LBB69:
 374              	.LBB70:
 375              		.loc 1 264 0
 376 0014 094A     		ldr	r2, .L35
 377              		.loc 1 266 0
 378 0016 0320     		movs	r0, #3
 379              		.loc 1 264 0
 380 0018 D269     		ldr	r2, [r2, #28]
 381 001a 5362     		str	r3, [r2, #36]
 382              	.LVL31:
 383              	.LBB71:
 384              	.LBB72:
 385              		.loc 2 55 0
 386 001c 5C68     		ldr	r4, [r3, #4]
 387 001e 82E81800 		stmia	r2, {r3, r4}
 388              		.loc 2 56 0
 389 0022 5A60     		str	r2, [r3, #4]
 390 0024 2260     		str	r2, [r4]
 391              	.LBE72:
 392              	.LBE71:
 393              	.LBE70:
 394              	.LBE69:
 395              		.loc 1 269 0
 396 0026 5DF8044B 		ldr	r4, [sp], #4
 397              		.cfi_remember_state
 398              		.cfi_restore 4
 399              		.cfi_def_cfa_offset 0
ARM GAS  /tmp/ccTSH6Z5.s 			page 8


 400              	.LBB74:
 401              	.LBB73:
 402              		.loc 1 266 0
 403 002a FFF7FEBF 		b	chSchGoSleepTimeoutS
 404              	.LVL32:
 405              	.L34:
 406              		.cfi_restore_state
 407              	.LBE73:
 408              	.LBE74:
 409              		.loc 1 261 0
 410 002e 9860     		str	r0, [r3, #8]
 411              		.loc 1 269 0
 412 0030 5DF8044B 		ldr	r4, [sp], #4
 413              		.cfi_restore 4
 414              		.cfi_def_cfa_offset 0
 415              		.loc 1 262 0
 416 0034 4FF0FF30 		mov	r0, #-1
 417              		.loc 1 269 0
 418 0038 7047     		bx	lr
 419              	.L36:
 420 003a 00BF     		.align	2
 421              	.L35:
 422 003c 00000000 		.word	rlist
 423              		.cfi_endproc
 424              	.LFE13:
 425              		.size	chSemWaitTimeoutS, .-chSemWaitTimeoutS
 426              		.section	.text.chSemWaitTimeout,"ax",%progbits
 427              		.align	2
 428              		.p2align 4,,15
 429              		.global	chSemWaitTimeout
 430              		.thumb
 431              		.thumb_func
 432              		.type	chSemWaitTimeout, %function
 433              	chSemWaitTimeout:
 434              	.LFB12:
 435              		.loc 1 222 0
 436              		.cfi_startproc
 437              		@ args = 0, pretend = 0, frame = 0
 438              		@ frame_needed = 0, uses_anonymous_args = 0
 439              	.LVL33:
 440 0000 08B5     		push	{r3, lr}
 441              		.cfi_def_cfa_offset 8
 442              		.cfi_offset 3, -8
 443              		.cfi_offset 14, -4
 444              	.LBB75:
 445              		.loc 1 225 0
 446 0002 2023     		movs	r3, #32
 447              	@ 225 "ChibiOS//os/kernel/src/chsem.c" 1
 448 0004 83F31188 		msr     BASEPRI, r3
 449              	@ 0 "" 2
 450              		.thumb
 451              	.LBE75:
 452              		.loc 1 226 0
 453 0008 FFF7FEFF 		bl	chSemWaitTimeoutS
 454              	.LVL34:
 455              	.LBB76:
 456              		.loc 1 227 0
ARM GAS  /tmp/ccTSH6Z5.s 			page 9


 457 000c 0023     		movs	r3, #0
 458              	@ 227 "ChibiOS//os/kernel/src/chsem.c" 1
 459 000e 83F31188 		msr     BASEPRI, r3
 460              	@ 0 "" 2
 461              		.thumb
 462              	.LBE76:
 463              		.loc 1 229 0
 464 0012 08BD     		pop	{r3, pc}
 465              		.cfi_endproc
 466              	.LFE12:
 467              		.size	chSemWaitTimeout, .-chSemWaitTimeout
 468              		.section	.text.chSemSignal,"ax",%progbits
 469              		.align	2
 470              		.p2align 4,,15
 471              		.global	chSemSignal
 472              		.thumb
 473              		.thumb_func
 474              		.type	chSemSignal, %function
 475              	chSemSignal:
 476              	.LFB14:
 477              		.loc 1 278 0
 478              		.cfi_startproc
 479              		@ args = 0, pretend = 0, frame = 0
 480              		@ frame_needed = 0, uses_anonymous_args = 0
 481              	.LVL35:
 482 0000 08B5     		push	{r3, lr}
 483              		.cfi_def_cfa_offset 8
 484              		.cfi_offset 3, -8
 485              		.cfi_offset 14, -4
 486              	.LBB77:
 487              		.loc 1 286 0
 488 0002 2023     		movs	r3, #32
 489              	@ 286 "ChibiOS//os/kernel/src/chsem.c" 1
 490 0004 83F31188 		msr     BASEPRI, r3
 491              	@ 0 "" 2
 492              		.thumb
 493              	.LBE77:
 494              		.loc 1 287 0
 495 0008 8368     		ldr	r3, [r0, #8]
 496 000a 0133     		adds	r3, r3, #1
 497 000c 002B     		cmp	r3, #0
 498 000e 8360     		str	r3, [r0, #8]
 499 0010 03DD     		ble	.L42
 500              	.LBB78:
 501              		.loc 1 289 0
 502 0012 0023     		movs	r3, #0
 503              	@ 289 "ChibiOS//os/kernel/src/chsem.c" 1
 504 0014 83F31188 		msr     BASEPRI, r3
 505              	@ 0 "" 2
 506              		.thumb
 507 0018 08BD     		pop	{r3, pc}
 508              	.L42:
 509 001a 0346     		mov	r3, r0
 510              	.LVL36:
 511              	.LBE78:
 512              	.LBB79:
 513              	.LBB80:
ARM GAS  /tmp/ccTSH6Z5.s 			page 10


 514              		.loc 2 60 0
 515 001c 0068     		ldr	r0, [r0]
 516              	.LVL37:
 517              	.LBE80:
 518              	.LBE79:
 519              		.loc 1 288 0
 520 001e 0021     		movs	r1, #0
 521              	.LBB82:
 522              	.LBB81:
 523              		.loc 2 62 0
 524 0020 0268     		ldr	r2, [r0]
 525 0022 1A60     		str	r2, [r3]
 526 0024 5360     		str	r3, [r2, #4]
 527              	.LBE81:
 528              	.LBE82:
 529              		.loc 1 288 0
 530 0026 FFF7FEFF 		bl	chSchWakeupS
 531              	.LVL38:
 532              	.LBB83:
 533              		.loc 1 289 0
 534 002a 0023     		movs	r3, #0
 535              	@ 289 "ChibiOS//os/kernel/src/chsem.c" 1
 536 002c 83F31188 		msr     BASEPRI, r3
 537              	@ 0 "" 2
 538              		.thumb
 539 0030 08BD     		pop	{r3, pc}
 540              	.LBE83:
 541              		.cfi_endproc
 542              	.LFE14:
 543              		.size	chSemSignal, .-chSemSignal
 544 0032 00BF     		.section	.text.chSemSignalI,"ax",%progbits
 545              		.align	2
 546              		.p2align 4,,15
 547              		.global	chSemSignalI
 548              		.thumb
 549              		.thumb_func
 550              		.type	chSemSignalI, %function
 551              	chSemSignalI:
 552              	.LFB15:
 553              		.loc 1 303 0
 554              		.cfi_startproc
 555              		@ args = 0, pretend = 0, frame = 0
 556              		@ frame_needed = 0, uses_anonymous_args = 0
 557              		@ link register save eliminated.
 558              	.LVL39:
 559              		.loc 1 312 0
 560 0000 8368     		ldr	r3, [r0, #8]
 561              		.loc 1 303 0
 562 0002 0246     		mov	r2, r0
 563              		.loc 1 312 0
 564 0004 0133     		adds	r3, r3, #1
 565 0006 002B     		cmp	r3, #0
 566 0008 8360     		str	r3, [r0, #8]
 567 000a 00DD     		ble	.L47
 568 000c 7047     		bx	lr
 569              	.L47:
 570              	.LVL40:
ARM GAS  /tmp/ccTSH6Z5.s 			page 11


 571              	.LBB84:
 572              	.LBB85:
 573              	.LBB86:
 574              		.loc 2 60 0
 575 000e 0368     		ldr	r3, [r0]
 576              	.LVL41:
 577              	.LBE86:
 578              	.LBE85:
 579              	.LBE84:
 580              		.loc 1 303 0
 581 0010 10B4     		push	{r4}
 582              		.cfi_def_cfa_offset 4
 583              		.cfi_offset 4, -4
 584              	.LBB91:
 585              	.LBB89:
 586              	.LBB87:
 587              		.loc 2 62 0
 588 0012 1968     		ldr	r1, [r3]
 589              	.LBE87:
 590              	.LBE89:
 591              		.loc 1 316 0
 592 0014 0024     		movs	r4, #0
 593              	.LBB90:
 594              	.LBB88:
 595              		.loc 2 62 0
 596 0016 1160     		str	r1, [r2]
 597 0018 4A60     		str	r2, [r1, #4]
 598              	.LBE88:
 599              	.LBE90:
 600              		.loc 1 316 0
 601 001a 5C62     		str	r4, [r3, #36]
 602              		.loc 1 317 0
 603 001c 1846     		mov	r0, r3
 604              	.LVL42:
 605              	.LBE91:
 606              		.loc 1 319 0
 607 001e 5DF8044B 		ldr	r4, [sp], #4
 608              		.cfi_restore 4
 609              		.cfi_def_cfa_offset 0
 610              	.LBB92:
 611              		.loc 1 317 0
 612 0022 FFF7FEBF 		b	chSchReadyI
 613              	.LVL43:
 614              	.LBE92:
 615              		.cfi_endproc
 616              	.LFE15:
 617              		.size	chSemSignalI, .-chSemSignalI
 618 0026 00BF     		.section	.text.chSemAddCounterI,"ax",%progbits
 619              		.align	2
 620              		.p2align 4,,15
 621              		.global	chSemAddCounterI
 622              		.thumb
 623              		.thumb_func
 624              		.type	chSemAddCounterI, %function
 625              	chSemAddCounterI:
 626              	.LFB16:
 627              		.loc 1 334 0
ARM GAS  /tmp/ccTSH6Z5.s 			page 12


 628              		.cfi_startproc
 629              		@ args = 0, pretend = 0, frame = 0
 630              		@ frame_needed = 0, uses_anonymous_args = 0
 631              	.LVL44:
 632 0000 70B5     		push	{r4, r5, r6, lr}
 633              		.cfi_def_cfa_offset 16
 634              		.cfi_offset 4, -16
 635              		.cfi_offset 5, -12
 636              		.cfi_offset 6, -8
 637              		.cfi_offset 14, -4
 638              		.loc 1 343 0
 639 0002 0C1E     		subs	r4, r1, #0
 640 0004 12DD     		ble	.L48
 641 0006 0546     		mov	r5, r0
 642              		.loc 1 345 0
 643 0008 0026     		movs	r6, #0
 644 000a 01E0     		b	.L51
 645              	.LVL45:
 646              	.L50:
 647              		.loc 1 343 0
 648 000c 013C     		subs	r4, r4, #1
 649              	.LVL46:
 650 000e 0DD0     		beq	.L48
 651              	.LVL47:
 652              	.L51:
 653              		.loc 1 344 0
 654 0010 AB68     		ldr	r3, [r5, #8]
 655 0012 0133     		adds	r3, r3, #1
 656 0014 002B     		cmp	r3, #0
 657 0016 AB60     		str	r3, [r5, #8]
 658 0018 F8DC     		bgt	.L50
 659              	.LVL48:
 660              	.LBB93:
 661              	.LBB94:
 662              		.loc 2 60 0
 663 001a 2868     		ldr	r0, [r5]
 664              	.LVL49:
 665              		.loc 2 62 0
 666 001c 0368     		ldr	r3, [r0]
 667 001e 2B60     		str	r3, [r5]
 668 0020 5D60     		str	r5, [r3, #4]
 669              	.LBE94:
 670              	.LBE93:
 671              		.loc 1 345 0
 672 0022 FFF7FEFF 		bl	chSchReadyI
 673              	.LVL50:
 674              		.loc 1 343 0
 675 0026 013C     		subs	r4, r4, #1
 676              	.LVL51:
 677              		.loc 1 345 0
 678 0028 4662     		str	r6, [r0, #36]
 679              	.LVL52:
 680              		.loc 1 343 0
 681 002a F1D1     		bne	.L51
 682              	.LVL53:
 683              	.L48:
 684 002c 70BD     		pop	{r4, r5, r6, pc}
ARM GAS  /tmp/ccTSH6Z5.s 			page 13


 685              		.cfi_endproc
 686              	.LFE16:
 687              		.size	chSemAddCounterI, .-chSemAddCounterI
 688 002e 00BF     		.section	.text.chSemSignalWait,"ax",%progbits
 689              		.align	2
 690              		.p2align 4,,15
 691              		.global	chSemSignalWait
 692              		.thumb
 693              		.thumb_func
 694              		.type	chSemSignalWait, %function
 695              	chSemSignalWait:
 696              	.LFB17:
 697              		.loc 1 366 0
 698              		.cfi_startproc
 699              		@ args = 0, pretend = 0, frame = 8
 700              		@ frame_needed = 0, uses_anonymous_args = 0
 701              	.LVL54:
 702 0000 10B5     		push	{r4, lr}
 703              		.cfi_def_cfa_offset 8
 704              		.cfi_offset 4, -8
 705              		.cfi_offset 14, -4
 706 0002 0246     		mov	r2, r0
 707 0004 82B0     		sub	sp, sp, #8
 708              		.cfi_def_cfa_offset 16
 709              	.LBB95:
 710              		.loc 1 379 0
 711 0006 2023     		movs	r3, #32
 712              	@ 379 "ChibiOS//os/kernel/src/chsem.c" 1
 713 0008 83F31188 		msr     BASEPRI, r3
 714              	@ 0 "" 2
 715              		.thumb
 716              	.LBE95:
 717              		.loc 1 380 0
 718 000c 8368     		ldr	r3, [r0, #8]
 719 000e 0133     		adds	r3, r3, #1
 720 0010 002B     		cmp	r3, #0
 721 0012 8360     		str	r3, [r0, #8]
 722 0014 1DDD     		ble	.L60
 723              	.LVL55:
 724              	.L56:
 725              		.loc 1 382 0
 726 0016 8B68     		ldr	r3, [r1, #8]
 727 0018 013B     		subs	r3, r3, #1
 728 001a 002B     		cmp	r3, #0
 729 001c 8B60     		str	r3, [r1, #8]
 730 001e 07DB     		blt	.L61
 731              		.loc 1 390 0
 732 0020 FFF7FEFF 		bl	chSchRescheduleS
 733              	.LVL56:
 734              		.loc 1 391 0
 735 0024 0020     		movs	r0, #0
 736              	.LVL57:
 737              	.LBB96:
 738              		.loc 1 393 0
 739 0026 0023     		movs	r3, #0
 740              	@ 393 "ChibiOS//os/kernel/src/chsem.c" 1
 741 0028 83F31188 		msr     BASEPRI, r3
ARM GAS  /tmp/ccTSH6Z5.s 			page 14


 742              	@ 0 "" 2
 743              		.thumb
 744              	.LBE96:
 745              		.loc 1 395 0
 746 002c 02B0     		add	sp, sp, #8
 747              		.cfi_remember_state
 748              		.cfi_def_cfa_offset 8
 749              		@ sp needed
 750 002e 10BD     		pop	{r4, pc}
 751              	.LVL58:
 752              	.L61:
 753              		.cfi_restore_state
 754              	.LBB97:
 755              		.loc 1 383 0
 756 0030 0D4A     		ldr	r2, .L62
 757              	.LBB98:
 758              	.LBB99:
 759              		.loc 2 55 0
 760 0032 4B68     		ldr	r3, [r1, #4]
 761              	.LBE99:
 762              	.LBE98:
 763              		.loc 1 383 0
 764 0034 D469     		ldr	r4, [r2, #28]
 765              	.LVL59:
 766              		.loc 1 386 0
 767 0036 0320     		movs	r0, #3
 768              	.LBB101:
 769              	.LBB100:
 770              		.loc 2 55 0
 771 0038 84E80A00 		stmia	r4, {r1, r3}
 772              		.loc 2 56 0
 773 003c 4C60     		str	r4, [r1, #4]
 774 003e 1C60     		str	r4, [r3]
 775              	.LBE100:
 776              	.LBE101:
 777              		.loc 1 385 0
 778 0040 6162     		str	r1, [r4, #36]
 779              		.loc 1 386 0
 780 0042 FFF7FEFF 		bl	chSchGoSleepS
 781              	.LVL60:
 782              		.loc 1 387 0
 783 0046 606A     		ldr	r0, [r4, #36]
 784              	.LVL61:
 785              	.LBE97:
 786              	.LBB102:
 787              		.loc 1 393 0
 788 0048 0023     		movs	r3, #0
 789              	@ 393 "ChibiOS//os/kernel/src/chsem.c" 1
 790 004a 83F31188 		msr     BASEPRI, r3
 791              	@ 0 "" 2
 792              		.thumb
 793              	.LBE102:
 794              		.loc 1 395 0
 795 004e 02B0     		add	sp, sp, #8
 796              		.cfi_remember_state
 797              		.cfi_def_cfa_offset 8
 798              		@ sp needed
ARM GAS  /tmp/ccTSH6Z5.s 			page 15


 799 0050 10BD     		pop	{r4, pc}
 800              	.LVL62:
 801              	.L60:
 802              		.cfi_restore_state
 803              	.LBB103:
 804              	.LBB104:
 805              		.loc 2 60 0
 806 0052 0068     		ldr	r0, [r0]
 807              	.LVL63:
 808 0054 0191     		str	r1, [sp, #4]
 809              	.LVL64:
 810              		.loc 2 62 0
 811 0056 0368     		ldr	r3, [r0]
 812 0058 1360     		str	r3, [r2]
 813 005a 5A60     		str	r2, [r3, #4]
 814              	.LBE104:
 815              	.LBE103:
 816              		.loc 1 381 0
 817 005c FFF7FEFF 		bl	chSchReadyI
 818              	.LVL65:
 819 0060 0023     		movs	r3, #0
 820 0062 4362     		str	r3, [r0, #36]
 821 0064 0199     		ldr	r1, [sp, #4]
 822 0066 D6E7     		b	.L56
 823              	.L63:
 824              		.align	2
 825              	.L62:
 826 0068 00000000 		.word	rlist
 827              		.cfi_endproc
 828              	.LFE17:
 829              		.size	chSemSignalWait, .-chSemSignalWait
 830              		.text
 831              	.Letext0:
 832              		.file 3 "/usr/include/newlib/machine/_default_types.h"
 833              		.file 4 "/usr/include/newlib/sys/_stdint.h"
 834              		.file 5 "ChibiOS//os/ports/GCC/ARMCMx/chtypes.h"
 835              		.file 6 "ChibiOS//os/kernel/include/chlists.h"
 836              		.file 7 "ChibiOS//os/kernel/include/chthreads.h"
 837              		.file 8 "ChibiOS//os/ports/GCC/ARMCMx/chcore_v7m.h"
 838              		.file 9 "ChibiOS//os/kernel/include/chschd.h"
 839              		.file 10 "ChibiOS//os/kernel/include/chsem.h"
 840              		.file 11 "ChibiOS//os/kernel/include/chmtx.h"