ARM GAS  /tmp/cca0c0cx.s 			page 1


   1              		.syntax unified
   2              		.cpu cortex-m3
   3              		.fpu softvfp
   4              		.eabi_attribute 20, 1
   5              		.eabi_attribute 21, 1
   6              		.eabi_attribute 23, 3
   7              		.eabi_attribute 24, 1
   8              		.eabi_attribute 25, 1
   9              		.eabi_attribute 26, 1
  10              		.eabi_attribute 30, 2
  11              		.eabi_attribute 34, 1
  12              		.eabi_attribute 18, 4
  13              		.thumb
  14              		.file	"chsys.c"
  15              		.text
  16              	.Ltext0:
  17              		.cfi_sections	.debug_frame
  18              		.section	.text._idle_thread,"ax",%progbits
  19              		.align	2
  20              		.p2align 4,,15
  21              		.global	_idle_thread
  22              		.thumb
  23              		.thumb_func
  24              		.type	_idle_thread, %function
  25              	_idle_thread:
  26              	.LFB7:
  27              		.file 1 "ChibiOS//os/kernel/src/chsys.c"
  28              		.loc 1 59 0
  29              		.cfi_startproc
  30              		@ Volatile: function does not return.
  31              		@ args = 0, pretend = 0, frame = 0
  32              		@ frame_needed = 0, uses_anonymous_args = 0
  33              		@ link register save eliminated.
  34              	.LVL0:
  35              		.loc 1 62 0
  36 0000 024B     		ldr	r3, .L4
  37 0002 034A     		ldr	r2, .L4+4
  38 0004 DB69     		ldr	r3, [r3, #28]
  39 0006 9A61     		str	r2, [r3, #24]
  40              	.L2:
  41              		.loc 1 66 0 discriminator 1
  42 0008 FEE7     		b	.L2
  43              	.L5:
  44 000a 00BF     		.align	2
  45              	.L4:
  46 000c 00000000 		.word	rlist
  47 0010 00000000 		.word	.LC0
  48              		.cfi_endproc
  49              	.LFE7:
  50              		.size	_idle_thread, .-_idle_thread
  51              		.section	.text.chSysInit,"ax",%progbits
  52              		.align	2
  53              		.p2align 4,,15
  54              		.global	chSysInit
  55              		.thumb
  56              		.thumb_func
  57              		.type	chSysInit, %function
ARM GAS  /tmp/cca0c0cx.s 			page 2


  58              	chSysInit:
  59              	.LFB8:
  60              		.loc 1 82 0
  61              		.cfi_startproc
  62              		@ args = 0, pretend = 0, frame = 0
  63              		@ frame_needed = 0, uses_anonymous_args = 0
  64 0000 00B5     		push	{lr}
  65              		.cfi_def_cfa_offset 4
  66              		.cfi_offset 14, -4
  67 0002 83B0     		sub	sp, sp, #12
  68              		.cfi_def_cfa_offset 16
  69              		.loc 1 88 0
  70 0004 FFF7FEFF 		bl	_port_init
  71              	.LVL1:
  72              		.loc 1 89 0
  73 0008 FFF7FEFF 		bl	_scheduler_init
  74              	.LVL2:
  75              		.loc 1 90 0
  76 000c FFF7FEFF 		bl	_vt_init
  77              	.LVL3:
  78              		.loc 1 92 0
  79 0010 FFF7FEFF 		bl	_core_init
  80              	.LVL4:
  81              		.loc 1 95 0
  82 0014 FFF7FEFF 		bl	_heap_init
  83              	.LVL5:
  84              		.loc 1 102 0
  85 0018 4021     		movs	r1, #64
  86 001a 0B48     		ldr	r0, .L8
  87 001c FFF7FEFF 		bl	_thread_init
  88              	.LVL6:
  89 0020 0A49     		ldr	r1, .L8+4
  90              		.loc 1 103 0
  91 0022 0122     		movs	r2, #1
  92              		.loc 1 102 0
  93 0024 C861     		str	r0, [r1, #28]
  94              	.LBB2:
  95              		.loc 1 109 0
  96 0026 0023     		movs	r3, #0
  97              	.LBE2:
  98              		.loc 1 103 0
  99 0028 0277     		strb	r2, [r0, #28]
 100              	.LBB3:
 101              		.loc 1 109 0
 102              	@ 109 "ChibiOS//os/kernel/src/chsys.c" 1
 103 002a 83F31188 		msr     BASEPRI, r3                    
 104 002e 62B6     		cpsie   i
 105              	@ 0 "" 2
 106              		.thumb
 107              	.LBE3:
 108              		.loc 1 111 0
 109 0030 0748     		ldr	r0, .L8+8
 110 0032 C969     		ldr	r1, [r1, #28]
 111 0034 8861     		str	r0, [r1, #24]
 112              		.loc 1 117 0
 113 0036 0093     		str	r3, [sp]
 114 0038 C021     		movs	r1, #192
ARM GAS  /tmp/cca0c0cx.s 			page 3


 115 003a 064B     		ldr	r3, .L8+12
 116 003c 0648     		ldr	r0, .L8+16
 117 003e FFF7FEFF 		bl	chThdCreateStatic
 118              	.LVL7:
 119              		.loc 1 120 0
 120 0042 03B0     		add	sp, sp, #12
 121              		.cfi_def_cfa_offset 4
 122              		@ sp needed
 123 0044 5DF804FB 		ldr	pc, [sp], #4
 124              	.L9:
 125              		.align	2
 126              	.L8:
 127 0048 00000000 		.word	.LANCHOR0
 128 004c 00000000 		.word	rlist
 129 0050 08000000 		.word	.LC1
 130 0054 00000000 		.word	_idle_thread
 131 0058 00000000 		.word	.LANCHOR1
 132              		.cfi_endproc
 133              	.LFE8:
 134              		.size	chSysInit, .-chSysInit
 135              		.section	.text.chSysTimerHandlerI,"ax",%progbits
 136              		.align	2
 137              		.p2align 4,,15
 138              		.global	chSysTimerHandlerI
 139              		.thumb
 140              		.thumb_func
 141              		.type	chSysTimerHandlerI, %function
 142              	chSysTimerHandlerI:
 143              	.LFB9:
 144              		.loc 1 133 0
 145              		.cfi_startproc
 146              		@ args = 0, pretend = 0, frame = 0
 147              		@ frame_needed = 0, uses_anonymous_args = 0
 148              		.loc 1 139 0
 149 0000 114A     		ldr	r2, .L18
 150              		.loc 1 133 0
 151 0002 38B5     		push	{r3, r4, r5, lr}
 152              		.cfi_def_cfa_offset 16
 153              		.cfi_offset 3, -16
 154              		.cfi_offset 4, -12
 155              		.cfi_offset 5, -8
 156              		.cfi_offset 14, -4
 157              		.loc 1 139 0
 158 0004 9369     		ldr	r3, [r2, #24]
 159              		.loc 1 144 0
 160 0006 D169     		ldr	r1, [r2, #28]
 161              		.loc 1 139 0
 162 0008 002B     		cmp	r3, #0
 163              		.loc 1 141 0
 164 000a C4BF     		itt	gt
 165 000c 03F1FF33 		addgt	r3, r3, #-1
 166 0010 9361     		strgt	r3, [r2, #24]
 167              		.loc 1 144 0
 168 0012 0A6A     		ldr	r2, [r1, #32]
 169              		.loc 1 146 0
 170 0014 0D4C     		ldr	r4, .L18+4
 171              		.loc 1 144 0
ARM GAS  /tmp/cca0c0cx.s 			page 4


 172 0016 0132     		adds	r2, r2, #1
 173 0018 0A62     		str	r2, [r1, #32]
 174              		.loc 1 146 0
 175 001a E268     		ldr	r2, [r4, #12]
 176 001c 2368     		ldr	r3, [r4]
 177 001e 0132     		adds	r2, r2, #1
 178 0020 A342     		cmp	r3, r4
 179 0022 E260     		str	r2, [r4, #12]
 180 0024 0ED0     		beq	.L10
 181              	.LBB4:
 182              		.loc 1 146 0 is_stmt 0 discriminator 1
 183 0026 9D68     		ldr	r5, [r3, #8]
 184 0028 013D     		subs	r5, r5, #1
 185 002a 9D60     		str	r5, [r3, #8]
 186              	.LVL8:
 187 002c 55B9     		cbnz	r5, .L10
 188              	.L14:
 189              	.LBB5:
 190              		.loc 1 146 0 discriminator 4
 191 002e 1A68     		ldr	r2, [r3]
 192 0030 D968     		ldr	r1, [r3, #12]
 193              	.LVL9:
 194 0032 1869     		ldr	r0, [r3, #16]
 195 0034 DD60     		str	r5, [r3, #12]
 196 0036 2260     		str	r2, [r4]
 197 0038 5460     		str	r4, [r2, #4]
 198 003a 8847     		blx	r1
 199              	.LVL10:
 200              	.LBE5:
 201 003c 2368     		ldr	r3, [r4]
 202              	.LVL11:
 203 003e 9A68     		ldr	r2, [r3, #8]
 204 0040 002A     		cmp	r2, #0
 205 0042 F4D0     		beq	.L14
 206              	.LVL12:
 207              	.L10:
 208 0044 38BD     		pop	{r3, r4, r5, pc}
 209              	.L19:
 210 0046 00BF     		.align	2
 211              	.L18:
 212 0048 00000000 		.word	rlist
 213 004c 00000000 		.word	vtlist
 214              	.LBE4:
 215              		.cfi_endproc
 216              	.LFE9:
 217              		.size	chSysTimerHandlerI, .-chSysTimerHandlerI
 218              		.global	_idle_thread_wa
 219              		.section	.rodata.str1.4,"aMS",%progbits,1
 220              		.align	2
 221              	.LC0:
 222 0000 69646C65 		.ascii	"idle\000"
 222      00
 223 0005 000000   		.space	3
 224              	.LC1:
 225 0008 6D61696E 		.ascii	"main\000"
 225      00
 226              		.section	.bss.mainthread.4837,"aw",%nobits
ARM GAS  /tmp/cca0c0cx.s 			page 5


 227              		.align	2
 228              		.set	.LANCHOR0,. + 0
 229              		.type	mainthread.4837, %object
 230              		.size	mainthread.4837, 72
 231              	mainthread.4837:
 232 0000 00000000 		.space	72
 232      00000000 
 232      00000000 
 232      00000000 
 232      00000000 
 233              		.section	.bss._idle_thread_wa,"aw",%nobits
 234              		.align	3
 235              		.set	.LANCHOR1,. + 0
 236              		.type	_idle_thread_wa, %object
 237              		.size	_idle_thread_wa, 192
 238              	_idle_thread_wa:
 239 0000 00000000 		.space	192
 239      00000000 
 239      00000000 
 239      00000000 
 239      00000000 
 240              		.text
 241              	.Letext0:
 242              		.file 2 "/usr/lib/gcc/arm-none-eabi/4.9.3/include/stddef.h"
 243              		.file 3 "/usr/include/newlib/machine/_default_types.h"
 244              		.file 4 "/usr/include/newlib/sys/_stdint.h"
 245              		.file 5 "ChibiOS//os/ports/GCC/ARMCMx/chtypes.h"
 246              		.file 6 "ChibiOS//os/kernel/include/chlists.h"
 247              		.file 7 "ChibiOS//os/kernel/include/chthreads.h"
 248              		.file 8 "ChibiOS//os/ports/GCC/ARMCMx/chcore_v7m.h"
 249              		.file 9 "ChibiOS//os/kernel/include/chvt.h"
 250              		.file 10 "ChibiOS//os/kernel/include/chschd.h"
 251              		.file 11 "ChibiOS//os/kernel/include/chmtx.h"
 252              		.file 12 "ChibiOS//os/kernel/include/chmemcore.h"
 253              		.file 13 "ChibiOS//os/kernel/include/chheap.h"