ARM GAS  /tmp/ccN02bcZ.s 			page 1


   1              		.syntax unified
   2              		.cpu cortex-m3
   3              		.fpu softvfp
   4              		.eabi_attribute 20, 1
   5              		.eabi_attribute 21, 1
   6              		.eabi_attribute 23, 3
   7              		.eabi_attribute 24, 1
   8              		.eabi_attribute 25, 1
   9              		.eabi_attribute 26, 1
  10              		.eabi_attribute 30, 2
  11              		.eabi_attribute 34, 1
  12              		.eabi_attribute 18, 4
  13              		.thumb
  14              		.file	"chthreads.c"
  15              		.text
  16              	.Ltext0:
  17              		.cfi_sections	.debug_frame
  18              		.section	.text._thread_init,"ax",%progbits
  19              		.align	2
  20              		.p2align 4,,15
  21              		.global	_thread_init
  22              		.thumb
  23              		.thumb_func
  24              		.type	_thread_init, %function
  25              	_thread_init:
  26              	.LFB7:
  27              		.file 1 "ChibiOS//os/kernel/src/chthreads.c"
  28              		.loc 1 76 0
  29              		.cfi_startproc
  30              		@ args = 0, pretend = 0, frame = 0
  31              		@ frame_needed = 0, uses_anonymous_args = 0
  32              	.LVL0:
  33 0000 F0B5     		push	{r4, r5, r6, r7, lr}
  34              		.cfi_def_cfa_offset 20
  35              		.cfi_offset 4, -20
  36              		.cfi_offset 5, -16
  37              		.cfi_offset 6, -12
  38              		.cfi_offset 7, -8
  39              		.cfi_offset 14, -4
  40              		.loc 1 96 0
  41 0002 0F4C     		ldr	r4, .L3
  42              		.loc 1 80 0
  43 0004 0022     		movs	r2, #0
  44              		.loc 1 96 0
  45 0006 6669     		ldr	r6, [r4, #20]
  46              		.loc 1 102 0
  47 0008 00F12C05 		add	r5, r0, #44
  48              		.loc 1 79 0
  49 000c 4FF0020C 		mov	ip, #2
  50              		.loc 1 92 0
  51 0010 4FF0010E 		mov	lr, #1
  52              		.loc 1 99 0
  53 0014 00F12807 		add	r7, r0, #40
  54              		.loc 1 96 0
  55 0018 4661     		str	r6, [r0, #20]
  56              		.loc 1 78 0
  57 001a 8160     		str	r1, [r0, #8]
ARM GAS  /tmp/ccN02bcZ.s 			page 2


  58              		.loc 1 96 0
  59 001c 0461     		str	r4, [r0, #16]
  60              		.loc 1 82 0
  61 001e 0164     		str	r1, [r0, #64]
  62              		.loc 1 96 0
  63 0020 6061     		str	r0, [r4, #20]
  64              		.loc 1 79 0
  65 0022 80F81CC0 		strb	ip, [r0, #28]
  66              		.loc 1 92 0
  67 0026 80F81EE0 		strb	lr, [r0, #30]
  68              		.loc 1 80 0
  69 002a 4277     		strb	r2, [r0, #29]
  70              		.loc 1 83 0
  71 002c C263     		str	r2, [r0, #60]
  72              		.loc 1 86 0
  73 002e 8263     		str	r2, [r0, #56]
  74              		.loc 1 89 0
  75 0030 0262     		str	r2, [r0, #32]
  76              		.loc 1 95 0
  77 0032 8261     		str	r2, [r0, #24]
  78              		.loc 1 96 0
  79 0034 3061     		str	r0, [r6, #16]
  80              		.loc 1 99 0
  81 0036 8762     		str	r7, [r0, #40]
  82              		.loc 1 102 0
  83 0038 0563     		str	r5, [r0, #48]
  84 003a C562     		str	r5, [r0, #44]
  85              		.loc 1 111 0
  86 003c F0BD     		pop	{r4, r5, r6, r7, pc}
  87              	.L4:
  88 003e 00BF     		.align	2
  89              	.L3:
  90 0040 00000000 		.word	rlist
  91              		.cfi_endproc
  92              	.LFE7:
  93              		.size	_thread_init, .-_thread_init
  94              		.section	.text.chThdCreateI,"ax",%progbits
  95              		.align	2
  96              		.p2align 4,,15
  97              		.global	chThdCreateI
  98              		.thumb
  99              		.thumb_func
 100              		.type	chThdCreateI, %function
 101              	chThdCreateI:
 102              	.LFB8:
 103              		.loc 1 155 0
 104              		.cfi_startproc
 105              		@ args = 4, pretend = 0, frame = 0
 106              		@ frame_needed = 0, uses_anonymous_args = 0
 107              	.LVL1:
 108 0000 2DE9F047 		push	{r4, r5, r6, r7, r8, r9, r10, lr}
 109              		.cfi_def_cfa_offset 32
 110              		.cfi_offset 4, -32
 111              		.cfi_offset 5, -28
 112              		.cfi_offset 6, -24
 113              		.cfi_offset 7, -20
 114              		.cfi_offset 8, -16
ARM GAS  /tmp/ccN02bcZ.s 			page 3


 115              		.cfi_offset 9, -12
 116              		.cfi_offset 10, -8
 117              		.cfi_offset 14, -4
 118              	.LBB16:
 119              	.LBB17:
 120              		.loc 1 96 0
 121 0004 174E     		ldr	r6, .L7
 122              	.LBE17:
 123              	.LBE16:
 124              		.loc 1 164 0
 125 0006 A1F1240A 		sub	r10, r1, #36
 126 000a 00EB0A07 		add	r7, r0, r10
 127              	.LBB21:
 128              	.LBB18:
 129              		.loc 1 96 0
 130 000e 7169     		ldr	r1, [r6, #20]
 131              	.LVL2:
 132              	.LBE18:
 133              	.LBE21:
 134              		.loc 1 164 0
 135 0010 DFF85490 		ldr	r9, .L7+4
 136 0014 C760     		str	r7, [r0, #12]
 137 0016 40F80A30 		str	r3, [r0, r10]
 138 001a 089B     		ldr	r3, [sp, #32]
 139              	.LVL3:
 140              	.LBB22:
 141              	.LBB19:
 142              		.loc 1 80 0
 143 001c 0025     		movs	r5, #0
 144              		.loc 1 102 0
 145 001e 00F12C0A 		add	r10, r0, #44
 146              	.LVL4:
 147              		.loc 1 79 0
 148 0022 4FF00208 		mov	r8, #2
 149              		.loc 1 92 0
 150 0026 4FF0010C 		mov	ip, #1
 151              		.loc 1 99 0
 152 002a 00F1280E 		add	lr, r0, #40
 153              	.LBE19:
 154              	.LBE22:
 155              		.loc 1 164 0
 156 002e 7B60     		str	r3, [r7, #4]
 157 0030 C7F82090 		str	r9, [r7, #32]
 158              	.LVL5:
 159              	.LBB23:
 160              	.LBB20:
 161              		.loc 1 78 0
 162 0034 8260     		str	r2, [r0, #8]
 163              		.loc 1 96 0
 164 0036 0661     		str	r6, [r0, #16]
 165 0038 4161     		str	r1, [r0, #20]
 166              		.loc 1 82 0
 167 003a 0264     		str	r2, [r0, #64]
 168              		.loc 1 79 0
 169 003c 80F81C80 		strb	r8, [r0, #28]
 170              	.LVL6:
 171              		.loc 1 92 0
ARM GAS  /tmp/ccN02bcZ.s 			page 4


 172 0040 80F81EC0 		strb	ip, [r0, #30]
 173              		.loc 1 80 0
 174 0044 4577     		strb	r5, [r0, #29]
 175              		.loc 1 96 0
 176 0046 7061     		str	r0, [r6, #20]
 177              		.loc 1 83 0
 178 0048 C563     		str	r5, [r0, #60]
 179              		.loc 1 86 0
 180 004a 8563     		str	r5, [r0, #56]
 181              		.loc 1 89 0
 182 004c 0562     		str	r5, [r0, #32]
 183              		.loc 1 95 0
 184 004e 8561     		str	r5, [r0, #24]
 185              		.loc 1 96 0
 186 0050 0861     		str	r0, [r1, #16]
 187              		.loc 1 99 0
 188 0052 C0F828E0 		str	lr, [r0, #40]
 189              		.loc 1 102 0
 190 0056 C0F830A0 		str	r10, [r0, #48]
 191 005a C0F82CA0 		str	r10, [r0, #44]
 192              	.LBE20:
 193              	.LBE23:
 194              		.loc 1 166 0
 195 005e BDE8F087 		pop	{r4, r5, r6, r7, r8, r9, r10, pc}
 196              	.LVL7:
 197              	.L8:
 198 0062 00BF     		.align	2
 199              	.L7:
 200 0064 00000000 		.word	rlist
 201 0068 00000000 		.word	_port_thread_start
 202              		.cfi_endproc
 203              	.LFE8:
 204              		.size	chThdCreateI, .-chThdCreateI
 205              		.section	.text.chThdCreateStatic,"ax",%progbits
 206              		.align	2
 207              		.p2align 4,,15
 208              		.global	chThdCreateStatic
 209              		.thumb
 210              		.thumb_func
 211              		.type	chThdCreateStatic, %function
 212              	chThdCreateStatic:
 213              	.LFB9:
 214              		.loc 1 185 0
 215              		.cfi_startproc
 216              		@ args = 4, pretend = 0, frame = 0
 217              		@ frame_needed = 0, uses_anonymous_args = 0
 218              	.LVL8:
 219 0000 2DE9F84F 		push	{r3, r4, r5, r6, r7, r8, r9, r10, fp, lr}
 220              		.cfi_def_cfa_offset 40
 221              		.cfi_offset 3, -40
 222              		.cfi_offset 4, -36
 223              		.cfi_offset 5, -32
 224              		.cfi_offset 6, -28
 225              		.cfi_offset 7, -24
 226              		.cfi_offset 8, -20
 227              		.cfi_offset 9, -16
 228              		.cfi_offset 10, -12
ARM GAS  /tmp/ccN02bcZ.s 			page 5


 229              		.cfi_offset 11, -8
 230              		.cfi_offset 14, -4
 231              		.loc 1 185 0
 232 0004 1E46     		mov	r6, r3
 233 0006 9646     		mov	lr, r2
 234 0008 0446     		mov	r4, r0
 235              	.LBB24:
 236              		.loc 1 196 0
 237 000a 2023     		movs	r3, #32
 238              	.LVL9:
 239              	@ 196 "ChibiOS//os/kernel/src/chthreads.c" 1
 240 000c 83F31188 		msr     BASEPRI, r3
 241              	@ 0 "" 2
 242              	.LVL10:
 243              		.thumb
 244              	.LBE24:
 245              	.LBB25:
 246              	.LBB26:
 247              	.LBB27:
 248              	.LBB28:
 249              		.loc 1 96 0
 250 0010 194B     		ldr	r3, .L11
 251              	.LBE28:
 252              	.LBE27:
 253              		.loc 1 164 0
 254 0012 2439     		subs	r1, r1, #36
 255              	.LVL11:
 256 0014 4718     		adds	r7, r0, r1
 257              	.LBB32:
 258              	.LBB29:
 259              		.loc 1 96 0
 260 0016 5A69     		ldr	r2, [r3, #20]
 261              	.LVL12:
 262              	.LBE29:
 263              	.LBE32:
 264              		.loc 1 164 0
 265 0018 DFF860B0 		ldr	fp, .L11+4
 266 001c C760     		str	r7, [r0, #12]
 267 001e 4650     		str	r6, [r0, r1]
 268 0020 0A99     		ldr	r1, [sp, #40]
 269              	.LVL13:
 270              	.LBB33:
 271              	.LBB30:
 272              		.loc 1 80 0
 273 0022 0025     		movs	r5, #0
 274              		.loc 1 102 0
 275 0024 00F12C06 		add	r6, r0, #44
 276              	.LVL14:
 277              		.loc 1 99 0
 278 0028 00F12808 		add	r8, r0, #40
 279              		.loc 1 79 0
 280 002c 4FF0020A 		mov	r10, #2
 281              		.loc 1 92 0
 282 0030 4FF00109 		mov	r9, #1
 283              	.LBE30:
 284              	.LBE33:
 285              		.loc 1 164 0
ARM GAS  /tmp/ccN02bcZ.s 			page 6


 286 0034 7960     		str	r1, [r7, #4]
 287 0036 C7F820B0 		str	fp, [r7, #32]
 288              	.LVL15:
 289              	.LBE26:
 290              	.LBE25:
 291              		.loc 1 197 0
 292 003a 2946     		mov	r1, r5
 293              	.LBB36:
 294              	.LBB35:
 295              	.LBB34:
 296              	.LBB31:
 297              		.loc 1 96 0
 298 003c 0361     		str	r3, [r0, #16]
 299              		.loc 1 78 0
 300 003e C0F808E0 		str	lr, [r0, #8]
 301              		.loc 1 96 0
 302 0042 4261     		str	r2, [r0, #20]
 303              		.loc 1 82 0
 304 0044 C0F840E0 		str	lr, [r0, #64]
 305              		.loc 1 96 0
 306 0048 5861     		str	r0, [r3, #20]
 307              		.loc 1 79 0
 308 004a 80F81CA0 		strb	r10, [r0, #28]
 309              	.LVL16:
 310              		.loc 1 92 0
 311 004e 80F81E90 		strb	r9, [r0, #30]
 312              		.loc 1 80 0
 313 0052 4577     		strb	r5, [r0, #29]
 314              		.loc 1 83 0
 315 0054 C563     		str	r5, [r0, #60]
 316              		.loc 1 86 0
 317 0056 8563     		str	r5, [r0, #56]
 318              		.loc 1 89 0
 319 0058 0562     		str	r5, [r0, #32]
 320              		.loc 1 95 0
 321 005a 8561     		str	r5, [r0, #24]
 322              		.loc 1 96 0
 323 005c 1061     		str	r0, [r2, #16]
 324              		.loc 1 99 0
 325 005e C0F82880 		str	r8, [r0, #40]
 326              		.loc 1 102 0
 327 0062 0663     		str	r6, [r0, #48]
 328 0064 C662     		str	r6, [r0, #44]
 329              	.LBE31:
 330              	.LBE34:
 331              	.LBE35:
 332              	.LBE36:
 333              		.loc 1 197 0
 334 0066 FFF7FEFF 		bl	chSchWakeupS
 335              	.LVL17:
 336              	.LBB37:
 337              		.loc 1 198 0
 338 006a 2B46     		mov	r3, r5
 339              	@ 198 "ChibiOS//os/kernel/src/chthreads.c" 1
 340 006c 83F31188 		msr     BASEPRI, r3
 341              	@ 0 "" 2
 342              		.thumb
ARM GAS  /tmp/ccN02bcZ.s 			page 7


 343              	.LBE37:
 344              		.loc 1 200 0
 345 0070 2046     		mov	r0, r4
 346 0072 BDE8F88F 		pop	{r3, r4, r5, r6, r7, r8, r9, r10, fp, pc}
 347              	.LVL18:
 348              	.L12:
 349 0076 00BF     		.align	2
 350              	.L11:
 351 0078 00000000 		.word	rlist
 352 007c 00000000 		.word	_port_thread_start
 353              		.cfi_endproc
 354              	.LFE9:
 355              		.size	chThdCreateStatic, .-chThdCreateStatic
 356              		.section	.text.chThdSetPriority,"ax",%progbits
 357              		.align	2
 358              		.p2align 4,,15
 359              		.global	chThdSetPriority
 360              		.thumb
 361              		.thumb_func
 362              		.type	chThdSetPriority, %function
 363              	chThdSetPriority:
 364              	.LFB10:
 365              		.loc 1 214 0
 366              		.cfi_startproc
 367              		@ args = 0, pretend = 0, frame = 0
 368              		@ frame_needed = 0, uses_anonymous_args = 0
 369              	.LVL19:
 370 0000 10B5     		push	{r4, lr}
 371              		.cfi_def_cfa_offset 8
 372              		.cfi_offset 4, -8
 373              		.cfi_offset 14, -4
 374              	.LBB38:
 375              		.loc 1 219 0
 376 0002 2023     		movs	r3, #32
 377              	@ 219 "ChibiOS//os/kernel/src/chthreads.c" 1
 378 0004 83F31188 		msr     BASEPRI, r3
 379              	@ 0 "" 2
 380              		.thumb
 381              	.LBE38:
 382              		.loc 1 221 0
 383 0008 084B     		ldr	r3, .L18
 384 000a DB69     		ldr	r3, [r3, #28]
 385 000c 1C6C     		ldr	r4, [r3, #64]
 386              	.LVL20:
 387              		.loc 1 222 0
 388 000e 9968     		ldr	r1, [r3, #8]
 389 0010 8C42     		cmp	r4, r1
 390 0012 01D0     		beq	.L14
 391              		.loc 1 222 0 is_stmt 0 discriminator 1
 392 0014 8142     		cmp	r1, r0
 393 0016 00D2     		bcs	.L15
 394              	.L14:
 395              		.loc 1 223 0 is_stmt 1
 396 0018 9860     		str	r0, [r3, #8]
 397              	.L15:
 398              		.loc 1 224 0
 399 001a 1864     		str	r0, [r3, #64]
ARM GAS  /tmp/ccN02bcZ.s 			page 8


 400              		.loc 1 229 0
 401 001c FFF7FEFF 		bl	chSchRescheduleS
 402              	.LVL21:
 403              	.LBB39:
 404              		.loc 1 230 0
 405 0020 0023     		movs	r3, #0
 406              	@ 230 "ChibiOS//os/kernel/src/chthreads.c" 1
 407 0022 83F31188 		msr     BASEPRI, r3
 408              	@ 0 "" 2
 409              		.thumb
 410              	.LBE39:
 411              		.loc 1 232 0
 412 0026 2046     		mov	r0, r4
 413 0028 10BD     		pop	{r4, pc}
 414              	.LVL22:
 415              	.L19:
 416 002a 00BF     		.align	2
 417              	.L18:
 418 002c 00000000 		.word	rlist
 419              		.cfi_endproc
 420              	.LFE10:
 421              		.size	chThdSetPriority, .-chThdSetPriority
 422              		.section	.text.chThdResume,"ax",%progbits
 423              		.align	2
 424              		.p2align 4,,15
 425              		.global	chThdResume
 426              		.thumb
 427              		.thumb_func
 428              		.type	chThdResume, %function
 429              	chThdResume:
 430              	.LFB11:
 431              		.loc 1 247 0
 432              		.cfi_startproc
 433              		@ args = 0, pretend = 0, frame = 0
 434              		@ frame_needed = 0, uses_anonymous_args = 0
 435              	.LVL23:
 436 0000 10B5     		push	{r4, lr}
 437              		.cfi_def_cfa_offset 8
 438              		.cfi_offset 4, -8
 439              		.cfi_offset 14, -4
 440              	.LBB40:
 441              		.loc 1 249 0
 442 0002 2023     		movs	r3, #32
 443              	.LBE40:
 444              		.loc 1 247 0
 445 0004 0446     		mov	r4, r0
 446              	.LBB41:
 447              		.loc 1 249 0
 448              	@ 249 "ChibiOS//os/kernel/src/chthreads.c" 1
 449 0006 83F31188 		msr     BASEPRI, r3
 450              	@ 0 "" 2
 451              		.thumb
 452              	.LBE41:
 453              		.loc 1 253 0
 454 000a 0021     		movs	r1, #0
 455 000c FFF7FEFF 		bl	chSchWakeupS
 456              	.LVL24:
ARM GAS  /tmp/ccN02bcZ.s 			page 9


 457              	.LBB42:
 458              		.loc 1 254 0
 459 0010 0023     		movs	r3, #0
 460              	@ 254 "ChibiOS//os/kernel/src/chthreads.c" 1
 461 0012 83F31188 		msr     BASEPRI, r3
 462              	@ 0 "" 2
 463              		.thumb
 464              	.LBE42:
 465              		.loc 1 256 0
 466 0016 2046     		mov	r0, r4
 467 0018 10BD     		pop	{r4, pc}
 468              		.cfi_endproc
 469              	.LFE11:
 470              		.size	chThdResume, .-chThdResume
 471 001a 00BF     		.section	.text.chThdTerminate,"ax",%progbits
 472              		.align	2
 473              		.p2align 4,,15
 474              		.global	chThdTerminate
 475              		.thumb
 476              		.thumb_func
 477              		.type	chThdTerminate, %function
 478              	chThdTerminate:
 479              	.LFB12:
 480              		.loc 1 270 0
 481              		.cfi_startproc
 482              		@ args = 0, pretend = 0, frame = 0
 483              		@ frame_needed = 0, uses_anonymous_args = 0
 484              		@ link register save eliminated.
 485              	.LVL25:
 486              	.LBB43:
 487              		.loc 1 272 0
 488 0000 2023     		movs	r3, #32
 489              	@ 272 "ChibiOS//os/kernel/src/chthreads.c" 1
 490 0002 83F31188 		msr     BASEPRI, r3
 491              	@ 0 "" 2
 492              		.thumb
 493              	.LBE43:
 494              		.loc 1 273 0
 495 0006 427F     		ldrb	r2, [r0, #29]	@ zero_extendqisi2
 496              	.LBB44:
 497              		.loc 1 274 0
 498 0008 0023     		movs	r3, #0
 499              	.LBE44:
 500              		.loc 1 273 0
 501 000a 42F00402 		orr	r2, r2, #4
 502 000e 4277     		strb	r2, [r0, #29]
 503              	.LBB45:
 504              		.loc 1 274 0
 505              	@ 274 "ChibiOS//os/kernel/src/chthreads.c" 1
 506 0010 83F31188 		msr     BASEPRI, r3
 507              	@ 0 "" 2
 508              		.thumb
 509 0014 7047     		bx	lr
 510              	.LBE45:
 511              		.cfi_endproc
 512              	.LFE12:
 513              		.size	chThdTerminate, .-chThdTerminate
ARM GAS  /tmp/ccN02bcZ.s 			page 10


 514 0016 00BF     		.section	.text.chThdSleep,"ax",%progbits
 515              		.align	2
 516              		.p2align 4,,15
 517              		.global	chThdSleep
 518              		.thumb
 519              		.thumb_func
 520              		.type	chThdSleep, %function
 521              	chThdSleep:
 522              	.LFB13:
 523              		.loc 1 289 0
 524              		.cfi_startproc
 525              		@ args = 0, pretend = 0, frame = 0
 526              		@ frame_needed = 0, uses_anonymous_args = 0
 527              	.LVL26:
 528 0000 08B5     		push	{r3, lr}
 529              		.cfi_def_cfa_offset 8
 530              		.cfi_offset 3, -8
 531              		.cfi_offset 14, -4
 532              		.loc 1 289 0
 533 0002 0146     		mov	r1, r0
 534              	.LBB46:
 535              		.loc 1 293 0
 536 0004 2023     		movs	r3, #32
 537              	@ 293 "ChibiOS//os/kernel/src/chthreads.c" 1
 538 0006 83F31188 		msr     BASEPRI, r3
 539              	@ 0 "" 2
 540              		.thumb
 541              	.LBE46:
 542              		.loc 1 294 0
 543 000a 0620     		movs	r0, #6
 544              	.LVL27:
 545 000c FFF7FEFF 		bl	chSchGoSleepTimeoutS
 546              	.LVL28:
 547              	.LBB47:
 548              		.loc 1 295 0
 549 0010 0023     		movs	r3, #0
 550              	@ 295 "ChibiOS//os/kernel/src/chthreads.c" 1
 551 0012 83F31188 		msr     BASEPRI, r3
 552              	@ 0 "" 2
 553              		.thumb
 554 0016 08BD     		pop	{r3, pc}
 555              	.LBE47:
 556              		.cfi_endproc
 557              	.LFE13:
 558              		.size	chThdSleep, .-chThdSleep
 559              		.section	.text.chThdSleepUntil,"ax",%progbits
 560              		.align	2
 561              		.p2align 4,,15
 562              		.global	chThdSleepUntil
 563              		.thumb
 564              		.thumb_func
 565              		.type	chThdSleepUntil, %function
 566              	chThdSleepUntil:
 567              	.LFB14:
 568              		.loc 1 306 0
 569              		.cfi_startproc
 570              		@ args = 0, pretend = 0, frame = 0
ARM GAS  /tmp/ccN02bcZ.s 			page 11


 571              		@ frame_needed = 0, uses_anonymous_args = 0
 572              	.LVL29:
 573 0000 08B5     		push	{r3, lr}
 574              		.cfi_def_cfa_offset 8
 575              		.cfi_offset 3, -8
 576              		.cfi_offset 14, -4
 577              	.LBB48:
 578              		.loc 1 308 0
 579 0002 2023     		movs	r3, #32
 580              	@ 308 "ChibiOS//os/kernel/src/chthreads.c" 1
 581 0004 83F31188 		msr     BASEPRI, r3
 582              	@ 0 "" 2
 583              		.thumb
 584              	.LBE48:
 585              		.loc 1 309 0
 586 0008 054B     		ldr	r3, .L31
 587 000a D968     		ldr	r1, [r3, #12]
 588              	.LVL30:
 589 000c 411A     		subs	r1, r0, r1
 590              	.LVL31:
 591 000e 02D0     		beq	.L26
 592              		.loc 1 310 0
 593 0010 0620     		movs	r0, #6
 594 0012 FFF7FEFF 		bl	chSchGoSleepTimeoutS
 595              	.LVL32:
 596              	.L26:
 597              	.LBB49:
 598              		.loc 1 311 0
 599 0016 0023     		movs	r3, #0
 600              	@ 311 "ChibiOS//os/kernel/src/chthreads.c" 1
 601 0018 83F31188 		msr     BASEPRI, r3
 602              	@ 0 "" 2
 603              		.thumb
 604 001c 08BD     		pop	{r3, pc}
 605              	.L32:
 606 001e 00BF     		.align	2
 607              	.L31:
 608 0020 00000000 		.word	vtlist
 609              	.LBE49:
 610              		.cfi_endproc
 611              	.LFE14:
 612              		.size	chThdSleepUntil, .-chThdSleepUntil
 613              		.section	.text.chThdYield,"ax",%progbits
 614              		.align	2
 615              		.p2align 4,,15
 616              		.global	chThdYield
 617              		.thumb
 618              		.thumb_func
 619              		.type	chThdYield, %function
 620              	chThdYield:
 621              	.LFB15:
 622              		.loc 1 321 0
 623              		.cfi_startproc
 624              		@ args = 0, pretend = 0, frame = 0
 625              		@ frame_needed = 0, uses_anonymous_args = 0
 626 0000 08B5     		push	{r3, lr}
 627              		.cfi_def_cfa_offset 8
ARM GAS  /tmp/ccN02bcZ.s 			page 12


 628              		.cfi_offset 3, -8
 629              		.cfi_offset 14, -4
 630              	.LBB50:
 631              		.loc 1 323 0
 632 0002 2023     		movs	r3, #32
 633              	@ 323 "ChibiOS//os/kernel/src/chthreads.c" 1
 634 0004 83F31188 		msr     BASEPRI, r3
 635              	@ 0 "" 2
 636              		.thumb
 637              	.LBE50:
 638              		.loc 1 324 0
 639 0008 064B     		ldr	r3, .L36
 640 000a 1A68     		ldr	r2, [r3]
 641 000c DB69     		ldr	r3, [r3, #28]
 642 000e 9268     		ldr	r2, [r2, #8]
 643 0010 9B68     		ldr	r3, [r3, #8]
 644 0012 9A42     		cmp	r2, r3
 645 0014 01D3     		bcc	.L34
 646              		.loc 1 324 0 is_stmt 0 discriminator 1
 647 0016 FFF7FEFF 		bl	chSchDoReschedule
 648              	.LVL33:
 649              	.L34:
 650              	.LBB51:
 651              		.loc 1 325 0 is_stmt 1
 652 001a 0023     		movs	r3, #0
 653              	@ 325 "ChibiOS//os/kernel/src/chthreads.c" 1
 654 001c 83F31188 		msr     BASEPRI, r3
 655              	@ 0 "" 2
 656              		.thumb
 657 0020 08BD     		pop	{r3, pc}
 658              	.L37:
 659 0022 00BF     		.align	2
 660              	.L36:
 661 0024 00000000 		.word	rlist
 662              	.LBE51:
 663              		.cfi_endproc
 664              	.LFE15:
 665              		.size	chThdYield, .-chThdYield
 666              		.section	.text.chThdExitS,"ax",%progbits
 667              		.align	2
 668              		.p2align 4,,15
 669              		.global	chThdExitS
 670              		.thumb
 671              		.thumb_func
 672              		.type	chThdExitS, %function
 673              	chThdExitS:
 674              	.LFB17:
 675              		.loc 1 363 0
 676              		.cfi_startproc
 677              		@ args = 0, pretend = 0, frame = 0
 678              		@ frame_needed = 0, uses_anonymous_args = 0
 679              	.LVL34:
 680 0000 38B5     		push	{r3, r4, r5, lr}
 681              		.cfi_def_cfa_offset 16
 682              		.cfi_offset 3, -16
 683              		.cfi_offset 4, -12
 684              		.cfi_offset 5, -8
ARM GAS  /tmp/ccN02bcZ.s 			page 13


 685              		.cfi_offset 14, -4
 686              		.loc 1 364 0
 687 0002 0E4B     		ldr	r3, .L46
 688 0004 DC69     		ldr	r4, [r3, #28]
 689              	.LVL35:
 690              		.loc 1 371 0
 691 0006 2546     		mov	r5, r4
 692 0008 55F8283F 		ldr	r3, [r5, #40]!
 693              		.loc 1 366 0
 694 000c 6062     		str	r0, [r4, #36]
 695              		.loc 1 371 0
 696 000e AB42     		cmp	r3, r5
 697 0010 07D0     		beq	.L43
 698              	.LVL36:
 699              	.L42:
 700              	.LBB52:
 701              	.LBB53:
 702              		.file 2 "ChibiOS//os/kernel/include/chinline.h"
 703              		.loc 2 89 0
 704 0012 1A68     		ldr	r2, [r3]
 705              	.LBE53:
 706              	.LBE52:
 707              		.loc 1 372 0
 708 0014 1846     		mov	r0, r3
 709              	.LBB55:
 710              	.LBB54:
 711              		.loc 2 89 0
 712 0016 A262     		str	r2, [r4, #40]
 713              	.LBE54:
 714              	.LBE55:
 715              		.loc 1 372 0
 716 0018 FFF7FEFF 		bl	chSchReadyI
 717              	.LVL37:
 718              		.loc 1 371 0
 719 001c A36A     		ldr	r3, [r4, #40]
 720 001e AB42     		cmp	r3, r5
 721 0020 F7D1     		bne	.L42
 722              	.LVL38:
 723              	.L43:
 724              		.loc 1 377 0
 725 0022 637F     		ldrb	r3, [r4, #29]	@ zero_extendqisi2
 726 0024 9B07     		lsls	r3, r3, #30
 727 0026 04D1     		bne	.L41
 728              		.loc 1 378 0
 729 0028 2269     		ldr	r2, [r4, #16]
 730 002a 6369     		ldr	r3, [r4, #20]
 731 002c 1A61     		str	r2, [r3, #16]
 732 002e 2269     		ldr	r2, [r4, #16]
 733 0030 5361     		str	r3, [r2, #20]
 734              	.L41:
 735              		.loc 1 380 0
 736 0032 0E20     		movs	r0, #14
 737              		.loc 1 383 0
 738 0034 BDE83840 		pop	{r3, r4, r5, lr}
 739              		.cfi_restore 14
 740              		.cfi_restore 5
 741              		.cfi_restore 4
ARM GAS  /tmp/ccN02bcZ.s 			page 14


 742              		.cfi_restore 3
 743              		.cfi_def_cfa_offset 0
 744              	.LVL39:
 745              		.loc 1 380 0
 746 0038 FFF7FEBF 		b	chSchGoSleepS
 747              	.LVL40:
 748              	.L47:
 749              		.align	2
 750              	.L46:
 751 003c 00000000 		.word	rlist
 752              		.cfi_endproc
 753              	.LFE17:
 754              		.size	chThdExitS, .-chThdExitS
 755              		.section	.text.chThdExit,"ax",%progbits
 756              		.align	2
 757              		.p2align 4,,15
 758              		.global	chThdExit
 759              		.thumb
 760              		.thumb_func
 761              		.type	chThdExit, %function
 762              	chThdExit:
 763              	.LFB16:
 764              		.loc 1 342 0
 765              		.cfi_startproc
 766              		@ args = 0, pretend = 0, frame = 0
 767              		@ frame_needed = 0, uses_anonymous_args = 0
 768              		@ link register save eliminated.
 769              	.LVL41:
 770              	.LBB56:
 771              		.loc 1 344 0
 772 0000 2023     		movs	r3, #32
 773              	@ 344 "ChibiOS//os/kernel/src/chthreads.c" 1
 774 0002 83F31188 		msr     BASEPRI, r3
 775              	@ 0 "" 2
 776              		.thumb
 777              	.LBE56:
 778              		.loc 1 345 0
 779 0006 FFF7FEBF 		b	chThdExitS
 780              	.LVL42:
 781              		.cfi_endproc
 782              	.LFE16:
 783              		.size	chThdExit, .-chThdExit
 784 000a 00BF     		.section	.text.chThdWait,"ax",%progbits
 785              		.align	2
 786              		.p2align 4,,15
 787              		.global	chThdWait
 788              		.thumb
 789              		.thumb_func
 790              		.type	chThdWait, %function
 791              	chThdWait:
 792              	.LFB18:
 793              		.loc 1 417 0
 794              		.cfi_startproc
 795              		@ args = 0, pretend = 0, frame = 0
 796              		@ frame_needed = 0, uses_anonymous_args = 0
 797              	.LVL43:
 798 0000 38B5     		push	{r3, r4, r5, lr}
ARM GAS  /tmp/ccN02bcZ.s 			page 15


 799              		.cfi_def_cfa_offset 16
 800              		.cfi_offset 3, -16
 801              		.cfi_offset 4, -12
 802              		.cfi_offset 5, -8
 803              		.cfi_offset 14, -4
 804              		.loc 1 417 0
 805 0002 0446     		mov	r4, r0
 806              	.LBB57:
 807              		.loc 1 422 0
 808 0004 2023     		movs	r3, #32
 809              	@ 422 "ChibiOS//os/kernel/src/chthreads.c" 1
 810 0006 83F31188 		msr     BASEPRI, r3
 811              	@ 0 "" 2
 812              		.thumb
 813              	.LBE57:
 814              		.loc 1 427 0
 815 000a 037F     		ldrb	r3, [r0, #28]	@ zero_extendqisi2
 816 000c 0E2B     		cmp	r3, #14
 817 000e 07D0     		beq	.L50
 818              		.loc 1 428 0
 819 0010 084B     		ldr	r3, .L55
 820              	.LBB58:
 821              	.LBB59:
 822              		.loc 2 82 0
 823 0012 826A     		ldr	r2, [r0, #40]
 824              	.LBE59:
 825              	.LBE58:
 826              		.loc 1 428 0
 827 0014 DB69     		ldr	r3, [r3, #28]
 828              	.LVL44:
 829              		.loc 1 429 0
 830 0016 0720     		movs	r0, #7
 831              	.LVL45:
 832              	.LBB61:
 833              	.LBB60:
 834              		.loc 2 82 0
 835 0018 1A60     		str	r2, [r3]
 836              		.loc 2 83 0
 837 001a A362     		str	r3, [r4, #40]
 838              	.LBE60:
 839              	.LBE61:
 840              		.loc 1 429 0
 841 001c FFF7FEFF 		bl	chSchGoSleepS
 842              	.LVL46:
 843              	.L50:
 844              		.loc 1 431 0
 845 0020 656A     		ldr	r5, [r4, #36]
 846              	.LVL47:
 847              	.LBB62:
 848              		.loc 1 432 0
 849 0022 0023     		movs	r3, #0
 850              	@ 432 "ChibiOS//os/kernel/src/chthreads.c" 1
 851 0024 83F31188 		msr     BASEPRI, r3
 852              	@ 0 "" 2
 853              		.thumb
 854              	.LBE62:
 855              		.loc 1 434 0
ARM GAS  /tmp/ccN02bcZ.s 			page 16


 856 0028 2046     		mov	r0, r4
 857 002a FFF7FEFF 		bl	chThdRelease
 858              	.LVL48:
 859              		.loc 1 437 0
 860 002e 2846     		mov	r0, r5
 861 0030 38BD     		pop	{r3, r4, r5, pc}
 862              	.LVL49:
 863              	.L56:
 864 0032 00BF     		.align	2
 865              	.L55:
 866 0034 00000000 		.word	rlist
 867              		.cfi_endproc
 868              	.LFE18:
 869              		.size	chThdWait, .-chThdWait
 870              		.text
 871              	.Letext0:
 872              		.file 3 "/usr/lib/gcc/arm-none-eabi/4.9.3/include/stddef.h"
 873              		.file 4 "/usr/include/newlib/machine/_default_types.h"
 874              		.file 5 "/usr/include/newlib/sys/_stdint.h"
 875              		.file 6 "ChibiOS//os/ports/GCC/ARMCMx/chtypes.h"
 876              		.file 7 "ChibiOS//os/kernel/include/chlists.h"
 877              		.file 8 "ChibiOS//os/kernel/include/chthreads.h"
 878              		.file 9 "ChibiOS//os/ports/GCC/ARMCMx/chcore_v7m.h"
 879              		.file 10 "ChibiOS//os/kernel/include/chvt.h"
 880              		.file 11 "ChibiOS//os/kernel/include/chschd.h"
 881              		.file 12 "ChibiOS//os/kernel/include/chmtx.h"
 882              		.file 13 "ChibiOS//os/kernel/include/chdynamic.h"
 883              		.section	.debug_info,"",%progbits
 884              	.Ldebug_info0:
 885 0000 DD0B0000 		.4byte	0xbdd
 886 0004 0400     		.2byte	0x4
 887 0006 00000000 		.4byte	.Ldebug_abbrev0
 888 000a 04       		.byte	0x4
 889 000b 01       		.uleb128 0x1
 890 000c FC010000 		.4byte	.LASF101
 891 0010 01       		.byte	0x1
 892 0011 4E030000 		.4byte	.LASF102
 893 0015 23010000 		.4byte	.LASF103
 894 0019 C8000000 		.4byte	.Ldebug_ranges0+0xc8
 895 001d 00000000 		.4byte	0
 896 0021 00000000 		.4byte	.Ldebug_line0
 897 0025 02       		.uleb128 0x2
 898 0026 04       		.byte	0x4
 899 0027 05       		.byte	0x5
 900 0028 696E7400 		.ascii	"int\000"
 901 002c 03       		.uleb128 0x3
 902 002d 16000000 		.4byte	.LASF2
 903 0031 03       		.byte	0x3
 904 0032 D4       		.byte	0xd4
 905 0033 37000000 		.4byte	0x37
 906 0037 04       		.uleb128 0x4
 907 0038 04       		.byte	0x4
 908 0039 07       		.byte	0x7
 909 003a 4C010000 		.4byte	.LASF0
 910 003e 04       		.uleb128 0x4
 911 003f 01       		.byte	0x1
 912 0040 06       		.byte	0x6
ARM GAS  /tmp/ccN02bcZ.s 			page 17


 913 0041 7A000000 		.4byte	.LASF1
 914 0045 03       		.uleb128 0x3
 915 0046 29000000 		.4byte	.LASF3
 916 004a 04       		.byte	0x4
 917 004b 1D       		.byte	0x1d
 918 004c 50000000 		.4byte	0x50
 919 0050 04       		.uleb128 0x4
 920 0051 01       		.byte	0x1
 921 0052 08       		.byte	0x8
 922 0053 79030000 		.4byte	.LASF4
 923 0057 04       		.uleb128 0x4
 924 0058 02       		.byte	0x2
 925 0059 05       		.byte	0x5
 926 005a 91030000 		.4byte	.LASF5
 927 005e 04       		.uleb128 0x4
 928 005f 02       		.byte	0x2
 929 0060 07       		.byte	0x7
 930 0061 89010000 		.4byte	.LASF6
 931 0065 03       		.uleb128 0x3
 932 0066 45040000 		.4byte	.LASF7
 933 006a 04       		.byte	0x4
 934 006b 3F       		.byte	0x3f
 935 006c 70000000 		.4byte	0x70
 936 0070 04       		.uleb128 0x4
 937 0071 04       		.byte	0x4
 938 0072 05       		.byte	0x5
 939 0073 AD000000 		.4byte	.LASF8
 940 0077 03       		.uleb128 0x3
 941 0078 E4000000 		.4byte	.LASF9
 942 007c 04       		.byte	0x4
 943 007d 41       		.byte	0x41
 944 007e 82000000 		.4byte	0x82
 945 0082 04       		.uleb128 0x4
 946 0083 04       		.byte	0x4
 947 0084 07       		.byte	0x7
 948 0085 61010000 		.4byte	.LASF10
 949 0089 04       		.uleb128 0x4
 950 008a 08       		.byte	0x8
 951 008b 05       		.byte	0x5
 952 008c 6C000000 		.4byte	.LASF11
 953 0090 04       		.uleb128 0x4
 954 0091 08       		.byte	0x8
 955 0092 07       		.byte	0x7
 956 0093 45000000 		.4byte	.LASF12
 957 0097 03       		.uleb128 0x3
 958 0098 9B040000 		.4byte	.LASF13
 959 009c 05       		.byte	0x5
 960 009d 14       		.byte	0x14
 961 009e 45000000 		.4byte	0x45
 962 00a2 03       		.uleb128 0x3
 963 00a3 71030000 		.4byte	.LASF14
 964 00a7 05       		.byte	0x5
 965 00a8 1F       		.byte	0x1f
 966 00a9 65000000 		.4byte	0x65
 967 00ad 03       		.uleb128 0x3
 968 00ae ED030000 		.4byte	.LASF15
 969 00b2 05       		.byte	0x5
ARM GAS  /tmp/ccN02bcZ.s 			page 18


 970 00b3 20       		.byte	0x20
 971 00b4 77000000 		.4byte	0x77
 972 00b8 03       		.uleb128 0x3
 973 00b9 BF010000 		.4byte	.LASF16
 974 00bd 06       		.byte	0x6
 975 00be 2F       		.byte	0x2f
 976 00bf 97000000 		.4byte	0x97
 977 00c3 03       		.uleb128 0x3
 978 00c4 B6000000 		.4byte	.LASF17
 979 00c8 06       		.byte	0x6
 980 00c9 30       		.byte	0x30
 981 00ca 97000000 		.4byte	0x97
 982 00ce 03       		.uleb128 0x3
 983 00cf 3F030000 		.4byte	.LASF18
 984 00d3 06       		.byte	0x6
 985 00d4 31       		.byte	0x31
 986 00d5 97000000 		.4byte	0x97
 987 00d9 03       		.uleb128 0x3
 988 00da 00000000 		.4byte	.LASF19
 989 00de 06       		.byte	0x6
 990 00df 32       		.byte	0x32
 991 00e0 AD000000 		.4byte	0xad
 992 00e4 03       		.uleb128 0x3
 993 00e5 A9010000 		.4byte	.LASF20
 994 00e9 06       		.byte	0x6
 995 00ea 33       		.byte	0x33
 996 00eb A2000000 		.4byte	0xa2
 997 00ef 03       		.uleb128 0x3
 998 00f0 E2010000 		.4byte	.LASF21
 999 00f4 06       		.byte	0x6
 1000 00f5 35       		.byte	0x35
 1001 00f6 AD000000 		.4byte	0xad
 1002 00fa 03       		.uleb128 0x3
 1003 00fb 30040000 		.4byte	.LASF22
 1004 00ff 06       		.byte	0x6
 1005 0100 36       		.byte	0x36
 1006 0101 AD000000 		.4byte	0xad
 1007 0105 03       		.uleb128 0x3
 1008 0106 46010000 		.4byte	.LASF23
 1009 010a 06       		.byte	0x6
 1010 010b 37       		.byte	0x37
 1011 010c A2000000 		.4byte	0xa2
 1012 0110 03       		.uleb128 0x3
 1013 0111 CD030000 		.4byte	.LASF24
 1014 0115 07       		.byte	0x7
 1015 0116 2A       		.byte	0x2a
 1016 0117 1B010000 		.4byte	0x11b
 1017 011b 05       		.uleb128 0x5
 1018 011c CD030000 		.4byte	.LASF24
 1019 0120 48       		.byte	0x48
 1020 0121 08       		.byte	0x8
 1021 0122 5E       		.byte	0x5e
 1022 0123 0C020000 		.4byte	0x20c
 1023 0127 06       		.uleb128 0x6
 1024 0128 B1030000 		.4byte	.LASF25
 1025 012c 08       		.byte	0x8
 1026 012d 5F       		.byte	0x5f
ARM GAS  /tmp/ccN02bcZ.s 			page 19


 1027 012e 2D020000 		.4byte	0x22d
 1028 0132 00       		.byte	0
 1029 0133 06       		.uleb128 0x6
 1030 0134 47030000 		.4byte	.LASF26
 1031 0138 08       		.byte	0x8
 1032 0139 61       		.byte	0x61
 1033 013a 2D020000 		.4byte	0x22d
 1034 013e 04       		.byte	0x4
 1035 013f 06       		.uleb128 0x6
 1036 0140 65000000 		.4byte	.LASF27
 1037 0144 08       		.byte	0x8
 1038 0145 63       		.byte	0x63
 1039 0146 D9000000 		.4byte	0xd9
 1040 014a 08       		.byte	0x8
 1041 014b 06       		.uleb128 0x6
 1042 014c F5040000 		.4byte	.LASF28
 1043 0150 08       		.byte	0x8
 1044 0151 64       		.byte	0x64
 1045 0152 E6020000 		.4byte	0x2e6
 1046 0156 0C       		.byte	0xc
 1047 0157 06       		.uleb128 0x6
 1048 0158 BF000000 		.4byte	.LASF29
 1049 015c 08       		.byte	0x8
 1050 015d 66       		.byte	0x66
 1051 015e 2D020000 		.4byte	0x22d
 1052 0162 10       		.byte	0x10
 1053 0163 06       		.uleb128 0x6
 1054 0164 F1020000 		.4byte	.LASF30
 1055 0168 08       		.byte	0x8
 1056 0169 67       		.byte	0x67
 1057 016a 2D020000 		.4byte	0x22d
 1058 016e 14       		.byte	0x14
 1059 016f 06       		.uleb128 0x6
 1060 0170 B5040000 		.4byte	.LASF31
 1061 0174 08       		.byte	0x8
 1062 0175 6E       		.byte	0x6e
 1063 0176 AC040000 		.4byte	0x4ac
 1064 017a 18       		.byte	0x18
 1065 017b 06       		.uleb128 0x6
 1066 017c 9B030000 		.4byte	.LASF32
 1067 0180 08       		.byte	0x8
 1068 0181 79       		.byte	0x79
 1069 0182 C3000000 		.4byte	0xc3
 1070 0186 1C       		.byte	0x1c
 1071 0187 06       		.uleb128 0x6
 1072 0188 B8030000 		.4byte	.LASF33
 1073 018c 08       		.byte	0x8
 1074 018d 7D       		.byte	0x7d
 1075 018e B8000000 		.4byte	0xb8
 1076 0192 1D       		.byte	0x1d
 1077 0193 06       		.uleb128 0x6
 1078 0194 84040000 		.4byte	.LASF34
 1079 0198 08       		.byte	0x8
 1080 0199 82       		.byte	0x82
 1081 019a CE000000 		.4byte	0xce
 1082 019e 1E       		.byte	0x1e
 1083 019f 06       		.uleb128 0x6
ARM GAS  /tmp/ccN02bcZ.s 			page 20


 1084 01a0 4F040000 		.4byte	.LASF35
 1085 01a4 08       		.byte	0x8
 1086 01a5 89       		.byte	0x89
 1087 01a6 BD030000 		.4byte	0x3bd
 1088 01aa 20       		.byte	0x20
 1089 01ab 07       		.uleb128 0x7
 1090 01ac 705F7500 		.ascii	"p_u\000"
 1091 01b0 08       		.byte	0x8
 1092 01b1 AE       		.byte	0xae
 1093 01b2 77040000 		.4byte	0x477
 1094 01b6 24       		.byte	0x24
 1095 01b7 06       		.uleb128 0x6
 1096 01b8 FB040000 		.4byte	.LASF36
 1097 01bc 08       		.byte	0x8
 1098 01bd B3       		.byte	0xb3
 1099 01be 53020000 		.4byte	0x253
 1100 01c2 28       		.byte	0x28
 1101 01c3 06       		.uleb128 0x6
 1102 01c4 5D040000 		.4byte	.LASF37
 1103 01c8 08       		.byte	0x8
 1104 01c9 B9       		.byte	0xb9
 1105 01ca 33020000 		.4byte	0x233
 1106 01ce 2C       		.byte	0x2c
 1107 01cf 06       		.uleb128 0x6
 1108 01d0 10000000 		.4byte	.LASF38
 1109 01d4 08       		.byte	0x8
 1110 01d5 BD       		.byte	0xbd
 1111 01d6 E4000000 		.4byte	0xe4
 1112 01da 34       		.byte	0x34
 1113 01db 06       		.uleb128 0x6
 1114 01dc E2030000 		.4byte	.LASF39
 1115 01e0 08       		.byte	0x8
 1116 01e1 C3       		.byte	0xc3
 1117 01e2 EF000000 		.4byte	0xef
 1118 01e6 38       		.byte	0x38
 1119 01e7 06       		.uleb128 0x6
 1120 01e8 87030000 		.4byte	.LASF40
 1121 01ec 08       		.byte	0x8
 1122 01ed CA       		.byte	0xca
 1123 01ee BE040000 		.4byte	0x4be
 1124 01f2 3C       		.byte	0x3c
 1125 01f3 06       		.uleb128 0x6
 1126 01f4 3A040000 		.4byte	.LASF41
 1127 01f8 08       		.byte	0x8
 1128 01f9 CE       		.byte	0xce
 1129 01fa D9000000 		.4byte	0xd9
 1130 01fe 40       		.byte	0x40
 1131 01ff 06       		.uleb128 0x6
 1132 0200 90000000 		.4byte	.LASF42
 1133 0204 08       		.byte	0x8
 1134 0205 D4       		.byte	0xd4
 1135 0206 69020000 		.4byte	0x269
 1136 020a 44       		.byte	0x44
 1137 020b 00       		.byte	0
 1138 020c 08       		.uleb128 0x8
 1139 020d 08       		.byte	0x8
 1140 020e 07       		.byte	0x7
ARM GAS  /tmp/ccN02bcZ.s 			page 21


 1141 020f 61       		.byte	0x61
 1142 0210 2D020000 		.4byte	0x22d
 1143 0214 06       		.uleb128 0x6
 1144 0215 B1030000 		.4byte	.LASF25
 1145 0219 07       		.byte	0x7
 1146 021a 62       		.byte	0x62
 1147 021b 2D020000 		.4byte	0x22d
 1148 021f 00       		.byte	0
 1149 0220 06       		.uleb128 0x6
 1150 0221 47030000 		.4byte	.LASF26
 1151 0225 07       		.byte	0x7
 1152 0226 64       		.byte	0x64
 1153 0227 2D020000 		.4byte	0x22d
 1154 022b 04       		.byte	0x4
 1155 022c 00       		.byte	0
 1156 022d 09       		.uleb128 0x9
 1157 022e 04       		.byte	0x4
 1158 022f 10010000 		.4byte	0x110
 1159 0233 03       		.uleb128 0x3
 1160 0234 FF020000 		.4byte	.LASF43
 1161 0238 07       		.byte	0x7
 1162 0239 66       		.byte	0x66
 1163 023a 0C020000 		.4byte	0x20c
 1164 023e 08       		.uleb128 0x8
 1165 023f 04       		.byte	0x4
 1166 0240 07       		.byte	0x7
 1167 0241 6B       		.byte	0x6b
 1168 0242 53020000 		.4byte	0x253
 1169 0246 06       		.uleb128 0x6
 1170 0247 B1030000 		.4byte	.LASF25
 1171 024b 07       		.byte	0x7
 1172 024c 6D       		.byte	0x6d
 1173 024d 2D020000 		.4byte	0x22d
 1174 0251 00       		.byte	0
 1175 0252 00       		.byte	0
 1176 0253 03       		.uleb128 0x3
 1177 0254 D6010000 		.4byte	.LASF44
 1178 0258 07       		.byte	0x7
 1179 0259 70       		.byte	0x70
 1180 025a 3E020000 		.4byte	0x23e
 1181 025e 03       		.uleb128 0x3
 1182 025f EF000000 		.4byte	.LASF45
 1183 0263 09       		.byte	0x9
 1184 0264 D7       		.byte	0xd7
 1185 0265 69020000 		.4byte	0x269
 1186 0269 0A       		.uleb128 0xa
 1187 026a 04       		.byte	0x4
 1188 026b 05       		.uleb128 0x5
 1189 026c 56040000 		.4byte	.LASF46
 1190 0270 24       		.byte	0x24
 1191 0271 09       		.byte	0x9
 1192 0272 FE       		.byte	0xfe
 1193 0273 E6020000 		.4byte	0x2e6
 1194 0277 0B       		.uleb128 0xb
 1195 0278 723400   		.ascii	"r4\000"
 1196 027b 09       		.byte	0x9
 1197 027c 1101     		.2byte	0x111
ARM GAS  /tmp/ccN02bcZ.s 			page 22


 1198 027e 5E020000 		.4byte	0x25e
 1199 0282 00       		.byte	0
 1200 0283 0B       		.uleb128 0xb
 1201 0284 723500   		.ascii	"r5\000"
 1202 0287 09       		.byte	0x9
 1203 0288 1201     		.2byte	0x112
 1204 028a 5E020000 		.4byte	0x25e
 1205 028e 04       		.byte	0x4
 1206 028f 0B       		.uleb128 0xb
 1207 0290 723600   		.ascii	"r6\000"
 1208 0293 09       		.byte	0x9
 1209 0294 1301     		.2byte	0x113
 1210 0296 5E020000 		.4byte	0x25e
 1211 029a 08       		.byte	0x8
 1212 029b 0B       		.uleb128 0xb
 1213 029c 723700   		.ascii	"r7\000"
 1214 029f 09       		.byte	0x9
 1215 02a0 1401     		.2byte	0x114
 1216 02a2 5E020000 		.4byte	0x25e
 1217 02a6 0C       		.byte	0xc
 1218 02a7 0B       		.uleb128 0xb
 1219 02a8 723800   		.ascii	"r8\000"
 1220 02ab 09       		.byte	0x9
 1221 02ac 1501     		.2byte	0x115
 1222 02ae 5E020000 		.4byte	0x25e
 1223 02b2 10       		.byte	0x10
 1224 02b3 0B       		.uleb128 0xb
 1225 02b4 723900   		.ascii	"r9\000"
 1226 02b7 09       		.byte	0x9
 1227 02b8 1601     		.2byte	0x116
 1228 02ba 5E020000 		.4byte	0x25e
 1229 02be 14       		.byte	0x14
 1230 02bf 0B       		.uleb128 0xb
 1231 02c0 72313000 		.ascii	"r10\000"
 1232 02c4 09       		.byte	0x9
 1233 02c5 1701     		.2byte	0x117
 1234 02c7 5E020000 		.4byte	0x25e
 1235 02cb 18       		.byte	0x18
 1236 02cc 0B       		.uleb128 0xb
 1237 02cd 72313100 		.ascii	"r11\000"
 1238 02d1 09       		.byte	0x9
 1239 02d2 1801     		.2byte	0x118
 1240 02d4 5E020000 		.4byte	0x25e
 1241 02d8 1C       		.byte	0x1c
 1242 02d9 0B       		.uleb128 0xb
 1243 02da 6C7200   		.ascii	"lr\000"
 1244 02dd 09       		.byte	0x9
 1245 02de 1901     		.2byte	0x119
 1246 02e0 5E020000 		.4byte	0x25e
 1247 02e4 20       		.byte	0x20
 1248 02e5 00       		.byte	0
 1249 02e6 0C       		.uleb128 0xc
 1250 02e7 7C010000 		.4byte	.LASF47
 1251 02eb 04       		.byte	0x4
 1252 02ec 09       		.byte	0x9
 1253 02ed 2301     		.2byte	0x123
 1254 02ef 01030000 		.4byte	0x301
ARM GAS  /tmp/ccN02bcZ.s 			page 23


 1255 02f3 0B       		.uleb128 0xb
 1256 02f4 72313300 		.ascii	"r13\000"
 1257 02f8 09       		.byte	0x9
 1258 02f9 2401     		.2byte	0x124
 1259 02fb 01030000 		.4byte	0x301
 1260 02ff 00       		.byte	0
 1261 0300 00       		.byte	0
 1262 0301 09       		.uleb128 0x9
 1263 0302 04       		.byte	0x4
 1264 0303 6B020000 		.4byte	0x26b
 1265 0307 04       		.uleb128 0x4
 1266 0308 04       		.byte	0x4
 1267 0309 07       		.byte	0x7
 1268 030a D4020000 		.4byte	.LASF48
 1269 030e 03       		.uleb128 0x3
 1270 030f 73010000 		.4byte	.LASF49
 1271 0313 0A       		.byte	0xa
 1272 0314 53       		.byte	0x53
 1273 0315 19030000 		.4byte	0x319
 1274 0319 09       		.uleb128 0x9
 1275 031a 04       		.byte	0x4
 1276 031b 1F030000 		.4byte	0x31f
 1277 031f 0D       		.uleb128 0xd
 1278 0320 2A030000 		.4byte	0x32a
 1279 0324 0E       		.uleb128 0xe
 1280 0325 69020000 		.4byte	0x269
 1281 0329 00       		.byte	0
 1282 032a 03       		.uleb128 0x3
 1283 032b 0B040000 		.4byte	.LASF50
 1284 032f 0A       		.byte	0xa
 1285 0330 58       		.byte	0x58
 1286 0331 35030000 		.4byte	0x335
 1287 0335 05       		.uleb128 0x5
 1288 0336 0B040000 		.4byte	.LASF50
 1289 033a 14       		.byte	0x14
 1290 033b 0A       		.byte	0xa
 1291 033c 5F       		.byte	0x5f
 1292 033d 7E030000 		.4byte	0x37e
 1293 0341 06       		.uleb128 0x6
 1294 0342 59010000 		.4byte	.LASF51
 1295 0346 0A       		.byte	0xa
 1296 0347 60       		.byte	0x60
 1297 0348 7E030000 		.4byte	0x37e
 1298 034c 00       		.byte	0
 1299 034d 06       		.uleb128 0x6
 1300 034e F8000000 		.4byte	.LASF52
 1301 0352 0A       		.byte	0xa
 1302 0353 62       		.byte	0x62
 1303 0354 7E030000 		.4byte	0x37e
 1304 0358 04       		.byte	0x4
 1305 0359 06       		.uleb128 0x6
 1306 035a CC020000 		.4byte	.LASF53
 1307 035e 0A       		.byte	0xa
 1308 035f 64       		.byte	0x64
 1309 0360 FA000000 		.4byte	0xfa
 1310 0364 08       		.byte	0x8
 1311 0365 06       		.uleb128 0x6
ARM GAS  /tmp/ccN02bcZ.s 			page 24


 1312 0366 DD020000 		.4byte	.LASF54
 1313 036a 0A       		.byte	0xa
 1314 036b 65       		.byte	0x65
 1315 036c 0E030000 		.4byte	0x30e
 1316 0370 0C       		.byte	0xc
 1317 0371 06       		.uleb128 0x6
 1318 0372 72040000 		.4byte	.LASF55
 1319 0376 0A       		.byte	0xa
 1320 0377 67       		.byte	0x67
 1321 0378 69020000 		.4byte	0x269
 1322 037c 10       		.byte	0x10
 1323 037d 00       		.byte	0
 1324 037e 09       		.uleb128 0x9
 1325 037f 04       		.byte	0x4
 1326 0380 2A030000 		.4byte	0x32a
 1327 0384 08       		.uleb128 0x8
 1328 0385 10       		.byte	0x10
 1329 0386 0A       		.byte	0xa
 1330 0387 71       		.byte	0x71
 1331 0388 BD030000 		.4byte	0x3bd
 1332 038c 06       		.uleb128 0x6
 1333 038d 59010000 		.4byte	.LASF51
 1334 0391 0A       		.byte	0xa
 1335 0392 72       		.byte	0x72
 1336 0393 7E030000 		.4byte	0x37e
 1337 0397 00       		.byte	0
 1338 0398 06       		.uleb128 0x6
 1339 0399 F8000000 		.4byte	.LASF52
 1340 039d 0A       		.byte	0xa
 1341 039e 74       		.byte	0x74
 1342 039f 7E030000 		.4byte	0x37e
 1343 03a3 04       		.byte	0x4
 1344 03a4 06       		.uleb128 0x6
 1345 03a5 CC020000 		.4byte	.LASF53
 1346 03a9 0A       		.byte	0xa
 1347 03aa 76       		.byte	0x76
 1348 03ab FA000000 		.4byte	0xfa
 1349 03af 08       		.byte	0x8
 1350 03b0 06       		.uleb128 0x6
 1351 03b1 BC040000 		.4byte	.LASF56
 1352 03b5 0A       		.byte	0xa
 1353 03b6 77       		.byte	0x77
 1354 03b7 BD030000 		.4byte	0x3bd
 1355 03bb 0C       		.byte	0xc
 1356 03bc 00       		.byte	0
 1357 03bd 0F       		.uleb128 0xf
 1358 03be FA000000 		.4byte	0xfa
 1359 03c2 03       		.uleb128 0x3
 1360 03c3 DC040000 		.4byte	.LASF57
 1361 03c7 0A       		.byte	0xa
 1362 03c8 78       		.byte	0x78
 1363 03c9 84030000 		.4byte	0x384
 1364 03cd 08       		.uleb128 0x8
 1365 03ce 20       		.byte	0x20
 1366 03cf 0B       		.byte	0xb
 1367 03d0 5E       		.byte	0x5e
 1368 03d1 2A040000 		.4byte	0x42a
ARM GAS  /tmp/ccN02bcZ.s 			page 25


 1369 03d5 06       		.uleb128 0x6
 1370 03d6 03040000 		.4byte	.LASF58
 1371 03da 0B       		.byte	0xb
 1372 03db 5F       		.byte	0x5f
 1373 03dc 33020000 		.4byte	0x233
 1374 03e0 00       		.byte	0
 1375 03e1 06       		.uleb128 0x6
 1376 03e2 A3030000 		.4byte	.LASF59
 1377 03e6 0B       		.byte	0xb
 1378 03e7 60       		.byte	0x60
 1379 03e8 D9000000 		.4byte	0xd9
 1380 03ec 08       		.byte	0x8
 1381 03ed 06       		.uleb128 0x6
 1382 03ee F9020000 		.4byte	.LASF60
 1383 03f2 0B       		.byte	0xb
 1384 03f3 62       		.byte	0x62
 1385 03f4 E6020000 		.4byte	0x2e6
 1386 03f8 0C       		.byte	0xc
 1387 03f9 06       		.uleb128 0x6
 1388 03fa AF010000 		.4byte	.LASF61
 1389 03fe 0B       		.byte	0xb
 1390 03ff 65       		.byte	0x65
 1391 0400 2D020000 		.4byte	0x22d
 1392 0404 10       		.byte	0x10
 1393 0405 06       		.uleb128 0x6
 1394 0406 27030000 		.4byte	.LASF62
 1395 040a 0B       		.byte	0xb
 1396 040b 66       		.byte	0x66
 1397 040c 2D020000 		.4byte	0x22d
 1398 0410 14       		.byte	0x14
 1399 0411 06       		.uleb128 0x6
 1400 0412 E3040000 		.4byte	.LASF63
 1401 0416 0B       		.byte	0xb
 1402 0417 6A       		.byte	0x6a
 1403 0418 05010000 		.4byte	0x105
 1404 041c 18       		.byte	0x18
 1405 041d 06       		.uleb128 0x6
 1406 041e 1D030000 		.4byte	.LASF64
 1407 0422 0B       		.byte	0xb
 1408 0423 6C       		.byte	0x6c
 1409 0424 2D020000 		.4byte	0x22d
 1410 0428 1C       		.byte	0x1c
 1411 0429 00       		.byte	0
 1412 042a 03       		.uleb128 0x3
 1413 042b 8B040000 		.4byte	.LASF65
 1414 042f 0B       		.byte	0xb
 1415 0430 6E       		.byte	0x6e
 1416 0431 CD030000 		.4byte	0x3cd
 1417 0435 05       		.uleb128 0x5
 1418 0436 EE010000 		.4byte	.LASF66
 1419 043a 10       		.byte	0x10
 1420 043b 0C       		.byte	0xc
 1421 043c 2C       		.byte	0x2c
 1422 043d 66040000 		.4byte	0x466
 1423 0441 06       		.uleb128 0x6
 1424 0442 98000000 		.4byte	.LASF67
 1425 0446 0C       		.byte	0xc
ARM GAS  /tmp/ccN02bcZ.s 			page 26


 1426 0447 2D       		.byte	0x2d
 1427 0448 33020000 		.4byte	0x233
 1428 044c 00       		.byte	0
 1429 044d 06       		.uleb128 0x6
 1430 044e ED040000 		.4byte	.LASF68
 1431 0452 0C       		.byte	0xc
 1432 0453 2F       		.byte	0x2f
 1433 0454 2D020000 		.4byte	0x22d
 1434 0458 08       		.byte	0x8
 1435 0459 06       		.uleb128 0x6
 1436 045a 29040000 		.4byte	.LASF69
 1437 045e 0C       		.byte	0xc
 1438 045f 31       		.byte	0x31
 1439 0460 66040000 		.4byte	0x466
 1440 0464 0C       		.byte	0xc
 1441 0465 00       		.byte	0
 1442 0466 09       		.uleb128 0x9
 1443 0467 04       		.byte	0x4
 1444 0468 35040000 		.4byte	0x435
 1445 046c 03       		.uleb128 0x3
 1446 046d EE010000 		.4byte	.LASF66
 1447 0471 0C       		.byte	0xc
 1448 0472 33       		.byte	0x33
 1449 0473 35040000 		.4byte	0x435
 1450 0477 10       		.uleb128 0x10
 1451 0478 04       		.byte	0x4
 1452 0479 08       		.byte	0x8
 1453 047a 90       		.byte	0x90
 1454 047b AC040000 		.4byte	0x4ac
 1455 047f 11       		.uleb128 0x11
 1456 0480 22000000 		.4byte	.LASF70
 1457 0484 08       		.byte	0x8
 1458 0485 97       		.byte	0x97
 1459 0486 E4000000 		.4byte	0xe4
 1460 048a 11       		.uleb128 0x11
 1461 048b 5C000000 		.4byte	.LASF71
 1462 048f 08       		.byte	0x8
 1463 0490 9E       		.byte	0x9e
 1464 0491 E4000000 		.4byte	0xe4
 1465 0495 11       		.uleb128 0x11
 1466 0496 AE040000 		.4byte	.LASF72
 1467 049a 08       		.byte	0x8
 1468 049b A5       		.byte	0xa5
 1469 049c 69020000 		.4byte	0x269
 1470 04a0 11       		.uleb128 0x11
 1471 04a1 AA030000 		.4byte	.LASF73
 1472 04a5 08       		.byte	0x8
 1473 04a6 AC       		.byte	0xac
 1474 04a7 EF000000 		.4byte	0xef
 1475 04ab 00       		.byte	0
 1476 04ac 09       		.uleb128 0x9
 1477 04ad 04       		.byte	0x4
 1478 04ae B2040000 		.4byte	0x4b2
 1479 04b2 12       		.uleb128 0x12
 1480 04b3 B7040000 		.4byte	0x4b7
 1481 04b7 04       		.uleb128 0x4
 1482 04b8 01       		.byte	0x1
ARM GAS  /tmp/ccN02bcZ.s 			page 27


 1483 04b9 08       		.byte	0x8
 1484 04ba 18040000 		.4byte	.LASF74
 1485 04be 09       		.uleb128 0x9
 1486 04bf 04       		.byte	0x4
 1487 04c0 6C040000 		.4byte	0x46c
 1488 04c4 03       		.uleb128 0x3
 1489 04c5 08000000 		.4byte	.LASF75
 1490 04c9 08       		.byte	0x8
 1491 04ca DF       		.byte	0xdf
 1492 04cb CF040000 		.4byte	0x4cf
 1493 04cf 09       		.uleb128 0x9
 1494 04d0 04       		.byte	0x4
 1495 04d1 D5040000 		.4byte	0x4d5
 1496 04d5 13       		.uleb128 0x13
 1497 04d6 E4000000 		.4byte	0xe4
 1498 04da E4040000 		.4byte	0x4e4
 1499 04de 0E       		.uleb128 0xe
 1500 04df 69020000 		.4byte	0x269
 1501 04e3 00       		.byte	0
 1502 04e4 14       		.uleb128 0x14
 1503 04e5 F6030000 		.4byte	.LASF77
 1504 04e9 01       		.byte	0x1
 1505 04ea 4C       		.byte	0x4c
 1506 04eb 2D020000 		.4byte	0x22d
 1507 04ef 01       		.byte	0x1
 1508 04f0 0A050000 		.4byte	0x50a
 1509 04f4 15       		.uleb128 0x15
 1510 04f5 747000   		.ascii	"tp\000"
 1511 04f8 01       		.byte	0x1
 1512 04f9 4C       		.byte	0x4c
 1513 04fa 2D020000 		.4byte	0x22d
 1514 04fe 16       		.uleb128 0x16
 1515 04ff 1D000000 		.4byte	.LASF76
 1516 0503 01       		.byte	0x1
 1517 0504 4C       		.byte	0x4c
 1518 0505 D9000000 		.4byte	0xd9
 1519 0509 00       		.byte	0
 1520 050a 14       		.uleb128 0x14
 1521 050b A0000000 		.4byte	.LASF78
 1522 050f 01       		.byte	0x1
 1523 0510 9A       		.byte	0x9a
 1524 0511 2D020000 		.4byte	0x22d
 1525 0515 01       		.byte	0x1
 1526 0516 5B050000 		.4byte	0x55b
 1527 051a 15       		.uleb128 0x15
 1528 051b 77737000 		.ascii	"wsp\000"
 1529 051f 01       		.byte	0x1
 1530 0520 9A       		.byte	0x9a
 1531 0521 69020000 		.4byte	0x269
 1532 0525 16       		.uleb128 0x16
 1533 0526 84010000 		.4byte	.LASF79
 1534 052a 01       		.byte	0x1
 1535 052b 9A       		.byte	0x9a
 1536 052c 2C000000 		.4byte	0x2c
 1537 0530 16       		.uleb128 0x16
 1538 0531 1D000000 		.4byte	.LASF76
 1539 0535 01       		.byte	0x1
ARM GAS  /tmp/ccN02bcZ.s 			page 28


 1540 0536 9B       		.byte	0x9b
 1541 0537 D9000000 		.4byte	0xd9
 1542 053b 15       		.uleb128 0x15
 1543 053c 706600   		.ascii	"pf\000"
 1544 053f 01       		.byte	0x1
 1545 0540 9B       		.byte	0x9b
 1546 0541 C4040000 		.4byte	0x4c4
 1547 0545 15       		.uleb128 0x15
 1548 0546 61726700 		.ascii	"arg\000"
 1549 054a 01       		.byte	0x1
 1550 054b 9B       		.byte	0x9b
 1551 054c 69020000 		.4byte	0x269
 1552 0550 17       		.uleb128 0x17
 1553 0551 747000   		.ascii	"tp\000"
 1554 0554 01       		.byte	0x1
 1555 0555 9D       		.byte	0x9d
 1556 0556 2D020000 		.4byte	0x22d
 1557 055a 00       		.byte	0
 1558 055b 18       		.uleb128 0x18
 1559 055c C7000000 		.4byte	.LASF104
 1560 0560 02       		.byte	0x2
 1561 0561 56       		.byte	0x56
 1562 0562 2D020000 		.4byte	0x22d
 1563 0566 03       		.byte	0x3
 1564 0567 81050000 		.4byte	0x581
 1565 056b 15       		.uleb128 0x15
 1566 056c 746C7000 		.ascii	"tlp\000"
 1567 0570 02       		.byte	0x2
 1568 0571 56       		.byte	0x56
 1569 0572 81050000 		.4byte	0x581
 1570 0576 17       		.uleb128 0x17
 1571 0577 747000   		.ascii	"tp\000"
 1572 057a 02       		.byte	0x2
 1573 057b 58       		.byte	0x58
 1574 057c 2D020000 		.4byte	0x22d
 1575 0580 00       		.byte	0
 1576 0581 09       		.uleb128 0x9
 1577 0582 04       		.byte	0x4
 1578 0583 53020000 		.4byte	0x253
 1579 0587 19       		.uleb128 0x19
 1580 0588 11030000 		.4byte	.LASF105
 1581 058c 02       		.byte	0x2
 1582 058d 50       		.byte	0x50
 1583 058e 03       		.byte	0x3
 1584 058f A9050000 		.4byte	0x5a9
 1585 0593 15       		.uleb128 0x15
 1586 0594 747000   		.ascii	"tp\000"
 1587 0597 02       		.byte	0x2
 1588 0598 50       		.byte	0x50
 1589 0599 2D020000 		.4byte	0x22d
 1590 059d 15       		.uleb128 0x15
 1591 059e 746C7000 		.ascii	"tlp\000"
 1592 05a2 02       		.byte	0x2
 1593 05a3 50       		.byte	0x50
 1594 05a4 81050000 		.4byte	0x581
 1595 05a8 00       		.byte	0
 1596 05a9 1A       		.uleb128 0x1a
ARM GAS  /tmp/ccN02bcZ.s 			page 29


 1597 05aa E4040000 		.4byte	0x4e4
 1598 05ae 00000000 		.4byte	.LFB7
 1599 05b2 44000000 		.4byte	.LFE7-.LFB7
 1600 05b6 01       		.uleb128 0x1
 1601 05b7 9C       		.byte	0x9c
 1602 05b8 CB050000 		.4byte	0x5cb
 1603 05bc 1B       		.uleb128 0x1b
 1604 05bd F4040000 		.4byte	0x4f4
 1605 05c1 01       		.uleb128 0x1
 1606 05c2 50       		.byte	0x50
 1607 05c3 1B       		.uleb128 0x1b
 1608 05c4 FE040000 		.4byte	0x4fe
 1609 05c8 01       		.uleb128 0x1
 1610 05c9 51       		.byte	0x51
 1611 05ca 00       		.byte	0
 1612 05cb 1A       		.uleb128 0x1a
 1613 05cc 0A050000 		.4byte	0x50a
 1614 05d0 00000000 		.4byte	.LFB8
 1615 05d4 6C000000 		.4byte	.LFE8-.LFB8
 1616 05d8 01       		.uleb128 0x1
 1617 05d9 9C       		.byte	0x9c
 1618 05da 2D060000 		.4byte	0x62d
 1619 05de 1B       		.uleb128 0x1b
 1620 05df 1A050000 		.4byte	0x51a
 1621 05e3 01       		.uleb128 0x1
 1622 05e4 50       		.byte	0x50
 1623 05e5 1C       		.uleb128 0x1c
 1624 05e6 25050000 		.4byte	0x525
 1625 05ea 00000000 		.4byte	.LLST0
 1626 05ee 1B       		.uleb128 0x1b
 1627 05ef 30050000 		.4byte	0x530
 1628 05f3 01       		.uleb128 0x1
 1629 05f4 52       		.byte	0x52
 1630 05f5 1C       		.uleb128 0x1c
 1631 05f6 3B050000 		.4byte	0x53b
 1632 05fa 2E000000 		.4byte	.LLST1
 1633 05fe 1C       		.uleb128 0x1c
 1634 05ff 45050000 		.4byte	0x545
 1635 0603 5B000000 		.4byte	.LLST2
 1636 0607 1D       		.uleb128 0x1d
 1637 0608 50050000 		.4byte	0x550
 1638 060c 01       		.uleb128 0x1
 1639 060d 50       		.byte	0x50
 1640 060e 1E       		.uleb128 0x1e
 1641 060f E4040000 		.4byte	0x4e4
 1642 0613 04000000 		.4byte	.LBB16
 1643 0617 00000000 		.4byte	.Ldebug_ranges0+0
 1644 061b 01       		.byte	0x1
 1645 061c A5       		.byte	0xa5
 1646 061d 1B       		.uleb128 0x1b
 1647 061e FE040000 		.4byte	0x4fe
 1648 0622 01       		.uleb128 0x1
 1649 0623 52       		.byte	0x52
 1650 0624 1B       		.uleb128 0x1b
 1651 0625 F4040000 		.4byte	0x4f4
 1652 0629 01       		.uleb128 0x1
 1653 062a 50       		.byte	0x50
ARM GAS  /tmp/ccN02bcZ.s 			page 30


 1654 062b 00       		.byte	0
 1655 062c 00       		.byte	0
 1656 062d 1F       		.uleb128 0x1f
 1657 062e BA020000 		.4byte	.LASF80
 1658 0632 01       		.byte	0x1
 1659 0633 B8       		.byte	0xb8
 1660 0634 2D020000 		.4byte	0x22d
 1661 0638 00000000 		.4byte	.LFB9
 1662 063c 80000000 		.4byte	.LFE9-.LFB9
 1663 0640 01       		.uleb128 0x1
 1664 0641 9C       		.byte	0x9c
 1665 0642 59070000 		.4byte	0x759
 1666 0646 20       		.uleb128 0x20
 1667 0647 77737000 		.ascii	"wsp\000"
 1668 064b 01       		.byte	0x1
 1669 064c B8       		.byte	0xb8
 1670 064d 69020000 		.4byte	0x269
 1671 0651 7B000000 		.4byte	.LLST3
 1672 0655 21       		.uleb128 0x21
 1673 0656 84010000 		.4byte	.LASF79
 1674 065a 01       		.byte	0x1
 1675 065b B8       		.byte	0xb8
 1676 065c 2C000000 		.4byte	0x2c
 1677 0660 A4000000 		.4byte	.LLST4
 1678 0664 21       		.uleb128 0x21
 1679 0665 1D000000 		.4byte	.LASF76
 1680 0669 01       		.byte	0x1
 1681 066a B9       		.byte	0xb9
 1682 066b D9000000 		.4byte	0xd9
 1683 066f D2000000 		.4byte	.LLST5
 1684 0673 20       		.uleb128 0x20
 1685 0674 706600   		.ascii	"pf\000"
 1686 0677 01       		.byte	0x1
 1687 0678 B9       		.byte	0xb9
 1688 0679 C4040000 		.4byte	0x4c4
 1689 067d FE000000 		.4byte	.LLST6
 1690 0681 20       		.uleb128 0x20
 1691 0682 61726700 		.ascii	"arg\000"
 1692 0686 01       		.byte	0x1
 1693 0687 B9       		.byte	0xb9
 1694 0688 69020000 		.4byte	0x269
 1695 068c 36010000 		.4byte	.LLST7
 1696 0690 17       		.uleb128 0x17
 1697 0691 747000   		.ascii	"tp\000"
 1698 0694 01       		.byte	0x1
 1699 0695 BA       		.byte	0xba
 1700 0696 2D020000 		.4byte	0x22d
 1701 069a 22       		.uleb128 0x22
 1702 069b 0A000000 		.4byte	.LBB24
 1703 069f 06000000 		.4byte	.LBE24-.LBB24
 1704 06a3 B5060000 		.4byte	0x6b5
 1705 06a7 23       		.uleb128 0x23
 1706 06a8 746D7000 		.ascii	"tmp\000"
 1707 06ac 01       		.byte	0x1
 1708 06ad C4       		.byte	0xc4
 1709 06ae AD000000 		.4byte	0xad
 1710 06b2 01       		.uleb128 0x1
ARM GAS  /tmp/ccN02bcZ.s 			page 31


 1711 06b3 53       		.byte	0x53
 1712 06b4 00       		.byte	0
 1713 06b5 24       		.uleb128 0x24
 1714 06b6 0A050000 		.4byte	0x50a
 1715 06ba 10000000 		.4byte	.LBB25
 1716 06be 28000000 		.4byte	.Ldebug_ranges0+0x28
 1717 06c2 01       		.byte	0x1
 1718 06c3 C5       		.byte	0xc5
 1719 06c4 27070000 		.4byte	0x727
 1720 06c8 1C       		.uleb128 0x1c
 1721 06c9 45050000 		.4byte	0x545
 1722 06cd 56010000 		.4byte	.LLST8
 1723 06d1 1C       		.uleb128 0x1c
 1724 06d2 3B050000 		.4byte	0x53b
 1725 06d6 76010000 		.4byte	.LLST9
 1726 06da 1C       		.uleb128 0x1c
 1727 06db 30050000 		.4byte	0x530
 1728 06df A3010000 		.4byte	.LLST10
 1729 06e3 1C       		.uleb128 0x1c
 1730 06e4 25050000 		.4byte	0x525
 1731 06e8 CF010000 		.4byte	.LLST11
 1732 06ec 1C       		.uleb128 0x1c
 1733 06ed 1A050000 		.4byte	0x51a
 1734 06f1 FD010000 		.4byte	.LLST12
 1735 06f5 25       		.uleb128 0x25
 1736 06f6 28000000 		.4byte	.Ldebug_ranges0+0x28
 1737 06fa 26       		.uleb128 0x26
 1738 06fb 50050000 		.4byte	0x550
 1739 06ff FD010000 		.4byte	.LLST12
 1740 0703 1E       		.uleb128 0x1e
 1741 0704 E4040000 		.4byte	0x4e4
 1742 0708 10000000 		.4byte	.LBB27
 1743 070c 40000000 		.4byte	.Ldebug_ranges0+0x40
 1744 0710 01       		.byte	0x1
 1745 0711 A5       		.byte	0xa5
 1746 0712 1C       		.uleb128 0x1c
 1747 0713 FE040000 		.4byte	0x4fe
 1748 0717 26020000 		.4byte	.LLST14
 1749 071b 1C       		.uleb128 0x1c
 1750 071c F4040000 		.4byte	0x4f4
 1751 0720 47020000 		.4byte	.LLST15
 1752 0724 00       		.byte	0
 1753 0725 00       		.byte	0
 1754 0726 00       		.byte	0
 1755 0727 22       		.uleb128 0x22
 1756 0728 6A000000 		.4byte	.LBB37
 1757 072c 06000000 		.4byte	.LBE37-.LBB37
 1758 0730 42070000 		.4byte	0x742
 1759 0734 23       		.uleb128 0x23
 1760 0735 746D7000 		.ascii	"tmp\000"
 1761 0739 01       		.byte	0x1
 1762 073a C6       		.byte	0xc6
 1763 073b AD000000 		.4byte	0xad
 1764 073f 01       		.uleb128 0x1
 1765 0740 53       		.byte	0x53
 1766 0741 00       		.byte	0
 1767 0742 27       		.uleb128 0x27
ARM GAS  /tmp/ccN02bcZ.s 			page 32


 1768 0743 6A000000 		.4byte	.LVL17
 1769 0747 6F0B0000 		.4byte	0xb6f
 1770 074b 28       		.uleb128 0x28
 1771 074c 01       		.uleb128 0x1
 1772 074d 51       		.byte	0x51
 1773 074e 02       		.uleb128 0x2
 1774 074f 75       		.byte	0x75
 1775 0750 00       		.sleb128 0
 1776 0751 28       		.uleb128 0x28
 1777 0752 01       		.uleb128 0x1
 1778 0753 50       		.byte	0x50
 1779 0754 02       		.uleb128 0x2
 1780 0755 74       		.byte	0x74
 1781 0756 00       		.sleb128 0
 1782 0757 00       		.byte	0
 1783 0758 00       		.byte	0
 1784 0759 1F       		.uleb128 0x1f
 1785 075a 12010000 		.4byte	.LASF81
 1786 075e 01       		.byte	0x1
 1787 075f D6       		.byte	0xd6
 1788 0760 D9000000 		.4byte	0xd9
 1789 0764 00000000 		.4byte	.LFB10
 1790 0768 30000000 		.4byte	.LFE10-.LFB10
 1791 076c 01       		.uleb128 0x1
 1792 076d 9C       		.byte	0x9c
 1793 076e D0070000 		.4byte	0x7d0
 1794 0772 21       		.uleb128 0x21
 1795 0773 B7010000 		.4byte	.LASF82
 1796 0777 01       		.byte	0x1
 1797 0778 D6       		.byte	0xd6
 1798 0779 D9000000 		.4byte	0xd9
 1799 077d 70020000 		.4byte	.LLST16
 1800 0781 29       		.uleb128 0x29
 1801 0782 F4010000 		.4byte	.LASF83
 1802 0786 01       		.byte	0x1
 1803 0787 D7       		.byte	0xd7
 1804 0788 D9000000 		.4byte	0xd9
 1805 078c 91020000 		.4byte	.LLST17
 1806 0790 22       		.uleb128 0x22
 1807 0791 02000000 		.4byte	.LBB38
 1808 0795 06000000 		.4byte	.LBE38-.LBB38
 1809 0799 AB070000 		.4byte	0x7ab
 1810 079d 23       		.uleb128 0x23
 1811 079e 746D7000 		.ascii	"tmp\000"
 1812 07a2 01       		.byte	0x1
 1813 07a3 DB       		.byte	0xdb
 1814 07a4 AD000000 		.4byte	0xad
 1815 07a8 01       		.uleb128 0x1
 1816 07a9 53       		.byte	0x53
 1817 07aa 00       		.byte	0
 1818 07ab 22       		.uleb128 0x22
 1819 07ac 20000000 		.4byte	.LBB39
 1820 07b0 06000000 		.4byte	.LBE39-.LBB39
 1821 07b4 C6070000 		.4byte	0x7c6
 1822 07b8 23       		.uleb128 0x23
 1823 07b9 746D7000 		.ascii	"tmp\000"
 1824 07bd 01       		.byte	0x1
ARM GAS  /tmp/ccN02bcZ.s 			page 33


 1825 07be E6       		.byte	0xe6
 1826 07bf AD000000 		.4byte	0xad
 1827 07c3 01       		.uleb128 0x1
 1828 07c4 53       		.byte	0x53
 1829 07c5 00       		.byte	0
 1830 07c6 2A       		.uleb128 0x2a
 1831 07c7 20000000 		.4byte	.LVL21
 1832 07cb 850B0000 		.4byte	0xb85
 1833 07cf 00       		.byte	0
 1834 07d0 1F       		.uleb128 0x1f
 1835 07d1 E5020000 		.4byte	.LASF84
 1836 07d5 01       		.byte	0x1
 1837 07d6 F7       		.byte	0xf7
 1838 07d7 2D020000 		.4byte	0x22d
 1839 07db 00000000 		.4byte	.LFB11
 1840 07df 1A000000 		.4byte	.LFE11-.LFB11
 1841 07e3 01       		.uleb128 0x1
 1842 07e4 9C       		.byte	0x9c
 1843 07e5 3F080000 		.4byte	0x83f
 1844 07e9 20       		.uleb128 0x20
 1845 07ea 747000   		.ascii	"tp\000"
 1846 07ed 01       		.byte	0x1
 1847 07ee F7       		.byte	0xf7
 1848 07ef 2D020000 		.4byte	0x22d
 1849 07f3 AF020000 		.4byte	.LLST18
 1850 07f7 2B       		.uleb128 0x2b
 1851 07f8 68000000 		.4byte	.Ldebug_ranges0+0x68
 1852 07fc 0E080000 		.4byte	0x80e
 1853 0800 23       		.uleb128 0x23
 1854 0801 746D7000 		.ascii	"tmp\000"
 1855 0805 01       		.byte	0x1
 1856 0806 F9       		.byte	0xf9
 1857 0807 AD000000 		.4byte	0xad
 1858 080b 01       		.uleb128 0x1
 1859 080c 53       		.byte	0x53
 1860 080d 00       		.byte	0
 1861 080e 22       		.uleb128 0x22
 1862 080f 10000000 		.4byte	.LBB42
 1863 0813 06000000 		.4byte	.LBE42-.LBB42
 1864 0817 29080000 		.4byte	0x829
 1865 081b 23       		.uleb128 0x23
 1866 081c 746D7000 		.ascii	"tmp\000"
 1867 0820 01       		.byte	0x1
 1868 0821 FE       		.byte	0xfe
 1869 0822 AD000000 		.4byte	0xad
 1870 0826 01       		.uleb128 0x1
 1871 0827 53       		.byte	0x53
 1872 0828 00       		.byte	0
 1873 0829 27       		.uleb128 0x27
 1874 082a 10000000 		.4byte	.LVL24
 1875 082e 6F0B0000 		.4byte	0xb6f
 1876 0832 28       		.uleb128 0x28
 1877 0833 01       		.uleb128 0x1
 1878 0834 51       		.byte	0x51
 1879 0835 01       		.uleb128 0x1
 1880 0836 30       		.byte	0x30
 1881 0837 28       		.uleb128 0x28
ARM GAS  /tmp/ccN02bcZ.s 			page 34


 1882 0838 01       		.uleb128 0x1
 1883 0839 50       		.byte	0x50
 1884 083a 02       		.uleb128 0x2
 1885 083b 74       		.byte	0x74
 1886 083c 00       		.sleb128 0
 1887 083d 00       		.byte	0
 1888 083e 00       		.byte	0
 1889 083f 2C       		.uleb128 0x2c
 1890 0840 C7010000 		.4byte	.LASF85
 1891 0844 01       		.byte	0x1
 1892 0845 0E01     		.2byte	0x10e
 1893 0847 00000000 		.4byte	.LFB12
 1894 084b 16000000 		.4byte	.LFE12-.LFB12
 1895 084f 01       		.uleb128 0x1
 1896 0850 9C       		.byte	0x9c
 1897 0851 93080000 		.4byte	0x893
 1898 0855 2D       		.uleb128 0x2d
 1899 0856 747000   		.ascii	"tp\000"
 1900 0859 01       		.byte	0x1
 1901 085a 0E01     		.2byte	0x10e
 1902 085c 2D020000 		.4byte	0x22d
 1903 0860 01       		.uleb128 0x1
 1904 0861 50       		.byte	0x50
 1905 0862 22       		.uleb128 0x22
 1906 0863 00000000 		.4byte	.LBB43
 1907 0867 06000000 		.4byte	.LBE43-.LBB43
 1908 086b 7E080000 		.4byte	0x87e
 1909 086f 2E       		.uleb128 0x2e
 1910 0870 746D7000 		.ascii	"tmp\000"
 1911 0874 01       		.byte	0x1
 1912 0875 1001     		.2byte	0x110
 1913 0877 AD000000 		.4byte	0xad
 1914 087b 01       		.uleb128 0x1
 1915 087c 53       		.byte	0x53
 1916 087d 00       		.byte	0
 1917 087e 25       		.uleb128 0x25
 1918 087f 80000000 		.4byte	.Ldebug_ranges0+0x80
 1919 0883 2E       		.uleb128 0x2e
 1920 0884 746D7000 		.ascii	"tmp\000"
 1921 0888 01       		.byte	0x1
 1922 0889 1201     		.2byte	0x112
 1923 088b AD000000 		.4byte	0xad
 1924 088f 01       		.uleb128 0x1
 1925 0890 53       		.byte	0x53
 1926 0891 00       		.byte	0
 1927 0892 00       		.byte	0
 1928 0893 2C       		.uleb128 0x2c
 1929 0894 79040000 		.4byte	.LASF86
 1930 0898 01       		.byte	0x1
 1931 0899 2101     		.2byte	0x121
 1932 089b 00000000 		.4byte	.LFB13
 1933 089f 18000000 		.4byte	.LFE13-.LFB13
 1934 08a3 01       		.uleb128 0x1
 1935 08a4 9C       		.byte	0x9c
 1936 08a5 08090000 		.4byte	0x908
 1937 08a9 2F       		.uleb128 0x2f
 1938 08aa 0C030000 		.4byte	.LASF87
ARM GAS  /tmp/ccN02bcZ.s 			page 35


 1939 08ae 01       		.byte	0x1
 1940 08af 2101     		.2byte	0x121
 1941 08b1 FA000000 		.4byte	0xfa
 1942 08b5 CD020000 		.4byte	.LLST19
 1943 08b9 22       		.uleb128 0x22
 1944 08ba 04000000 		.4byte	.LBB46
 1945 08be 06000000 		.4byte	.LBE46-.LBB46
 1946 08c2 D5080000 		.4byte	0x8d5
 1947 08c6 2E       		.uleb128 0x2e
 1948 08c7 746D7000 		.ascii	"tmp\000"
 1949 08cb 01       		.byte	0x1
 1950 08cc 2501     		.2byte	0x125
 1951 08ce AD000000 		.4byte	0xad
 1952 08d2 01       		.uleb128 0x1
 1953 08d3 53       		.byte	0x53
 1954 08d4 00       		.byte	0
 1955 08d5 22       		.uleb128 0x22
 1956 08d6 10000000 		.4byte	.LBB47
 1957 08da 08000000 		.4byte	.LBE47-.LBB47
 1958 08de F1080000 		.4byte	0x8f1
 1959 08e2 2E       		.uleb128 0x2e
 1960 08e3 746D7000 		.ascii	"tmp\000"
 1961 08e7 01       		.byte	0x1
 1962 08e8 2701     		.2byte	0x127
 1963 08ea AD000000 		.4byte	0xad
 1964 08ee 01       		.uleb128 0x1
 1965 08ef 53       		.byte	0x53
 1966 08f0 00       		.byte	0
 1967 08f1 27       		.uleb128 0x27
 1968 08f2 10000000 		.4byte	.LVL28
 1969 08f6 8C0B0000 		.4byte	0xb8c
 1970 08fa 28       		.uleb128 0x28
 1971 08fb 01       		.uleb128 0x1
 1972 08fc 51       		.byte	0x51
 1973 08fd 03       		.uleb128 0x3
 1974 08fe F3       		.byte	0xf3
 1975 08ff 01       		.uleb128 0x1
 1976 0900 50       		.byte	0x50
 1977 0901 28       		.uleb128 0x28
 1978 0902 01       		.uleb128 0x1
 1979 0903 50       		.byte	0x50
 1980 0904 01       		.uleb128 0x1
 1981 0905 36       		.byte	0x36
 1982 0906 00       		.byte	0
 1983 0907 00       		.byte	0
 1984 0908 2C       		.uleb128 0x2c
 1985 0909 2F030000 		.4byte	.LASF88
 1986 090d 01       		.byte	0x1
 1987 090e 3201     		.2byte	0x132
 1988 0910 00000000 		.4byte	.LFB14
 1989 0914 24000000 		.4byte	.LFE14-.LFB14
 1990 0918 01       		.uleb128 0x1
 1991 0919 9C       		.byte	0x9c
 1992 091a 76090000 		.4byte	0x976
 1993 091e 2F       		.uleb128 0x2f
 1994 091f 0C030000 		.4byte	.LASF87
 1995 0923 01       		.byte	0x1
ARM GAS  /tmp/ccN02bcZ.s 			page 36


 1996 0924 3201     		.2byte	0x132
 1997 0926 FA000000 		.4byte	0xfa
 1998 092a F9020000 		.4byte	.LLST20
 1999 092e 22       		.uleb128 0x22
 2000 092f 02000000 		.4byte	.LBB48
 2001 0933 06000000 		.4byte	.LBE48-.LBB48
 2002 0937 4A090000 		.4byte	0x94a
 2003 093b 2E       		.uleb128 0x2e
 2004 093c 746D7000 		.ascii	"tmp\000"
 2005 0940 01       		.byte	0x1
 2006 0941 3401     		.2byte	0x134
 2007 0943 AD000000 		.4byte	0xad
 2008 0947 01       		.uleb128 0x1
 2009 0948 53       		.byte	0x53
 2010 0949 00       		.byte	0
 2011 094a 22       		.uleb128 0x22
 2012 094b 16000000 		.4byte	.LBB49
 2013 094f 0E000000 		.4byte	.LBE49-.LBB49
 2014 0953 66090000 		.4byte	0x966
 2015 0957 2E       		.uleb128 0x2e
 2016 0958 746D7000 		.ascii	"tmp\000"
 2017 095c 01       		.byte	0x1
 2018 095d 3701     		.2byte	0x137
 2019 095f AD000000 		.4byte	0xad
 2020 0963 01       		.uleb128 0x1
 2021 0964 53       		.byte	0x53
 2022 0965 00       		.byte	0
 2023 0966 27       		.uleb128 0x27
 2024 0967 16000000 		.4byte	.LVL32
 2025 096b 8C0B0000 		.4byte	0xb8c
 2026 096f 28       		.uleb128 0x28
 2027 0970 01       		.uleb128 0x1
 2028 0971 50       		.byte	0x50
 2029 0972 01       		.uleb128 0x1
 2030 0973 36       		.byte	0x36
 2031 0974 00       		.byte	0
 2032 0975 00       		.byte	0
 2033 0976 2C       		.uleb128 0x2c
 2034 0977 A3040000 		.4byte	.LASF89
 2035 097b 01       		.byte	0x1
 2036 097c 4101     		.2byte	0x141
 2037 097e 00000000 		.4byte	.LFB15
 2038 0982 28000000 		.4byte	.LFE15-.LFB15
 2039 0986 01       		.uleb128 0x1
 2040 0987 9C       		.byte	0x9c
 2041 0988 CE090000 		.4byte	0x9ce
 2042 098c 22       		.uleb128 0x22
 2043 098d 02000000 		.4byte	.LBB50
 2044 0991 06000000 		.4byte	.LBE50-.LBB50
 2045 0995 A8090000 		.4byte	0x9a8
 2046 0999 2E       		.uleb128 0x2e
 2047 099a 746D7000 		.ascii	"tmp\000"
 2048 099e 01       		.byte	0x1
 2049 099f 4301     		.2byte	0x143
 2050 09a1 AD000000 		.4byte	0xad
 2051 09a5 01       		.uleb128 0x1
 2052 09a6 53       		.byte	0x53
ARM GAS  /tmp/ccN02bcZ.s 			page 37


 2053 09a7 00       		.byte	0
 2054 09a8 22       		.uleb128 0x22
 2055 09a9 1A000000 		.4byte	.LBB51
 2056 09ad 0E000000 		.4byte	.LBE51-.LBB51
 2057 09b1 C4090000 		.4byte	0x9c4
 2058 09b5 2E       		.uleb128 0x2e
 2059 09b6 746D7000 		.ascii	"tmp\000"
 2060 09ba 01       		.byte	0x1
 2061 09bb 4501     		.2byte	0x145
 2062 09bd AD000000 		.4byte	0xad
 2063 09c1 01       		.uleb128 0x1
 2064 09c2 53       		.byte	0x53
 2065 09c3 00       		.byte	0
 2066 09c4 2A       		.uleb128 0x2a
 2067 09c5 1A000000 		.4byte	.LVL33
 2068 09c9 A60B0000 		.4byte	0xba6
 2069 09cd 00       		.byte	0
 2070 09ce 2C       		.uleb128 0x2c
 2071 09cf 3A000000 		.4byte	.LASF90
 2072 09d3 01       		.byte	0x1
 2073 09d4 6B01     		.2byte	0x16b
 2074 09d6 00000000 		.4byte	.LFB17
 2075 09da 40000000 		.4byte	.LFE17-.LFB17
 2076 09de 01       		.uleb128 0x1
 2077 09df 9C       		.byte	0x9c
 2078 09e0 490A0000 		.4byte	0xa49
 2079 09e4 30       		.uleb128 0x30
 2080 09e5 6D736700 		.ascii	"msg\000"
 2081 09e9 01       		.byte	0x1
 2082 09ea 6B01     		.2byte	0x16b
 2083 09ec E4000000 		.4byte	0xe4
 2084 09f0 27030000 		.4byte	.LLST21
 2085 09f4 31       		.uleb128 0x31
 2086 09f5 747000   		.ascii	"tp\000"
 2087 09f8 01       		.byte	0x1
 2088 09f9 6C01     		.2byte	0x16c
 2089 09fb 2D020000 		.4byte	0x22d
 2090 09ff 48030000 		.4byte	.LLST22
 2091 0a03 32       		.uleb128 0x32
 2092 0a04 5B050000 		.4byte	0x55b
 2093 0a08 12000000 		.4byte	.LBB52
 2094 0a0c 98000000 		.4byte	.Ldebug_ranges0+0x98
 2095 0a10 01       		.byte	0x1
 2096 0a11 7401     		.2byte	0x174
 2097 0a13 300A0000 		.4byte	0xa30
 2098 0a17 1C       		.uleb128 0x1c
 2099 0a18 6B050000 		.4byte	0x56b
 2100 0a1c 5B030000 		.4byte	.LLST23
 2101 0a20 25       		.uleb128 0x25
 2102 0a21 98000000 		.4byte	.Ldebug_ranges0+0x98
 2103 0a25 26       		.uleb128 0x26
 2104 0a26 76050000 		.4byte	0x576
 2105 0a2a 70030000 		.4byte	.LLST24
 2106 0a2e 00       		.byte	0
 2107 0a2f 00       		.byte	0
 2108 0a30 2A       		.uleb128 0x2a
 2109 0a31 1C000000 		.4byte	.LVL37
ARM GAS  /tmp/ccN02bcZ.s 			page 38


 2110 0a35 AD0B0000 		.4byte	0xbad
 2111 0a39 33       		.uleb128 0x33
 2112 0a3a 3C000000 		.4byte	.LVL40
 2113 0a3e C20B0000 		.4byte	0xbc2
 2114 0a42 28       		.uleb128 0x28
 2115 0a43 01       		.uleb128 0x1
 2116 0a44 50       		.byte	0x50
 2117 0a45 01       		.uleb128 0x1
 2118 0a46 3E       		.byte	0x3e
 2119 0a47 00       		.byte	0
 2120 0a48 00       		.byte	0
 2121 0a49 2C       		.uleb128 0x2c
 2122 0a4a 86000000 		.4byte	.LASF91
 2123 0a4e 01       		.byte	0x1
 2124 0a4f 5601     		.2byte	0x156
 2125 0a51 00000000 		.4byte	.LFB16
 2126 0a55 0A000000 		.4byte	.LFE16-.LFB16
 2127 0a59 01       		.uleb128 0x1
 2128 0a5a 9C       		.byte	0x9c
 2129 0a5b 9D0A0000 		.4byte	0xa9d
 2130 0a5f 30       		.uleb128 0x30
 2131 0a60 6D736700 		.ascii	"msg\000"
 2132 0a64 01       		.byte	0x1
 2133 0a65 5601     		.2byte	0x156
 2134 0a67 E4000000 		.4byte	0xe4
 2135 0a6b 83030000 		.4byte	.LLST25
 2136 0a6f 22       		.uleb128 0x22
 2137 0a70 00000000 		.4byte	.LBB56
 2138 0a74 06000000 		.4byte	.LBE56-.LBB56
 2139 0a78 8B0A0000 		.4byte	0xa8b
 2140 0a7c 2E       		.uleb128 0x2e
 2141 0a7d 746D7000 		.ascii	"tmp\000"
 2142 0a81 01       		.byte	0x1
 2143 0a82 5801     		.2byte	0x158
 2144 0a84 AD000000 		.4byte	0xad
 2145 0a88 01       		.uleb128 0x1
 2146 0a89 53       		.byte	0x53
 2147 0a8a 00       		.byte	0
 2148 0a8b 33       		.uleb128 0x33
 2149 0a8c 0A000000 		.4byte	.LVL42
 2150 0a90 CE090000 		.4byte	0x9ce
 2151 0a94 28       		.uleb128 0x28
 2152 0a95 01       		.uleb128 0x1
 2153 0a96 50       		.byte	0x50
 2154 0a97 03       		.uleb128 0x3
 2155 0a98 F3       		.byte	0xf3
 2156 0a99 01       		.uleb128 0x1
 2157 0a9a 50       		.byte	0x50
 2158 0a9b 00       		.byte	0
 2159 0a9c 00       		.byte	0
 2160 0a9d 34       		.uleb128 0x34
 2161 0a9e 68040000 		.4byte	.LASF92
 2162 0aa2 01       		.byte	0x1
 2163 0aa3 A101     		.2byte	0x1a1
 2164 0aa5 E4000000 		.4byte	0xe4
 2165 0aa9 00000000 		.4byte	.LFB18
 2166 0aad 38000000 		.4byte	.LFE18-.LFB18
ARM GAS  /tmp/ccN02bcZ.s 			page 39


 2167 0ab1 01       		.uleb128 0x1
 2168 0ab2 9C       		.byte	0x9c
 2169 0ab3 590B0000 		.4byte	0xb59
 2170 0ab7 30       		.uleb128 0x30
 2171 0ab8 747000   		.ascii	"tp\000"
 2172 0abb 01       		.byte	0x1
 2173 0abc A101     		.2byte	0x1a1
 2174 0abe 2D020000 		.4byte	0x22d
 2175 0ac2 A4030000 		.4byte	.LLST26
 2176 0ac6 31       		.uleb128 0x31
 2177 0ac7 6D736700 		.ascii	"msg\000"
 2178 0acb 01       		.byte	0x1
 2179 0acc A201     		.2byte	0x1a2
 2180 0ace E4000000 		.4byte	0xe4
 2181 0ad2 D0030000 		.4byte	.LLST27
 2182 0ad6 22       		.uleb128 0x22
 2183 0ad7 04000000 		.4byte	.LBB57
 2184 0adb 06000000 		.4byte	.LBE57-.LBB57
 2185 0adf F20A0000 		.4byte	0xaf2
 2186 0ae3 2E       		.uleb128 0x2e
 2187 0ae4 746D7000 		.ascii	"tmp\000"
 2188 0ae8 01       		.byte	0x1
 2189 0ae9 A601     		.2byte	0x1a6
 2190 0aeb AD000000 		.4byte	0xad
 2191 0aef 01       		.uleb128 0x1
 2192 0af0 53       		.byte	0x53
 2193 0af1 00       		.byte	0
 2194 0af2 32       		.uleb128 0x32
 2195 0af3 87050000 		.4byte	0x587
 2196 0af7 12000000 		.4byte	.LBB58
 2197 0afb B0000000 		.4byte	.Ldebug_ranges0+0xb0
 2198 0aff 01       		.byte	0x1
 2199 0b00 AC01     		.2byte	0x1ac
 2200 0b02 190B0000 		.4byte	0xb19
 2201 0b06 1C       		.uleb128 0x1c
 2202 0b07 9D050000 		.4byte	0x59d
 2203 0b0b EE030000 		.4byte	.LLST28
 2204 0b0f 1C       		.uleb128 0x1c
 2205 0b10 93050000 		.4byte	0x593
 2206 0b14 10040000 		.4byte	.LLST29
 2207 0b18 00       		.byte	0
 2208 0b19 22       		.uleb128 0x22
 2209 0b1a 22000000 		.4byte	.LBB62
 2210 0b1e 06000000 		.4byte	.LBE62-.LBB62
 2211 0b22 350B0000 		.4byte	0xb35
 2212 0b26 2E       		.uleb128 0x2e
 2213 0b27 746D7000 		.ascii	"tmp\000"
 2214 0b2b 01       		.byte	0x1
 2215 0b2c B001     		.2byte	0x1b0
 2216 0b2e AD000000 		.4byte	0xad
 2217 0b32 01       		.uleb128 0x1
 2218 0b33 53       		.byte	0x53
 2219 0b34 00       		.byte	0
 2220 0b35 35       		.uleb128 0x35
 2221 0b36 20000000 		.4byte	.LVL46
 2222 0b3a C20B0000 		.4byte	0xbc2
 2223 0b3e 480B0000 		.4byte	0xb48
ARM GAS  /tmp/ccN02bcZ.s 			page 40


 2224 0b42 28       		.uleb128 0x28
 2225 0b43 01       		.uleb128 0x1
 2226 0b44 50       		.byte	0x50
 2227 0b45 01       		.uleb128 0x1
 2228 0b46 37       		.byte	0x37
 2229 0b47 00       		.byte	0
 2230 0b48 27       		.uleb128 0x27
 2231 0b49 2E000000 		.4byte	.LVL48
 2232 0b4d D30B0000 		.4byte	0xbd3
 2233 0b51 28       		.uleb128 0x28
 2234 0b52 01       		.uleb128 0x1
 2235 0b53 50       		.byte	0x50
 2236 0b54 02       		.uleb128 0x2
 2237 0b55 74       		.byte	0x74
 2238 0b56 00       		.sleb128 0
 2239 0b57 00       		.byte	0
 2240 0b58 00       		.byte	0
 2241 0b59 36       		.uleb128 0x36
 2242 0b5a 33000000 		.4byte	.LASF93
 2243 0b5e 0A       		.byte	0xa
 2244 0b5f 7A       		.byte	0x7a
 2245 0b60 C2030000 		.4byte	0x3c2
 2246 0b64 36       		.uleb128 0x36
 2247 0b65 95040000 		.4byte	.LASF94
 2248 0b69 0B       		.byte	0xb
 2249 0b6a 72       		.byte	0x72
 2250 0b6b 2A040000 		.4byte	0x42a
 2251 0b6f 37       		.uleb128 0x37
 2252 0b70 9C010000 		.4byte	.LASF99
 2253 0b74 0B       		.byte	0xb
 2254 0b75 9C       		.byte	0x9c
 2255 0b76 850B0000 		.4byte	0xb85
 2256 0b7a 0E       		.uleb128 0xe
 2257 0b7b 2D020000 		.4byte	0x22d
 2258 0b7f 0E       		.uleb128 0xe
 2259 0b80 E4000000 		.4byte	0xe4
 2260 0b84 00       		.byte	0
 2261 0b85 38       		.uleb128 0x38
 2262 0b86 D3000000 		.4byte	.LASF96
 2263 0b8a 0B       		.byte	0xb
 2264 0b8b 9F       		.byte	0x9f
 2265 0b8c 39       		.uleb128 0x39
 2266 0b8d C7040000 		.4byte	.LASF95
 2267 0b91 0B       		.byte	0xb
 2268 0b92 99       		.byte	0x99
 2269 0b93 E4000000 		.4byte	0xe4
 2270 0b97 A60B0000 		.4byte	0xba6
 2271 0b9b 0E       		.uleb128 0xe
 2272 0b9c C3000000 		.4byte	0xc3
 2273 0ba0 0E       		.uleb128 0xe
 2274 0ba1 FA000000 		.4byte	0xfa
 2275 0ba5 00       		.byte	0
 2276 0ba6 38       		.uleb128 0x38
 2277 0ba7 00010000 		.4byte	.LASF97
 2278 0bab 0B       		.byte	0xb
 2279 0bac A5       		.byte	0xa5
 2280 0bad 39       		.uleb128 0x39
ARM GAS  /tmp/ccN02bcZ.s 			page 41


 2281 0bae 1D040000 		.4byte	.LASF98
 2282 0bb2 0B       		.byte	0xb
 2283 0bb3 93       		.byte	0x93
 2284 0bb4 2D020000 		.4byte	0x22d
 2285 0bb8 C20B0000 		.4byte	0xbc2
 2286 0bbc 0E       		.uleb128 0xe
 2287 0bbd 2D020000 		.4byte	0x22d
 2288 0bc1 00       		.byte	0
 2289 0bc2 37       		.uleb128 0x37
 2290 0bc3 D4030000 		.4byte	.LASF100
 2291 0bc7 0B       		.byte	0xb
 2292 0bc8 96       		.byte	0x96
 2293 0bc9 D30B0000 		.4byte	0xbd3
 2294 0bcd 0E       		.uleb128 0xe
 2295 0bce C3000000 		.4byte	0xc3
 2296 0bd2 00       		.byte	0
 2297 0bd3 3A       		.uleb128 0x3a
 2298 0bd4 C0030000 		.4byte	.LASF106
 2299 0bd8 0D       		.byte	0xd
 2300 0bd9 3A       		.byte	0x3a
 2301 0bda 0E       		.uleb128 0xe
 2302 0bdb 2D020000 		.4byte	0x22d
 2303 0bdf 00       		.byte	0
 2304 0be0 00       		.byte	0
 2305              		.section	.debug_abbrev,"",%progbits
 2306              	.Ldebug_abbrev0:
 2307 0000 01       		.uleb128 0x1
 2308 0001 11       		.uleb128 0x11
 2309 0002 01       		.byte	0x1
 2310 0003 25       		.uleb128 0x25
 2311 0004 0E       		.uleb128 0xe
 2312 0005 13       		.uleb128 0x13
 2313 0006 0B       		.uleb128 0xb
 2314 0007 03       		.uleb128 0x3
 2315 0008 0E       		.uleb128 0xe
 2316 0009 1B       		.uleb128 0x1b
 2317 000a 0E       		.uleb128 0xe
 2318 000b 55       		.uleb128 0x55
 2319 000c 17       		.uleb128 0x17
 2320 000d 11       		.uleb128 0x11
 2321 000e 01       		.uleb128 0x1
 2322 000f 10       		.uleb128 0x10
 2323 0010 17       		.uleb128 0x17
 2324 0011 00       		.byte	0
 2325 0012 00       		.byte	0
 2326 0013 02       		.uleb128 0x2
 2327 0014 24       		.uleb128 0x24
 2328 0015 00       		.byte	0
 2329 0016 0B       		.uleb128 0xb
 2330 0017 0B       		.uleb128 0xb
 2331 0018 3E       		.uleb128 0x3e
 2332 0019 0B       		.uleb128 0xb
 2333 001a 03       		.uleb128 0x3
 2334 001b 08       		.uleb128 0x8
 2335 001c 00       		.byte	0
 2336 001d 00       		.byte	0
 2337 001e 03       		.uleb128 0x3
ARM GAS  /tmp/ccN02bcZ.s 			page 42


 2338 001f 16       		.uleb128 0x16
 2339 0020 00       		.byte	0
 2340 0021 03       		.uleb128 0x3
 2341 0022 0E       		.uleb128 0xe
 2342 0023 3A       		.uleb128 0x3a
 2343 0024 0B       		.uleb128 0xb
 2344 0025 3B       		.uleb128 0x3b
 2345 0026 0B       		.uleb128 0xb
 2346 0027 49       		.uleb128 0x49
 2347 0028 13       		.uleb128 0x13
 2348 0029 00       		.byte	0
 2349 002a 00       		.byte	0
 2350 002b 04       		.uleb128 0x4
 2351 002c 24       		.uleb128 0x24
 2352 002d 00       		.byte	0
 2353 002e 0B       		.uleb128 0xb
 2354 002f 0B       		.uleb128 0xb
 2355 0030 3E       		.uleb128 0x3e
 2356 0031 0B       		.uleb128 0xb
 2357 0032 03       		.uleb128 0x3
 2358 0033 0E       		.uleb128 0xe
 2359 0034 00       		.byte	0
 2360 0035 00       		.byte	0
 2361 0036 05       		.uleb128 0x5
 2362 0037 13       		.uleb128 0x13
 2363 0038 01       		.byte	0x1
 2364 0039 03       		.uleb128 0x3
 2365 003a 0E       		.uleb128 0xe
 2366 003b 0B       		.uleb128 0xb
 2367 003c 0B       		.uleb128 0xb
 2368 003d 3A       		.uleb128 0x3a
 2369 003e 0B       		.uleb128 0xb
 2370 003f 3B       		.uleb128 0x3b
 2371 0040 0B       		.uleb128 0xb
 2372 0041 01       		.uleb128 0x1
 2373 0042 13       		.uleb128 0x13
 2374 0043 00       		.byte	0
 2375 0044 00       		.byte	0
 2376 0045 06       		.uleb128 0x6
 2377 0046 0D       		.uleb128 0xd
 2378 0047 00       		.byte	0
 2379 0048 03       		.uleb128 0x3
 2380 0049 0E       		.uleb128 0xe
 2381 004a 3A       		.uleb128 0x3a
 2382 004b 0B       		.uleb128 0xb
 2383 004c 3B       		.uleb128 0x3b
 2384 004d 0B       		.uleb128 0xb
 2385 004e 49       		.uleb128 0x49
 2386 004f 13       		.uleb128 0x13
 2387 0050 38       		.uleb128 0x38
 2388 0051 0B       		.uleb128 0xb
 2389 0052 00       		.byte	0
 2390 0053 00       		.byte	0
 2391 0054 07       		.uleb128 0x7
 2392 0055 0D       		.uleb128 0xd
 2393 0056 00       		.byte	0
 2394 0057 03       		.uleb128 0x3
ARM GAS  /tmp/ccN02bcZ.s 			page 43


 2395 0058 08       		.uleb128 0x8
 2396 0059 3A       		.uleb128 0x3a
 2397 005a 0B       		.uleb128 0xb
 2398 005b 3B       		.uleb128 0x3b
 2399 005c 0B       		.uleb128 0xb
 2400 005d 49       		.uleb128 0x49
 2401 005e 13       		.uleb128 0x13
 2402 005f 38       		.uleb128 0x38
 2403 0060 0B       		.uleb128 0xb
 2404 0061 00       		.byte	0
 2405 0062 00       		.byte	0
 2406 0063 08       		.uleb128 0x8
 2407 0064 13       		.uleb128 0x13
 2408 0065 01       		.byte	0x1
 2409 0066 0B       		.uleb128 0xb
 2410 0067 0B       		.uleb128 0xb
 2411 0068 3A       		.uleb128 0x3a
 2412 0069 0B       		.uleb128 0xb
 2413 006a 3B       		.uleb128 0x3b
 2414 006b 0B       		.uleb128 0xb
 2415 006c 01       		.uleb128 0x1
 2416 006d 13       		.uleb128 0x13
 2417 006e 00       		.byte	0
 2418 006f 00       		.byte	0
 2419 0070 09       		.uleb128 0x9
 2420 0071 0F       		.uleb128 0xf
 2421 0072 00       		.byte	0
 2422 0073 0B       		.uleb128 0xb
 2423 0074 0B       		.uleb128 0xb
 2424 0075 49       		.uleb128 0x49
 2425 0076 13       		.uleb128 0x13
 2426 0077 00       		.byte	0
 2427 0078 00       		.byte	0
 2428 0079 0A       		.uleb128 0xa
 2429 007a 0F       		.uleb128 0xf
 2430 007b 00       		.byte	0
 2431 007c 0B       		.uleb128 0xb
 2432 007d 0B       		.uleb128 0xb
 2433 007e 00       		.byte	0
 2434 007f 00       		.byte	0
 2435 0080 0B       		.uleb128 0xb
 2436 0081 0D       		.uleb128 0xd
 2437 0082 00       		.byte	0
 2438 0083 03       		.uleb128 0x3
 2439 0084 08       		.uleb128 0x8
 2440 0085 3A       		.uleb128 0x3a
 2441 0086 0B       		.uleb128 0xb
 2442 0087 3B       		.uleb128 0x3b
 2443 0088 05       		.uleb128 0x5
 2444 0089 49       		.uleb128 0x49
 2445 008a 13       		.uleb128 0x13
 2446 008b 38       		.uleb128 0x38
 2447 008c 0B       		.uleb128 0xb
 2448 008d 00       		.byte	0
 2449 008e 00       		.byte	0
 2450 008f 0C       		.uleb128 0xc
 2451 0090 13       		.uleb128 0x13
ARM GAS  /tmp/ccN02bcZ.s 			page 44


 2452 0091 01       		.byte	0x1
 2453 0092 03       		.uleb128 0x3
 2454 0093 0E       		.uleb128 0xe
 2455 0094 0B       		.uleb128 0xb
 2456 0095 0B       		.uleb128 0xb
 2457 0096 3A       		.uleb128 0x3a
 2458 0097 0B       		.uleb128 0xb
 2459 0098 3B       		.uleb128 0x3b
 2460 0099 05       		.uleb128 0x5
 2461 009a 01       		.uleb128 0x1
 2462 009b 13       		.uleb128 0x13
 2463 009c 00       		.byte	0
 2464 009d 00       		.byte	0
 2465 009e 0D       		.uleb128 0xd
 2466 009f 15       		.uleb128 0x15
 2467 00a0 01       		.byte	0x1
 2468 00a1 27       		.uleb128 0x27
 2469 00a2 19       		.uleb128 0x19
 2470 00a3 01       		.uleb128 0x1
 2471 00a4 13       		.uleb128 0x13
 2472 00a5 00       		.byte	0
 2473 00a6 00       		.byte	0
 2474 00a7 0E       		.uleb128 0xe
 2475 00a8 05       		.uleb128 0x5
 2476 00a9 00       		.byte	0
 2477 00aa 49       		.uleb128 0x49
 2478 00ab 13       		.uleb128 0x13
 2479 00ac 00       		.byte	0
 2480 00ad 00       		.byte	0
 2481 00ae 0F       		.uleb128 0xf
 2482 00af 35       		.uleb128 0x35
 2483 00b0 00       		.byte	0
 2484 00b1 49       		.uleb128 0x49
 2485 00b2 13       		.uleb128 0x13
 2486 00b3 00       		.byte	0
 2487 00b4 00       		.byte	0
 2488 00b5 10       		.uleb128 0x10
 2489 00b6 17       		.uleb128 0x17
 2490 00b7 01       		.byte	0x1
 2491 00b8 0B       		.uleb128 0xb
 2492 00b9 0B       		.uleb128 0xb
 2493 00ba 3A       		.uleb128 0x3a
 2494 00bb 0B       		.uleb128 0xb
 2495 00bc 3B       		.uleb128 0x3b
 2496 00bd 0B       		.uleb128 0xb
 2497 00be 01       		.uleb128 0x1
 2498 00bf 13       		.uleb128 0x13
 2499 00c0 00       		.byte	0
 2500 00c1 00       		.byte	0
 2501 00c2 11       		.uleb128 0x11
 2502 00c3 0D       		.uleb128 0xd
 2503 00c4 00       		.byte	0
 2504 00c5 03       		.uleb128 0x3
 2505 00c6 0E       		.uleb128 0xe
 2506 00c7 3A       		.uleb128 0x3a
 2507 00c8 0B       		.uleb128 0xb
 2508 00c9 3B       		.uleb128 0x3b
ARM GAS  /tmp/ccN02bcZ.s 			page 45


 2509 00ca 0B       		.uleb128 0xb
 2510 00cb 49       		.uleb128 0x49
 2511 00cc 13       		.uleb128 0x13
 2512 00cd 00       		.byte	0
 2513 00ce 00       		.byte	0
 2514 00cf 12       		.uleb128 0x12
 2515 00d0 26       		.uleb128 0x26
 2516 00d1 00       		.byte	0
 2517 00d2 49       		.uleb128 0x49
 2518 00d3 13       		.uleb128 0x13
 2519 00d4 00       		.byte	0
 2520 00d5 00       		.byte	0
 2521 00d6 13       		.uleb128 0x13
 2522 00d7 15       		.uleb128 0x15
 2523 00d8 01       		.byte	0x1
 2524 00d9 27       		.uleb128 0x27
 2525 00da 19       		.uleb128 0x19
 2526 00db 49       		.uleb128 0x49
 2527 00dc 13       		.uleb128 0x13
 2528 00dd 01       		.uleb128 0x1
 2529 00de 13       		.uleb128 0x13
 2530 00df 00       		.byte	0
 2531 00e0 00       		.byte	0
 2532 00e1 14       		.uleb128 0x14
 2533 00e2 2E       		.uleb128 0x2e
 2534 00e3 01       		.byte	0x1
 2535 00e4 3F       		.uleb128 0x3f
 2536 00e5 19       		.uleb128 0x19
 2537 00e6 03       		.uleb128 0x3
 2538 00e7 0E       		.uleb128 0xe
 2539 00e8 3A       		.uleb128 0x3a
 2540 00e9 0B       		.uleb128 0xb
 2541 00ea 3B       		.uleb128 0x3b
 2542 00eb 0B       		.uleb128 0xb
 2543 00ec 27       		.uleb128 0x27
 2544 00ed 19       		.uleb128 0x19
 2545 00ee 49       		.uleb128 0x49
 2546 00ef 13       		.uleb128 0x13
 2547 00f0 20       		.uleb128 0x20
 2548 00f1 0B       		.uleb128 0xb
 2549 00f2 01       		.uleb128 0x1
 2550 00f3 13       		.uleb128 0x13
 2551 00f4 00       		.byte	0
 2552 00f5 00       		.byte	0
 2553 00f6 15       		.uleb128 0x15
 2554 00f7 05       		.uleb128 0x5
 2555 00f8 00       		.byte	0
 2556 00f9 03       		.uleb128 0x3
 2557 00fa 08       		.uleb128 0x8
 2558 00fb 3A       		.uleb128 0x3a
 2559 00fc 0B       		.uleb128 0xb
 2560 00fd 3B       		.uleb128 0x3b
 2561 00fe 0B       		.uleb128 0xb
 2562 00ff 49       		.uleb128 0x49
 2563 0100 13       		.uleb128 0x13
 2564 0101 00       		.byte	0
 2565 0102 00       		.byte	0
ARM GAS  /tmp/ccN02bcZ.s 			page 46


 2566 0103 16       		.uleb128 0x16
 2567 0104 05       		.uleb128 0x5
 2568 0105 00       		.byte	0
 2569 0106 03       		.uleb128 0x3
 2570 0107 0E       		.uleb128 0xe
 2571 0108 3A       		.uleb128 0x3a
 2572 0109 0B       		.uleb128 0xb
 2573 010a 3B       		.uleb128 0x3b
 2574 010b 0B       		.uleb128 0xb
 2575 010c 49       		.uleb128 0x49
 2576 010d 13       		.uleb128 0x13
 2577 010e 00       		.byte	0
 2578 010f 00       		.byte	0
 2579 0110 17       		.uleb128 0x17
 2580 0111 34       		.uleb128 0x34
 2581 0112 00       		.byte	0
 2582 0113 03       		.uleb128 0x3
 2583 0114 08       		.uleb128 0x8
 2584 0115 3A       		.uleb128 0x3a
 2585 0116 0B       		.uleb128 0xb
 2586 0117 3B       		.uleb128 0x3b
 2587 0118 0B       		.uleb128 0xb
 2588 0119 49       		.uleb128 0x49
 2589 011a 13       		.uleb128 0x13
 2590 011b 00       		.byte	0
 2591 011c 00       		.byte	0
 2592 011d 18       		.uleb128 0x18
 2593 011e 2E       		.uleb128 0x2e
 2594 011f 01       		.byte	0x1
 2595 0120 03       		.uleb128 0x3
 2596 0121 0E       		.uleb128 0xe
 2597 0122 3A       		.uleb128 0x3a
 2598 0123 0B       		.uleb128 0xb
 2599 0124 3B       		.uleb128 0x3b
 2600 0125 0B       		.uleb128 0xb
 2601 0126 27       		.uleb128 0x27
 2602 0127 19       		.uleb128 0x19
 2603 0128 49       		.uleb128 0x49
 2604 0129 13       		.uleb128 0x13
 2605 012a 20       		.uleb128 0x20
 2606 012b 0B       		.uleb128 0xb
 2607 012c 01       		.uleb128 0x1
 2608 012d 13       		.uleb128 0x13
 2609 012e 00       		.byte	0
 2610 012f 00       		.byte	0
 2611 0130 19       		.uleb128 0x19
 2612 0131 2E       		.uleb128 0x2e
 2613 0132 01       		.byte	0x1
 2614 0133 03       		.uleb128 0x3
 2615 0134 0E       		.uleb128 0xe
 2616 0135 3A       		.uleb128 0x3a
 2617 0136 0B       		.uleb128 0xb
 2618 0137 3B       		.uleb128 0x3b
 2619 0138 0B       		.uleb128 0xb
 2620 0139 27       		.uleb128 0x27
 2621 013a 19       		.uleb128 0x19
 2622 013b 20       		.uleb128 0x20
ARM GAS  /tmp/ccN02bcZ.s 			page 47


 2623 013c 0B       		.uleb128 0xb
 2624 013d 01       		.uleb128 0x1
 2625 013e 13       		.uleb128 0x13
 2626 013f 00       		.byte	0
 2627 0140 00       		.byte	0
 2628 0141 1A       		.uleb128 0x1a
 2629 0142 2E       		.uleb128 0x2e
 2630 0143 01       		.byte	0x1
 2631 0144 31       		.uleb128 0x31
 2632 0145 13       		.uleb128 0x13
 2633 0146 11       		.uleb128 0x11
 2634 0147 01       		.uleb128 0x1
 2635 0148 12       		.uleb128 0x12
 2636 0149 06       		.uleb128 0x6
 2637 014a 40       		.uleb128 0x40
 2638 014b 18       		.uleb128 0x18
 2639 014c 9742     		.uleb128 0x2117
 2640 014e 19       		.uleb128 0x19
 2641 014f 01       		.uleb128 0x1
 2642 0150 13       		.uleb128 0x13
 2643 0151 00       		.byte	0
 2644 0152 00       		.byte	0
 2645 0153 1B       		.uleb128 0x1b
 2646 0154 05       		.uleb128 0x5
 2647 0155 00       		.byte	0
 2648 0156 31       		.uleb128 0x31
 2649 0157 13       		.uleb128 0x13
 2650 0158 02       		.uleb128 0x2
 2651 0159 18       		.uleb128 0x18
 2652 015a 00       		.byte	0
 2653 015b 00       		.byte	0
 2654 015c 1C       		.uleb128 0x1c
 2655 015d 05       		.uleb128 0x5
 2656 015e 00       		.byte	0
 2657 015f 31       		.uleb128 0x31
 2658 0160 13       		.uleb128 0x13
 2659 0161 02       		.uleb128 0x2
 2660 0162 17       		.uleb128 0x17
 2661 0163 00       		.byte	0
 2662 0164 00       		.byte	0
 2663 0165 1D       		.uleb128 0x1d
 2664 0166 34       		.uleb128 0x34
 2665 0167 00       		.byte	0
 2666 0168 31       		.uleb128 0x31
 2667 0169 13       		.uleb128 0x13
 2668 016a 02       		.uleb128 0x2
 2669 016b 18       		.uleb128 0x18
 2670 016c 00       		.byte	0
 2671 016d 00       		.byte	0
 2672 016e 1E       		.uleb128 0x1e
 2673 016f 1D       		.uleb128 0x1d
 2674 0170 01       		.byte	0x1
 2675 0171 31       		.uleb128 0x31
 2676 0172 13       		.uleb128 0x13
 2677 0173 52       		.uleb128 0x52
 2678 0174 01       		.uleb128 0x1
 2679 0175 55       		.uleb128 0x55
ARM GAS  /tmp/ccN02bcZ.s 			page 48


 2680 0176 17       		.uleb128 0x17
 2681 0177 58       		.uleb128 0x58
 2682 0178 0B       		.uleb128 0xb
 2683 0179 59       		.uleb128 0x59
 2684 017a 0B       		.uleb128 0xb
 2685 017b 00       		.byte	0
 2686 017c 00       		.byte	0
 2687 017d 1F       		.uleb128 0x1f
 2688 017e 2E       		.uleb128 0x2e
 2689 017f 01       		.byte	0x1
 2690 0180 3F       		.uleb128 0x3f
 2691 0181 19       		.uleb128 0x19
 2692 0182 03       		.uleb128 0x3
 2693 0183 0E       		.uleb128 0xe
 2694 0184 3A       		.uleb128 0x3a
 2695 0185 0B       		.uleb128 0xb
 2696 0186 3B       		.uleb128 0x3b
 2697 0187 0B       		.uleb128 0xb
 2698 0188 27       		.uleb128 0x27
 2699 0189 19       		.uleb128 0x19
 2700 018a 49       		.uleb128 0x49
 2701 018b 13       		.uleb128 0x13
 2702 018c 11       		.uleb128 0x11
 2703 018d 01       		.uleb128 0x1
 2704 018e 12       		.uleb128 0x12
 2705 018f 06       		.uleb128 0x6
 2706 0190 40       		.uleb128 0x40
 2707 0191 18       		.uleb128 0x18
 2708 0192 9742     		.uleb128 0x2117
 2709 0194 19       		.uleb128 0x19
 2710 0195 01       		.uleb128 0x1
 2711 0196 13       		.uleb128 0x13
 2712 0197 00       		.byte	0
 2713 0198 00       		.byte	0
 2714 0199 20       		.uleb128 0x20
 2715 019a 05       		.uleb128 0x5
 2716 019b 00       		.byte	0
 2717 019c 03       		.uleb128 0x3
 2718 019d 08       		.uleb128 0x8
 2719 019e 3A       		.uleb128 0x3a
 2720 019f 0B       		.uleb128 0xb
 2721 01a0 3B       		.uleb128 0x3b
 2722 01a1 0B       		.uleb128 0xb
 2723 01a2 49       		.uleb128 0x49
 2724 01a3 13       		.uleb128 0x13
 2725 01a4 02       		.uleb128 0x2
 2726 01a5 17       		.uleb128 0x17
 2727 01a6 00       		.byte	0
 2728 01a7 00       		.byte	0
 2729 01a8 21       		.uleb128 0x21
 2730 01a9 05       		.uleb128 0x5
 2731 01aa 00       		.byte	0
 2732 01ab 03       		.uleb128 0x3
 2733 01ac 0E       		.uleb128 0xe
 2734 01ad 3A       		.uleb128 0x3a
 2735 01ae 0B       		.uleb128 0xb
 2736 01af 3B       		.uleb128 0x3b
ARM GAS  /tmp/ccN02bcZ.s 			page 49


 2737 01b0 0B       		.uleb128 0xb
 2738 01b1 49       		.uleb128 0x49
 2739 01b2 13       		.uleb128 0x13
 2740 01b3 02       		.uleb128 0x2
 2741 01b4 17       		.uleb128 0x17
 2742 01b5 00       		.byte	0
 2743 01b6 00       		.byte	0
 2744 01b7 22       		.uleb128 0x22
 2745 01b8 0B       		.uleb128 0xb
 2746 01b9 01       		.byte	0x1
 2747 01ba 11       		.uleb128 0x11
 2748 01bb 01       		.uleb128 0x1
 2749 01bc 12       		.uleb128 0x12
 2750 01bd 06       		.uleb128 0x6
 2751 01be 01       		.uleb128 0x1
 2752 01bf 13       		.uleb128 0x13
 2753 01c0 00       		.byte	0
 2754 01c1 00       		.byte	0
 2755 01c2 23       		.uleb128 0x23
 2756 01c3 34       		.uleb128 0x34
 2757 01c4 00       		.byte	0
 2758 01c5 03       		.uleb128 0x3
 2759 01c6 08       		.uleb128 0x8
 2760 01c7 3A       		.uleb128 0x3a
 2761 01c8 0B       		.uleb128 0xb
 2762 01c9 3B       		.uleb128 0x3b
 2763 01ca 0B       		.uleb128 0xb
 2764 01cb 49       		.uleb128 0x49
 2765 01cc 13       		.uleb128 0x13
 2766 01cd 02       		.uleb128 0x2
 2767 01ce 18       		.uleb128 0x18
 2768 01cf 00       		.byte	0
 2769 01d0 00       		.byte	0
 2770 01d1 24       		.uleb128 0x24
 2771 01d2 1D       		.uleb128 0x1d
 2772 01d3 01       		.byte	0x1
 2773 01d4 31       		.uleb128 0x31
 2774 01d5 13       		.uleb128 0x13
 2775 01d6 52       		.uleb128 0x52
 2776 01d7 01       		.uleb128 0x1
 2777 01d8 55       		.uleb128 0x55
 2778 01d9 17       		.uleb128 0x17
 2779 01da 58       		.uleb128 0x58
 2780 01db 0B       		.uleb128 0xb
 2781 01dc 59       		.uleb128 0x59
 2782 01dd 0B       		.uleb128 0xb
 2783 01de 01       		.uleb128 0x1
 2784 01df 13       		.uleb128 0x13
 2785 01e0 00       		.byte	0
 2786 01e1 00       		.byte	0
 2787 01e2 25       		.uleb128 0x25
 2788 01e3 0B       		.uleb128 0xb
 2789 01e4 01       		.byte	0x1
 2790 01e5 55       		.uleb128 0x55
 2791 01e6 17       		.uleb128 0x17
 2792 01e7 00       		.byte	0
 2793 01e8 00       		.byte	0
ARM GAS  /tmp/ccN02bcZ.s 			page 50


 2794 01e9 26       		.uleb128 0x26
 2795 01ea 34       		.uleb128 0x34
 2796 01eb 00       		.byte	0
 2797 01ec 31       		.uleb128 0x31
 2798 01ed 13       		.uleb128 0x13
 2799 01ee 02       		.uleb128 0x2
 2800 01ef 17       		.uleb128 0x17
 2801 01f0 00       		.byte	0
 2802 01f1 00       		.byte	0
 2803 01f2 27       		.uleb128 0x27
 2804 01f3 898201   		.uleb128 0x4109
 2805 01f6 01       		.byte	0x1
 2806 01f7 11       		.uleb128 0x11
 2807 01f8 01       		.uleb128 0x1
 2808 01f9 31       		.uleb128 0x31
 2809 01fa 13       		.uleb128 0x13
 2810 01fb 00       		.byte	0
 2811 01fc 00       		.byte	0
 2812 01fd 28       		.uleb128 0x28
 2813 01fe 8A8201   		.uleb128 0x410a
 2814 0201 00       		.byte	0
 2815 0202 02       		.uleb128 0x2
 2816 0203 18       		.uleb128 0x18
 2817 0204 9142     		.uleb128 0x2111
 2818 0206 18       		.uleb128 0x18
 2819 0207 00       		.byte	0
 2820 0208 00       		.byte	0
 2821 0209 29       		.uleb128 0x29
 2822 020a 34       		.uleb128 0x34
 2823 020b 00       		.byte	0
 2824 020c 03       		.uleb128 0x3
 2825 020d 0E       		.uleb128 0xe
 2826 020e 3A       		.uleb128 0x3a
 2827 020f 0B       		.uleb128 0xb
 2828 0210 3B       		.uleb128 0x3b
 2829 0211 0B       		.uleb128 0xb
 2830 0212 49       		.uleb128 0x49
 2831 0213 13       		.uleb128 0x13
 2832 0214 02       		.uleb128 0x2
 2833 0215 17       		.uleb128 0x17
 2834 0216 00       		.byte	0
 2835 0217 00       		.byte	0
 2836 0218 2A       		.uleb128 0x2a
 2837 0219 898201   		.uleb128 0x4109
 2838 021c 00       		.byte	0
 2839 021d 11       		.uleb128 0x11
 2840 021e 01       		.uleb128 0x1
 2841 021f 31       		.uleb128 0x31
 2842 0220 13       		.uleb128 0x13
 2843 0221 00       		.byte	0
 2844 0222 00       		.byte	0
 2845 0223 2B       		.uleb128 0x2b
 2846 0224 0B       		.uleb128 0xb
 2847 0225 01       		.byte	0x1
 2848 0226 55       		.uleb128 0x55
 2849 0227 17       		.uleb128 0x17
 2850 0228 01       		.uleb128 0x1
ARM GAS  /tmp/ccN02bcZ.s 			page 51


 2851 0229 13       		.uleb128 0x13
 2852 022a 00       		.byte	0
 2853 022b 00       		.byte	0
 2854 022c 2C       		.uleb128 0x2c
 2855 022d 2E       		.uleb128 0x2e
 2856 022e 01       		.byte	0x1
 2857 022f 3F       		.uleb128 0x3f
 2858 0230 19       		.uleb128 0x19
 2859 0231 03       		.uleb128 0x3
 2860 0232 0E       		.uleb128 0xe
 2861 0233 3A       		.uleb128 0x3a
 2862 0234 0B       		.uleb128 0xb
 2863 0235 3B       		.uleb128 0x3b
 2864 0236 05       		.uleb128 0x5
 2865 0237 27       		.uleb128 0x27
 2866 0238 19       		.uleb128 0x19
 2867 0239 11       		.uleb128 0x11
 2868 023a 01       		.uleb128 0x1
 2869 023b 12       		.uleb128 0x12
 2870 023c 06       		.uleb128 0x6
 2871 023d 40       		.uleb128 0x40
 2872 023e 18       		.uleb128 0x18
 2873 023f 9742     		.uleb128 0x2117
 2874 0241 19       		.uleb128 0x19
 2875 0242 01       		.uleb128 0x1
 2876 0243 13       		.uleb128 0x13
 2877 0244 00       		.byte	0
 2878 0245 00       		.byte	0
 2879 0246 2D       		.uleb128 0x2d
 2880 0247 05       		.uleb128 0x5
 2881 0248 00       		.byte	0
 2882 0249 03       		.uleb128 0x3
 2883 024a 08       		.uleb128 0x8
 2884 024b 3A       		.uleb128 0x3a
 2885 024c 0B       		.uleb128 0xb
 2886 024d 3B       		.uleb128 0x3b
 2887 024e 05       		.uleb128 0x5
 2888 024f 49       		.uleb128 0x49
 2889 0250 13       		.uleb128 0x13
 2890 0251 02       		.uleb128 0x2
 2891 0252 18       		.uleb128 0x18
 2892 0253 00       		.byte	0
 2893 0254 00       		.byte	0
 2894 0255 2E       		.uleb128 0x2e
 2895 0256 34       		.uleb128 0x34
 2896 0257 00       		.byte	0
 2897 0258 03       		.uleb128 0x3
 2898 0259 08       		.uleb128 0x8
 2899 025a 3A       		.uleb128 0x3a
 2900 025b 0B       		.uleb128 0xb
 2901 025c 3B       		.uleb128 0x3b
 2902 025d 05       		.uleb128 0x5
 2903 025e 49       		.uleb128 0x49
 2904 025f 13       		.uleb128 0x13
 2905 0260 02       		.uleb128 0x2
 2906 0261 18       		.uleb128 0x18
 2907 0262 00       		.byte	0
ARM GAS  /tmp/ccN02bcZ.s 			page 52


 2908 0263 00       		.byte	0
 2909 0264 2F       		.uleb128 0x2f
 2910 0265 05       		.uleb128 0x5
 2911 0266 00       		.byte	0
 2912 0267 03       		.uleb128 0x3
 2913 0268 0E       		.uleb128 0xe
 2914 0269 3A       		.uleb128 0x3a
 2915 026a 0B       		.uleb128 0xb
 2916 026b 3B       		.uleb128 0x3b
 2917 026c 05       		.uleb128 0x5
 2918 026d 49       		.uleb128 0x49
 2919 026e 13       		.uleb128 0x13
 2920 026f 02       		.uleb128 0x2
 2921 0270 17       		.uleb128 0x17
 2922 0271 00       		.byte	0
 2923 0272 00       		.byte	0
 2924 0273 30       		.uleb128 0x30
 2925 0274 05       		.uleb128 0x5
 2926 0275 00       		.byte	0
 2927 0276 03       		.uleb128 0x3
 2928 0277 08       		.uleb128 0x8
 2929 0278 3A       		.uleb128 0x3a
 2930 0279 0B       		.uleb128 0xb
 2931 027a 3B       		.uleb128 0x3b
 2932 027b 05       		.uleb128 0x5
 2933 027c 49       		.uleb128 0x49
 2934 027d 13       		.uleb128 0x13
 2935 027e 02       		.uleb128 0x2
 2936 027f 17       		.uleb128 0x17
 2937 0280 00       		.byte	0
 2938 0281 00       		.byte	0
 2939 0282 31       		.uleb128 0x31
 2940 0283 34       		.uleb128 0x34
 2941 0284 00       		.byte	0
 2942 0285 03       		.uleb128 0x3
 2943 0286 08       		.uleb128 0x8
 2944 0287 3A       		.uleb128 0x3a
 2945 0288 0B       		.uleb128 0xb
 2946 0289 3B       		.uleb128 0x3b
 2947 028a 05       		.uleb128 0x5
 2948 028b 49       		.uleb128 0x49
 2949 028c 13       		.uleb128 0x13
 2950 028d 02       		.uleb128 0x2
 2951 028e 17       		.uleb128 0x17
 2952 028f 00       		.byte	0
 2953 0290 00       		.byte	0
 2954 0291 32       		.uleb128 0x32
 2955 0292 1D       		.uleb128 0x1d
 2956 0293 01       		.byte	0x1
 2957 0294 31       		.uleb128 0x31
 2958 0295 13       		.uleb128 0x13
 2959 0296 52       		.uleb128 0x52
 2960 0297 01       		.uleb128 0x1
 2961 0298 55       		.uleb128 0x55
 2962 0299 17       		.uleb128 0x17
 2963 029a 58       		.uleb128 0x58
 2964 029b 0B       		.uleb128 0xb
ARM GAS  /tmp/ccN02bcZ.s 			page 53


 2965 029c 59       		.uleb128 0x59
 2966 029d 05       		.uleb128 0x5
 2967 029e 01       		.uleb128 0x1
 2968 029f 13       		.uleb128 0x13
 2969 02a0 00       		.byte	0
 2970 02a1 00       		.byte	0
 2971 02a2 33       		.uleb128 0x33
 2972 02a3 898201   		.uleb128 0x4109
 2973 02a6 01       		.byte	0x1
 2974 02a7 11       		.uleb128 0x11
 2975 02a8 01       		.uleb128 0x1
 2976 02a9 9542     		.uleb128 0x2115
 2977 02ab 19       		.uleb128 0x19
 2978 02ac 31       		.uleb128 0x31
 2979 02ad 13       		.uleb128 0x13
 2980 02ae 00       		.byte	0
 2981 02af 00       		.byte	0
 2982 02b0 34       		.uleb128 0x34
 2983 02b1 2E       		.uleb128 0x2e
 2984 02b2 01       		.byte	0x1
 2985 02b3 3F       		.uleb128 0x3f
 2986 02b4 19       		.uleb128 0x19
 2987 02b5 03       		.uleb128 0x3
 2988 02b6 0E       		.uleb128 0xe
 2989 02b7 3A       		.uleb128 0x3a
 2990 02b8 0B       		.uleb128 0xb
 2991 02b9 3B       		.uleb128 0x3b
 2992 02ba 05       		.uleb128 0x5
 2993 02bb 27       		.uleb128 0x27
 2994 02bc 19       		.uleb128 0x19
 2995 02bd 49       		.uleb128 0x49
 2996 02be 13       		.uleb128 0x13
 2997 02bf 11       		.uleb128 0x11
 2998 02c0 01       		.uleb128 0x1
 2999 02c1 12       		.uleb128 0x12
 3000 02c2 06       		.uleb128 0x6
 3001 02c3 40       		.uleb128 0x40
 3002 02c4 18       		.uleb128 0x18
 3003 02c5 9742     		.uleb128 0x2117
 3004 02c7 19       		.uleb128 0x19
 3005 02c8 01       		.uleb128 0x1
 3006 02c9 13       		.uleb128 0x13
 3007 02ca 00       		.byte	0
 3008 02cb 00       		.byte	0
 3009 02cc 35       		.uleb128 0x35
 3010 02cd 898201   		.uleb128 0x4109
 3011 02d0 01       		.byte	0x1
 3012 02d1 11       		.uleb128 0x11
 3013 02d2 01       		.uleb128 0x1
 3014 02d3 31       		.uleb128 0x31
 3015 02d4 13       		.uleb128 0x13
 3016 02d5 01       		.uleb128 0x1
 3017 02d6 13       		.uleb128 0x13
 3018 02d7 00       		.byte	0
 3019 02d8 00       		.byte	0
 3020 02d9 36       		.uleb128 0x36
 3021 02da 34       		.uleb128 0x34
ARM GAS  /tmp/ccN02bcZ.s 			page 54


 3022 02db 00       		.byte	0
 3023 02dc 03       		.uleb128 0x3
 3024 02dd 0E       		.uleb128 0xe
 3025 02de 3A       		.uleb128 0x3a
 3026 02df 0B       		.uleb128 0xb
 3027 02e0 3B       		.uleb128 0x3b
 3028 02e1 0B       		.uleb128 0xb
 3029 02e2 49       		.uleb128 0x49
 3030 02e3 13       		.uleb128 0x13
 3031 02e4 3F       		.uleb128 0x3f
 3032 02e5 19       		.uleb128 0x19
 3033 02e6 3C       		.uleb128 0x3c
 3034 02e7 19       		.uleb128 0x19
 3035 02e8 00       		.byte	0
 3036 02e9 00       		.byte	0
 3037 02ea 37       		.uleb128 0x37
 3038 02eb 2E       		.uleb128 0x2e
 3039 02ec 01       		.byte	0x1
 3040 02ed 3F       		.uleb128 0x3f
 3041 02ee 19       		.uleb128 0x19
 3042 02ef 03       		.uleb128 0x3
 3043 02f0 0E       		.uleb128 0xe
 3044 02f1 3A       		.uleb128 0x3a
 3045 02f2 0B       		.uleb128 0xb
 3046 02f3 3B       		.uleb128 0x3b
 3047 02f4 0B       		.uleb128 0xb
 3048 02f5 27       		.uleb128 0x27
 3049 02f6 19       		.uleb128 0x19
 3050 02f7 3C       		.uleb128 0x3c
 3051 02f8 19       		.uleb128 0x19
 3052 02f9 01       		.uleb128 0x1
 3053 02fa 13       		.uleb128 0x13
 3054 02fb 00       		.byte	0
 3055 02fc 00       		.byte	0
 3056 02fd 38       		.uleb128 0x38
 3057 02fe 2E       		.uleb128 0x2e
 3058 02ff 00       		.byte	0
 3059 0300 3F       		.uleb128 0x3f
 3060 0301 19       		.uleb128 0x19
 3061 0302 03       		.uleb128 0x3
 3062 0303 0E       		.uleb128 0xe
 3063 0304 3A       		.uleb128 0x3a
 3064 0305 0B       		.uleb128 0xb
 3065 0306 3B       		.uleb128 0x3b
 3066 0307 0B       		.uleb128 0xb
 3067 0308 27       		.uleb128 0x27
 3068 0309 19       		.uleb128 0x19
 3069 030a 3C       		.uleb128 0x3c
 3070 030b 19       		.uleb128 0x19
 3071 030c 00       		.byte	0
 3072 030d 00       		.byte	0
 3073 030e 39       		.uleb128 0x39
 3074 030f 2E       		.uleb128 0x2e
 3075 0310 01       		.byte	0x1
 3076 0311 3F       		.uleb128 0x3f
 3077 0312 19       		.uleb128 0x19
 3078 0313 03       		.uleb128 0x3
ARM GAS  /tmp/ccN02bcZ.s 			page 55


 3079 0314 0E       		.uleb128 0xe
 3080 0315 3A       		.uleb128 0x3a
 3081 0316 0B       		.uleb128 0xb
 3082 0317 3B       		.uleb128 0x3b
 3083 0318 0B       		.uleb128 0xb
 3084 0319 27       		.uleb128 0x27
 3085 031a 19       		.uleb128 0x19
 3086 031b 49       		.uleb128 0x49
 3087 031c 13       		.uleb128 0x13
 3088 031d 3C       		.uleb128 0x3c
 3089 031e 19       		.uleb128 0x19
 3090 031f 01       		.uleb128 0x1
 3091 0320 13       		.uleb128 0x13
 3092 0321 00       		.byte	0
 3093 0322 00       		.byte	0
 3094 0323 3A       		.uleb128 0x3a
 3095 0324 2E       		.uleb128 0x2e
 3096 0325 01       		.byte	0x1
 3097 0326 3F       		.uleb128 0x3f
 3098 0327 19       		.uleb128 0x19
 3099 0328 03       		.uleb128 0x3
 3100 0329 0E       		.uleb128 0xe
 3101 032a 3A       		.uleb128 0x3a
 3102 032b 0B       		.uleb128 0xb
 3103 032c 3B       		.uleb128 0x3b
 3104 032d 0B       		.uleb128 0xb
 3105 032e 27       		.uleb128 0x27
 3106 032f 19       		.uleb128 0x19
 3107 0330 3C       		.uleb128 0x3c
 3108 0331 19       		.uleb128 0x19
 3109 0332 00       		.byte	0
 3110 0333 00       		.byte	0
 3111 0334 00       		.byte	0
 3112              		.section	.debug_loc,"",%progbits
 3113              	.Ldebug_loc0:
 3114              	.LLST0:
 3115 0000 00000000 		.4byte	.LVL1
 3116 0004 10000000 		.4byte	.LVL2
 3117 0008 0100     		.2byte	0x1
 3118 000a 51       		.byte	0x51
 3119 000b 10000000 		.4byte	.LVL2
 3120 000f 22000000 		.4byte	.LVL4
 3121 0013 0300     		.2byte	0x3
 3122 0015 7A       		.byte	0x7a
 3123 0016 24       		.sleb128 36
 3124 0017 9F       		.byte	0x9f
 3125 0018 22000000 		.4byte	.LVL4
 3126 001c 6C000000 		.4byte	.LFE8
 3127 0020 0400     		.2byte	0x4
 3128 0022 F3       		.byte	0xf3
 3129 0023 01       		.uleb128 0x1
 3130 0024 51       		.byte	0x51
 3131 0025 9F       		.byte	0x9f
 3132 0026 00000000 		.4byte	0
 3133 002a 00000000 		.4byte	0
 3134              	.LLST1:
 3135 002e 00000000 		.4byte	.LVL1
ARM GAS  /tmp/ccN02bcZ.s 			page 56


 3136 0032 1C000000 		.4byte	.LVL3
 3137 0036 0100     		.2byte	0x1
 3138 0038 53       		.byte	0x53
 3139 0039 1C000000 		.4byte	.LVL3
 3140 003d 40000000 		.4byte	.LVL6
 3141 0041 0200     		.2byte	0x2
 3142 0043 77       		.byte	0x77
 3143 0044 00       		.sleb128 0
 3144 0045 40000000 		.4byte	.LVL6
 3145 0049 6C000000 		.4byte	.LFE8
 3146 004d 0400     		.2byte	0x4
 3147 004f F3       		.byte	0xf3
 3148 0050 01       		.uleb128 0x1
 3149 0051 53       		.byte	0x53
 3150 0052 9F       		.byte	0x9f
 3151 0053 00000000 		.4byte	0
 3152 0057 00000000 		.4byte	0
 3153              	.LLST2:
 3154 005b 00000000 		.4byte	.LVL1
 3155 005f 62000000 		.4byte	.LVL7
 3156 0063 0200     		.2byte	0x2
 3157 0065 91       		.byte	0x91
 3158 0066 00       		.sleb128 0
 3159 0067 62000000 		.4byte	.LVL7
 3160 006b 6C000000 		.4byte	.LFE8
 3161 006f 0200     		.2byte	0x2
 3162 0071 7D       		.byte	0x7d
 3163 0072 00       		.sleb128 0
 3164 0073 00000000 		.4byte	0
 3165 0077 00000000 		.4byte	0
 3166              	.LLST3:
 3167 007b 00000000 		.4byte	.LVL8
 3168 007f 69000000 		.4byte	.LVL17-1
 3169 0083 0100     		.2byte	0x1
 3170 0085 50       		.byte	0x50
 3171 0086 69000000 		.4byte	.LVL17-1
 3172 008a 76000000 		.4byte	.LVL18
 3173 008e 0100     		.2byte	0x1
 3174 0090 54       		.byte	0x54
 3175 0091 76000000 		.4byte	.LVL18
 3176 0095 80000000 		.4byte	.LFE9
 3177 0099 0100     		.2byte	0x1
 3178 009b 50       		.byte	0x50
 3179 009c 00000000 		.4byte	0
 3180 00a0 00000000 		.4byte	0
 3181              	.LLST4:
 3182 00a4 00000000 		.4byte	.LVL8
 3183 00a8 14000000 		.4byte	.LVL11
 3184 00ac 0100     		.2byte	0x1
 3185 00ae 51       		.byte	0x51
 3186 00af 14000000 		.4byte	.LVL11
 3187 00b3 22000000 		.4byte	.LVL13
 3188 00b7 0300     		.2byte	0x3
 3189 00b9 71       		.byte	0x71
 3190 00ba 24       		.sleb128 36
 3191 00bb 9F       		.byte	0x9f
 3192 00bc 22000000 		.4byte	.LVL13
ARM GAS  /tmp/ccN02bcZ.s 			page 57


 3193 00c0 80000000 		.4byte	.LFE9
 3194 00c4 0400     		.2byte	0x4
 3195 00c6 F3       		.byte	0xf3
 3196 00c7 01       		.uleb128 0x1
 3197 00c8 51       		.byte	0x51
 3198 00c9 9F       		.byte	0x9f
 3199 00ca 00000000 		.4byte	0
 3200 00ce 00000000 		.4byte	0
 3201              	.LLST5:
 3202 00d2 00000000 		.4byte	.LVL8
 3203 00d6 18000000 		.4byte	.LVL12
 3204 00da 0100     		.2byte	0x1
 3205 00dc 52       		.byte	0x52
 3206 00dd 18000000 		.4byte	.LVL12
 3207 00e1 69000000 		.4byte	.LVL17-1
 3208 00e5 0100     		.2byte	0x1
 3209 00e7 5E       		.byte	0x5e
 3210 00e8 69000000 		.4byte	.LVL17-1
 3211 00ec 80000000 		.4byte	.LFE9
 3212 00f0 0400     		.2byte	0x4
 3213 00f2 F3       		.byte	0xf3
 3214 00f3 01       		.uleb128 0x1
 3215 00f4 52       		.byte	0x52
 3216 00f5 9F       		.byte	0x9f
 3217 00f6 00000000 		.4byte	0
 3218 00fa 00000000 		.4byte	0
 3219              	.LLST6:
 3220 00fe 00000000 		.4byte	.LVL8
 3221 0102 0C000000 		.4byte	.LVL9
 3222 0106 0100     		.2byte	0x1
 3223 0108 53       		.byte	0x53
 3224 0109 0C000000 		.4byte	.LVL9
 3225 010d 28000000 		.4byte	.LVL14
 3226 0111 0100     		.2byte	0x1
 3227 0113 56       		.byte	0x56
 3228 0114 28000000 		.4byte	.LVL14
 3229 0118 4E000000 		.4byte	.LVL16
 3230 011c 0200     		.2byte	0x2
 3231 011e 77       		.byte	0x77
 3232 011f 00       		.sleb128 0
 3233 0120 4E000000 		.4byte	.LVL16
 3234 0124 80000000 		.4byte	.LFE9
 3235 0128 0400     		.2byte	0x4
 3236 012a F3       		.byte	0xf3
 3237 012b 01       		.uleb128 0x1
 3238 012c 53       		.byte	0x53
 3239 012d 9F       		.byte	0x9f
 3240 012e 00000000 		.4byte	0
 3241 0132 00000000 		.4byte	0
 3242              	.LLST7:
 3243 0136 00000000 		.4byte	.LVL8
 3244 013a 76000000 		.4byte	.LVL18
 3245 013e 0200     		.2byte	0x2
 3246 0140 91       		.byte	0x91
 3247 0141 00       		.sleb128 0
 3248 0142 76000000 		.4byte	.LVL18
 3249 0146 80000000 		.4byte	.LFE9
ARM GAS  /tmp/ccN02bcZ.s 			page 58


 3250 014a 0200     		.2byte	0x2
 3251 014c 7D       		.byte	0x7d
 3252 014d 00       		.sleb128 0
 3253 014e 00000000 		.4byte	0
 3254 0152 00000000 		.4byte	0
 3255              	.LLST8:
 3256 0156 10000000 		.4byte	.LVL10
 3257 015a 76000000 		.4byte	.LVL18
 3258 015e 0200     		.2byte	0x2
 3259 0160 91       		.byte	0x91
 3260 0161 00       		.sleb128 0
 3261 0162 76000000 		.4byte	.LVL18
 3262 0166 80000000 		.4byte	.LFE9
 3263 016a 0200     		.2byte	0x2
 3264 016c 7D       		.byte	0x7d
 3265 016d 00       		.sleb128 0
 3266 016e 00000000 		.4byte	0
 3267 0172 00000000 		.4byte	0
 3268              	.LLST9:
 3269 0176 10000000 		.4byte	.LVL10
 3270 017a 28000000 		.4byte	.LVL14
 3271 017e 0100     		.2byte	0x1
 3272 0180 56       		.byte	0x56
 3273 0181 28000000 		.4byte	.LVL14
 3274 0185 4E000000 		.4byte	.LVL16
 3275 0189 0200     		.2byte	0x2
 3276 018b 77       		.byte	0x77
 3277 018c 00       		.sleb128 0
 3278 018d 4E000000 		.4byte	.LVL16
 3279 0191 80000000 		.4byte	.LFE9
 3280 0195 0400     		.2byte	0x4
 3281 0197 F3       		.byte	0xf3
 3282 0198 01       		.uleb128 0x1
 3283 0199 53       		.byte	0x53
 3284 019a 9F       		.byte	0x9f
 3285 019b 00000000 		.4byte	0
 3286 019f 00000000 		.4byte	0
 3287              	.LLST10:
 3288 01a3 10000000 		.4byte	.LVL10
 3289 01a7 18000000 		.4byte	.LVL12
 3290 01ab 0100     		.2byte	0x1
 3291 01ad 52       		.byte	0x52
 3292 01ae 18000000 		.4byte	.LVL12
 3293 01b2 69000000 		.4byte	.LVL17-1
 3294 01b6 0100     		.2byte	0x1
 3295 01b8 5E       		.byte	0x5e
 3296 01b9 69000000 		.4byte	.LVL17-1
 3297 01bd 80000000 		.4byte	.LFE9
 3298 01c1 0400     		.2byte	0x4
 3299 01c3 F3       		.byte	0xf3
 3300 01c4 01       		.uleb128 0x1
 3301 01c5 52       		.byte	0x52
 3302 01c6 9F       		.byte	0x9f
 3303 01c7 00000000 		.4byte	0
 3304 01cb 00000000 		.4byte	0
 3305              	.LLST11:
 3306 01cf 10000000 		.4byte	.LVL10
ARM GAS  /tmp/ccN02bcZ.s 			page 59


 3307 01d3 14000000 		.4byte	.LVL11
 3308 01d7 0100     		.2byte	0x1
 3309 01d9 51       		.byte	0x51
 3310 01da 14000000 		.4byte	.LVL11
 3311 01de 22000000 		.4byte	.LVL13
 3312 01e2 0300     		.2byte	0x3
 3313 01e4 71       		.byte	0x71
 3314 01e5 24       		.sleb128 36
 3315 01e6 9F       		.byte	0x9f
 3316 01e7 22000000 		.4byte	.LVL13
 3317 01eb 80000000 		.4byte	.LFE9
 3318 01ef 0400     		.2byte	0x4
 3319 01f1 F3       		.byte	0xf3
 3320 01f2 01       		.uleb128 0x1
 3321 01f3 51       		.byte	0x51
 3322 01f4 9F       		.byte	0x9f
 3323 01f5 00000000 		.4byte	0
 3324 01f9 00000000 		.4byte	0
 3325              	.LLST12:
 3326 01fd 10000000 		.4byte	.LVL10
 3327 0201 69000000 		.4byte	.LVL17-1
 3328 0205 0100     		.2byte	0x1
 3329 0207 50       		.byte	0x50
 3330 0208 69000000 		.4byte	.LVL17-1
 3331 020c 76000000 		.4byte	.LVL18
 3332 0210 0100     		.2byte	0x1
 3333 0212 54       		.byte	0x54
 3334 0213 76000000 		.4byte	.LVL18
 3335 0217 80000000 		.4byte	.LFE9
 3336 021b 0100     		.2byte	0x1
 3337 021d 50       		.byte	0x50
 3338 021e 00000000 		.4byte	0
 3339 0222 00000000 		.4byte	0
 3340              	.LLST14:
 3341 0226 3A000000 		.4byte	.LVL15
 3342 022a 69000000 		.4byte	.LVL17-1
 3343 022e 0100     		.2byte	0x1
 3344 0230 5E       		.byte	0x5e
 3345 0231 69000000 		.4byte	.LVL17-1
 3346 0235 80000000 		.4byte	.LFE9
 3347 0239 0400     		.2byte	0x4
 3348 023b F3       		.byte	0xf3
 3349 023c 01       		.uleb128 0x1
 3350 023d 52       		.byte	0x52
 3351 023e 9F       		.byte	0x9f
 3352 023f 00000000 		.4byte	0
 3353 0243 00000000 		.4byte	0
 3354              	.LLST15:
 3355 0247 3A000000 		.4byte	.LVL15
 3356 024b 69000000 		.4byte	.LVL17-1
 3357 024f 0100     		.2byte	0x1
 3358 0251 50       		.byte	0x50
 3359 0252 69000000 		.4byte	.LVL17-1
 3360 0256 76000000 		.4byte	.LVL18
 3361 025a 0100     		.2byte	0x1
 3362 025c 54       		.byte	0x54
 3363 025d 76000000 		.4byte	.LVL18
ARM GAS  /tmp/ccN02bcZ.s 			page 60


 3364 0261 80000000 		.4byte	.LFE9
 3365 0265 0100     		.2byte	0x1
 3366 0267 50       		.byte	0x50
 3367 0268 00000000 		.4byte	0
 3368 026c 00000000 		.4byte	0
 3369              	.LLST16:
 3370 0270 00000000 		.4byte	.LVL19
 3371 0274 1F000000 		.4byte	.LVL21-1
 3372 0278 0100     		.2byte	0x1
 3373 027a 50       		.byte	0x50
 3374 027b 1F000000 		.4byte	.LVL21-1
 3375 027f 30000000 		.4byte	.LFE10
 3376 0283 0400     		.2byte	0x4
 3377 0285 F3       		.byte	0xf3
 3378 0286 01       		.uleb128 0x1
 3379 0287 50       		.byte	0x50
 3380 0288 9F       		.byte	0x9f
 3381 0289 00000000 		.4byte	0
 3382 028d 00000000 		.4byte	0
 3383              	.LLST17:
 3384 0291 0E000000 		.4byte	.LVL20
 3385 0295 2A000000 		.4byte	.LVL22
 3386 0299 0100     		.2byte	0x1
 3387 029b 54       		.byte	0x54
 3388 029c 2A000000 		.4byte	.LVL22
 3389 02a0 30000000 		.4byte	.LFE10
 3390 02a4 0100     		.2byte	0x1
 3391 02a6 50       		.byte	0x50
 3392 02a7 00000000 		.4byte	0
 3393 02ab 00000000 		.4byte	0
 3394              	.LLST18:
 3395 02af 00000000 		.4byte	.LVL23
 3396 02b3 0F000000 		.4byte	.LVL24-1
 3397 02b7 0100     		.2byte	0x1
 3398 02b9 50       		.byte	0x50
 3399 02ba 0F000000 		.4byte	.LVL24-1
 3400 02be 1A000000 		.4byte	.LFE11
 3401 02c2 0100     		.2byte	0x1
 3402 02c4 54       		.byte	0x54
 3403 02c5 00000000 		.4byte	0
 3404 02c9 00000000 		.4byte	0
 3405              	.LLST19:
 3406 02cd 00000000 		.4byte	.LVL26
 3407 02d1 0C000000 		.4byte	.LVL27
 3408 02d5 0100     		.2byte	0x1
 3409 02d7 50       		.byte	0x50
 3410 02d8 0C000000 		.4byte	.LVL27
 3411 02dc 0F000000 		.4byte	.LVL28-1
 3412 02e0 0100     		.2byte	0x1
 3413 02e2 51       		.byte	0x51
 3414 02e3 0F000000 		.4byte	.LVL28-1
 3415 02e7 18000000 		.4byte	.LFE13
 3416 02eb 0400     		.2byte	0x4
 3417 02ed F3       		.byte	0xf3
 3418 02ee 01       		.uleb128 0x1
 3419 02ef 50       		.byte	0x50
 3420 02f0 9F       		.byte	0x9f
ARM GAS  /tmp/ccN02bcZ.s 			page 61


 3421 02f1 00000000 		.4byte	0
 3422 02f5 00000000 		.4byte	0
 3423              	.LLST20:
 3424 02f9 00000000 		.4byte	.LVL29
 3425 02fd 0C000000 		.4byte	.LVL30
 3426 0301 0100     		.2byte	0x1
 3427 0303 50       		.byte	0x50
 3428 0304 0C000000 		.4byte	.LVL30
 3429 0308 0E000000 		.4byte	.LVL31
 3430 030c 0600     		.2byte	0x6
 3431 030e 70       		.byte	0x70
 3432 030f 00       		.sleb128 0
 3433 0310 71       		.byte	0x71
 3434 0311 00       		.sleb128 0
 3435 0312 1C       		.byte	0x1c
 3436 0313 9F       		.byte	0x9f
 3437 0314 0E000000 		.4byte	.LVL31
 3438 0318 15000000 		.4byte	.LVL32-1
 3439 031c 0100     		.2byte	0x1
 3440 031e 51       		.byte	0x51
 3441 031f 00000000 		.4byte	0
 3442 0323 00000000 		.4byte	0
 3443              	.LLST21:
 3444 0327 00000000 		.4byte	.LVL34
 3445 032b 12000000 		.4byte	.LVL36
 3446 032f 0100     		.2byte	0x1
 3447 0331 50       		.byte	0x50
 3448 0332 12000000 		.4byte	.LVL36
 3449 0336 40000000 		.4byte	.LFE17
 3450 033a 0400     		.2byte	0x4
 3451 033c F3       		.byte	0xf3
 3452 033d 01       		.uleb128 0x1
 3453 033e 50       		.byte	0x50
 3454 033f 9F       		.byte	0x9f
 3455 0340 00000000 		.4byte	0
 3456 0344 00000000 		.4byte	0
 3457              	.LLST22:
 3458 0348 06000000 		.4byte	.LVL35
 3459 034c 38000000 		.4byte	.LVL39
 3460 0350 0100     		.2byte	0x1
 3461 0352 54       		.byte	0x54
 3462 0353 00000000 		.4byte	0
 3463 0357 00000000 		.4byte	0
 3464              	.LLST23:
 3465 035b 12000000 		.4byte	.LVL36
 3466 035f 22000000 		.4byte	.LVL38
 3467 0363 0300     		.2byte	0x3
 3468 0365 74       		.byte	0x74
 3469 0366 28       		.sleb128 40
 3470 0367 9F       		.byte	0x9f
 3471 0368 00000000 		.4byte	0
 3472 036c 00000000 		.4byte	0
 3473              	.LLST24:
 3474 0370 12000000 		.4byte	.LVL36
 3475 0374 1B000000 		.4byte	.LVL37-1
 3476 0378 0100     		.2byte	0x1
 3477 037a 53       		.byte	0x53
ARM GAS  /tmp/ccN02bcZ.s 			page 62


 3478 037b 00000000 		.4byte	0
 3479 037f 00000000 		.4byte	0
 3480              	.LLST25:
 3481 0383 00000000 		.4byte	.LVL41
 3482 0387 09000000 		.4byte	.LVL42-1
 3483 038b 0100     		.2byte	0x1
 3484 038d 50       		.byte	0x50
 3485 038e 09000000 		.4byte	.LVL42-1
 3486 0392 0A000000 		.4byte	.LFE16
 3487 0396 0400     		.2byte	0x4
 3488 0398 F3       		.byte	0xf3
 3489 0399 01       		.uleb128 0x1
 3490 039a 50       		.byte	0x50
 3491 039b 9F       		.byte	0x9f
 3492 039c 00000000 		.4byte	0
 3493 03a0 00000000 		.4byte	0
 3494              	.LLST26:
 3495 03a4 00000000 		.4byte	.LVL43
 3496 03a8 18000000 		.4byte	.LVL45
 3497 03ac 0100     		.2byte	0x1
 3498 03ae 50       		.byte	0x50
 3499 03af 18000000 		.4byte	.LVL45
 3500 03b3 32000000 		.4byte	.LVL49
 3501 03b7 0100     		.2byte	0x1
 3502 03b9 54       		.byte	0x54
 3503 03ba 32000000 		.4byte	.LVL49
 3504 03be 38000000 		.4byte	.LFE18
 3505 03c2 0400     		.2byte	0x4
 3506 03c4 F3       		.byte	0xf3
 3507 03c5 01       		.uleb128 0x1
 3508 03c6 50       		.byte	0x50
 3509 03c7 9F       		.byte	0x9f
 3510 03c8 00000000 		.4byte	0
 3511 03cc 00000000 		.4byte	0
 3512              	.LLST27:
 3513 03d0 22000000 		.4byte	.LVL47
 3514 03d4 32000000 		.4byte	.LVL49
 3515 03d8 0100     		.2byte	0x1
 3516 03da 55       		.byte	0x55
 3517 03db 32000000 		.4byte	.LVL49
 3518 03df 38000000 		.4byte	.LFE18
 3519 03e3 0100     		.2byte	0x1
 3520 03e5 50       		.byte	0x50
 3521 03e6 00000000 		.4byte	0
 3522 03ea 00000000 		.4byte	0
 3523              	.LLST28:
 3524 03ee 16000000 		.4byte	.LVL44
 3525 03f2 18000000 		.4byte	.LVL45
 3526 03f6 0300     		.2byte	0x3
 3527 03f8 70       		.byte	0x70
 3528 03f9 28       		.sleb128 40
 3529 03fa 9F       		.byte	0x9f
 3530 03fb 18000000 		.4byte	.LVL45
 3531 03ff 20000000 		.4byte	.LVL46
 3532 0403 0300     		.2byte	0x3
 3533 0405 74       		.byte	0x74
 3534 0406 28       		.sleb128 40
ARM GAS  /tmp/ccN02bcZ.s 			page 63


 3535 0407 9F       		.byte	0x9f
 3536 0408 00000000 		.4byte	0
 3537 040c 00000000 		.4byte	0
 3538              	.LLST29:
 3539 0410 16000000 		.4byte	.LVL44
 3540 0414 1F000000 		.4byte	.LVL46-1
 3541 0418 0100     		.2byte	0x1
 3542 041a 53       		.byte	0x53
 3543 041b 00000000 		.4byte	0
 3544 041f 00000000 		.4byte	0
 3545              		.section	.debug_aranges,"",%progbits
 3546 0000 74000000 		.4byte	0x74
 3547 0004 0200     		.2byte	0x2
 3548 0006 00000000 		.4byte	.Ldebug_info0
 3549 000a 04       		.byte	0x4
 3550 000b 00       		.byte	0
 3551 000c 0000     		.2byte	0
 3552 000e 0000     		.2byte	0
 3553 0010 00000000 		.4byte	.LFB7
 3554 0014 44000000 		.4byte	.LFE7-.LFB7
 3555 0018 00000000 		.4byte	.LFB8
 3556 001c 6C000000 		.4byte	.LFE8-.LFB8
 3557 0020 00000000 		.4byte	.LFB9
 3558 0024 80000000 		.4byte	.LFE9-.LFB9
 3559 0028 00000000 		.4byte	.LFB10
 3560 002c 30000000 		.4byte	.LFE10-.LFB10
 3561 0030 00000000 		.4byte	.LFB11
 3562 0034 1A000000 		.4byte	.LFE11-.LFB11
 3563 0038 00000000 		.4byte	.LFB12
 3564 003c 16000000 		.4byte	.LFE12-.LFB12
 3565 0040 00000000 		.4byte	.LFB13
 3566 0044 18000000 		.4byte	.LFE13-.LFB13
 3567 0048 00000000 		.4byte	.LFB14
 3568 004c 24000000 		.4byte	.LFE14-.LFB14
 3569 0050 00000000 		.4byte	.LFB15
 3570 0054 28000000 		.4byte	.LFE15-.LFB15
 3571 0058 00000000 		.4byte	.LFB17
 3572 005c 40000000 		.4byte	.LFE17-.LFB17
 3573 0060 00000000 		.4byte	.LFB16
 3574 0064 0A000000 		.4byte	.LFE16-.LFB16
 3575 0068 00000000 		.4byte	.LFB18
 3576 006c 38000000 		.4byte	.LFE18-.LFB18
 3577 0070 00000000 		.4byte	0
 3578 0074 00000000 		.4byte	0
 3579              		.section	.debug_ranges,"",%progbits
 3580              	.Ldebug_ranges0:
 3581 0000 04000000 		.4byte	.LBB16
 3582 0004 06000000 		.4byte	.LBE16
 3583 0008 0E000000 		.4byte	.LBB21
 3584 000c 10000000 		.4byte	.LBE21
 3585 0010 1C000000 		.4byte	.LBB22
 3586 0014 2E000000 		.4byte	.LBE22
 3587 0018 34000000 		.4byte	.LBB23
 3588 001c 5E000000 		.4byte	.LBE23
 3589 0020 00000000 		.4byte	0
 3590 0024 00000000 		.4byte	0
 3591 0028 10000000 		.4byte	.LBB25
ARM GAS  /tmp/ccN02bcZ.s 			page 64


 3592 002c 3A000000 		.4byte	.LBE25
 3593 0030 3C000000 		.4byte	.LBB36
 3594 0034 66000000 		.4byte	.LBE36
 3595 0038 00000000 		.4byte	0
 3596 003c 00000000 		.4byte	0
 3597 0040 10000000 		.4byte	.LBB27
 3598 0044 12000000 		.4byte	.LBE27
 3599 0048 16000000 		.4byte	.LBB32
 3600 004c 18000000 		.4byte	.LBE32
 3601 0050 22000000 		.4byte	.LBB33
 3602 0054 34000000 		.4byte	.LBE33
 3603 0058 3C000000 		.4byte	.LBB34
 3604 005c 66000000 		.4byte	.LBE34
 3605 0060 00000000 		.4byte	0
 3606 0064 00000000 		.4byte	0
 3607 0068 02000000 		.4byte	.LBB40
 3608 006c 04000000 		.4byte	.LBE40
 3609 0070 06000000 		.4byte	.LBB41
 3610 0074 0A000000 		.4byte	.LBE41
 3611 0078 00000000 		.4byte	0
 3612 007c 00000000 		.4byte	0
 3613 0080 08000000 		.4byte	.LBB44
 3614 0084 0A000000 		.4byte	.LBE44
 3615 0088 10000000 		.4byte	.LBB45
 3616 008c 16000000 		.4byte	.LBE45
 3617 0090 00000000 		.4byte	0
 3618 0094 00000000 		.4byte	0
 3619 0098 12000000 		.4byte	.LBB52
 3620 009c 14000000 		.4byte	.LBE52
 3621 00a0 16000000 		.4byte	.LBB55
 3622 00a4 18000000 		.4byte	.LBE55
 3623 00a8 00000000 		.4byte	0
 3624 00ac 00000000 		.4byte	0
 3625 00b0 12000000 		.4byte	.LBB58
 3626 00b4 14000000 		.4byte	.LBE58
 3627 00b8 18000000 		.4byte	.LBB61
 3628 00bc 1C000000 		.4byte	.LBE61
 3629 00c0 00000000 		.4byte	0
 3630 00c4 00000000 		.4byte	0
 3631 00c8 00000000 		.4byte	.LFB7
 3632 00cc 44000000 		.4byte	.LFE7
 3633 00d0 00000000 		.4byte	.LFB8
 3634 00d4 6C000000 		.4byte	.LFE8
 3635 00d8 00000000 		.4byte	.LFB9
 3636 00dc 80000000 		.4byte	.LFE9
 3637 00e0 00000000 		.4byte	.LFB10
 3638 00e4 30000000 		.4byte	.LFE10
 3639 00e8 00000000 		.4byte	.LFB11
 3640 00ec 1A000000 		.4byte	.LFE11
 3641 00f0 00000000 		.4byte	.LFB12
 3642 00f4 16000000 		.4byte	.LFE12
 3643 00f8 00000000 		.4byte	.LFB13
 3644 00fc 18000000 		.4byte	.LFE13
 3645 0100 00000000 		.4byte	.LFB14
 3646 0104 24000000 		.4byte	.LFE14
 3647 0108 00000000 		.4byte	.LFB15
 3648 010c 28000000 		.4byte	.LFE15
ARM GAS  /tmp/ccN02bcZ.s 			page 65


 3649 0110 00000000 		.4byte	.LFB17
 3650 0114 40000000 		.4byte	.LFE17
 3651 0118 00000000 		.4byte	.LFB16
 3652 011c 0A000000 		.4byte	.LFE16
 3653 0120 00000000 		.4byte	.LFB18
 3654 0124 38000000 		.4byte	.LFE18
 3655 0128 00000000 		.4byte	0
 3656 012c 00000000 		.4byte	0
 3657              		.section	.debug_line,"",%progbits
 3658              	.Ldebug_line0:
 3659 0000 6C030000 		.section	.debug_str,"MS",%progbits,1
 3659      02007201 
 3659      00000201 
 3659      FB0E0D00 
 3659      01010101 
 3660              	.LASF19:
 3661 0000 74707269 		.ascii	"tprio_t\000"
 3661      6F5F7400 
 3662              	.LASF75:
 3663 0008 7466756E 		.ascii	"tfunc_t\000"
 3663      635F7400 
 3664              	.LASF38:
 3665 0010 705F6D73 		.ascii	"p_msg\000"
 3665      6700
 3666              	.LASF2:
 3667 0016 73697A65 		.ascii	"size_t\000"
 3667      5F7400
 3668              	.LASF76:
 3669 001d 7072696F 		.ascii	"prio\000"
 3669      00
 3670              	.LASF70:
 3671 0022 7264796D 		.ascii	"rdymsg\000"
 3671      736700
 3672              	.LASF3:
 3673 0029 5F5F7569 		.ascii	"__uint8_t\000"
 3673      6E74385F 
 3673      7400
 3674              	.LASF93:
 3675 0033 76746C69 		.ascii	"vtlist\000"
 3675      737400
 3676              	.LASF90:
 3677 003a 63685468 		.ascii	"chThdExitS\000"
 3677      64457869 
 3677      745300
 3678              	.LASF12:
 3679 0045 6C6F6E67 		.ascii	"long long unsigned int\000"
 3679      206C6F6E 
 3679      6720756E 
 3679      7369676E 
 3679      65642069 
 3680              	.LASF71:
 3681 005c 65786974 		.ascii	"exitcode\000"
 3681      636F6465 
 3681      00
 3682              	.LASF27:
 3683 0065 705F7072 		.ascii	"p_prio\000"
 3683      696F00
ARM GAS  /tmp/ccN02bcZ.s 			page 66


 3684              	.LASF11:
 3685 006c 6C6F6E67 		.ascii	"long long int\000"
 3685      206C6F6E 
 3685      6720696E 
 3685      7400
 3686              	.LASF1:
 3687 007a 7369676E 		.ascii	"signed char\000"
 3687      65642063 
 3687      68617200 
 3688              	.LASF91:
 3689 0086 63685468 		.ascii	"chThdExit\000"
 3689      64457869 
 3689      7400
 3690              	.LASF42:
 3691 0090 705F6D70 		.ascii	"p_mpool\000"
 3691      6F6F6C00 
 3692              	.LASF67:
 3693 0098 6D5F7175 		.ascii	"m_queue\000"
 3693      65756500 
 3694              	.LASF78:
 3695 00a0 63685468 		.ascii	"chThdCreateI\000"
 3695      64437265 
 3695      61746549 
 3695      00
 3696              	.LASF8:
 3697 00ad 6C6F6E67 		.ascii	"long int\000"
 3697      20696E74 
 3697      00
 3698              	.LASF17:
 3699 00b6 74737461 		.ascii	"tstate_t\000"
 3699      74655F74 
 3699      00
 3700              	.LASF29:
 3701 00bf 705F6E65 		.ascii	"p_newer\000"
 3701      77657200 
 3702              	.LASF104:
 3703 00c7 6C697374 		.ascii	"list_remove\000"
 3703      5F72656D 
 3703      6F766500 
 3704              	.LASF96:
 3705 00d3 63685363 		.ascii	"chSchRescheduleS\000"
 3705      68526573 
 3705      63686564 
 3705      756C6553 
 3705      00
 3706              	.LASF9:
 3707 00e4 5F5F7569 		.ascii	"__uint32_t\000"
 3707      6E743332 
 3707      5F7400
 3708              	.LASF45:
 3709 00ef 72656761 		.ascii	"regarm_t\000"
 3709      726D5F74 
 3709      00
 3710              	.LASF52:
 3711 00f8 76745F70 		.ascii	"vt_prev\000"
 3711      72657600 
 3712              	.LASF97:
ARM GAS  /tmp/ccN02bcZ.s 			page 67


 3713 0100 63685363 		.ascii	"chSchDoReschedule\000"
 3713      68446F52 
 3713      65736368 
 3713      6564756C 
 3713      6500
 3714              	.LASF81:
 3715 0112 63685468 		.ascii	"chThdSetPriority\000"
 3715      64536574 
 3715      5072696F 
 3715      72697479 
 3715      00
 3716              	.LASF103:
 3717 0123 2F686F6D 		.ascii	"/home/raparram/Escritorio/blinkSAM\000"
 3717      652F7261 
 3717      70617272 
 3717      616D2F45 
 3717      73637269 
 3718              	.LASF23:
 3719 0146 636E745F 		.ascii	"cnt_t\000"
 3719      7400
 3720              	.LASF0:
 3721 014c 756E7369 		.ascii	"unsigned int\000"
 3721      676E6564 
 3721      20696E74 
 3721      00
 3722              	.LASF51:
 3723 0159 76745F6E 		.ascii	"vt_next\000"
 3723      65787400 
 3724              	.LASF10:
 3725 0161 6C6F6E67 		.ascii	"long unsigned int\000"
 3725      20756E73 
 3725      69676E65 
 3725      6420696E 
 3725      7400
 3726              	.LASF49:
 3727 0173 76746675 		.ascii	"vtfunc_t\000"
 3727      6E635F74 
 3727      00
 3728              	.LASF47:
 3729 017c 636F6E74 		.ascii	"context\000"
 3729      65787400 
 3730              	.LASF79:
 3731 0184 73697A65 		.ascii	"size\000"
 3731      00
 3732              	.LASF6:
 3733 0189 73686F72 		.ascii	"short unsigned int\000"
 3733      7420756E 
 3733      7369676E 
 3733      65642069 
 3733      6E7400
 3734              	.LASF99:
 3735 019c 63685363 		.ascii	"chSchWakeupS\000"
 3735      6857616B 
 3735      65757053 
 3735      00
 3736              	.LASF20:
 3737 01a9 6D73675F 		.ascii	"msg_t\000"
ARM GAS  /tmp/ccN02bcZ.s 			page 68


 3737      7400
 3738              	.LASF61:
 3739 01af 725F6E65 		.ascii	"r_newer\000"
 3739      77657200 
 3740              	.LASF82:
 3741 01b7 6E657770 		.ascii	"newprio\000"
 3741      72696F00 
 3742              	.LASF16:
 3743 01bf 746D6F64 		.ascii	"tmode_t\000"
 3743      655F7400 
 3744              	.LASF85:
 3745 01c7 63685468 		.ascii	"chThdTerminate\000"
 3745      64546572 
 3745      6D696E61 
 3745      746500
 3746              	.LASF44:
 3747 01d6 54687265 		.ascii	"ThreadsList\000"
 3747      6164734C 
 3747      69737400 
 3748              	.LASF21:
 3749 01e2 6576656E 		.ascii	"eventmask_t\000"
 3749      746D6173 
 3749      6B5F7400 
 3750              	.LASF66:
 3751 01ee 4D757465 		.ascii	"Mutex\000"
 3751      7800
 3752              	.LASF83:
 3753 01f4 6F6C6470 		.ascii	"oldprio\000"
 3753      72696F00 
 3754              	.LASF101:
 3755 01fc 474E5520 		.ascii	"GNU C 4.9.3 20150529 (prerelease) -mcpu=cortex-m3 -"
 3755      4320342E 
 3755      392E3320 
 3755      32303135 
 3755      30353239 
 3756 022f 6D6E6F2D 		.ascii	"mno-thumb-interwork -mthumb -ggdb -O2 -std=gnu99 -f"
 3756      7468756D 
 3756      622D696E 
 3756      74657277 
 3756      6F726B20 
 3757 0262 6F6D6974 		.ascii	"omit-frame-pointer -falign-functions=16 -ffunction-"
 3757      2D667261 
 3757      6D652D70 
 3757      6F696E74 
 3757      6572202D 
 3758 0295 73656374 		.ascii	"sections -fdata-sections -fno-common\000"
 3758      696F6E73 
 3758      202D6664 
 3758      6174612D 
 3758      73656374 
 3759              	.LASF80:
 3760 02ba 63685468 		.ascii	"chThdCreateStatic\000"
 3760      64437265 
 3760      61746553 
 3760      74617469 
 3760      6300
 3761              	.LASF53:
ARM GAS  /tmp/ccN02bcZ.s 			page 69


 3762 02cc 76745F74 		.ascii	"vt_time\000"
 3762      696D6500 
 3763              	.LASF48:
 3764 02d4 73697A65 		.ascii	"sizetype\000"
 3764      74797065 
 3764      00
 3765              	.LASF54:
 3766 02dd 76745F66 		.ascii	"vt_func\000"
 3766      756E6300 
 3767              	.LASF84:
 3768 02e5 63685468 		.ascii	"chThdResume\000"
 3768      64526573 
 3768      756D6500 
 3769              	.LASF30:
 3770 02f1 705F6F6C 		.ascii	"p_older\000"
 3770      64657200 
 3771              	.LASF60:
 3772 02f9 725F6374 		.ascii	"r_ctx\000"
 3772      7800
 3773              	.LASF43:
 3774 02ff 54687265 		.ascii	"ThreadsQueue\000"
 3774      61647351 
 3774      75657565 
 3774      00
 3775              	.LASF87:
 3776 030c 74696D65 		.ascii	"time\000"
 3776      00
 3777              	.LASF105:
 3778 0311 6C697374 		.ascii	"list_insert\000"
 3778      5F696E73 
 3778      65727400 
 3779              	.LASF64:
 3780 031d 725F6375 		.ascii	"r_current\000"
 3780      7272656E 
 3780      7400
 3781              	.LASF62:
 3782 0327 725F6F6C 		.ascii	"r_older\000"
 3782      64657200 
 3783              	.LASF88:
 3784 032f 63685468 		.ascii	"chThdSleepUntil\000"
 3784      64536C65 
 3784      6570556E 
 3784      74696C00 
 3785              	.LASF18:
 3786 033f 74726566 		.ascii	"trefs_t\000"
 3786      735F7400 
 3787              	.LASF26:
 3788 0347 705F7072 		.ascii	"p_prev\000"
 3788      657600
 3789              	.LASF102:
 3790 034e 43686962 		.ascii	"ChibiOS//os/kernel/src/chthreads.c\000"
 3790      694F532F 
 3790      2F6F732F 
 3790      6B65726E 
 3790      656C2F73 
 3791              	.LASF14:
 3792 0371 696E7433 		.ascii	"int32_t\000"
ARM GAS  /tmp/ccN02bcZ.s 			page 70


 3792      325F7400 
 3793              	.LASF4:
 3794 0379 756E7369 		.ascii	"unsigned char\000"
 3794      676E6564 
 3794      20636861 
 3794      7200
 3795              	.LASF40:
 3796 0387 705F6D74 		.ascii	"p_mtxlist\000"
 3796      786C6973 
 3796      7400
 3797              	.LASF5:
 3798 0391 73686F72 		.ascii	"short int\000"
 3798      7420696E 
 3798      7400
 3799              	.LASF32:
 3800 039b 705F7374 		.ascii	"p_state\000"
 3800      61746500 
 3801              	.LASF59:
 3802 03a3 725F7072 		.ascii	"r_prio\000"
 3802      696F00
 3803              	.LASF73:
 3804 03aa 65776D61 		.ascii	"ewmask\000"
 3804      736B00
 3805              	.LASF25:
 3806 03b1 705F6E65 		.ascii	"p_next\000"
 3806      787400
 3807              	.LASF33:
 3808 03b8 705F666C 		.ascii	"p_flags\000"
 3808      61677300 
 3809              	.LASF106:
 3810 03c0 63685468 		.ascii	"chThdRelease\000"
 3810      6452656C 
 3810      65617365 
 3810      00
 3811              	.LASF24:
 3812 03cd 54687265 		.ascii	"Thread\000"
 3812      616400
 3813              	.LASF100:
 3814 03d4 63685363 		.ascii	"chSchGoSleepS\000"
 3814      68476F53 
 3814      6C656570 
 3814      5300
 3815              	.LASF39:
 3816 03e2 705F6570 		.ascii	"p_epending\000"
 3816      656E6469 
 3816      6E6700
 3817              	.LASF15:
 3818 03ed 75696E74 		.ascii	"uint32_t\000"
 3818      33325F74 
 3818      00
 3819              	.LASF77:
 3820 03f6 5F746872 		.ascii	"_thread_init\000"
 3820      6561645F 
 3820      696E6974 
 3820      00
 3821              	.LASF58:
 3822 0403 725F7175 		.ascii	"r_queue\000"
ARM GAS  /tmp/ccN02bcZ.s 			page 71


 3822      65756500 
 3823              	.LASF50:
 3824 040b 56697274 		.ascii	"VirtualTimer\000"
 3824      75616C54 
 3824      696D6572 
 3824      00
 3825              	.LASF74:
 3826 0418 63686172 		.ascii	"char\000"
 3826      00
 3827              	.LASF98:
 3828 041d 63685363 		.ascii	"chSchReadyI\000"
 3828      68526561 
 3828      64794900 
 3829              	.LASF69:
 3830 0429 6D5F6E65 		.ascii	"m_next\000"
 3830      787400
 3831              	.LASF22:
 3832 0430 73797374 		.ascii	"systime_t\000"
 3832      696D655F 
 3832      7400
 3833              	.LASF41:
 3834 043a 705F7265 		.ascii	"p_realprio\000"
 3834      616C7072 
 3834      696F00
 3835              	.LASF7:
 3836 0445 5F5F696E 		.ascii	"__int32_t\000"
 3836      7433325F 
 3836      7400
 3837              	.LASF35:
 3838 044f 705F7469 		.ascii	"p_time\000"
 3838      6D6500
 3839              	.LASF46:
 3840 0456 696E7463 		.ascii	"intctx\000"
 3840      747800
 3841              	.LASF37:
 3842 045d 705F6D73 		.ascii	"p_msgqueue\000"
 3842      67717565 
 3842      756500
 3843              	.LASF92:
 3844 0468 63685468 		.ascii	"chThdWait\000"
 3844      64576169 
 3844      7400
 3845              	.LASF55:
 3846 0472 76745F70 		.ascii	"vt_par\000"
 3846      617200
 3847              	.LASF86:
 3848 0479 63685468 		.ascii	"chThdSleep\000"
 3848      64536C65 
 3848      657000
 3849              	.LASF34:
 3850 0484 705F7265 		.ascii	"p_refs\000"
 3850      667300
 3851              	.LASF65:
 3852 048b 52656164 		.ascii	"ReadyList\000"
 3852      794C6973 
 3852      7400
 3853              	.LASF94:
ARM GAS  /tmp/ccN02bcZ.s 			page 72


 3854 0495 726C6973 		.ascii	"rlist\000"
 3854      7400
 3855              	.LASF13:
 3856 049b 75696E74 		.ascii	"uint8_t\000"
 3856      385F7400 
 3857              	.LASF89:
 3858 04a3 63685468 		.ascii	"chThdYield\000"
 3858      64596965 
 3858      6C6400
 3859              	.LASF72:
 3860 04ae 77746F62 		.ascii	"wtobjp\000"
 3860      6A7000
 3861              	.LASF31:
 3862 04b5 705F6E61 		.ascii	"p_name\000"
 3862      6D6500
 3863              	.LASF56:
 3864 04bc 76745F73 		.ascii	"vt_systime\000"
 3864      79737469 
 3864      6D6500
 3865              	.LASF95:
 3866 04c7 63685363 		.ascii	"chSchGoSleepTimeoutS\000"
 3866      68476F53 
 3866      6C656570 
 3866      54696D65 
 3866      6F757453 
 3867              	.LASF57:
 3868 04dc 56544C69 		.ascii	"VTList\000"
 3868      737400
 3869              	.LASF63:
 3870 04e3 725F7072 		.ascii	"r_preempt\000"
 3870      65656D70 
 3870      7400
 3871              	.LASF68:
 3872 04ed 6D5F6F77 		.ascii	"m_owner\000"
 3872      6E657200 
 3873              	.LASF28:
 3874 04f5 705F6374 		.ascii	"p_ctx\000"
 3874      7800
 3875              	.LASF36:
 3876 04fb 705F7761 		.ascii	"p_waiting\000"
 3876      6974696E 
 3876      6700
 3877              		.ident	"GCC: (15:4.9.3+svn231177-1) 4.9.3 20150529 (prerelease)"
ARM GAS  /tmp/ccN02bcZ.s 			page 73


DEFINED SYMBOLS
                            *ABS*:0000000000000000 chthreads.c
     /tmp/ccN02bcZ.s:19     .text._thread_init:0000000000000000 $t
     /tmp/ccN02bcZ.s:25     .text._thread_init:0000000000000000 _thread_init
     /tmp/ccN02bcZ.s:90     .text._thread_init:0000000000000040 $d
     /tmp/ccN02bcZ.s:95     .text.chThdCreateI:0000000000000000 $t
     /tmp/ccN02bcZ.s:101    .text.chThdCreateI:0000000000000000 chThdCreateI
     /tmp/ccN02bcZ.s:200    .text.chThdCreateI:0000000000000064 $d
     /tmp/ccN02bcZ.s:206    .text.chThdCreateStatic:0000000000000000 $t
     /tmp/ccN02bcZ.s:212    .text.chThdCreateStatic:0000000000000000 chThdCreateStatic
     /tmp/ccN02bcZ.s:351    .text.chThdCreateStatic:0000000000000078 $d
     /tmp/ccN02bcZ.s:357    .text.chThdSetPriority:0000000000000000 $t
     /tmp/ccN02bcZ.s:363    .text.chThdSetPriority:0000000000000000 chThdSetPriority
     /tmp/ccN02bcZ.s:418    .text.chThdSetPriority:000000000000002c $d
     /tmp/ccN02bcZ.s:423    .text.chThdResume:0000000000000000 $t
     /tmp/ccN02bcZ.s:429    .text.chThdResume:0000000000000000 chThdResume
     /tmp/ccN02bcZ.s:472    .text.chThdTerminate:0000000000000000 $t
     /tmp/ccN02bcZ.s:478    .text.chThdTerminate:0000000000000000 chThdTerminate
     /tmp/ccN02bcZ.s:515    .text.chThdSleep:0000000000000000 $t
     /tmp/ccN02bcZ.s:521    .text.chThdSleep:0000000000000000 chThdSleep
     /tmp/ccN02bcZ.s:560    .text.chThdSleepUntil:0000000000000000 $t
     /tmp/ccN02bcZ.s:566    .text.chThdSleepUntil:0000000000000000 chThdSleepUntil
     /tmp/ccN02bcZ.s:608    .text.chThdSleepUntil:0000000000000020 $d
     /tmp/ccN02bcZ.s:614    .text.chThdYield:0000000000000000 $t
     /tmp/ccN02bcZ.s:620    .text.chThdYield:0000000000000000 chThdYield
     /tmp/ccN02bcZ.s:661    .text.chThdYield:0000000000000024 $d
     /tmp/ccN02bcZ.s:667    .text.chThdExitS:0000000000000000 $t
     /tmp/ccN02bcZ.s:673    .text.chThdExitS:0000000000000000 chThdExitS
     /tmp/ccN02bcZ.s:751    .text.chThdExitS:000000000000003c $d
     /tmp/ccN02bcZ.s:756    .text.chThdExit:0000000000000000 $t
     /tmp/ccN02bcZ.s:762    .text.chThdExit:0000000000000000 chThdExit
     /tmp/ccN02bcZ.s:785    .text.chThdWait:0000000000000000 $t
     /tmp/ccN02bcZ.s:791    .text.chThdWait:0000000000000000 chThdWait
     /tmp/ccN02bcZ.s:866    .text.chThdWait:0000000000000034 $d
                     .debug_frame:0000000000000010 $d

UNDEFINED SYMBOLS
rlist
_port_thread_start
chSchWakeupS
chSchRescheduleS
chSchGoSleepTimeoutS
vtlist
chSchDoReschedule
chSchReadyI
chSchGoSleepS
chThdRelease
