ARM GAS  /tmp/ccN02bcZ.s 			page 1


   1              		.syntax unified
   2              		.cpu cortex-m3
   3              		.fpu softvfp
   4              		.eabi_attribute 20, 1
   5              		.eabi_attribute 21, 1
   6              		.eabi_attribute 23, 3
   7              		.eabi_attribute 24, 1
   8              		.eabi_attribute 25, 1
   9              		.eabi_attribute 26, 1
  10              		.eabi_attribute 30, 2
  11              		.eabi_attribute 34, 1
  12              		.eabi_attribute 18, 4
  13              		.thumb
  14              		.file	"chthreads.c"
  15              		.text
  16              	.Ltext0:
  17              		.cfi_sections	.debug_frame
  18              		.section	.text._thread_init,"ax",%progbits
  19              		.align	2
  20              		.p2align 4,,15
  21              		.global	_thread_init
  22              		.thumb
  23              		.thumb_func
  24              		.type	_thread_init, %function
  25              	_thread_init:
  26              	.LFB7:
  27              		.file 1 "ChibiOS//os/kernel/src/chthreads.c"
  28              		.loc 1 76 0
  29              		.cfi_startproc
  30              		@ args = 0, pretend = 0, frame = 0
  31              		@ frame_needed = 0, uses_anonymous_args = 0
  32              	.LVL0:
  33 0000 F0B5     		push	{r4, r5, r6, r7, lr}
  34              		.cfi_def_cfa_offset 20
  35              		.cfi_offset 4, -20
  36              		.cfi_offset 5, -16
  37              		.cfi_offset 6, -12
  38              		.cfi_offset 7, -8
  39              		.cfi_offset 14, -4
  40              		.loc 1 96 0
  41 0002 0F4C     		ldr	r4, .L3
  42              		.loc 1 80 0
  43 0004 0022     		movs	r2, #0
  44              		.loc 1 96 0
  45 0006 6669     		ldr	r6, [r4, #20]
  46              		.loc 1 102 0
  47 0008 00F12C05 		add	r5, r0, #44
  48              		.loc 1 79 0
  49 000c 4FF0020C 		mov	ip, #2
  50              		.loc 1 92 0
  51 0010 4FF0010E 		mov	lr, #1
  52              		.loc 1 99 0
  53 0014 00F12807 		add	r7, r0, #40
  54              		.loc 1 96 0
  55 0018 4661     		str	r6, [r0, #20]
  56              		.loc 1 78 0
  57 001a 8160     		str	r1, [r0, #8]
ARM GAS  /tmp/ccN02bcZ.s 			page 2


  58              		.loc 1 96 0
  59 001c 0461     		str	r4, [r0, #16]
  60              		.loc 1 82 0
  61 001e 0164     		str	r1, [r0, #64]
  62              		.loc 1 96 0
  63 0020 6061     		str	r0, [r4, #20]
  64              		.loc 1 79 0
  65 0022 80F81CC0 		strb	ip, [r0, #28]
  66              		.loc 1 92 0
  67 0026 80F81EE0 		strb	lr, [r0, #30]
  68              		.loc 1 80 0
  69 002a 4277     		strb	r2, [r0, #29]
  70              		.loc 1 83 0
  71 002c C263     		str	r2, [r0, #60]
  72              		.loc 1 86 0
  73 002e 8263     		str	r2, [r0, #56]
  74              		.loc 1 89 0
  75 0030 0262     		str	r2, [r0, #32]
  76              		.loc 1 95 0
  77 0032 8261     		str	r2, [r0, #24]
  78              		.loc 1 96 0
  79 0034 3061     		str	r0, [r6, #16]
  80              		.loc 1 99 0
  81 0036 8762     		str	r7, [r0, #40]
  82              		.loc 1 102 0
  83 0038 0563     		str	r5, [r0, #48]
  84 003a C562     		str	r5, [r0, #44]
  85              		.loc 1 111 0
  86 003c F0BD     		pop	{r4, r5, r6, r7, pc}
  87              	.L4:
  88 003e 00BF     		.align	2
  89              	.L3:
  90 0040 00000000 		.word	rlist
  91              		.cfi_endproc
  92              	.LFE7:
  93              		.size	_thread_init, .-_thread_init
  94              		.section	.text.chThdCreateI,"ax",%progbits
  95              		.align	2
  96              		.p2align 4,,15
  97              		.global	chThdCreateI
  98              		.thumb
  99              		.thumb_func
 100              		.type	chThdCreateI, %function
 101              	chThdCreateI:
 102              	.LFB8:
 103              		.loc 1 155 0
 104              		.cfi_startproc
 105              		@ args = 4, pretend = 0, frame = 0
 106              		@ frame_needed = 0, uses_anonymous_args = 0
 107              	.LVL1:
 108 0000 2DE9F047 		push	{r4, r5, r6, r7, r8, r9, r10, lr}
 109              		.cfi_def_cfa_offset 32
 110              		.cfi_offset 4, -32
 111              		.cfi_offset 5, -28
 112              		.cfi_offset 6, -24
 113              		.cfi_offset 7, -20
 114              		.cfi_offset 8, -16
ARM GAS  /tmp/ccN02bcZ.s 			page 3


 115              		.cfi_offset 9, -12
 116              		.cfi_offset 10, -8
 117              		.cfi_offset 14, -4
 118              	.LBB16:
 119              	.LBB17:
 120              		.loc 1 96 0
 121 0004 174E     		ldr	r6, .L7
 122              	.LBE17:
 123              	.LBE16:
 124              		.loc 1 164 0
 125 0006 A1F1240A 		sub	r10, r1, #36
 126 000a 00EB0A07 		add	r7, r0, r10
 127              	.LBB21:
 128              	.LBB18:
 129              		.loc 1 96 0
 130 000e 7169     		ldr	r1, [r6, #20]
 131              	.LVL2:
 132              	.LBE18:
 133              	.LBE21:
 134              		.loc 1 164 0
 135 0010 DFF85490 		ldr	r9, .L7+4
 136 0014 C760     		str	r7, [r0, #12]
 137 0016 40F80A30 		str	r3, [r0, r10]
 138 001a 089B     		ldr	r3, [sp, #32]
 139              	.LVL3:
 140              	.LBB22:
 141              	.LBB19:
 142              		.loc 1 80 0
 143 001c 0025     		movs	r5, #0
 144              		.loc 1 102 0
 145 001e 00F12C0A 		add	r10, r0, #44
 146              	.LVL4:
 147              		.loc 1 79 0
 148 0022 4FF00208 		mov	r8, #2
 149              		.loc 1 92 0
 150 0026 4FF0010C 		mov	ip, #1
 151              		.loc 1 99 0
 152 002a 00F1280E 		add	lr, r0, #40
 153              	.LBE19:
 154              	.LBE22:
 155              		.loc 1 164 0
 156 002e 7B60     		str	r3, [r7, #4]
 157 0030 C7F82090 		str	r9, [r7, #32]
 158              	.LVL5:
 159              	.LBB23:
 160              	.LBB20:
 161              		.loc 1 78 0
 162 0034 8260     		str	r2, [r0, #8]
 163              		.loc 1 96 0
 164 0036 0661     		str	r6, [r0, #16]
 165 0038 4161     		str	r1, [r0, #20]
 166              		.loc 1 82 0
 167 003a 0264     		str	r2, [r0, #64]
 168              		.loc 1 79 0
 169 003c 80F81C80 		strb	r8, [r0, #28]
 170              	.LVL6:
 171              		.loc 1 92 0
ARM GAS  /tmp/ccN02bcZ.s 			page 4


 172 0040 80F81EC0 		strb	ip, [r0, #30]
 173              		.loc 1 80 0
 174 0044 4577     		strb	r5, [r0, #29]
 175              		.loc 1 96 0
 176 0046 7061     		str	r0, [r6, #20]
 177              		.loc 1 83 0
 178 0048 C563     		str	r5, [r0, #60]
 179              		.loc 1 86 0
 180 004a 8563     		str	r5, [r0, #56]
 181              		.loc 1 89 0
 182 004c 0562     		str	r5, [r0, #32]
 183              		.loc 1 95 0
 184 004e 8561     		str	r5, [r0, #24]
 185              		.loc 1 96 0
 186 0050 0861     		str	r0, [r1, #16]
 187              		.loc 1 99 0
 188 0052 C0F828E0 		str	lr, [r0, #40]
 189              		.loc 1 102 0
 190 0056 C0F830A0 		str	r10, [r0, #48]
 191 005a C0F82CA0 		str	r10, [r0, #44]
 192              	.LBE20:
 193              	.LBE23:
 194              		.loc 1 166 0
 195 005e BDE8F087 		pop	{r4, r5, r6, r7, r8, r9, r10, pc}
 196              	.LVL7:
 197              	.L8:
 198 0062 00BF     		.align	2
 199              	.L7:
 200 0064 00000000 		.word	rlist
 201 0068 00000000 		.word	_port_thread_start
 202              		.cfi_endproc
 203              	.LFE8:
 204              		.size	chThdCreateI, .-chThdCreateI
 205              		.section	.text.chThdCreateStatic,"ax",%progbits
 206              		.align	2
 207              		.p2align 4,,15
 208              		.global	chThdCreateStatic
 209              		.thumb
 210              		.thumb_func
 211              		.type	chThdCreateStatic, %function
 212              	chThdCreateStatic:
 213              	.LFB9:
 214              		.loc 1 185 0
 215              		.cfi_startproc
 216              		@ args = 4, pretend = 0, frame = 0
 217              		@ frame_needed = 0, uses_anonymous_args = 0
 218              	.LVL8:
 219 0000 2DE9F84F 		push	{r3, r4, r5, r6, r7, r8, r9, r10, fp, lr}
 220              		.cfi_def_cfa_offset 40
 221              		.cfi_offset 3, -40
 222              		.cfi_offset 4, -36
 223              		.cfi_offset 5, -32
 224              		.cfi_offset 6, -28
 225              		.cfi_offset 7, -24
 226              		.cfi_offset 8, -20
 227              		.cfi_offset 9, -16
 228              		.cfi_offset 10, -12
ARM GAS  /tmp/ccN02bcZ.s 			page 5


 229              		.cfi_offset 11, -8
 230              		.cfi_offset 14, -4
 231              		.loc 1 185 0
 232 0004 1E46     		mov	r6, r3
 233 0006 9646     		mov	lr, r2
 234 0008 0446     		mov	r4, r0
 235              	.LBB24:
 236              		.loc 1 196 0
 237 000a 2023     		movs	r3, #32
 238              	.LVL9:
 239              	@ 196 "ChibiOS//os/kernel/src/chthreads.c" 1
 240 000c 83F31188 		msr     BASEPRI, r3
 241              	@ 0 "" 2
 242              	.LVL10:
 243              		.thumb
 244              	.LBE24:
 245              	.LBB25:
 246              	.LBB26:
 247              	.LBB27:
 248              	.LBB28:
 249              		.loc 1 96 0
 250 0010 194B     		ldr	r3, .L11
 251              	.LBE28:
 252              	.LBE27:
 253              		.loc 1 164 0
 254 0012 2439     		subs	r1, r1, #36
 255              	.LVL11:
 256 0014 4718     		adds	r7, r0, r1
 257              	.LBB32:
 258              	.LBB29:
 259              		.loc 1 96 0
 260 0016 5A69     		ldr	r2, [r3, #20]
 261              	.LVL12:
 262              	.LBE29:
 263              	.LBE32:
 264              		.loc 1 164 0
 265 0018 DFF860B0 		ldr	fp, .L11+4
 266 001c C760     		str	r7, [r0, #12]
 267 001e 4650     		str	r6, [r0, r1]
 268 0020 0A99     		ldr	r1, [sp, #40]
 269              	.LVL13:
 270              	.LBB33:
 271              	.LBB30:
 272              		.loc 1 80 0
 273 0022 0025     		movs	r5, #0
 274              		.loc 1 102 0
 275 0024 00F12C06 		add	r6, r0, #44
 276              	.LVL14:
 277              		.loc 1 99 0
 278 0028 00F12808 		add	r8, r0, #40
 279              		.loc 1 79 0
 280 002c 4FF0020A 		mov	r10, #2
 281              		.loc 1 92 0
 282 0030 4FF00109 		mov	r9, #1
 283              	.LBE30:
 284              	.LBE33:
 285              		.loc 1 164 0
ARM GAS  /tmp/ccN02bcZ.s 			page 6


 286 0034 7960     		str	r1, [r7, #4]
 287 0036 C7F820B0 		str	fp, [r7, #32]
 288              	.LVL15:
 289              	.LBE26:
 290              	.LBE25:
 291              		.loc 1 197 0
 292 003a 2946     		mov	r1, r5
 293              	.LBB36:
 294              	.LBB35:
 295              	.LBB34:
 296              	.LBB31:
 297              		.loc 1 96 0
 298 003c 0361     		str	r3, [r0, #16]
 299              		.loc 1 78 0
 300 003e C0F808E0 		str	lr, [r0, #8]
 301              		.loc 1 96 0
 302 0042 4261     		str	r2, [r0, #20]
 303              		.loc 1 82 0
 304 0044 C0F840E0 		str	lr, [r0, #64]
 305              		.loc 1 96 0
 306 0048 5861     		str	r0, [r3, #20]
 307              		.loc 1 79 0
 308 004a 80F81CA0 		strb	r10, [r0, #28]
 309              	.LVL16:
 310              		.loc 1 92 0
 311 004e 80F81E90 		strb	r9, [r0, #30]
 312              		.loc 1 80 0
 313 0052 4577     		strb	r5, [r0, #29]
 314              		.loc 1 83 0
 315 0054 C563     		str	r5, [r0, #60]
 316              		.loc 1 86 0
 317 0056 8563     		str	r5, [r0, #56]
 318              		.loc 1 89 0
 319 0058 0562     		str	r5, [r0, #32]
 320              		.loc 1 95 0
 321 005a 8561     		str	r5, [r0, #24]
 322              		.loc 1 96 0
 323 005c 1061     		str	r0, [r2, #16]
 324              		.loc 1 99 0
 325 005e C0F82880 		str	r8, [r0, #40]
 326              		.loc 1 102 0
 327 0062 0663     		str	r6, [r0, #48]
 328 0064 C662     		str	r6, [r0, #44]
 329              	.LBE31:
 330              	.LBE34:
 331              	.LBE35:
 332              	.LBE36:
 333              		.loc 1 197 0
 334 0066 FFF7FEFF 		bl	chSchWakeupS
 335              	.LVL17:
 336              	.LBB37:
 337              		.loc 1 198 0
 338 006a 2B46     		mov	r3, r5
 339              	@ 198 "ChibiOS//os/kernel/src/chthreads.c" 1
 340 006c 83F31188 		msr     BASEPRI, r3
 341              	@ 0 "" 2
 342              		.thumb
ARM GAS  /tmp/ccN02bcZ.s 			page 7


 343              	.LBE37:
 344              		.loc 1 200 0
 345 0070 2046     		mov	r0, r4
 346 0072 BDE8F88F 		pop	{r3, r4, r5, r6, r7, r8, r9, r10, fp, pc}
 347              	.LVL18:
 348              	.L12:
 349 0076 00BF     		.align	2
 350              	.L11:
 351 0078 00000000 		.word	rlist
 352 007c 00000000 		.word	_port_thread_start
 353              		.cfi_endproc
 354              	.LFE9:
 355              		.size	chThdCreateStatic, .-chThdCreateStatic
 356              		.section	.text.chThdSetPriority,"ax",%progbits
 357              		.align	2
 358              		.p2align 4,,15
 359              		.global	chThdSetPriority
 360              		.thumb
 361              		.thumb_func
 362              		.type	chThdSetPriority, %function
 363              	chThdSetPriority:
 364              	.LFB10:
 365              		.loc 1 214 0
 366              		.cfi_startproc
 367              		@ args = 0, pretend = 0, frame = 0
 368              		@ frame_needed = 0, uses_anonymous_args = 0
 369              	.LVL19:
 370 0000 10B5     		push	{r4, lr}
 371              		.cfi_def_cfa_offset 8
 372              		.cfi_offset 4, -8
 373              		.cfi_offset 14, -4
 374              	.LBB38:
 375              		.loc 1 219 0
 376 0002 2023     		movs	r3, #32
 377              	@ 219 "ChibiOS//os/kernel/src/chthreads.c" 1
 378 0004 83F31188 		msr     BASEPRI, r3
 379              	@ 0 "" 2
 380              		.thumb
 381              	.LBE38:
 382              		.loc 1 221 0
 383 0008 084B     		ldr	r3, .L18
 384 000a DB69     		ldr	r3, [r3, #28]
 385 000c 1C6C     		ldr	r4, [r3, #64]
 386              	.LVL20:
 387              		.loc 1 222 0
 388 000e 9968     		ldr	r1, [r3, #8]
 389 0010 8C42     		cmp	r4, r1
 390 0012 01D0     		beq	.L14
 391              		.loc 1 222 0 is_stmt 0 discriminator 1
 392 0014 8142     		cmp	r1, r0
 393 0016 00D2     		bcs	.L15
 394              	.L14:
 395              		.loc 1 223 0 is_stmt 1
 396 0018 9860     		str	r0, [r3, #8]
 397              	.L15:
 398              		.loc 1 224 0
 399 001a 1864     		str	r0, [r3, #64]
ARM GAS  /tmp/ccN02bcZ.s 			page 8


 400              		.loc 1 229 0
 401 001c FFF7FEFF 		bl	chSchRescheduleS
 402              	.LVL21:
 403              	.LBB39:
 404              		.loc 1 230 0
 405 0020 0023     		movs	r3, #0
 406              	@ 230 "ChibiOS//os/kernel/src/chthreads.c" 1
 407 0022 83F31188 		msr     BASEPRI, r3
 408              	@ 0 "" 2
 409              		.thumb
 410              	.LBE39:
 411              		.loc 1 232 0
 412 0026 2046     		mov	r0, r4
 413 0028 10BD     		pop	{r4, pc}
 414              	.LVL22:
 415              	.L19:
 416 002a 00BF     		.align	2
 417              	.L18:
 418 002c 00000000 		.word	rlist
 419              		.cfi_endproc
 420              	.LFE10:
 421              		.size	chThdSetPriority, .-chThdSetPriority
 422              		.section	.text.chThdResume,"ax",%progbits
 423              		.align	2
 424              		.p2align 4,,15
 425              		.global	chThdResume
 426              		.thumb
 427              		.thumb_func
 428              		.type	chThdResume, %function
 429              	chThdResume:
 430              	.LFB11:
 431              		.loc 1 247 0
 432              		.cfi_startproc
 433              		@ args = 0, pretend = 0, frame = 0
 434              		@ frame_needed = 0, uses_anonymous_args = 0
 435              	.LVL23:
 436 0000 10B5     		push	{r4, lr}
 437              		.cfi_def_cfa_offset 8
 438              		.cfi_offset 4, -8
 439              		.cfi_offset 14, -4
 440              	.LBB40:
 441              		.loc 1 249 0
 442 0002 2023     		movs	r3, #32
 443              	.LBE40:
 444              		.loc 1 247 0
 445 0004 0446     		mov	r4, r0
 446              	.LBB41:
 447              		.loc 1 249 0
 448              	@ 249 "ChibiOS//os/kernel/src/chthreads.c" 1
 449 0006 83F31188 		msr     BASEPRI, r3
 450              	@ 0 "" 2
 451              		.thumb
 452              	.LBE41:
 453              		.loc 1 253 0
 454 000a 0021     		movs	r1, #0
 455 000c FFF7FEFF 		bl	chSchWakeupS
 456              	.LVL24:
ARM GAS  /tmp/ccN02bcZ.s 			page 9


 457              	.LBB42:
 458              		.loc 1 254 0
 459 0010 0023     		movs	r3, #0
 460              	@ 254 "ChibiOS//os/kernel/src/chthreads.c" 1
 461 0012 83F31188 		msr     BASEPRI, r3
 462              	@ 0 "" 2
 463              		.thumb
 464              	.LBE42:
 465              		.loc 1 256 0
 466 0016 2046     		mov	r0, r4
 467 0018 10BD     		pop	{r4, pc}
 468              		.cfi_endproc
 469              	.LFE11:
 470              		.size	chThdResume, .-chThdResume
 471 001a 00BF     		.section	.text.chThdTerminate,"ax",%progbits
 472              		.align	2
 473              		.p2align 4,,15
 474              		.global	chThdTerminate
 475              		.thumb
 476              		.thumb_func
 477              		.type	chThdTerminate, %function
 478              	chThdTerminate:
 479              	.LFB12:
 480              		.loc 1 270 0
 481              		.cfi_startproc
 482              		@ args = 0, pretend = 0, frame = 0
 483              		@ frame_needed = 0, uses_anonymous_args = 0
 484              		@ link register save eliminated.
 485              	.LVL25:
 486              	.LBB43:
 487              		.loc 1 272 0
 488 0000 2023     		movs	r3, #32
 489              	@ 272 "ChibiOS//os/kernel/src/chthreads.c" 1
 490 0002 83F31188 		msr     BASEPRI, r3
 491              	@ 0 "" 2
 492              		.thumb
 493              	.LBE43:
 494              		.loc 1 273 0
 495 0006 427F     		ldrb	r2, [r0, #29]	@ zero_extendqisi2
 496              	.LBB44:
 497              		.loc 1 274 0
 498 0008 0023     		movs	r3, #0
 499              	.LBE44:
 500              		.loc 1 273 0
 501 000a 42F00402 		orr	r2, r2, #4
 502 000e 4277     		strb	r2, [r0, #29]
 503              	.LBB45:
 504              		.loc 1 274 0
 505              	@ 274 "ChibiOS//os/kernel/src/chthreads.c" 1
 506 0010 83F31188 		msr     BASEPRI, r3
 507              	@ 0 "" 2
 508              		.thumb
 509 0014 7047     		bx	lr
 510              	.LBE45:
 511              		.cfi_endproc
 512              	.LFE12:
 513              		.size	chThdTerminate, .-chThdTerminate
ARM GAS  /tmp/ccN02bcZ.s 			page 10


 514 0016 00BF     		.section	.text.chThdSleep,"ax",%progbits
 515              		.align	2
 516              		.p2align 4,,15
 517              		.global	chThdSleep
 518              		.thumb
 519              		.thumb_func
 520              		.type	chThdSleep, %function
 521              	chThdSleep:
 522              	.LFB13:
 523              		.loc 1 289 0
 524              		.cfi_startproc
 525              		@ args = 0, pretend = 0, frame = 0
 526              		@ frame_needed = 0, uses_anonymous_args = 0
 527              	.LVL26:
 528 0000 08B5     		push	{r3, lr}
 529              		.cfi_def_cfa_offset 8
 530              		.cfi_offset 3, -8
 531              		.cfi_offset 14, -4
 532              		.loc 1 289 0
 533 0002 0146     		mov	r1, r0
 534              	.LBB46:
 535              		.loc 1 293 0
 536 0004 2023     		movs	r3, #32
 537              	@ 293 "ChibiOS//os/kernel/src/chthreads.c" 1
 538 0006 83F31188 		msr     BASEPRI, r3
 539              	@ 0 "" 2
 540              		.thumb
 541              	.LBE46:
 542              		.loc 1 294 0
 543 000a 0620     		movs	r0, #6
 544              	.LVL27:
 545 000c FFF7FEFF 		bl	chSchGoSleepTimeoutS
 546              	.LVL28:
 547              	.LBB47:
 548              		.loc 1 295 0
 549 0010 0023     		movs	r3, #0
 550              	@ 295 "ChibiOS//os/kernel/src/chthreads.c" 1
 551 0012 83F31188 		msr     BASEPRI, r3
 552              	@ 0 "" 2
 553              		.thumb
 554 0016 08BD     		pop	{r3, pc}
 555              	.LBE47:
 556              		.cfi_endproc
 557              	.LFE13:
 558              		.size	chThdSleep, .-chThdSleep
 559              		.section	.text.chThdSleepUntil,"ax",%progbits
 560              		.align	2
 561              		.p2align 4,,15
 562              		.global	chThdSleepUntil
 563              		.thumb
 564              		.thumb_func
 565              		.type	chThdSleepUntil, %function
 566              	chThdSleepUntil:
 567              	.LFB14:
 568              		.loc 1 306 0
 569              		.cfi_startproc
 570              		@ args = 0, pretend = 0, frame = 0
ARM GAS  /tmp/ccN02bcZ.s 			page 11


 571              		@ frame_needed = 0, uses_anonymous_args = 0
 572              	.LVL29:
 573 0000 08B5     		push	{r3, lr}
 574              		.cfi_def_cfa_offset 8
 575              		.cfi_offset 3, -8
 576              		.cfi_offset 14, -4
 577              	.LBB48:
 578              		.loc 1 308 0
 579 0002 2023     		movs	r3, #32
 580              	@ 308 "ChibiOS//os/kernel/src/chthreads.c" 1
 581 0004 83F31188 		msr     BASEPRI, r3
 582              	@ 0 "" 2
 583              		.thumb
 584              	.LBE48:
 585              		.loc 1 309 0
 586 0008 054B     		ldr	r3, .L31
 587 000a D968     		ldr	r1, [r3, #12]
 588              	.LVL30:
 589 000c 411A     		subs	r1, r0, r1
 590              	.LVL31:
 591 000e 02D0     		beq	.L26
 592              		.loc 1 310 0
 593 0010 0620     		movs	r0, #6
 594 0012 FFF7FEFF 		bl	chSchGoSleepTimeoutS
 595              	.LVL32:
 596              	.L26:
 597              	.LBB49:
 598              		.loc 1 311 0
 599 0016 0023     		movs	r3, #0
 600              	@ 311 "ChibiOS//os/kernel/src/chthreads.c" 1
 601 0018 83F31188 		msr     BASEPRI, r3
 602              	@ 0 "" 2
 603              		.thumb
 604 001c 08BD     		pop	{r3, pc}
 605              	.L32:
 606 001e 00BF     		.align	2
 607              	.L31:
 608 0020 00000000 		.word	vtlist
 609              	.LBE49:
 610              		.cfi_endproc
 611              	.LFE14:
 612              		.size	chThdSleepUntil, .-chThdSleepUntil
 613              		.section	.text.chThdYield,"ax",%progbits
 614              		.align	2
 615              		.p2align 4,,15
 616              		.global	chThdYield
 617              		.thumb
 618              		.thumb_func
 619              		.type	chThdYield, %function
 620              	chThdYield:
 621              	.LFB15:
 622              		.loc 1 321 0
 623              		.cfi_startproc
 624              		@ args = 0, pretend = 0, frame = 0
 625              		@ frame_needed = 0, uses_anonymous_args = 0
 626 0000 08B5     		push	{r3, lr}
 627              		.cfi_def_cfa_offset 8
ARM GAS  /tmp/ccN02bcZ.s 			page 12


 628              		.cfi_offset 3, -8
 629              		.cfi_offset 14, -4
 630              	.LBB50:
 631              		.loc 1 323 0
 632 0002 2023     		movs	r3, #32
 633              	@ 323 "ChibiOS//os/kernel/src/chthreads.c" 1
 634 0004 83F31188 		msr     BASEPRI, r3
 635              	@ 0 "" 2
 636              		.thumb
 637              	.LBE50:
 638              		.loc 1 324 0
 639 0008 064B     		ldr	r3, .L36
 640 000a 1A68     		ldr	r2, [r3]
 641 000c DB69     		ldr	r3, [r3, #28]
 642 000e 9268     		ldr	r2, [r2, #8]
 643 0010 9B68     		ldr	r3, [r3, #8]
 644 0012 9A42     		cmp	r2, r3
 645 0014 01D3     		bcc	.L34
 646              		.loc 1 324 0 is_stmt 0 discriminator 1
 647 0016 FFF7FEFF 		bl	chSchDoReschedule
 648              	.LVL33:
 649              	.L34:
 650              	.LBB51:
 651              		.loc 1 325 0 is_stmt 1
 652 001a 0023     		movs	r3, #0
 653              	@ 325 "ChibiOS//os/kernel/src/chthreads.c" 1
 654 001c 83F31188 		msr     BASEPRI, r3
 655              	@ 0 "" 2
 656              		.thumb
 657 0020 08BD     		pop	{r3, pc}
 658              	.L37:
 659 0022 00BF     		.align	2
 660              	.L36:
 661 0024 00000000 		.word	rlist
 662              	.LBE51:
 663              		.cfi_endproc
 664              	.LFE15:
 665              		.size	chThdYield, .-chThdYield
 666              		.section	.text.chThdExitS,"ax",%progbits
 667              		.align	2
 668              		.p2align 4,,15
 669              		.global	chThdExitS
 670              		.thumb
 671              		.thumb_func
 672              		.type	chThdExitS, %function
 673              	chThdExitS:
 674              	.LFB17:
 675              		.loc 1 363 0
 676              		.cfi_startproc
 677              		@ args = 0, pretend = 0, frame = 0
 678              		@ frame_needed = 0, uses_anonymous_args = 0
 679              	.LVL34:
 680 0000 38B5     		push	{r3, r4, r5, lr}
 681              		.cfi_def_cfa_offset 16
 682              		.cfi_offset 3, -16
 683              		.cfi_offset 4, -12
 684              		.cfi_offset 5, -8
ARM GAS  /tmp/ccN02bcZ.s 			page 13


 685              		.cfi_offset 14, -4
 686              		.loc 1 364 0
 687 0002 0E4B     		ldr	r3, .L46
 688 0004 DC69     		ldr	r4, [r3, #28]
 689              	.LVL35:
 690              		.loc 1 371 0
 691 0006 2546     		mov	r5, r4
 692 0008 55F8283F 		ldr	r3, [r5, #40]!
 693              		.loc 1 366 0
 694 000c 6062     		str	r0, [r4, #36]
 695              		.loc 1 371 0
 696 000e AB42     		cmp	r3, r5
 697 0010 07D0     		beq	.L43
 698              	.LVL36:
 699              	.L42:
 700              	.LBB52:
 701              	.LBB53:
 702              		.file 2 "ChibiOS//os/kernel/include/chinline.h"
 703              		.loc 2 89 0
 704 0012 1A68     		ldr	r2, [r3]
 705              	.LBE53:
 706              	.LBE52:
 707              		.loc 1 372 0
 708 0014 1846     		mov	r0, r3
 709              	.LBB55:
 710              	.LBB54:
 711              		.loc 2 89 0
 712 0016 A262     		str	r2, [r4, #40]
 713              	.LBE54:
 714              	.LBE55:
 715              		.loc 1 372 0
 716 0018 FFF7FEFF 		bl	chSchReadyI
 717              	.LVL37:
 718              		.loc 1 371 0
 719 001c A36A     		ldr	r3, [r4, #40]
 720 001e AB42     		cmp	r3, r5
 721 0020 F7D1     		bne	.L42
 722              	.LVL38:
 723              	.L43:
 724              		.loc 1 377 0
 725 0022 637F     		ldrb	r3, [r4, #29]	@ zero_extendqisi2
 726 0024 9B07     		lsls	r3, r3, #30
 727 0026 04D1     		bne	.L41
 728              		.loc 1 378 0
 729 0028 2269     		ldr	r2, [r4, #16]
 730 002a 6369     		ldr	r3, [r4, #20]
 731 002c 1A61     		str	r2, [r3, #16]
 732 002e 2269     		ldr	r2, [r4, #16]
 733 0030 5361     		str	r3, [r2, #20]
 734              	.L41:
 735              		.loc 1 380 0
 736 0032 0E20     		movs	r0, #14
 737              		.loc 1 383 0
 738 0034 BDE83840 		pop	{r3, r4, r5, lr}
 739              		.cfi_restore 14
 740              		.cfi_restore 5
 741              		.cfi_restore 4
ARM GAS  /tmp/ccN02bcZ.s 			page 14


 742              		.cfi_restore 3
 743              		.cfi_def_cfa_offset 0
 744              	.LVL39:
 745              		.loc 1 380 0
 746 0038 FFF7FEBF 		b	chSchGoSleepS
 747              	.LVL40:
 748              	.L47:
 749              		.align	2
 750              	.L46:
 751 003c 00000000 		.word	rlist
 752              		.cfi_endproc
 753              	.LFE17:
 754              		.size	chThdExitS, .-chThdExitS
 755              		.section	.text.chThdExit,"ax",%progbits
 756              		.align	2
 757              		.p2align 4,,15
 758              		.global	chThdExit
 759              		.thumb
 760              		.thumb_func
 761              		.type	chThdExit, %function
 762              	chThdExit:
 763              	.LFB16:
 764              		.loc 1 342 0
 765              		.cfi_startproc
 766              		@ args = 0, pretend = 0, frame = 0
 767              		@ frame_needed = 0, uses_anonymous_args = 0
 768              		@ link register save eliminated.
 769              	.LVL41:
 770              	.LBB56:
 771              		.loc 1 344 0
 772 0000 2023     		movs	r3, #32
 773              	@ 344 "ChibiOS//os/kernel/src/chthreads.c" 1
 774 0002 83F31188 		msr     BASEPRI, r3
 775              	@ 0 "" 2
 776              		.thumb
 777              	.LBE56:
 778              		.loc 1 345 0
 779 0006 FFF7FEBF 		b	chThdExitS
 780              	.LVL42:
 781              		.cfi_endproc
 782              	.LFE16:
 783              		.size	chThdExit, .-chThdExit
 784 000a 00BF     		.section	.text.chThdWait,"ax",%progbits
 785              		.align	2
 786              		.p2align 4,,15
 787              		.global	chThdWait
 788              		.thumb
 789              		.thumb_func
 790              		.type	chThdWait, %function
 791              	chThdWait:
 792              	.LFB18:
 793              		.loc 1 417 0
 794              		.cfi_startproc
 795              		@ args = 0, pretend = 0, frame = 0
 796              		@ frame_needed = 0, uses_anonymous_args = 0
 797              	.LVL43:
 798 0000 38B5     		push	{r3, r4, r5, lr}
ARM GAS  /tmp/ccN02bcZ.s 			page 15


 799              		.cfi_def_cfa_offset 16
 800              		.cfi_offset 3, -16
 801              		.cfi_offset 4, -12
 802              		.cfi_offset 5, -8
 803              		.cfi_offset 14, -4
 804              		.loc 1 417 0
 805 0002 0446     		mov	r4, r0
 806              	.LBB57:
 807              		.loc 1 422 0
 808 0004 2023     		movs	r3, #32
 809              	@ 422 "ChibiOS//os/kernel/src/chthreads.c" 1
 810 0006 83F31188 		msr     BASEPRI, r3
 811              	@ 0 "" 2
 812              		.thumb
 813              	.LBE57:
 814              		.loc 1 427 0
 815 000a 037F     		ldrb	r3, [r0, #28]	@ zero_extendqisi2
 816 000c 0E2B     		cmp	r3, #14
 817 000e 07D0     		beq	.L50
 818              		.loc 1 428 0
 819 0010 084B     		ldr	r3, .L55
 820              	.LBB58:
 821              	.LBB59:
 822              		.loc 2 82 0
 823 0012 826A     		ldr	r2, [r0, #40]
 824              	.LBE59:
 825              	.LBE58:
 826              		.loc 1 428 0
 827 0014 DB69     		ldr	r3, [r3, #28]
 828              	.LVL44:
 829              		.loc 1 429 0
 830 0016 0720     		movs	r0, #7
 831              	.LVL45:
 832              	.LBB61:
 833              	.LBB60:
 834              		.loc 2 82 0
 835 0018 1A60     		str	r2, [r3]
 836              		.loc 2 83 0
 837 001a A362     		str	r3, [r4, #40]
 838              	.LBE60:
 839              	.LBE61:
 840              		.loc 1 429 0
 841 001c FFF7FEFF 		bl	chSchGoSleepS
 842              	.LVL46:
 843              	.L50:
 844              		.loc 1 431 0
 845 0020 656A     		ldr	r5, [r4, #36]
 846              	.LVL47:
 847              	.LBB62:
 848              		.loc 1 432 0
 849 0022 0023     		movs	r3, #0
 850              	@ 432 "ChibiOS//os/kernel/src/chthreads.c" 1
 851 0024 83F31188 		msr     BASEPRI, r3
 852              	@ 0 "" 2
 853              		.thumb
 854              	.LBE62:
 855              		.loc 1 434 0
ARM GAS  /tmp/ccN02bcZ.s 			page 16


 856 0028 2046     		mov	r0, r4
 857 002a FFF7FEFF 		bl	chThdRelease
 858              	.LVL48:
 859              		.loc 1 437 0
 860 002e 2846     		mov	r0, r5
 861 0030 38BD     		pop	{r3, r4, r5, pc}
 862              	.LVL49:
 863              	.L56:
 864 0032 00BF     		.align	2
 865              	.L55:
 866 0034 00000000 		.word	rlist
 867              		.cfi_endproc
 868              	.LFE18:
 869              		.size	chThdWait, .-chThdWait
 870              		.text
 871              	.Letext0:
 872              		.file 3 "/usr/lib/gcc/arm-none-eabi/4.9.3/include/stddef.h"
 873              		.file 4 "/usr/include/newlib/machine/_default_types.h"
 874              		.file 5 "/usr/include/newlib/sys/_stdint.h"
 875              		.file 6 "ChibiOS//os/ports/GCC/ARMCMx/chtypes.h"
 876              		.file 7 "ChibiOS//os/kernel/include/chlists.h"
 877              		.file 8 "ChibiOS//os/kernel/include/chthreads.h"
 878              		.file 9 "ChibiOS//os/ports/GCC/ARMCMx/chcore_v7m.h"
 879              		.file 10 "ChibiOS//os/kernel/include/chvt.h"
 880              		.file 11 "ChibiOS//os/kernel/include/chschd.h"
 881              		.file 12 "ChibiOS//os/kernel/include/chmtx.h"
 882              		.file 13 "ChibiOS//os/kernel/include/chdynamic.h"