ARM GAS  /tmp/ccghgfLK.s 			page 1


   1              		.syntax unified
   2              		.cpu cortex-m3
   3              		.fpu softvfp
   4              		.eabi_attribute 20, 1
   5              		.eabi_attribute 21, 1
   6              		.eabi_attribute 23, 3
   7              		.eabi_attribute 24, 1
   8              		.eabi_attribute 25, 1
   9              		.eabi_attribute 26, 1
  10              		.eabi_attribute 30, 2
  11              		.eabi_attribute 34, 1
  12              		.eabi_attribute 18, 4
  13              		.thumb
  14              		.file	"chvt.c"
  15              		.text
  16              	.Ltext0:
  17              		.cfi_sections	.debug_frame
  18              		.section	.text._vt_init,"ax",%progbits
  19              		.align	2
  20              		.p2align 4,,15
  21              		.global	_vt_init
  22              		.thumb
  23              		.thumb_func
  24              		.type	_vt_init, %function
  25              	_vt_init:
  26              	.LFB7:
  27              		.file 1 "ChibiOS//os/kernel/src/chvt.c"
  28              		.loc 1 50 0
  29              		.cfi_startproc
  30              		@ args = 0, pretend = 0, frame = 0
  31              		@ frame_needed = 0, uses_anonymous_args = 0
  32              		@ link register save eliminated.
  33              		.loc 1 52 0
  34 0000 044B     		ldr	r3, .L2
  35              		.loc 1 53 0
  36 0002 4FF0FF31 		mov	r1, #-1
  37              		.loc 1 54 0
  38 0006 0022     		movs	r2, #0
  39              		.loc 1 52 0
  40 0008 5B60     		str	r3, [r3, #4]
  41 000a 1B60     		str	r3, [r3]
  42              		.loc 1 53 0
  43 000c 9960     		str	r1, [r3, #8]
  44              		.loc 1 54 0
  45 000e DA60     		str	r2, [r3, #12]
  46 0010 7047     		bx	lr
  47              	.L3:
  48 0012 00BF     		.align	2
  49              	.L2:
  50 0014 00000000 		.word	.LANCHOR0
  51              		.cfi_endproc
  52              	.LFE7:
  53              		.size	_vt_init, .-_vt_init
  54              		.section	.text.chVTSetI,"ax",%progbits
  55              		.align	2
  56              		.p2align 4,,15
  57              		.global	chVTSetI
ARM GAS  /tmp/ccghgfLK.s 			page 2


  58              		.thumb
  59              		.thumb_func
  60              		.type	chVTSetI, %function
  61              	chVTSetI:
  62              	.LFB8:
  63              		.loc 1 77 0
  64              		.cfi_startproc
  65              		@ args = 0, pretend = 0, frame = 0
  66              		@ frame_needed = 0, uses_anonymous_args = 0
  67              		@ link register save eliminated.
  68              	.LVL0:
  69 0000 10B4     		push	{r4}
  70              		.cfi_def_cfa_offset 4
  71              		.cfi_offset 4, -4
  72              		.loc 1 86 0
  73 0002 0D4C     		ldr	r4, .L11
  74              		.loc 1 84 0
  75 0004 0361     		str	r3, [r0, #16]
  76              		.loc 1 86 0
  77 0006 2368     		ldr	r3, [r4]
  78              	.LVL1:
  79              		.loc 1 85 0
  80 0008 C260     		str	r2, [r0, #12]
  81              		.loc 1 87 0
  82 000a 9A68     		ldr	r2, [r3, #8]
  83              	.LVL2:
  84 000c 9142     		cmp	r1, r2
  85 000e 04D9     		bls	.L5
  86              	.L6:
  87              		.loc 1 89 0
  88 0010 1B68     		ldr	r3, [r3]
  89              	.LVL3:
  90              		.loc 1 88 0
  91 0012 891A     		subs	r1, r1, r2
  92              	.LVL4:
  93              		.loc 1 87 0
  94 0014 9A68     		ldr	r2, [r3, #8]
  95 0016 8A42     		cmp	r2, r1
  96 0018 FAD3     		bcc	.L6
  97              	.L5:
  98              		.loc 1 92 0
  99 001a 5A68     		ldr	r2, [r3, #4]
 100              		.loc 1 95 0
 101 001c A342     		cmp	r3, r4
 102              		.loc 1 92 0
 103 001e 0360     		str	r3, [r0]
 104 0020 4260     		str	r2, [r0, #4]
 105              		.loc 1 93 0
 106 0022 5860     		str	r0, [r3, #4]
 107 0024 1060     		str	r0, [r2]
 108              		.loc 1 94 0
 109 0026 8160     		str	r1, [r0, #8]
 110              		.loc 1 95 0
 111 0028 02D0     		beq	.L4
 112              		.loc 1 96 0
 113 002a 9A68     		ldr	r2, [r3, #8]
 114 002c 511A     		subs	r1, r2, r1
ARM GAS  /tmp/ccghgfLK.s 			page 3


 115              	.LVL5:
 116 002e 9960     		str	r1, [r3, #8]
 117              	.LVL6:
 118              	.L4:
 119              		.loc 1 97 0
 120 0030 5DF8044B 		ldr	r4, [sp], #4
 121              		.cfi_restore 4
 122              		.cfi_def_cfa_offset 0
 123 0034 7047     		bx	lr
 124              	.L12:
 125 0036 00BF     		.align	2
 126              	.L11:
 127 0038 00000000 		.word	.LANCHOR0
 128              		.cfi_endproc
 129              	.LFE8:
 130              		.size	chVTSetI, .-chVTSetI
 131              		.section	.text.chVTResetI,"ax",%progbits
 132              		.align	2
 133              		.p2align 4,,15
 134              		.global	chVTResetI
 135              		.thumb
 136              		.thumb_func
 137              		.type	chVTResetI, %function
 138              	chVTResetI:
 139              	.LFB9:
 140              		.loc 1 107 0
 141              		.cfi_startproc
 142              		@ args = 0, pretend = 0, frame = 0
 143              		@ frame_needed = 0, uses_anonymous_args = 0
 144              		@ link register save eliminated.
 145              	.LVL7:
 146              		.loc 1 115 0
 147 0000 074A     		ldr	r2, .L15
 148 0002 0368     		ldr	r3, [r0]
 149 0004 9342     		cmp	r3, r2
 150 0006 03D0     		beq	.L14
 151              		.loc 1 116 0
 152 0008 9968     		ldr	r1, [r3, #8]
 153 000a 8268     		ldr	r2, [r0, #8]
 154 000c 0A44     		add	r2, r2, r1
 155 000e 9A60     		str	r2, [r3, #8]
 156              	.L14:
 157              		.loc 1 117 0
 158 0010 4268     		ldr	r2, [r0, #4]
 159              		.loc 1 119 0
 160 0012 0021     		movs	r1, #0
 161              		.loc 1 117 0
 162 0014 1360     		str	r3, [r2]
 163              		.loc 1 118 0
 164 0016 0368     		ldr	r3, [r0]
 165 0018 5A60     		str	r2, [r3, #4]
 166              		.loc 1 119 0
 167 001a C160     		str	r1, [r0, #12]
 168 001c 7047     		bx	lr
 169              	.L16:
 170 001e 00BF     		.align	2
 171              	.L15:
ARM GAS  /tmp/ccghgfLK.s 			page 4


 172 0020 00000000 		.word	.LANCHOR0
 173              		.cfi_endproc
 174              	.LFE9:
 175              		.size	chVTResetI, .-chVTResetI
 176              		.section	.text.chTimeIsWithin,"ax",%progbits
 177              		.align	2
 178              		.p2align 4,,15
 179              		.global	chTimeIsWithin
 180              		.thumb
 181              		.thumb_func
 182              		.type	chTimeIsWithin, %function
 183              	chTimeIsWithin:
 184              	.LFB10:
 185              		.loc 1 135 0
 186              		.cfi_startproc
 187              		@ args = 0, pretend = 0, frame = 0
 188              		@ frame_needed = 0, uses_anonymous_args = 0
 189              		@ link register save eliminated.
 190              	.LVL8:
 191              		.loc 1 137 0
 192 0000 084B     		ldr	r3, .L23
 193              		.loc 1 138 0
 194 0002 8142     		cmp	r1, r0
 195              		.loc 1 137 0
 196 0004 DB68     		ldr	r3, [r3, #12]
 197              	.LVL9:
 198              		.loc 1 138 0
 199 0006 06D9     		bls	.L18
 200              		.loc 1 138 0 is_stmt 0 discriminator 1
 201 0008 8342     		cmp	r3, r0
 202 000a 08D3     		bcc	.L20
 203              	.L22:
 204              		.loc 1 139 0 is_stmt 1
 205 000c 8B42     		cmp	r3, r1
 206 000e 2CBF     		ite	cs
 207 0010 0020     		movcs	r0, #0
 208              	.LVL10:
 209 0012 0120     		movcc	r0, #1
 210 0014 7047     		bx	lr
 211              	.LVL11:
 212              	.L18:
 213              		.loc 1 138 0 discriminator 2
 214 0016 8342     		cmp	r3, r0
 215 0018 F8D3     		bcc	.L22
 216              		.loc 1 138 0 is_stmt 0
 217 001a 0120     		movs	r0, #1
 218              	.LVL12:
 219              		.loc 1 140 0 is_stmt 1
 220 001c 7047     		bx	lr
 221              	.LVL13:
 222              	.L20:
 223              		.loc 1 138 0
 224 001e 0020     		movs	r0, #0
 225              	.LVL14:
 226 0020 7047     		bx	lr
 227              	.L24:
 228 0022 00BF     		.align	2
ARM GAS  /tmp/ccghgfLK.s 			page 5


 229              	.L23:
 230 0024 00000000 		.word	.LANCHOR0
 231              		.cfi_endproc
 232              	.LFE10:
 233              		.size	chTimeIsWithin, .-chTimeIsWithin
 234              		.global	vtlist
 235              		.section	.bss.vtlist,"aw",%nobits
 236              		.align	2
 237              		.set	.LANCHOR0,. + 0
 238              		.type	vtlist, %object
 239              		.size	vtlist, 16
 240              	vtlist:
 241 0000 00000000 		.space	16
 241      00000000 
 241      00000000 
 241      00000000 
 242              		.text
 243              	.Letext0:
 244              		.file 2 "/usr/include/newlib/machine/_default_types.h"
 245              		.file 3 "/usr/include/newlib/sys/_stdint.h"
 246              		.file 4 "ChibiOS//os/ports/GCC/ARMCMx/chtypes.h"
 247              		.file 5 "ChibiOS//os/kernel/include/chvt.h"
 248              		.section	.debug_info,"",%progbits
 249              	.Ldebug_info0:
 250 0000 5E020000 		.4byte	0x25e
 251 0004 0400     		.2byte	0x4
 252 0006 00000000 		.4byte	.Ldebug_abbrev0
 253 000a 04       		.byte	0x4
 254 000b 01       		.uleb128 0x1
 255 000c F6000000 		.4byte	.LASF31
 256 0010 01       		.byte	0x1
 257 0011 2A000000 		.4byte	.LASF32
 258 0015 48000000 		.4byte	.LASF33
 259 0019 00000000 		.4byte	.Ldebug_ranges0+0
 260 001d 00000000 		.4byte	0
 261 0021 00000000 		.4byte	.Ldebug_line0
 262 0025 02       		.uleb128 0x2
 263 0026 04       		.byte	0x4
 264 0027 05       		.byte	0x5
 265 0028 696E7400 		.ascii	"int\000"
 266 002c 03       		.uleb128 0x3
 267 002d 04       		.byte	0x4
 268 002e 07       		.byte	0x7
 269 002f C6000000 		.4byte	.LASF0
 270 0033 03       		.uleb128 0x3
 271 0034 01       		.byte	0x1
 272 0035 06       		.byte	0x6
 273 0036 36020000 		.4byte	.LASF1
 274 003a 03       		.uleb128 0x3
 275 003b 01       		.byte	0x1
 276 003c 08       		.byte	0x8
 277 003d A4000000 		.4byte	.LASF2
 278 0041 03       		.uleb128 0x3
 279 0042 02       		.byte	0x2
 280 0043 05       		.byte	0x5
 281 0044 03020000 		.4byte	.LASF3
 282 0048 03       		.uleb128 0x3
ARM GAS  /tmp/ccghgfLK.s 			page 6


 283 0049 02       		.byte	0x2
 284 004a 07       		.byte	0x7
 285 004b 84000000 		.4byte	.LASF4
 286 004f 04       		.uleb128 0x4
 287 0050 13000000 		.4byte	.LASF6
 288 0054 02       		.byte	0x2
 289 0055 3F       		.byte	0x3f
 290 0056 5A000000 		.4byte	0x5a
 291 005a 03       		.uleb128 0x3
 292 005b 04       		.byte	0x4
 293 005c 05       		.byte	0x5
 294 005d 2D020000 		.4byte	.LASF5
 295 0061 04       		.uleb128 0x4
 296 0062 BB000000 		.4byte	.LASF7
 297 0066 02       		.byte	0x2
 298 0067 41       		.byte	0x41
 299 0068 6C000000 		.4byte	0x6c
 300 006c 03       		.uleb128 0x3
 301 006d 04       		.byte	0x4
 302 006e 07       		.byte	0x7
 303 006f 72000000 		.4byte	.LASF8
 304 0073 03       		.uleb128 0x3
 305 0074 08       		.byte	0x8
 306 0075 05       		.byte	0x5
 307 0076 D8010000 		.4byte	.LASF9
 308 007a 03       		.uleb128 0x3
 309 007b 08       		.byte	0x8
 310 007c 07       		.byte	0x7
 311 007d D3000000 		.4byte	.LASF10
 312 0081 04       		.uleb128 0x4
 313 0082 BC010000 		.4byte	.LASF11
 314 0086 03       		.byte	0x3
 315 0087 1F       		.byte	0x1f
 316 0088 4F000000 		.4byte	0x4f
 317 008c 04       		.uleb128 0x4
 318 008d 24020000 		.4byte	.LASF12
 319 0091 03       		.byte	0x3
 320 0092 20       		.byte	0x20
 321 0093 61000000 		.4byte	0x61
 322 0097 04       		.uleb128 0x4
 323 0098 23000000 		.4byte	.LASF13
 324 009c 04       		.byte	0x4
 325 009d 2E       		.byte	0x2e
 326 009e 81000000 		.4byte	0x81
 327 00a2 04       		.uleb128 0x4
 328 00a3 09000000 		.4byte	.LASF14
 329 00a7 04       		.byte	0x4
 330 00a8 36       		.byte	0x36
 331 00a9 8C000000 		.4byte	0x8c
 332 00ad 05       		.uleb128 0x5
 333 00ae 04       		.byte	0x4
 334 00af 03       		.uleb128 0x3
 335 00b0 04       		.byte	0x4
 336 00b1 07       		.byte	0x7
 337 00b2 C4010000 		.4byte	.LASF15
 338 00b6 04       		.uleb128 0x4
 339 00b7 EE010000 		.4byte	.LASF16
ARM GAS  /tmp/ccghgfLK.s 			page 7


 340 00bb 05       		.byte	0x5
 341 00bc 53       		.byte	0x53
 342 00bd C1000000 		.4byte	0xc1
 343 00c1 06       		.uleb128 0x6
 344 00c2 04       		.byte	0x4
 345 00c3 C7000000 		.4byte	0xc7
 346 00c7 07       		.uleb128 0x7
 347 00c8 D2000000 		.4byte	0xd2
 348 00cc 08       		.uleb128 0x8
 349 00cd AD000000 		.4byte	0xad
 350 00d1 00       		.byte	0
 351 00d2 04       		.uleb128 0x4
 352 00d3 97000000 		.4byte	.LASF17
 353 00d7 05       		.byte	0x5
 354 00d8 58       		.byte	0x58
 355 00d9 DD000000 		.4byte	0xdd
 356 00dd 09       		.uleb128 0x9
 357 00de 97000000 		.4byte	.LASF17
 358 00e2 14       		.byte	0x14
 359 00e3 05       		.byte	0x5
 360 00e4 5F       		.byte	0x5f
 361 00e5 26010000 		.4byte	0x126
 362 00e9 0A       		.uleb128 0xa
 363 00ea 49020000 		.4byte	.LASF18
 364 00ee 05       		.byte	0x5
 365 00ef 60       		.byte	0x60
 366 00f0 26010000 		.4byte	0x126
 367 00f4 00       		.byte	0
 368 00f5 0A       		.uleb128 0xa
 369 00f6 1C020000 		.4byte	.LASF19
 370 00fa 05       		.byte	0x5
 371 00fb 62       		.byte	0x62
 372 00fc 26010000 		.4byte	0x126
 373 0100 04       		.byte	0x4
 374 0101 0A       		.uleb128 0xa
 375 0102 B4010000 		.4byte	.LASF20
 376 0106 05       		.byte	0x5
 377 0107 64       		.byte	0x64
 378 0108 A2000000 		.4byte	0xa2
 379 010c 08       		.byte	0x8
 380 010d 0A       		.uleb128 0xa
 381 010e E6010000 		.4byte	.LASF21
 382 0112 05       		.byte	0x5
 383 0113 65       		.byte	0x65
 384 0114 B6000000 		.4byte	0xb6
 385 0118 0C       		.byte	0xc
 386 0119 0A       		.uleb128 0xa
 387 011a FC010000 		.4byte	.LASF22
 388 011e 05       		.byte	0x5
 389 011f 67       		.byte	0x67
 390 0120 AD000000 		.4byte	0xad
 391 0124 10       		.byte	0x10
 392 0125 00       		.byte	0
 393 0126 06       		.uleb128 0x6
 394 0127 04       		.byte	0x4
 395 0128 D2000000 		.4byte	0xd2
 396 012c 0B       		.uleb128 0xb
ARM GAS  /tmp/ccghgfLK.s 			page 8


 397 012d 10       		.byte	0x10
 398 012e 05       		.byte	0x5
 399 012f 71       		.byte	0x71
 400 0130 65010000 		.4byte	0x165
 401 0134 0A       		.uleb128 0xa
 402 0135 49020000 		.4byte	.LASF18
 403 0139 05       		.byte	0x5
 404 013a 72       		.byte	0x72
 405 013b 26010000 		.4byte	0x126
 406 013f 00       		.byte	0
 407 0140 0A       		.uleb128 0xa
 408 0141 1C020000 		.4byte	.LASF19
 409 0145 05       		.byte	0x5
 410 0146 74       		.byte	0x74
 411 0147 26010000 		.4byte	0x126
 412 014b 04       		.byte	0x4
 413 014c 0A       		.uleb128 0xa
 414 014d B4010000 		.4byte	.LASF20
 415 0151 05       		.byte	0x5
 416 0152 76       		.byte	0x76
 417 0153 A2000000 		.4byte	0xa2
 418 0157 08       		.byte	0x8
 419 0158 0A       		.uleb128 0xa
 420 0159 CD010000 		.4byte	.LASF23
 421 015d 05       		.byte	0x5
 422 015e 77       		.byte	0x77
 423 015f 65010000 		.4byte	0x165
 424 0163 0C       		.byte	0xc
 425 0164 00       		.byte	0
 426 0165 0C       		.uleb128 0xc
 427 0166 A2000000 		.4byte	0xa2
 428 016a 04       		.uleb128 0x4
 429 016b 42020000 		.4byte	.LASF24
 430 016f 05       		.byte	0x5
 431 0170 78       		.byte	0x78
 432 0171 2C010000 		.4byte	0x12c
 433 0175 03       		.uleb128 0x3
 434 0176 01       		.byte	0x1
 435 0177 08       		.byte	0x8
 436 0178 F7010000 		.4byte	.LASF25
 437 017c 0D       		.uleb128 0xd
 438 017d B2000000 		.4byte	.LASF34
 439 0181 01       		.byte	0x1
 440 0182 32       		.byte	0x32
 441 0183 00000000 		.4byte	.LFB7
 442 0187 18000000 		.4byte	.LFE7-.LFB7
 443 018b 01       		.uleb128 0x1
 444 018c 9C       		.byte	0x9c
 445 018d 0E       		.uleb128 0xe
 446 018e 00000000 		.4byte	.LASF28
 447 0192 01       		.byte	0x1
 448 0193 4D       		.byte	0x4d
 449 0194 00000000 		.4byte	.LFB8
 450 0198 3C000000 		.4byte	.LFE8-.LFB8
 451 019c 01       		.uleb128 0x1
 452 019d 9C       		.byte	0x9c
 453 019e EA010000 		.4byte	0x1ea
ARM GAS  /tmp/ccghgfLK.s 			page 9


 454 01a2 0F       		.uleb128 0xf
 455 01a3 76747000 		.ascii	"vtp\000"
 456 01a7 01       		.byte	0x1
 457 01a8 4D       		.byte	0x4d
 458 01a9 26010000 		.4byte	0x126
 459 01ad 01       		.uleb128 0x1
 460 01ae 50       		.byte	0x50
 461 01af 10       		.uleb128 0x10
 462 01b0 F1000000 		.4byte	.LASF26
 463 01b4 01       		.byte	0x1
 464 01b5 4D       		.byte	0x4d
 465 01b6 A2000000 		.4byte	0xa2
 466 01ba 00000000 		.4byte	.LLST0
 467 01be 10       		.uleb128 0x10
 468 01bf 6B000000 		.4byte	.LASF27
 469 01c3 01       		.byte	0x1
 470 01c4 4D       		.byte	0x4d
 471 01c5 B6000000 		.4byte	0xb6
 472 01c9 2A000000 		.4byte	.LLST1
 473 01cd 11       		.uleb128 0x11
 474 01ce 70617200 		.ascii	"par\000"
 475 01d2 01       		.byte	0x1
 476 01d3 4D       		.byte	0x4d
 477 01d4 AD000000 		.4byte	0xad
 478 01d8 49000000 		.4byte	.LLST2
 479 01dc 12       		.uleb128 0x12
 480 01dd 7000     		.ascii	"p\000"
 481 01df 01       		.byte	0x1
 482 01e0 4E       		.byte	0x4e
 483 01e1 26010000 		.4byte	0x126
 484 01e5 68000000 		.4byte	.LLST3
 485 01e9 00       		.byte	0
 486 01ea 0E       		.uleb128 0xe
 487 01eb 51020000 		.4byte	.LASF29
 488 01ef 01       		.byte	0x1
 489 01f0 6B       		.byte	0x6b
 490 01f1 00000000 		.4byte	.LFB9
 491 01f5 24000000 		.4byte	.LFE9-.LFB9
 492 01f9 01       		.uleb128 0x1
 493 01fa 9C       		.byte	0x9c
 494 01fb 0D020000 		.4byte	0x20d
 495 01ff 0F       		.uleb128 0xf
 496 0200 76747000 		.ascii	"vtp\000"
 497 0204 01       		.byte	0x1
 498 0205 6B       		.byte	0x6b
 499 0206 26010000 		.4byte	0x126
 500 020a 01       		.uleb128 0x1
 501 020b 50       		.byte	0x50
 502 020c 00       		.byte	0
 503 020d 13       		.uleb128 0x13
 504 020e 0D020000 		.4byte	.LASF35
 505 0212 01       		.byte	0x1
 506 0213 87       		.byte	0x87
 507 0214 97000000 		.4byte	0x97
 508 0218 00000000 		.4byte	.LFB10
 509 021c 28000000 		.4byte	.LFE10-.LFB10
 510 0220 01       		.uleb128 0x1
ARM GAS  /tmp/ccghgfLK.s 			page 10


 511 0221 9C       		.byte	0x9c
 512 0222 50020000 		.4byte	0x250
 513 0226 10       		.uleb128 0x10
 514 0227 1D000000 		.4byte	.LASF30
 515 022b 01       		.byte	0x1
 516 022c 87       		.byte	0x87
 517 022d A2000000 		.4byte	0xa2
 518 0231 86000000 		.4byte	.LLST4
 519 0235 0F       		.uleb128 0xf
 520 0236 656E6400 		.ascii	"end\000"
 521 023a 01       		.byte	0x1
 522 023b 87       		.byte	0x87
 523 023c A2000000 		.4byte	0xa2
 524 0240 01       		.uleb128 0x1
 525 0241 51       		.byte	0x51
 526 0242 14       		.uleb128 0x14
 527 0243 F1000000 		.4byte	.LASF26
 528 0247 01       		.byte	0x1
 529 0248 89       		.byte	0x89
 530 0249 A2000000 		.4byte	0xa2
 531 024d 01       		.uleb128 0x1
 532 024e 53       		.byte	0x53
 533 024f 00       		.byte	0
 534 0250 15       		.uleb128 0x15
 535 0251 EA000000 		.4byte	.LASF36
 536 0255 01       		.byte	0x1
 537 0256 2A       		.byte	0x2a
 538 0257 6A010000 		.4byte	0x16a
 539 025b 05       		.uleb128 0x5
 540 025c 03       		.byte	0x3
 541 025d 00000000 		.4byte	vtlist
 542 0261 00       		.byte	0
 543              		.section	.debug_abbrev,"",%progbits
 544              	.Ldebug_abbrev0:
 545 0000 01       		.uleb128 0x1
 546 0001 11       		.uleb128 0x11
 547 0002 01       		.byte	0x1
 548 0003 25       		.uleb128 0x25
 549 0004 0E       		.uleb128 0xe
 550 0005 13       		.uleb128 0x13
 551 0006 0B       		.uleb128 0xb
 552 0007 03       		.uleb128 0x3
 553 0008 0E       		.uleb128 0xe
 554 0009 1B       		.uleb128 0x1b
 555 000a 0E       		.uleb128 0xe
 556 000b 55       		.uleb128 0x55
 557 000c 17       		.uleb128 0x17
 558 000d 11       		.uleb128 0x11
 559 000e 01       		.uleb128 0x1
 560 000f 10       		.uleb128 0x10
 561 0010 17       		.uleb128 0x17
 562 0011 00       		.byte	0
 563 0012 00       		.byte	0
 564 0013 02       		.uleb128 0x2
 565 0014 24       		.uleb128 0x24
 566 0015 00       		.byte	0
 567 0016 0B       		.uleb128 0xb
ARM GAS  /tmp/ccghgfLK.s 			page 11


 568 0017 0B       		.uleb128 0xb
 569 0018 3E       		.uleb128 0x3e
 570 0019 0B       		.uleb128 0xb
 571 001a 03       		.uleb128 0x3
 572 001b 08       		.uleb128 0x8
 573 001c 00       		.byte	0
 574 001d 00       		.byte	0
 575 001e 03       		.uleb128 0x3
 576 001f 24       		.uleb128 0x24
 577 0020 00       		.byte	0
 578 0021 0B       		.uleb128 0xb
 579 0022 0B       		.uleb128 0xb
 580 0023 3E       		.uleb128 0x3e
 581 0024 0B       		.uleb128 0xb
 582 0025 03       		.uleb128 0x3
 583 0026 0E       		.uleb128 0xe
 584 0027 00       		.byte	0
 585 0028 00       		.byte	0
 586 0029 04       		.uleb128 0x4
 587 002a 16       		.uleb128 0x16
 588 002b 00       		.byte	0
 589 002c 03       		.uleb128 0x3
 590 002d 0E       		.uleb128 0xe
 591 002e 3A       		.uleb128 0x3a
 592 002f 0B       		.uleb128 0xb
 593 0030 3B       		.uleb128 0x3b
 594 0031 0B       		.uleb128 0xb
 595 0032 49       		.uleb128 0x49
 596 0033 13       		.uleb128 0x13
 597 0034 00       		.byte	0
 598 0035 00       		.byte	0
 599 0036 05       		.uleb128 0x5
 600 0037 0F       		.uleb128 0xf
 601 0038 00       		.byte	0
 602 0039 0B       		.uleb128 0xb
 603 003a 0B       		.uleb128 0xb
 604 003b 00       		.byte	0
 605 003c 00       		.byte	0
 606 003d 06       		.uleb128 0x6
 607 003e 0F       		.uleb128 0xf
 608 003f 00       		.byte	0
 609 0040 0B       		.uleb128 0xb
 610 0041 0B       		.uleb128 0xb
 611 0042 49       		.uleb128 0x49
 612 0043 13       		.uleb128 0x13
 613 0044 00       		.byte	0
 614 0045 00       		.byte	0
 615 0046 07       		.uleb128 0x7
 616 0047 15       		.uleb128 0x15
 617 0048 01       		.byte	0x1
 618 0049 27       		.uleb128 0x27
 619 004a 19       		.uleb128 0x19
 620 004b 01       		.uleb128 0x1
 621 004c 13       		.uleb128 0x13
 622 004d 00       		.byte	0
 623 004e 00       		.byte	0
 624 004f 08       		.uleb128 0x8
ARM GAS  /tmp/ccghgfLK.s 			page 12


 625 0050 05       		.uleb128 0x5
 626 0051 00       		.byte	0
 627 0052 49       		.uleb128 0x49
 628 0053 13       		.uleb128 0x13
 629 0054 00       		.byte	0
 630 0055 00       		.byte	0
 631 0056 09       		.uleb128 0x9
 632 0057 13       		.uleb128 0x13
 633 0058 01       		.byte	0x1
 634 0059 03       		.uleb128 0x3
 635 005a 0E       		.uleb128 0xe
 636 005b 0B       		.uleb128 0xb
 637 005c 0B       		.uleb128 0xb
 638 005d 3A       		.uleb128 0x3a
 639 005e 0B       		.uleb128 0xb
 640 005f 3B       		.uleb128 0x3b
 641 0060 0B       		.uleb128 0xb
 642 0061 01       		.uleb128 0x1
 643 0062 13       		.uleb128 0x13
 644 0063 00       		.byte	0
 645 0064 00       		.byte	0
 646 0065 0A       		.uleb128 0xa
 647 0066 0D       		.uleb128 0xd
 648 0067 00       		.byte	0
 649 0068 03       		.uleb128 0x3
 650 0069 0E       		.uleb128 0xe
 651 006a 3A       		.uleb128 0x3a
 652 006b 0B       		.uleb128 0xb
 653 006c 3B       		.uleb128 0x3b
 654 006d 0B       		.uleb128 0xb
 655 006e 49       		.uleb128 0x49
 656 006f 13       		.uleb128 0x13
 657 0070 38       		.uleb128 0x38
 658 0071 0B       		.uleb128 0xb
 659 0072 00       		.byte	0
 660 0073 00       		.byte	0
 661 0074 0B       		.uleb128 0xb
 662 0075 13       		.uleb128 0x13
 663 0076 01       		.byte	0x1
 664 0077 0B       		.uleb128 0xb
 665 0078 0B       		.uleb128 0xb
 666 0079 3A       		.uleb128 0x3a
 667 007a 0B       		.uleb128 0xb
 668 007b 3B       		.uleb128 0x3b
 669 007c 0B       		.uleb128 0xb
 670 007d 01       		.uleb128 0x1
 671 007e 13       		.uleb128 0x13
 672 007f 00       		.byte	0
 673 0080 00       		.byte	0
 674 0081 0C       		.uleb128 0xc
 675 0082 35       		.uleb128 0x35
 676 0083 00       		.byte	0
 677 0084 49       		.uleb128 0x49
 678 0085 13       		.uleb128 0x13
 679 0086 00       		.byte	0
 680 0087 00       		.byte	0
 681 0088 0D       		.uleb128 0xd
ARM GAS  /tmp/ccghgfLK.s 			page 13


 682 0089 2E       		.uleb128 0x2e
 683 008a 00       		.byte	0
 684 008b 3F       		.uleb128 0x3f
 685 008c 19       		.uleb128 0x19
 686 008d 03       		.uleb128 0x3
 687 008e 0E       		.uleb128 0xe
 688 008f 3A       		.uleb128 0x3a
 689 0090 0B       		.uleb128 0xb
 690 0091 3B       		.uleb128 0x3b
 691 0092 0B       		.uleb128 0xb
 692 0093 27       		.uleb128 0x27
 693 0094 19       		.uleb128 0x19
 694 0095 11       		.uleb128 0x11
 695 0096 01       		.uleb128 0x1
 696 0097 12       		.uleb128 0x12
 697 0098 06       		.uleb128 0x6
 698 0099 40       		.uleb128 0x40
 699 009a 18       		.uleb128 0x18
 700 009b 9742     		.uleb128 0x2117
 701 009d 19       		.uleb128 0x19
 702 009e 00       		.byte	0
 703 009f 00       		.byte	0
 704 00a0 0E       		.uleb128 0xe
 705 00a1 2E       		.uleb128 0x2e
 706 00a2 01       		.byte	0x1
 707 00a3 3F       		.uleb128 0x3f
 708 00a4 19       		.uleb128 0x19
 709 00a5 03       		.uleb128 0x3
 710 00a6 0E       		.uleb128 0xe
 711 00a7 3A       		.uleb128 0x3a
 712 00a8 0B       		.uleb128 0xb
 713 00a9 3B       		.uleb128 0x3b
 714 00aa 0B       		.uleb128 0xb
 715 00ab 27       		.uleb128 0x27
 716 00ac 19       		.uleb128 0x19
 717 00ad 11       		.uleb128 0x11
 718 00ae 01       		.uleb128 0x1
 719 00af 12       		.uleb128 0x12
 720 00b0 06       		.uleb128 0x6
 721 00b1 40       		.uleb128 0x40
 722 00b2 18       		.uleb128 0x18
 723 00b3 9742     		.uleb128 0x2117
 724 00b5 19       		.uleb128 0x19
 725 00b6 01       		.uleb128 0x1
 726 00b7 13       		.uleb128 0x13
 727 00b8 00       		.byte	0
 728 00b9 00       		.byte	0
 729 00ba 0F       		.uleb128 0xf
 730 00bb 05       		.uleb128 0x5
 731 00bc 00       		.byte	0
 732 00bd 03       		.uleb128 0x3
 733 00be 08       		.uleb128 0x8
 734 00bf 3A       		.uleb128 0x3a
 735 00c0 0B       		.uleb128 0xb
 736 00c1 3B       		.uleb128 0x3b
 737 00c2 0B       		.uleb128 0xb
 738 00c3 49       		.uleb128 0x49
ARM GAS  /tmp/ccghgfLK.s 			page 14


 739 00c4 13       		.uleb128 0x13
 740 00c5 02       		.uleb128 0x2
 741 00c6 18       		.uleb128 0x18
 742 00c7 00       		.byte	0
 743 00c8 00       		.byte	0
 744 00c9 10       		.uleb128 0x10
 745 00ca 05       		.uleb128 0x5
 746 00cb 00       		.byte	0
 747 00cc 03       		.uleb128 0x3
 748 00cd 0E       		.uleb128 0xe
 749 00ce 3A       		.uleb128 0x3a
 750 00cf 0B       		.uleb128 0xb
 751 00d0 3B       		.uleb128 0x3b
 752 00d1 0B       		.uleb128 0xb
 753 00d2 49       		.uleb128 0x49
 754 00d3 13       		.uleb128 0x13
 755 00d4 02       		.uleb128 0x2
 756 00d5 17       		.uleb128 0x17
 757 00d6 00       		.byte	0
 758 00d7 00       		.byte	0
 759 00d8 11       		.uleb128 0x11
 760 00d9 05       		.uleb128 0x5
 761 00da 00       		.byte	0
 762 00db 03       		.uleb128 0x3
 763 00dc 08       		.uleb128 0x8
 764 00dd 3A       		.uleb128 0x3a
 765 00de 0B       		.uleb128 0xb
 766 00df 3B       		.uleb128 0x3b
 767 00e0 0B       		.uleb128 0xb
 768 00e1 49       		.uleb128 0x49
 769 00e2 13       		.uleb128 0x13
 770 00e3 02       		.uleb128 0x2
 771 00e4 17       		.uleb128 0x17
 772 00e5 00       		.byte	0
 773 00e6 00       		.byte	0
 774 00e7 12       		.uleb128 0x12
 775 00e8 34       		.uleb128 0x34
 776 00e9 00       		.byte	0
 777 00ea 03       		.uleb128 0x3
 778 00eb 08       		.uleb128 0x8
 779 00ec 3A       		.uleb128 0x3a
 780 00ed 0B       		.uleb128 0xb
 781 00ee 3B       		.uleb128 0x3b
 782 00ef 0B       		.uleb128 0xb
 783 00f0 49       		.uleb128 0x49
 784 00f1 13       		.uleb128 0x13
 785 00f2 02       		.uleb128 0x2
 786 00f3 17       		.uleb128 0x17
 787 00f4 00       		.byte	0
 788 00f5 00       		.byte	0
 789 00f6 13       		.uleb128 0x13
 790 00f7 2E       		.uleb128 0x2e
 791 00f8 01       		.byte	0x1
 792 00f9 3F       		.uleb128 0x3f
 793 00fa 19       		.uleb128 0x19
 794 00fb 03       		.uleb128 0x3
 795 00fc 0E       		.uleb128 0xe
ARM GAS  /tmp/ccghgfLK.s 			page 15


 796 00fd 3A       		.uleb128 0x3a
 797 00fe 0B       		.uleb128 0xb
 798 00ff 3B       		.uleb128 0x3b
 799 0100 0B       		.uleb128 0xb
 800 0101 27       		.uleb128 0x27
 801 0102 19       		.uleb128 0x19
 802 0103 49       		.uleb128 0x49
 803 0104 13       		.uleb128 0x13
 804 0105 11       		.uleb128 0x11
 805 0106 01       		.uleb128 0x1
 806 0107 12       		.uleb128 0x12
 807 0108 06       		.uleb128 0x6
 808 0109 40       		.uleb128 0x40
 809 010a 18       		.uleb128 0x18
 810 010b 9742     		.uleb128 0x2117
 811 010d 19       		.uleb128 0x19
 812 010e 01       		.uleb128 0x1
 813 010f 13       		.uleb128 0x13
 814 0110 00       		.byte	0
 815 0111 00       		.byte	0
 816 0112 14       		.uleb128 0x14
 817 0113 34       		.uleb128 0x34
 818 0114 00       		.byte	0
 819 0115 03       		.uleb128 0x3
 820 0116 0E       		.uleb128 0xe
 821 0117 3A       		.uleb128 0x3a
 822 0118 0B       		.uleb128 0xb
 823 0119 3B       		.uleb128 0x3b
 824 011a 0B       		.uleb128 0xb
 825 011b 49       		.uleb128 0x49
 826 011c 13       		.uleb128 0x13
 827 011d 02       		.uleb128 0x2
 828 011e 18       		.uleb128 0x18
 829 011f 00       		.byte	0
 830 0120 00       		.byte	0
 831 0121 15       		.uleb128 0x15
 832 0122 34       		.uleb128 0x34
 833 0123 00       		.byte	0
 834 0124 03       		.uleb128 0x3
 835 0125 0E       		.uleb128 0xe
 836 0126 3A       		.uleb128 0x3a
 837 0127 0B       		.uleb128 0xb
 838 0128 3B       		.uleb128 0x3b
 839 0129 0B       		.uleb128 0xb
 840 012a 49       		.uleb128 0x49
 841 012b 13       		.uleb128 0x13
 842 012c 3F       		.uleb128 0x3f
 843 012d 19       		.uleb128 0x19
 844 012e 02       		.uleb128 0x2
 845 012f 18       		.uleb128 0x18
 846 0130 00       		.byte	0
 847 0131 00       		.byte	0
 848 0132 00       		.byte	0
 849              		.section	.debug_loc,"",%progbits
 850              	.Ldebug_loc0:
 851              	.LLST0:
 852 0000 00000000 		.4byte	.LVL0
ARM GAS  /tmp/ccghgfLK.s 			page 16


 853 0004 14000000 		.4byte	.LVL4
 854 0008 0100     		.2byte	0x1
 855 000a 51       		.byte	0x51
 856 000b 14000000 		.4byte	.LVL4
 857 000f 2E000000 		.4byte	.LVL5
 858 0013 0100     		.2byte	0x1
 859 0015 51       		.byte	0x51
 860 0016 2E000000 		.4byte	.LVL5
 861 001a 30000000 		.4byte	.LVL6
 862 001e 0200     		.2byte	0x2
 863 0020 70       		.byte	0x70
 864 0021 08       		.sleb128 8
 865 0022 00000000 		.4byte	0
 866 0026 00000000 		.4byte	0
 867              	.LLST1:
 868 002a 00000000 		.4byte	.LVL0
 869 002e 0C000000 		.4byte	.LVL2
 870 0032 0100     		.2byte	0x1
 871 0034 52       		.byte	0x52
 872 0035 0C000000 		.4byte	.LVL2
 873 0039 3C000000 		.4byte	.LFE8
 874 003d 0200     		.2byte	0x2
 875 003f 70       		.byte	0x70
 876 0040 0C       		.sleb128 12
 877 0041 00000000 		.4byte	0
 878 0045 00000000 		.4byte	0
 879              	.LLST2:
 880 0049 00000000 		.4byte	.LVL0
 881 004d 08000000 		.4byte	.LVL1
 882 0051 0100     		.2byte	0x1
 883 0053 53       		.byte	0x53
 884 0054 08000000 		.4byte	.LVL1
 885 0058 3C000000 		.4byte	.LFE8
 886 005c 0200     		.2byte	0x2
 887 005e 70       		.byte	0x70
 888 005f 10       		.sleb128 16
 889 0060 00000000 		.4byte	0
 890 0064 00000000 		.4byte	0
 891              	.LLST3:
 892 0068 08000000 		.4byte	.LVL1
 893 006c 12000000 		.4byte	.LVL3
 894 0070 0100     		.2byte	0x1
 895 0072 53       		.byte	0x53
 896 0073 14000000 		.4byte	.LVL4
 897 0077 3C000000 		.4byte	.LFE8
 898 007b 0100     		.2byte	0x1
 899 007d 53       		.byte	0x53
 900 007e 00000000 		.4byte	0
 901 0082 00000000 		.4byte	0
 902              	.LLST4:
 903 0086 00000000 		.4byte	.LVL8
 904 008a 12000000 		.4byte	.LVL10
 905 008e 0100     		.2byte	0x1
 906 0090 50       		.byte	0x50
 907 0091 12000000 		.4byte	.LVL10
 908 0095 16000000 		.4byte	.LVL11
 909 0099 0400     		.2byte	0x4
ARM GAS  /tmp/ccghgfLK.s 			page 17


 910 009b F3       		.byte	0xf3
 911 009c 01       		.uleb128 0x1
 912 009d 50       		.byte	0x50
 913 009e 9F       		.byte	0x9f
 914 009f 16000000 		.4byte	.LVL11
 915 00a3 1C000000 		.4byte	.LVL12
 916 00a7 0100     		.2byte	0x1
 917 00a9 50       		.byte	0x50
 918 00aa 1C000000 		.4byte	.LVL12
 919 00ae 1E000000 		.4byte	.LVL13
 920 00b2 0400     		.2byte	0x4
 921 00b4 F3       		.byte	0xf3
 922 00b5 01       		.uleb128 0x1
 923 00b6 50       		.byte	0x50
 924 00b7 9F       		.byte	0x9f
 925 00b8 1E000000 		.4byte	.LVL13
 926 00bc 20000000 		.4byte	.LVL14
 927 00c0 0100     		.2byte	0x1
 928 00c2 50       		.byte	0x50
 929 00c3 20000000 		.4byte	.LVL14
 930 00c7 28000000 		.4byte	.LFE10
 931 00cb 0400     		.2byte	0x4
 932 00cd F3       		.byte	0xf3
 933 00ce 01       		.uleb128 0x1
 934 00cf 50       		.byte	0x50
 935 00d0 9F       		.byte	0x9f
 936 00d1 00000000 		.4byte	0
 937 00d5 00000000 		.4byte	0
 938              		.section	.debug_aranges,"",%progbits
 939 0000 34000000 		.4byte	0x34
 940 0004 0200     		.2byte	0x2
 941 0006 00000000 		.4byte	.Ldebug_info0
 942 000a 04       		.byte	0x4
 943 000b 00       		.byte	0
 944 000c 0000     		.2byte	0
 945 000e 0000     		.2byte	0
 946 0010 00000000 		.4byte	.LFB7
 947 0014 18000000 		.4byte	.LFE7-.LFB7
 948 0018 00000000 		.4byte	.LFB8
 949 001c 3C000000 		.4byte	.LFE8-.LFB8
 950 0020 00000000 		.4byte	.LFB9
 951 0024 24000000 		.4byte	.LFE9-.LFB9
 952 0028 00000000 		.4byte	.LFB10
 953 002c 28000000 		.4byte	.LFE10-.LFB10
 954 0030 00000000 		.4byte	0
 955 0034 00000000 		.4byte	0
 956              		.section	.debug_ranges,"",%progbits
 957              	.Ldebug_ranges0:
 958 0000 00000000 		.4byte	.LFB7
 959 0004 18000000 		.4byte	.LFE7
 960 0008 00000000 		.4byte	.LFB8
 961 000c 3C000000 		.4byte	.LFE8
 962 0010 00000000 		.4byte	.LFB9
 963 0014 24000000 		.4byte	.LFE9
 964 0018 00000000 		.4byte	.LFB10
 965 001c 28000000 		.4byte	.LFE10
 966 0020 00000000 		.4byte	0
ARM GAS  /tmp/ccghgfLK.s 			page 18


 967 0024 00000000 		.4byte	0
 968              		.section	.debug_line,"",%progbits
 969              	.Ldebug_line0:
 970 0000 52010000 		.section	.debug_str,"MS",%progbits,1
 970      0200D800 
 970      00000201 
 970      FB0E0D00 
 970      01010101 
 971              	.LASF28:
 972 0000 63685654 		.ascii	"chVTSetI\000"
 972      53657449 
 972      00
 973              	.LASF14:
 974 0009 73797374 		.ascii	"systime_t\000"
 974      696D655F 
 974      7400
 975              	.LASF6:
 976 0013 5F5F696E 		.ascii	"__int32_t\000"
 976      7433325F 
 976      7400
 977              	.LASF30:
 978 001d 73746172 		.ascii	"start\000"
 978      7400
 979              	.LASF13:
 980 0023 626F6F6C 		.ascii	"bool_t\000"
 980      5F7400
 981              	.LASF32:
 982 002a 43686962 		.ascii	"ChibiOS//os/kernel/src/chvt.c\000"
 982      694F532F 
 982      2F6F732F 
 982      6B65726E 
 982      656C2F73 
 983              	.LASF33:
 984 0048 2F686F6D 		.ascii	"/home/raparram/Escritorio/blinkSAM\000"
 984      652F7261 
 984      70617272 
 984      616D2F45 
 984      73637269 
 985              	.LASF27:
 986 006b 76746675 		.ascii	"vtfunc\000"
 986      6E6300
 987              	.LASF8:
 988 0072 6C6F6E67 		.ascii	"long unsigned int\000"
 988      20756E73 
 988      69676E65 
 988      6420696E 
 988      7400
 989              	.LASF4:
 990 0084 73686F72 		.ascii	"short unsigned int\000"
 990      7420756E 
 990      7369676E 
 990      65642069 
 990      6E7400
 991              	.LASF17:
 992 0097 56697274 		.ascii	"VirtualTimer\000"
 992      75616C54 
 992      696D6572 
ARM GAS  /tmp/ccghgfLK.s 			page 19


 992      00
 993              	.LASF2:
 994 00a4 756E7369 		.ascii	"unsigned char\000"
 994      676E6564 
 994      20636861 
 994      7200
 995              	.LASF34:
 996 00b2 5F76745F 		.ascii	"_vt_init\000"
 996      696E6974 
 996      00
 997              	.LASF7:
 998 00bb 5F5F7569 		.ascii	"__uint32_t\000"
 998      6E743332 
 998      5F7400
 999              	.LASF0:
 1000 00c6 756E7369 		.ascii	"unsigned int\000"
 1000      676E6564 
 1000      20696E74 
 1000      00
 1001              	.LASF10:
 1002 00d3 6C6F6E67 		.ascii	"long long unsigned int\000"
 1002      206C6F6E 
 1002      6720756E 
 1002      7369676E 
 1002      65642069 
 1003              	.LASF36:
 1004 00ea 76746C69 		.ascii	"vtlist\000"
 1004      737400
 1005              	.LASF26:
 1006 00f1 74696D65 		.ascii	"time\000"
 1006      00
 1007              	.LASF31:
 1008 00f6 474E5520 		.ascii	"GNU C 4.9.3 20150529 (prerelease) -mcpu=cortex-m3 -"
 1008      4320342E 
 1008      392E3320 
 1008      32303135 
 1008      30353239 
 1009 0129 6D6E6F2D 		.ascii	"mno-thumb-interwork -mthumb -ggdb -O2 -std=gnu99 -f"
 1009      7468756D 
 1009      622D696E 
 1009      74657277 
 1009      6F726B20 
 1010 015c 6F6D6974 		.ascii	"omit-frame-pointer -falign-functions=16 -ffunction-"
 1010      2D667261 
 1010      6D652D70 
 1010      6F696E74 
 1010      6572202D 
 1011 018f 73656374 		.ascii	"sections -fdata-sections -fno-common\000"
 1011      696F6E73 
 1011      202D6664 
 1011      6174612D 
 1011      73656374 
 1012              	.LASF20:
 1013 01b4 76745F74 		.ascii	"vt_time\000"
 1013      696D6500 
 1014              	.LASF11:
 1015 01bc 696E7433 		.ascii	"int32_t\000"
ARM GAS  /tmp/ccghgfLK.s 			page 20


 1015      325F7400 
 1016              	.LASF15:
 1017 01c4 73697A65 		.ascii	"sizetype\000"
 1017      74797065 
 1017      00
 1018              	.LASF23:
 1019 01cd 76745F73 		.ascii	"vt_systime\000"
 1019      79737469 
 1019      6D6500
 1020              	.LASF9:
 1021 01d8 6C6F6E67 		.ascii	"long long int\000"
 1021      206C6F6E 
 1021      6720696E 
 1021      7400
 1022              	.LASF21:
 1023 01e6 76745F66 		.ascii	"vt_func\000"
 1023      756E6300 
 1024              	.LASF16:
 1025 01ee 76746675 		.ascii	"vtfunc_t\000"
 1025      6E635F74 
 1025      00
 1026              	.LASF25:
 1027 01f7 63686172 		.ascii	"char\000"
 1027      00
 1028              	.LASF22:
 1029 01fc 76745F70 		.ascii	"vt_par\000"
 1029      617200
 1030              	.LASF3:
 1031 0203 73686F72 		.ascii	"short int\000"
 1031      7420696E 
 1031      7400
 1032              	.LASF35:
 1033 020d 63685469 		.ascii	"chTimeIsWithin\000"
 1033      6D654973 
 1033      57697468 
 1033      696E00
 1034              	.LASF19:
 1035 021c 76745F70 		.ascii	"vt_prev\000"
 1035      72657600 
 1036              	.LASF12:
 1037 0224 75696E74 		.ascii	"uint32_t\000"
 1037      33325F74 
 1037      00
 1038              	.LASF5:
 1039 022d 6C6F6E67 		.ascii	"long int\000"
 1039      20696E74 
 1039      00
 1040              	.LASF1:
 1041 0236 7369676E 		.ascii	"signed char\000"
 1041      65642063 
 1041      68617200 
 1042              	.LASF24:
 1043 0242 56544C69 		.ascii	"VTList\000"
 1043      737400
 1044              	.LASF18:
 1045 0249 76745F6E 		.ascii	"vt_next\000"
 1045      65787400 
ARM GAS  /tmp/ccghgfLK.s 			page 21


 1046              	.LASF29:
 1047 0251 63685654 		.ascii	"chVTResetI\000"
 1047      52657365 
 1047      744900
 1048              		.ident	"GCC: (15:4.9.3+svn231177-1) 4.9.3 20150529 (prerelease)"
ARM GAS  /tmp/ccghgfLK.s 			page 22


DEFINED SYMBOLS
                            *ABS*:0000000000000000 chvt.c
     /tmp/ccghgfLK.s:19     .text._vt_init:0000000000000000 $t
     /tmp/ccghgfLK.s:25     .text._vt_init:0000000000000000 _vt_init
     /tmp/ccghgfLK.s:50     .text._vt_init:0000000000000014 $d
     /tmp/ccghgfLK.s:55     .text.chVTSetI:0000000000000000 $t
     /tmp/ccghgfLK.s:61     .text.chVTSetI:0000000000000000 chVTSetI
     /tmp/ccghgfLK.s:127    .text.chVTSetI:0000000000000038 $d
     /tmp/ccghgfLK.s:132    .text.chVTResetI:0000000000000000 $t
     /tmp/ccghgfLK.s:138    .text.chVTResetI:0000000000000000 chVTResetI
     /tmp/ccghgfLK.s:172    .text.chVTResetI:0000000000000020 $d
     /tmp/ccghgfLK.s:177    .text.chTimeIsWithin:0000000000000000 $t
     /tmp/ccghgfLK.s:183    .text.chTimeIsWithin:0000000000000000 chTimeIsWithin
     /tmp/ccghgfLK.s:230    .text.chTimeIsWithin:0000000000000024 $d
     /tmp/ccghgfLK.s:240    .bss.vtlist:0000000000000000 vtlist
     /tmp/ccghgfLK.s:236    .bss.vtlist:0000000000000000 $d
                     .debug_frame:0000000000000010 $d

NO UNDEFINED SYMBOLS
