ARM GAS  /tmp/cccqZAzN.s 			page 1


   1              		.syntax unified
   2              		.cpu cortex-m3
   3              		.fpu softvfp
   4              		.eabi_attribute 20, 1
   5              		.eabi_attribute 21, 1
   6              		.eabi_attribute 23, 3
   7              		.eabi_attribute 24, 1
   8              		.eabi_attribute 25, 1
   9              		.eabi_attribute 26, 1
  10              		.eabi_attribute 30, 2
  11              		.eabi_attribute 34, 1
  12              		.eabi_attribute 18, 4
  13              		.thumb
  14              		.file	"chvt.c"
  15              		.text
  16              	.Ltext0:
  17              		.cfi_sections	.debug_frame
  18              		.section	.text._vt_init,"ax",%progbits
  19              		.align	2
  20              		.p2align 4,,15
  21              		.global	_vt_init
  22              		.thumb
  23              		.thumb_func
  24              		.type	_vt_init, %function
  25              	_vt_init:
  26              	.LFB7:
  27              		.file 1 "../../os/kernel/src/chvt.c"
  28              		.loc 1 50 0
  29              		.cfi_startproc
  30              		@ args = 0, pretend = 0, frame = 0
  31              		@ frame_needed = 0, uses_anonymous_args = 0
  32              		@ link register save eliminated.
  33              		.loc 1 52 0
  34 0000 044B     		ldr	r3, .L2
  35              		.loc 1 53 0
  36 0002 4FF0FF31 		mov	r1, #-1
  37              		.loc 1 54 0
  38 0006 0022     		movs	r2, #0
  39              		.loc 1 52 0
  40 0008 5B60     		str	r3, [r3, #4]
  41 000a 1B60     		str	r3, [r3]
  42              		.loc 1 53 0
  43 000c 9960     		str	r1, [r3, #8]
  44              		.loc 1 54 0
  45 000e DA60     		str	r2, [r3, #12]
  46 0010 7047     		bx	lr
  47              	.L3:
  48 0012 00BF     		.align	2
  49              	.L2:
  50 0014 00000000 		.word	.LANCHOR0
  51              		.cfi_endproc
  52              	.LFE7:
  53              		.size	_vt_init, .-_vt_init
  54 0018 AFF30080 		.section	.text.chVTSetI,"ax",%progbits
  54      AFF30080 
  55              		.align	2
  56              		.p2align 4,,15
ARM GAS  /tmp/cccqZAzN.s 			page 2


  57              		.global	chVTSetI
  58              		.thumb
  59              		.thumb_func
  60              		.type	chVTSetI, %function
  61              	chVTSetI:
  62              	.LFB8:
  63              		.loc 1 77 0
  64              		.cfi_startproc
  65              		@ args = 0, pretend = 0, frame = 0
  66              		@ frame_needed = 0, uses_anonymous_args = 0
  67              		@ link register save eliminated.
  68              	.LVL0:
  69 0000 70B4     		push	{r4, r5, r6}
  70              		.cfi_def_cfa_offset 12
  71              		.cfi_offset 4, -12
  72              		.cfi_offset 5, -8
  73              		.cfi_offset 6, -4
  74              		.loc 1 86 0
  75 0002 0C4E     		ldr	r6, .L9
  76 0004 3468     		ldr	r4, [r6]
  77              	.LVL1:
  78              		.loc 1 87 0
  79 0006 A568     		ldr	r5, [r4, #8]
  80              		.loc 1 84 0
  81 0008 0361     		str	r3, [r0, #16]
  82              		.loc 1 87 0
  83 000a A942     		cmp	r1, r5
  84              		.loc 1 85 0
  85 000c C260     		str	r2, [r0, #12]
  86              		.loc 1 87 0
  87 000e 04D9     		bls	.L5
  88              	.L6:
  89              		.loc 1 89 0
  90 0010 2468     		ldr	r4, [r4]
  91              	.LVL2:
  92              		.loc 1 88 0
  93 0012 491B     		subs	r1, r1, r5
  94              	.LVL3:
  95              		.loc 1 87 0
  96 0014 A568     		ldr	r5, [r4, #8]
  97 0016 8D42     		cmp	r5, r1
  98 0018 FAD3     		bcc	.L6
  99              	.L5:
 100              		.loc 1 92 0
 101 001a 6368     		ldr	r3, [r4, #4]
 102              	.LVL4:
 103              		.loc 1 95 0
 104 001c B442     		cmp	r4, r6
 105              		.loc 1 92 0
 106 001e 0460     		str	r4, [r0]
 107 0020 4360     		str	r3, [r0, #4]
 108              		.loc 1 93 0
 109 0022 6060     		str	r0, [r4, #4]
 110 0024 1860     		str	r0, [r3]
 111              		.loc 1 94 0
 112 0026 8160     		str	r1, [r0, #8]
 113              		.loc 1 95 0
ARM GAS  /tmp/cccqZAzN.s 			page 3


 114 0028 02D0     		beq	.L4
 115              		.loc 1 96 0
 116 002a A368     		ldr	r3, [r4, #8]
 117 002c 591A     		subs	r1, r3, r1
 118              	.LVL5:
 119 002e A160     		str	r1, [r4, #8]
 120              	.LVL6:
 121              	.L4:
 122              		.loc 1 97 0
 123 0030 70BC     		pop	{r4, r5, r6}
 124              	.LVL7:
 125 0032 7047     		bx	lr
 126              	.L10:
 127              		.align	2
 128              	.L9:
 129 0034 00000000 		.word	.LANCHOR0
 130              		.cfi_endproc
 131              	.LFE8:
 132              		.size	chVTSetI, .-chVTSetI
 133 0038 AFF30080 		.section	.text.chVTResetI,"ax",%progbits
 133      AFF30080 
 134              		.align	2
 135              		.p2align 4,,15
 136              		.global	chVTResetI
 137              		.thumb
 138              		.thumb_func
 139              		.type	chVTResetI, %function
 140              	chVTResetI:
 141              	.LFB9:
 142              		.loc 1 107 0
 143              		.cfi_startproc
 144              		@ args = 0, pretend = 0, frame = 0
 145              		@ frame_needed = 0, uses_anonymous_args = 0
 146              		@ link register save eliminated.
 147              	.LVL8:
 148              		.loc 1 115 0
 149 0000 0368     		ldr	r3, [r0]
 150 0002 074A     		ldr	r2, .L13
 151 0004 9342     		cmp	r3, r2
 152 0006 03D0     		beq	.L12
 153              		.loc 1 116 0
 154 0008 9968     		ldr	r1, [r3, #8]
 155 000a 8268     		ldr	r2, [r0, #8]
 156 000c 0A44     		add	r2, r2, r1
 157 000e 9A60     		str	r2, [r3, #8]
 158              	.L12:
 159              		.loc 1 117 0
 160 0010 4268     		ldr	r2, [r0, #4]
 161              		.loc 1 119 0
 162 0012 0021     		movs	r1, #0
 163              		.loc 1 117 0
 164 0014 1360     		str	r3, [r2]
 165              		.loc 1 118 0
 166 0016 0368     		ldr	r3, [r0]
 167 0018 5A60     		str	r2, [r3, #4]
 168              		.loc 1 119 0
 169 001a C160     		str	r1, [r0, #12]
ARM GAS  /tmp/cccqZAzN.s 			page 4


 170 001c 7047     		bx	lr
 171              	.L14:
 172 001e 00BF     		.align	2
 173              	.L13:
 174 0020 00000000 		.word	.LANCHOR0
 175              		.cfi_endproc
 176              	.LFE9:
 177              		.size	chVTResetI, .-chVTResetI
 178 0024 AFF30080 		.section	.text.chTimeIsWithin,"ax",%progbits
 178      AFF30080 
 178      AFF30080 
 179              		.align	2
 180              		.p2align 4,,15
 181              		.global	chTimeIsWithin
 182              		.thumb
 183              		.thumb_func
 184              		.type	chTimeIsWithin, %function
 185              	chTimeIsWithin:
 186              	.LFB10:
 187              		.loc 1 135 0
 188              		.cfi_startproc
 189              		@ args = 0, pretend = 0, frame = 0
 190              		@ frame_needed = 0, uses_anonymous_args = 0
 191              		@ link register save eliminated.
 192              	.LVL9:
 193              		.loc 1 137 0
 194 0000 084B     		ldr	r3, .L21
 195              		.loc 1 138 0
 196 0002 8142     		cmp	r1, r0
 197              		.loc 1 137 0
 198 0004 DB68     		ldr	r3, [r3, #12]
 199              	.LVL10:
 200              		.loc 1 138 0
 201 0006 06D9     		bls	.L16
 202              		.loc 1 138 0 is_stmt 0 discriminator 1
 203 0008 8342     		cmp	r3, r0
 204 000a 08D3     		bcc	.L18
 205              	.L20:
 206              		.loc 1 139 0 is_stmt 1
 207 000c 8B42     		cmp	r3, r1
 208 000e 2CBF     		ite	cs
 209 0010 0020     		movcs	r0, #0
 210              	.LVL11:
 211 0012 0120     		movcc	r0, #1
 212 0014 7047     		bx	lr
 213              	.LVL12:
 214              	.L16:
 215              		.loc 1 138 0 discriminator 2
 216 0016 8342     		cmp	r3, r0
 217 0018 F8D3     		bcc	.L20
 218              		.loc 1 138 0 is_stmt 0
 219 001a 0120     		movs	r0, #1
 220              	.LVL13:
 221              		.loc 1 140 0 is_stmt 1
 222 001c 7047     		bx	lr
 223              	.LVL14:
 224              	.L18:
ARM GAS  /tmp/cccqZAzN.s 			page 5


 225              		.loc 1 138 0
 226 001e 0020     		movs	r0, #0
 227              	.LVL15:
 228 0020 7047     		bx	lr
 229              	.L22:
 230 0022 00BF     		.align	2
 231              	.L21:
 232 0024 00000000 		.word	.LANCHOR0
 233              		.cfi_endproc
 234              	.LFE10:
 235              		.size	chTimeIsWithin, .-chTimeIsWithin
 236              		.global	vtlist
 237 0028 AFF30080 		.section	.bss.vtlist,"aw",%nobits
 237      AFF30080 
 238              		.align	2
 239              		.set	.LANCHOR0,. + 0
 240              		.type	vtlist, %object
 241              		.size	vtlist, 16
 242              	vtlist:
 243 0000 00000000 		.space	16
 243      00000000 
 243      00000000 
 243      00000000 
 244              		.text
 245              	.Letext0:
 246              		.file 2 "/usr/local/gcc-arm-none-eabi-4_8-2014q2/arm-none-eabi/include/machine/_default_types.h"
 247              		.file 3 "/usr/local/gcc-arm-none-eabi-4_8-2014q2/arm-none-eabi/include/stdint.h"
 248              		.file 4 "../../os/ports/GCC/ARMCMx/chtypes.h"
 249              		.file 5 "../../os/kernel/include/chvt.h"