ARM GAS  /tmp/ccJPLg4A.s 			page 1


   1              		.syntax unified
   2              		.cpu cortex-m3
   3              		.fpu softvfp
   4              		.eabi_attribute 20, 1
   5              		.eabi_attribute 21, 1
   6              		.eabi_attribute 23, 3
   7              		.eabi_attribute 24, 1
   8              		.eabi_attribute 25, 1
   9              		.eabi_attribute 26, 1
  10              		.eabi_attribute 30, 2
  11              		.eabi_attribute 34, 1
  12              		.eabi_attribute 18, 4
  13              		.thumb
  14              		.file	"crt0.c"
  15              		.text
  16              	.Ltext0:
  17              		.cfi_sections	.debug_frame
  18              		.section	.text.__early_init,"ax",%progbits
  19              		.align	2
  20              		.p2align 4,,15
  21              		.weak	__early_init
  22              		.thumb
  23              		.thumb_func
  24              		.type	__early_init, %function
  25              	__early_init:
  26              	.LFB7:
  27              		.file 1 "../../os/ports/GCC/ARMCMx/crt0.c"
  28              		.loc 1 209 0
  29              		.cfi_startproc
  30              		@ args = 0, pretend = 0, frame = 0
  31              		@ frame_needed = 0, uses_anonymous_args = 0
  32              		@ link register save eliminated.
  33 0000 7047     		bx	lr
  34              		.cfi_endproc
  35              	.LFE7:
  36              		.size	__early_init, .-__early_init
  37 0002 00BFAFF3 		.section	.text.__late_init,"ax",%progbits
  37      0080AFF3 
  37      0080AFF3 
  37      0080
  38              		.align	2
  39              		.p2align 4,,15
  40              		.weak	__late_init
  41              		.thumb
  42              		.thumb_func
  43              		.type	__late_init, %function
  44              	__late_init:
  45              	.LFB8:
  46              		.loc 1 221 0
  47              		.cfi_startproc
  48              		@ args = 0, pretend = 0, frame = 0
  49              		@ frame_needed = 0, uses_anonymous_args = 0
  50              		@ link register save eliminated.
  51 0000 7047     		bx	lr
  52              		.cfi_endproc
  53              	.LFE8:
  54              		.size	__late_init, .-__late_init
ARM GAS  /tmp/ccJPLg4A.s 			page 2


  55 0002 00BFAFF3 		.section	.text._default_exit,"ax",%progbits
  55      0080AFF3 
  55      0080AFF3 
  55      0080
  56              		.align	2
  57              		.p2align 4,,15
  58              		.weak	_default_exit
  59              		.thumb
  60              		.thumb_func
  61              		.type	_default_exit, %function
  62              	_default_exit:
  63              	.LFB9:
  64              		.loc 1 232 0
  65              		.cfi_startproc
  66              		@ Naked Function: prologue and epilogue provided by programmer.
  67              		@ args = 0, pretend = 0, frame = 0
  68              		@ frame_needed = 0, uses_anonymous_args = 0
  69              	.L4:
  70 0000 FEE7     		b	.L4
  71              		.cfi_endproc
  72              	.LFE9:
  73              		.size	_default_exit, .-_default_exit
  74 0002 00BFAFF3 		.section	.text.ResetHandler,"ax",%progbits
  74      0080AFF3 
  74      0080AFF3 
  74      0080
  75              		.align	2
  76              		.p2align 4,,15
  77              		.global	ResetHandler
  78              		.thumb
  79              		.thumb_func
  80              		.type	ResetHandler, %function
  81              	ResetHandler:
  82              	.LFB11:
  83              		.loc 1 256 0
  84              		.cfi_startproc
  85              		@ Naked Function: prologue and epilogue provided by programmer.
  86              		@ args = 0, pretend = 0, frame = 0
  87              		@ frame_needed = 0, uses_anonymous_args = 0
  88              		.loc 1 262 0
  89              	@ 262 "../../os/ports/GCC/ARMCMx/crt0.c" 1
  90 0000 72B6     		cpsid   i
  91              	@ 0 "" 2
  92              		.loc 1 263 0
  93              		.thumb
  94 0002 304C     		ldr	r4, .L27
  95              	.LVL0:
  96              		.loc 1 264 0
  97              	@ 264 "../../os/ports/GCC/ARMCMx/crt0.c" 1
  98 0004 84F30988 		msr     PSP, r4
  99              	@ 0 "" 2
 100              	.LVL1:
 101              		.loc 1 284 0
 102              		.thumb
 103 0008 0223     		movs	r3, #2
 104              	@ 284 "../../os/ports/GCC/ARMCMx/crt0.c" 1
 105 000a 83F31488 		msr     CONTROL, r3
ARM GAS  /tmp/ccJPLg4A.s 			page 3


 106              	@ 0 "" 2
 107              		.loc 1 285 0
 108              	@ 285 "../../os/ports/GCC/ARMCMx/crt0.c" 1
 109 000e BFF36F8F 		isb
 110              	@ 0 "" 2
 111              		.loc 1 288 0
 112              		.thumb
 113 0012 FFF7FEFF 		bl	__early_init
 114              	.LVL2:
 115              	.LBB11:
 116              	.LBB12:
 117              		.loc 1 246 0
 118 0016 2C4B     		ldr	r3, .L27+4
 119 0018 2C4A     		ldr	r2, .L27+8
 120 001a 9342     		cmp	r3, r2
 121 001c 0BD2     		bcs	.L9
 122 001e D943     		mvns	r1, r3
 123 0020 1144     		add	r1, r1, r2
 124 0022 21F00301 		bic	r1, r1, #3
 125 0026 1944     		add	r1, r1, r3
 126              		.loc 1 247 0
 127 0028 4FF05532 		mov	r2, #1431655765
 128 002c 043B     		subs	r3, r3, #4
 129              	.LVL3:
 130              	.L10:
 131 002e 43F8042F 		str	r2, [r3, #4]!
 132              	.LVL4:
 133              		.loc 1 246 0
 134 0032 8B42     		cmp	r3, r1
 135 0034 FBD1     		bne	.L10
 136              	.LVL5:
 137              	.L9:
 138              	.LBE12:
 139              	.LBE11:
 140              	.LBB13:
 141              	.LBB14:
 142 0036 264B     		ldr	r3, .L27+12
 143 0038 A342     		cmp	r3, r4
 144 003a 0CD2     		bcs	.L8
 145 003c 2549     		ldr	r1, .L27+16
 146 003e 1A1D     		adds	r2, r3, #4
 147 0040 891A     		subs	r1, r1, r2
 148 0042 21F00301 		bic	r1, r1, #3
 149 0046 1944     		add	r1, r1, r3
 150              		.loc 1 247 0
 151 0048 4FF05532 		mov	r2, #1431655765
 152 004c 043B     		subs	r3, r3, #4
 153              	.LVL6:
 154              	.L13:
 155 004e 43F8042F 		str	r2, [r3, #4]!
 156              	.LVL7:
 157              		.loc 1 246 0
 158 0052 8B42     		cmp	r3, r1
 159 0054 FBD1     		bne	.L13
 160              	.LVL8:
 161              	.L8:
 162              	.LBE14:
ARM GAS  /tmp/ccJPLg4A.s 			page 4


 163              	.LBE13:
 164              	.LBB15:
 165              		.loc 1 307 0
 166 0056 2049     		ldr	r1, .L27+20
 167 0058 204B     		ldr	r3, .L27+24
 168 005a 9942     		cmp	r1, r3
 169 005c 0BD2     		bcs	.L12
 170 005e C843     		mvns	r0, r1
 171 0060 1844     		add	r0, r0, r3
 172 0062 20F00300 		bic	r0, r0, #3
 173 0066 1E4C     		ldr	r4, .L27+28
 174 0068 0430     		adds	r0, r0, #4
 175 006a 0023     		movs	r3, #0
 176              	.LVL9:
 177              	.L16:
 178              		.loc 1 308 0
 179 006c E258     		ldr	r2, [r4, r3]
 180 006e CA50     		str	r2, [r1, r3]
 181 0070 0433     		adds	r3, r3, #4
 182              	.LVL10:
 183              		.loc 1 307 0
 184 0072 8342     		cmp	r3, r0
 185 0074 FAD1     		bne	.L16
 186              	.LVL11:
 187              	.L12:
 188              	.LBE15:
 189              	.LBB16:
 190              	.LBB17:
 191              		.loc 1 246 0
 192 0076 1B4B     		ldr	r3, .L27+32
 193 0078 1B4A     		ldr	r2, .L27+36
 194 007a 9342     		cmp	r3, r2
 195 007c 0AD2     		bcs	.L15
 196 007e D943     		mvns	r1, r3
 197 0080 1144     		add	r1, r1, r2
 198 0082 21F00301 		bic	r1, r1, #3
 199 0086 1944     		add	r1, r1, r3
 200              		.loc 1 247 0
 201 0088 0022     		movs	r2, #0
 202 008a 043B     		subs	r3, r3, #4
 203              	.LVL12:
 204              	.L19:
 205 008c 43F8042F 		str	r2, [r3, #4]!
 206              	.LVL13:
 207              		.loc 1 246 0
 208 0090 8B42     		cmp	r3, r1
 209 0092 FBD1     		bne	.L19
 210              	.LVL14:
 211              	.L15:
 212              	.LBE17:
 213              	.LBE16:
 214              	.LBB18:
 215              		.loc 1 324 0
 216 0094 154D     		ldr	r5, .L27+40
 217 0096 164C     		ldr	r4, .L27+44
 218              	.LBE18:
 219              		.loc 1 318 0
ARM GAS  /tmp/ccJPLg4A.s 			page 5


 220 0098 FFF7FEFF 		bl	__late_init
 221              	.LVL15:
 222              	.LBB19:
 223              		.loc 1 324 0
 224 009c AC42     		cmp	r4, r5
 225 009e 04D2     		bcs	.L18
 226              	.LVL16:
 227              	.L22:
 228              		.loc 1 325 0
 229 00a0 54F8043B 		ldr	r3, [r4], #4
 230              	.LVL17:
 231 00a4 9847     		blx	r3
 232              	.LVL18:
 233              		.loc 1 324 0
 234 00a6 AC42     		cmp	r4, r5
 235 00a8 FAD3     		bcc	.L22
 236              	.LVL19:
 237              	.L18:
 238              	.LBE19:
 239              	.LBB20:
 240              		.loc 1 338 0
 241 00aa 124D     		ldr	r5, .L27+48
 242 00ac 124C     		ldr	r4, .L27+52
 243              	.LBE20:
 244              		.loc 1 332 0
 245 00ae FFF7FEFF 		bl	main
 246              	.LVL20:
 247              	.LBB21:
 248              		.loc 1 338 0
 249 00b2 AC42     		cmp	r4, r5
 250 00b4 04D2     		bcs	.L21
 251              	.LVL21:
 252              	.L23:
 253              		.loc 1 339 0
 254 00b6 54F8043B 		ldr	r3, [r4], #4
 255              	.LVL22:
 256 00ba 9847     		blx	r3
 257              	.LVL23:
 258              		.loc 1 338 0
 259 00bc AC42     		cmp	r4, r5
 260 00be FAD3     		bcc	.L23
 261              	.LVL24:
 262              	.L21:
 263              	.LBE21:
 264              		.loc 1 346 0
 265 00c0 FFF7FEFF 		bl	_default_exit
 266              	.LVL25:
 267              		.loc 1 347 0
 268              	.L28:
 269              		.align	2
 270              	.L27:
 271 00c4 00000000 		.word	__process_stack_end__
 272 00c8 00000000 		.word	__main_stack_base__
 273 00cc 00000000 		.word	__main_stack_end__
 274 00d0 00000000 		.word	__process_stack_base__
 275 00d4 03000000 		.word	__process_stack_end__+3
 276 00d8 00000000 		.word	_data
ARM GAS  /tmp/ccJPLg4A.s 			page 6


 277 00dc 00000000 		.word	_edata
 278 00e0 00000000 		.word	_textdata
 279 00e4 00000000 		.word	_bss_start
 280 00e8 00000000 		.word	_bss_end
 281 00ec 00000000 		.word	__init_array_end
 282 00f0 00000000 		.word	__init_array_start
 283 00f4 00000000 		.word	__fini_array_end
 284 00f8 00000000 		.word	__fini_array_start
 285              		.cfi_endproc
 286              	.LFE11:
 287              		.size	ResetHandler, .-ResetHandler
 288 00fc AFF30080 		.text
 289              	.Letext0:
 290              		.file 2 "/usr/local/gcc-arm-none-eabi-4_8-2014q2/arm-none-eabi/include/machine/_default_types.h"
 291              		.file 3 "/usr/local/gcc-arm-none-eabi-4_8-2014q2/arm-none-eabi/include/stdint.h"