ARM GAS  /tmp/ccJthlUe.s 			page 1


   1              		.syntax unified
   2              		.cpu cortex-m3
   3              		.fpu softvfp
   4              		.eabi_attribute 20, 1
   5              		.eabi_attribute 21, 1
   6              		.eabi_attribute 23, 3
   7              		.eabi_attribute 24, 1
   8              		.eabi_attribute 25, 1
   9              		.eabi_attribute 26, 1
  10              		.eabi_attribute 30, 2
  11              		.eabi_attribute 34, 1
  12              		.eabi_attribute 18, 4
  13              		.thumb
  14              		.file	"evtimer.c"
  15              		.text
  16              	.Ltext0:
  17              		.cfi_sections	.debug_frame
  18              		.section	.text.tmrcb,"ax",%progbits
  19              		.align	2
  20              		.p2align 4,,15
  21              		.thumb
  22              		.thumb_func
  23              		.type	tmrcb, %function
  24              	tmrcb:
  25              	.LFB7:
  26              		.file 1 "../../os/various/evtimer.c"
  27              		.loc 1 39 0
  28              		.cfi_startproc
  29              		@ args = 0, pretend = 0, frame = 0
  30              		@ frame_needed = 0, uses_anonymous_args = 0
  31              	.LVL0:
  32 0000 10B5     		push	{r4, lr}
  33              		.cfi_def_cfa_offset 8
  34              		.cfi_offset 4, -8
  35              		.cfi_offset 14, -4
  36              		.loc 1 42 0
  37 0002 0021     		movs	r1, #0
  38              		.loc 1 39 0
  39 0004 0446     		mov	r4, r0
  40              	.LVL1:
  41              		.loc 1 42 0
  42 0006 1430     		adds	r0, r0, #20
  43              	.LVL2:
  44 0008 FFF7FEFF 		bl	chEvtBroadcastFlagsI
  45              	.LVL3:
  46              		.loc 1 43 0
  47 000c 2046     		mov	r0, r4
  48 000e A169     		ldr	r1, [r4, #24]
  49 0010 2346     		mov	r3, r4
  50 0012 024A     		ldr	r2, .L2
  51              		.loc 1 44 0
  52 0014 BDE81040 		pop	{r4, lr}
  53              	.LVL4:
  54              		.loc 1 43 0
  55 0018 FFF7FEBF 		b	chVTSetI
  56              	.LVL5:
  57              	.L3:
ARM GAS  /tmp/ccJthlUe.s 			page 2


  58              		.align	2
  59              	.L2:
  60 001c 00000000 		.word	tmrcb
  61              		.cfi_endproc
  62              	.LFE7:
  63              		.size	tmrcb, .-tmrcb
  64              		.section	.text.evtStart,"ax",%progbits
  65              		.align	2
  66              		.p2align 4,,15
  67              		.global	evtStart
  68              		.thumb
  69              		.thumb_func
  70              		.type	evtStart, %function
  71              	evtStart:
  72              	.LFB8:
  73              		.loc 1 52 0
  74              		.cfi_startproc
  75              		@ args = 0, pretend = 0, frame = 0
  76              		@ frame_needed = 0, uses_anonymous_args = 0
  77              	.LVL6:
  78 0000 08B5     		push	{r3, lr}
  79              		.cfi_def_cfa_offset 8
  80              		.cfi_offset 3, -8
  81              		.cfi_offset 14, -4
  82              	.LBB2:
  83              		.loc 1 54 0
  84 0002 2023     		movs	r3, #32
  85              	@ 54 "../../os/various/evtimer.c" 1
  86 0004 83F31188 		msr     BASEPRI, r3
  87              	@ 0 "" 2
  88              		.thumb
  89              	.LBE2:
  90              		.loc 1 56 0
  91 0008 C368     		ldr	r3, [r0, #12]
  92 000a 1BB1     		cbz	r3, .L7
  93              	.LBB3:
  94              		.loc 1 59 0
  95 000c 0023     		movs	r3, #0
  96              	@ 59 "../../os/various/evtimer.c" 1
  97 000e 83F31188 		msr     BASEPRI, r3
  98              	@ 0 "" 2
  99              		.thumb
 100 0012 08BD     		pop	{r3, pc}
 101              	.L7:
 102              	.LBE3:
 103              		.loc 1 57 0
 104 0014 0346     		mov	r3, r0
 105 0016 8169     		ldr	r1, [r0, #24]
 106 0018 034A     		ldr	r2, .L8
 107 001a FFF7FEFF 		bl	chVTSetI
 108              	.LVL7:
 109              	.LBB4:
 110              		.loc 1 59 0
 111 001e 0023     		movs	r3, #0
 112              	@ 59 "../../os/various/evtimer.c" 1
 113 0020 83F31188 		msr     BASEPRI, r3
 114              	@ 0 "" 2
ARM GAS  /tmp/ccJthlUe.s 			page 3


 115              		.thumb
 116 0024 08BD     		pop	{r3, pc}
 117              	.L9:
 118 0026 00BF     		.align	2
 119              	.L8:
 120 0028 00000000 		.word	tmrcb
 121              	.LBE4:
 122              		.cfi_endproc
 123              	.LFE8:
 124              		.size	evtStart, .-evtStart
 125 002c AFF30080 		.section	.text.evtStop,"ax",%progbits
 126              		.align	2
 127              		.p2align 4,,15
 128              		.global	evtStop
 129              		.thumb
 130              		.thumb_func
 131              		.type	evtStop, %function
 132              	evtStop:
 133              	.LFB9:
 134              		.loc 1 68 0
 135              		.cfi_startproc
 136              		@ args = 0, pretend = 0, frame = 0
 137              		@ frame_needed = 0, uses_anonymous_args = 0
 138              	.LVL8:
 139 0000 08B5     		push	{r3, lr}
 140              		.cfi_def_cfa_offset 8
 141              		.cfi_offset 3, -8
 142              		.cfi_offset 14, -4
 143              	.LBB5:
 144              		.loc 1 70 0
 145 0002 2023     		movs	r3, #32
 146              	@ 70 "../../os/various/evtimer.c" 1
 147 0004 83F31188 		msr     BASEPRI, r3
 148              	@ 0 "" 2
 149              		.thumb
 150              	.LBE5:
 151              		.loc 1 72 0
 152 0008 C368     		ldr	r3, [r0, #12]
 153 000a 0BB1     		cbz	r3, .L11
 154              		.loc 1 73 0
 155 000c FFF7FEFF 		bl	chVTResetI
 156              	.LVL9:
 157              	.L11:
 158              	.LBB6:
 159              		.loc 1 75 0
 160 0010 0023     		movs	r3, #0
 161              	@ 75 "../../os/various/evtimer.c" 1
 162 0012 83F31188 		msr     BASEPRI, r3
 163              	@ 0 "" 2
 164              		.thumb
 165 0016 08BD     		pop	{r3, pc}
 166              	.LBE6:
 167              		.cfi_endproc
 168              	.LFE9:
 169              		.size	evtStop, .-evtStop
 170 0018 AFF30080 		.text
 170      AFF30080 
ARM GAS  /tmp/ccJthlUe.s 			page 4


 171              	.Letext0:
 172              		.file 2 "/usr/local/gcc-arm-none-eabi-4_8-2014q2/arm-none-eabi/include/machine/_default_types.h"
 173              		.file 3 "/usr/local/gcc-arm-none-eabi-4_8-2014q2/arm-none-eabi/include/stdint.h"
 174              		.file 4 "../../os/ports/GCC/ARMCMx/chtypes.h"
 175              		.file 5 "../../os/kernel/include/chlists.h"
 176              		.file 6 "../../os/kernel/include/chthreads.h"
 177              		.file 7 "../../os/ports/GCC/ARMCMx/chcore_v7m.h"
 178              		.file 8 "../../os/kernel/include/chvt.h"
 179              		.file 9 "../../os/kernel/include/chmtx.h"
 180              		.file 10 "../../os/kernel/include/chevents.h"
 181              		.file 11 "../../os/various/evtimer.h"