ARM GAS  /tmp/ccmlEGvc.s 			page 1


   1              		.syntax unified
   2              		.cpu cortex-m3
   3              		.fpu softvfp
   4              		.eabi_attribute 20, 1
   5              		.eabi_attribute 21, 1
   6              		.eabi_attribute 23, 3
   7              		.eabi_attribute 24, 1
   8              		.eabi_attribute 25, 1
   9              		.eabi_attribute 26, 1
  10              		.eabi_attribute 30, 2
  11              		.eabi_attribute 34, 1
  12              		.eabi_attribute 18, 4
  13              		.thumb
  14              		.file	"hal.c"
  15              		.text
  16              	.Ltext0:
  17              		.cfi_sections	.debug_frame
  18              		.section	.text.halInit,"ax",%progbits
  19              		.align	2
  20              		.p2align 4,,15
  21              		.global	halInit
  22              		.thumb
  23              		.thumb_func
  24              		.type	halInit, %function
  25              	halInit:
  26              	.LFB36:
  27              		.file 1 "ChibiOS//os/hal/src/hal.c"
  28              		.loc 1 68 0
  29              		.cfi_startproc
  30              		@ args = 0, pretend = 0, frame = 0
  31              		@ frame_needed = 0, uses_anonymous_args = 0
  32 0000 08B5     		push	{r3, lr}
  33              		.cfi_def_cfa_offset 8
  34              		.cfi_offset 3, -8
  35              		.cfi_offset 14, -4
  36              		.loc 1 70 0
  37 0002 FFF7FEFF 		bl	hal_lld_init
  38              	.LVL0:
  39              		.loc 1 76 0
  40 0006 0448     		ldr	r0, .L3
  41 0008 FFF7FEFF 		bl	_pal_lld_init
  42              	.LVL1:
  43              		.loc 1 103 0
  44 000c FFF7FEFF 		bl	sdInit
  45              	.LVL2:
  46              		.loc 1 128 0
  47 0010 BDE80840 		pop	{r3, lr}
  48              		.cfi_restore 14
  49              		.cfi_restore 3
  50              		.cfi_def_cfa_offset 0
  51              		.loc 1 127 0
  52 0014 FFF7FEBF 		b	boardInit
  53              	.LVL3:
  54              	.L4:
  55              		.align	2
  56              	.L3:
  57 0018 00000000 		.word	pal_default_config
ARM GAS  /tmp/ccmlEGvc.s 			page 2


  58              		.cfi_endproc
  59              	.LFE36:
  60              		.size	halInit, .-halInit
  61              		.text
  62              	.Letext0:
  63              		.file 2 "/usr/include/newlib/machine/_default_types.h"
  64              		.file 3 "/usr/include/newlib/sys/_stdint.h"
  65              		.file 4 "ChibiOS//os/hal/platforms/AT91SAM3S/pal_lld.h"
  66              		.file 5 "ChibiOS//os/hal/platforms/AT91SAM3S/core_cm3.h"
  67              		.file 6 "ChibiOS//os/hal/platforms/AT91SAM3S/hal_lld.h"
  68              		.file 7 "ChibiOS//os/hal/include/serial.h"
  69              		.file 8 "ChibiOS//boards/ATMEL_SAM3S_EK/board.h"