ARM GAS  /tmp/cci3W4zj.s 			page 1


   1              		.syntax unified
   2              		.cpu cortex-m3
   3              		.fpu softvfp
   4              		.eabi_attribute 20, 1
   5              		.eabi_attribute 21, 1
   6              		.eabi_attribute 23, 3
   7              		.eabi_attribute 24, 1
   8              		.eabi_attribute 25, 1
   9              		.eabi_attribute 26, 1
  10              		.eabi_attribute 30, 2
  11              		.eabi_attribute 34, 1
  12              		.eabi_attribute 18, 4
  13              		.thumb
  14              		.file	"pal.c"
  15              		.text
  16              	.Ltext0:
  17              		.cfi_sections	.debug_frame
  18              		.section	.text.palReadBus,"ax",%progbits
  19              		.align	2
  20              		.p2align 4,,15
  21              		.global	palReadBus
  22              		.thumb
  23              		.thumb_func
  24              		.type	palReadBus, %function
  25              	palReadBus:
  26              	.LFB36:
  27              		.file 1 "ChibiOS//os/hal/src/pal.c"
  28              		.loc 1 76 0
  29              		.cfi_startproc
  30              		@ args = 0, pretend = 0, frame = 0
  31              		@ frame_needed = 0, uses_anonymous_args = 0
  32              		@ link register save eliminated.
  33              	.LVL0:
  34              		.loc 1 81 0
  35 0000 0368     		ldr	r3, [r0]
  36 0002 8168     		ldr	r1, [r0, #8]
  37 0004 DB6B     		ldr	r3, [r3, #60]
  38 0006 4268     		ldr	r2, [r0, #4]
  39 0008 23FA01F0 		lsr	r0, r3, r1
  40              	.LVL1:
  41              		.loc 1 82 0
  42 000c 1040     		ands	r0, r0, r2
  43 000e 7047     		bx	lr
  44              		.cfi_endproc
  45              	.LFE36:
  46              		.size	palReadBus, .-palReadBus
  47              		.section	.text.palWriteBus,"ax",%progbits
  48              		.align	2
  49              		.p2align 4,,15
  50              		.global	palWriteBus
  51              		.thumb
  52              		.thumb_func
  53              		.type	palWriteBus, %function
  54              	palWriteBus:
  55              	.LFB37:
  56              		.loc 1 101 0
  57              		.cfi_startproc
ARM GAS  /tmp/cci3W4zj.s 			page 2


  58              		@ args = 0, pretend = 0, frame = 0
  59              		@ frame_needed = 0, uses_anonymous_args = 0
  60              		@ link register save eliminated.
  61              	.LVL2:
  62 0000 10B4     		push	{r4}
  63              		.cfi_def_cfa_offset 4
  64              		.cfi_offset 4, -4
  65              		.loc 1 106 0
  66 0002 90E81C00 		ldmia	r0, {r2, r3, r4}
  67 0006 A340     		lsls	r3, r3, r4
  68 0008 A140     		lsls	r1, r1, r4
  69              	.LVL3:
  70 000a C2F8A030 		str	r3, [r2, #160]
  71              		.loc 1 107 0
  72 000e 5DF8044B 		ldr	r4, [sp], #4
  73              		.cfi_restore 4
  74              		.cfi_def_cfa_offset 0
  75              		.loc 1 106 0
  76 0012 9163     		str	r1, [r2, #56]
  77 0014 C2F8A430 		str	r3, [r2, #164]
  78              		.loc 1 107 0
  79 0018 7047     		bx	lr
  80              		.cfi_endproc
  81              	.LFE37:
  82              		.size	palWriteBus, .-palWriteBus
  83 001a 00BF     		.section	.text.palSetBusMode,"ax",%progbits
  84              		.align	2
  85              		.p2align 4,,15
  86              		.global	palSetBusMode
  87              		.thumb
  88              		.thumb_func
  89              		.type	palSetBusMode, %function
  90              	palSetBusMode:
  91              	.LFB38:
  92              		.loc 1 124 0
  93              		.cfi_startproc
  94              		@ args = 0, pretend = 0, frame = 0
  95              		@ frame_needed = 0, uses_anonymous_args = 0
  96              		@ link register save eliminated.
  97              	.LVL4:
  98              		.loc 1 129 0
  99 0000 8368     		ldr	r3, [r0, #8]
 100              		.loc 1 124 0
 101 0002 0A46     		mov	r2, r1
 102              		.loc 1 129 0
 103 0004 4168     		ldr	r1, [r0, #4]
 104              	.LVL5:
 105 0006 0068     		ldr	r0, [r0]
 106              	.LVL6:
 107 0008 9940     		lsls	r1, r1, r3
 108 000a FFF7FEBF 		b	_pal_lld_setgroupmode
 109              	.LVL7:
 110              		.cfi_endproc
 111              	.LFE38:
 112              		.size	palSetBusMode, .-palSetBusMode
 113 000e 00BF     		.text
 114              	.Letext0:
ARM GAS  /tmp/cci3W4zj.s 			page 3


 115              		.file 2 "/usr/include/newlib/machine/_default_types.h"
 116              		.file 3 "/usr/include/newlib/sys/_stdint.h"
 117              		.file 4 "/usr/include/newlib/stdint.h"
 118              		.file 5 "ChibiOS//os/hal/platforms/AT91SAM3S/at91lib/SAM3S.h"
 119              		.file 6 "ChibiOS//os/hal/platforms/AT91SAM3S/pal_lld.h"
 120              		.file 7 "ChibiOS//os/hal/include/pal.h"
 121              		.file 8 "ChibiOS//os/hal/platforms/AT91SAM3S/core_cm3.h"