ARM GAS  /tmp/ccSmTGI4.s 			page 1


   1              		.syntax unified
   2              		.cpu cortex-m3
   3              		.fpu softvfp
   4              		.eabi_attribute 20, 1
   5              		.eabi_attribute 21, 1
   6              		.eabi_attribute 23, 3
   7              		.eabi_attribute 24, 1
   8              		.eabi_attribute 25, 1
   9              		.eabi_attribute 26, 1
  10              		.eabi_attribute 30, 2
  11              		.eabi_attribute 34, 1
  12              		.eabi_attribute 18, 4
  13              		.thumb
  14              		.file	"pmc.c"
  15              		.text
  16              	.Ltext0:
  17              		.cfi_sections	.debug_frame
  18              		.section	.text.PMC_EnablePeripheral,"ax",%progbits
  19              		.align	2
  20              		.p2align 4,,15
  21              		.global	PMC_EnablePeripheral
  22              		.thumb
  23              		.thumb_func
  24              		.type	PMC_EnablePeripheral, %function
  25              	PMC_EnablePeripheral:
  26              	.LFB0:
  27              		.file 1 "../../os/hal/platforms/AT91SAM3S/pmc.c"
  28              		.loc 1 62 0
  29              		.cfi_startproc
  30              		@ args = 0, pretend = 0, frame = 0
  31              		@ frame_needed = 0, uses_anonymous_args = 0
  32              	.LVL0:
  33              		.loc 1 63 0
  34 0000 2228     		cmp	r0, #34
  35              		.loc 1 62 0
  36 0002 08B5     		push	{r3, lr}
  37              		.cfi_def_cfa_offset 8
  38              		.cfi_offset 3, -8
  39              		.cfi_offset 14, -4
  40              		.loc 1 63 0
  41 0004 18D8     		bhi	.L6
  42              		.loc 1 65 0
  43 0006 1F28     		cmp	r0, #31
  44 0008 09D8     		bhi	.L3
  45              		.loc 1 67 0
  46 000a 0123     		movs	r3, #1
  47 000c 03FA00F0 		lsl	r0, r3, r0
  48              	.LVL1:
  49 0010 0C4B     		ldr	r3, .L7
  50 0012 9A69     		ldr	r2, [r3, #24]
  51 0014 0240     		ands	r2, r2, r0
  52 0016 9042     		cmp	r0, r2
  53 0018 0DD0     		beq	.L1
  54              		.loc 1 73 0
  55 001a 1861     		str	r0, [r3, #16]
  56 001c 08BD     		pop	{r3, pc}
  57              	.LVL2:
ARM GAS  /tmp/ccSmTGI4.s 			page 2


  58              	.L3:
  59              		.loc 1 79 0
  60 001e 0123     		movs	r3, #1
  61              		.loc 1 78 0
  62 0020 2038     		subs	r0, r0, #32
  63              	.LVL3:
  64              		.loc 1 79 0
  65 0022 03FA00F0 		lsl	r0, r3, r0
  66              	.LVL4:
  67 0026 074B     		ldr	r3, .L7
  68 0028 D3F80821 		ldr	r2, [r3, #264]
  69 002c 0240     		ands	r2, r2, r0
  70 002e 9042     		cmp	r0, r2
  71              		.loc 1 85 0
  72 0030 18BF     		it	ne
  73 0032 C3F80001 		strne	r0, [r3, #256]
  74              	.LVL5:
  75              	.L1:
  76 0036 08BD     		pop	{r3, pc}
  77              	.LVL6:
  78              	.L6:
  79              		.loc 1 63 0 discriminator 1
  80 0038 0348     		ldr	r0, .L7+4
  81              	.LVL7:
  82 003a 3F21     		movs	r1, #63
  83 003c 034A     		ldr	r2, .L7+8
  84 003e 044B     		ldr	r3, .L7+12
  85 0040 FFF7FEFF 		bl	__assert_func
  86              	.LVL8:
  87              	.L8:
  88              		.align	2
  89              	.L7:
  90 0044 00040E40 		.word	1074660352
  91 0048 00000000 		.word	.LC0
  92 004c 00000000 		.word	.LANCHOR0
  93 0050 28000000 		.word	.LC1
  94              		.cfi_endproc
  95              	.LFE0:
  96              		.size	PMC_EnablePeripheral, .-PMC_EnablePeripheral
  97 0054 AFF30080 		.section	.text.PMC_DisablePeripheral,"ax",%progbits
  97      AFF30080 
  97      AFF30080 
  98              		.align	2
  99              		.p2align 4,,15
 100              		.global	PMC_DisablePeripheral
 101              		.thumb
 102              		.thumb_func
 103              		.type	PMC_DisablePeripheral, %function
 104              	PMC_DisablePeripheral:
 105              	.LFB1:
 106              		.loc 1 99 0
 107              		.cfi_startproc
 108              		@ args = 0, pretend = 0, frame = 0
 109              		@ frame_needed = 0, uses_anonymous_args = 0
 110              	.LVL9:
 111              		.loc 1 100 0
 112 0000 2228     		cmp	r0, #34
ARM GAS  /tmp/ccSmTGI4.s 			page 3


 113              		.loc 1 99 0
 114 0002 08B5     		push	{r3, lr}
 115              		.cfi_def_cfa_offset 8
 116              		.cfi_offset 3, -8
 117              		.cfi_offset 14, -4
 118              		.loc 1 100 0
 119 0004 18D8     		bhi	.L13
 120              		.loc 1 102 0
 121 0006 1F28     		cmp	r0, #31
 122 0008 0CD9     		bls	.L14
 123              	.LVL10:
 124              		.loc 1 116 0
 125 000a 0123     		movs	r3, #1
 126              		.loc 1 115 0
 127 000c 2038     		subs	r0, r0, #32
 128              	.LVL11:
 129              		.loc 1 116 0
 130 000e 03FA00F0 		lsl	r0, r3, r0
 131              	.LVL12:
 132 0012 0C4B     		ldr	r3, .L15
 133 0014 D3F80821 		ldr	r2, [r3, #264]
 134 0018 0240     		ands	r2, r2, r0
 135 001a 9042     		cmp	r0, r2
 136              		.loc 1 122 0
 137 001c 08BF     		it	eq
 138 001e C3F80401 		streq	r0, [r3, #260]
 139              	.LVL13:
 140              	.L9:
 141 0022 08BD     		pop	{r3, pc}
 142              	.LVL14:
 143              	.L14:
 144              		.loc 1 104 0
 145 0024 0123     		movs	r3, #1
 146 0026 03FA00F0 		lsl	r0, r3, r0
 147              	.LVL15:
 148 002a 064B     		ldr	r3, .L15
 149 002c 9A69     		ldr	r2, [r3, #24]
 150 002e 0240     		ands	r2, r2, r0
 151 0030 9042     		cmp	r0, r2
 152 0032 F6D1     		bne	.L9
 153              		.loc 1 110 0
 154 0034 5861     		str	r0, [r3, #20]
 155 0036 08BD     		pop	{r3, pc}
 156              	.LVL16:
 157              	.L13:
 158              		.loc 1 100 0 discriminator 1
 159 0038 0348     		ldr	r0, .L15+4
 160              	.LVL17:
 161 003a 6421     		movs	r1, #100
 162 003c 034A     		ldr	r2, .L15+8
 163 003e 044B     		ldr	r3, .L15+12
 164 0040 FFF7FEFF 		bl	__assert_func
 165              	.LVL18:
 166              	.L16:
 167              		.align	2
 168              	.L15:
 169 0044 00040E40 		.word	1074660352
ARM GAS  /tmp/ccSmTGI4.s 			page 4


 170 0048 00000000 		.word	.LC0
 171 004c 00000000 		.word	.LANCHOR1
 172 0050 28000000 		.word	.LC1
 173              		.cfi_endproc
 174              	.LFE1:
 175              		.size	PMC_DisablePeripheral, .-PMC_DisablePeripheral
 176 0054 AFF30080 		.section	.text.PMC_EnableAllPeripherals,"ax",%progbits
 176      AFF30080 
 176      AFF30080 
 177              		.align	2
 178              		.p2align 4,,15
 179              		.global	PMC_EnableAllPeripherals
 180              		.thumb
 181              		.thumb_func
 182              		.type	PMC_EnableAllPeripherals, %function
 183              	PMC_EnableAllPeripherals:
 184              	.LFB2:
 185              		.loc 1 131 0
 186              		.cfi_startproc
 187              		@ args = 0, pretend = 0, frame = 0
 188              		@ frame_needed = 0, uses_anonymous_args = 0
 189              		@ link register save eliminated.
 190              		.loc 1 132 0
 191 0000 0949     		ldr	r1, .L22
 192 0002 6FF00303 		mvn	r3, #3
 193 0006 0B61     		str	r3, [r1, #16]
 194              	.L19:
 195              		.loc 1 133 0 discriminator 1
 196 0008 8B69     		ldr	r3, [r1, #24]
 197 000a 074A     		ldr	r2, .L22
 198 000c 23F00303 		bic	r3, r3, #3
 199 0010 0433     		adds	r3, r3, #4
 200 0012 F9D1     		bne	.L19
 201              		.loc 1 135 0
 202 0014 4FF0FF33 		mov	r3, #-1
 203 0018 C2F80031 		str	r3, [r2, #256]
 204              	.L21:
 205              		.loc 1 136 0 discriminator 1
 206 001c D2F80831 		ldr	r3, [r2, #264]
 207 0020 0133     		adds	r3, r3, #1
 208 0022 FBD1     		bne	.L21
 209              		.loc 1 139 0
 210 0024 7047     		bx	lr
 211              	.L23:
 212 0026 00BF     		.align	2
 213              	.L22:
 214 0028 00040E40 		.word	1074660352
 215              		.cfi_endproc
 216              	.LFE2:
 217              		.size	PMC_EnableAllPeripherals, .-PMC_EnableAllPeripherals
 218 002c AFF30080 		.section	.text.PMC_DisableAllPeripherals,"ax",%progbits
 219              		.align	2
 220              		.p2align 4,,15
 221              		.global	PMC_DisableAllPeripherals
 222              		.thumb
 223              		.thumb_func
 224              		.type	PMC_DisableAllPeripherals, %function
ARM GAS  /tmp/ccSmTGI4.s 			page 5


 225              	PMC_DisableAllPeripherals:
 226              	.LFB3:
 227              		.loc 1 145 0
 228              		.cfi_startproc
 229              		@ args = 0, pretend = 0, frame = 0
 230              		@ frame_needed = 0, uses_anonymous_args = 0
 231              		@ link register save eliminated.
 232              		.loc 1 146 0
 233 0000 0849     		ldr	r1, .L29
 234 0002 6FF00303 		mvn	r3, #3
 235 0006 4B61     		str	r3, [r1, #20]
 236              	.L26:
 237              		.loc 1 147 0 discriminator 1
 238 0008 8B69     		ldr	r3, [r1, #24]
 239 000a 064A     		ldr	r2, .L29
 240 000c 33F00300 		bics	r0, r3, #3
 241 0010 FAD1     		bne	.L26
 242              		.loc 1 149 0
 243 0012 4FF0FF33 		mov	r3, #-1
 244 0016 C2F80431 		str	r3, [r2, #260]
 245              	.L28:
 246              		.loc 1 150 0 discriminator 1
 247 001a D2F80831 		ldr	r3, [r2, #264]
 248 001e 002B     		cmp	r3, #0
 249 0020 FBD1     		bne	.L28
 250              		.loc 1 153 0
 251 0022 7047     		bx	lr
 252              	.L30:
 253              		.align	2
 254              	.L29:
 255 0024 00040E40 		.word	1074660352
 256              		.cfi_endproc
 257              	.LFE3:
 258              		.size	PMC_DisableAllPeripherals, .-PMC_DisableAllPeripherals
 259 0028 AFF30080 		.section	.text.PMC_IsPeriphEnabled,"ax",%progbits
 259      AFF30080 
 260              		.align	2
 261              		.p2align 4,,15
 262              		.global	PMC_IsPeriphEnabled
 263              		.thumb
 264              		.thumb_func
 265              		.type	PMC_IsPeriphEnabled, %function
 266              	PMC_IsPeriphEnabled:
 267              	.LFB4:
 268              		.loc 1 161 0
 269              		.cfi_startproc
 270              		@ args = 0, pretend = 0, frame = 0
 271              		@ frame_needed = 0, uses_anonymous_args = 0
 272              	.LVL19:
 273              		.loc 1 162 0
 274 0000 2228     		cmp	r0, #34
 275              		.loc 1 161 0
 276 0002 08B5     		push	{r3, lr}
 277              		.cfi_def_cfa_offset 8
 278              		.cfi_offset 3, -8
 279              		.cfi_offset 14, -4
 280              		.loc 1 162 0
ARM GAS  /tmp/ccSmTGI4.s 			page 6


 281 0004 11D8     		bhi	.L35
 282              		.loc 1 164 0
 283 0006 1F28     		cmp	r0, #31
 284 0008 08D9     		bls	.L36
 285              		.loc 1 169 0
 286 000a 0123     		movs	r3, #1
 287 000c 2038     		subs	r0, r0, #32
 288              	.LVL20:
 289 000e 03FA00F0 		lsl	r0, r3, r0
 290              	.LVL21:
 291 0012 094B     		ldr	r3, .L37
 292 0014 D3F80831 		ldr	r3, [r3, #264]
 293 0018 1840     		ands	r0, r0, r3
 294              		.loc 1 171 0
 295 001a 08BD     		pop	{r3, pc}
 296              	.LVL22:
 297              	.L36:
 298              		.loc 1 166 0
 299 001c 0123     		movs	r3, #1
 300 001e 03FA00F0 		lsl	r0, r3, r0
 301              	.LVL23:
 302 0022 054B     		ldr	r3, .L37
 303 0024 9B69     		ldr	r3, [r3, #24]
 304 0026 1840     		ands	r0, r0, r3
 305 0028 08BD     		pop	{r3, pc}
 306              	.LVL24:
 307              	.L35:
 308              		.loc 1 162 0 discriminator 1
 309 002a 0448     		ldr	r0, .L37+4
 310              	.LVL25:
 311 002c A221     		movs	r1, #162
 312 002e 044A     		ldr	r2, .L37+8
 313 0030 044B     		ldr	r3, .L37+12
 314 0032 FFF7FEFF 		bl	__assert_func
 315              	.LVL26:
 316              	.L38:
 317 0036 00BF     		.align	2
 318              	.L37:
 319 0038 00040E40 		.word	1074660352
 320 003c 00000000 		.word	.LC0
 321 0040 00000000 		.word	.LANCHOR2
 322 0044 28000000 		.word	.LC1
 323              		.cfi_endproc
 324              	.LFE4:
 325              		.size	PMC_IsPeriphEnabled, .-PMC_IsPeriphEnabled
 326 0048 AFF30080 		.section	.text.PmcMasterClockSelection,"ax",%progbits
 326      AFF30080 
 327              		.align	2
 328              		.p2align 4,,15
 329              		.global	PmcMasterClockSelection
 330              		.thumb
 331              		.thumb_func
 332              		.type	PmcMasterClockSelection, %function
 333              	PmcMasterClockSelection:
 334              	.LFB5:
 335              		.loc 1 175 0
 336              		.cfi_startproc
ARM GAS  /tmp/ccSmTGI4.s 			page 7


 337              		@ args = 0, pretend = 0, frame = 0
 338              		@ frame_needed = 0, uses_anonymous_args = 0
 339              		@ link register save eliminated.
 340              	.LVL27:
 341 0000 30B4     		push	{r4, r5}
 342              		.cfi_def_cfa_offset 8
 343              		.cfi_offset 4, -8
 344              		.cfi_offset 5, -4
 345              		.loc 1 178 0
 346 0002 0328     		cmp	r0, #3
 347 0004 20D8     		bhi	.L39
 348 0006 DFE800F0 		tbb	[pc, r0]
 349              	.L42:
 350 000a 02       		.byte	(.L41-.L42)/2
 351 000b 02       		.byte	(.L41-.L42)/2
 352 000c 21       		.byte	(.L43-.L42)/2
 353 000d 21       		.byte	(.L43-.L42)/2
 354              		.p2align 1
 355              	.L41:
 356              		.loc 1 183 0
 357 000e 1F4A     		ldr	r2, .L73
 358              		.loc 1 176 0
 359 0010 0023     		movs	r3, #0
 360              		.loc 1 183 0
 361 0012 156B     		ldr	r5, [r2, #48]
 362              		.loc 1 186 0
 363 0014 1446     		mov	r4, r2
 364              		.loc 1 183 0
 365 0016 25F00305 		bic	r5, r5, #3
 366 001a 2843     		orrs	r0, r0, r5
 367              	.LVL28:
 368 001c 1063     		str	r0, [r2, #48]
 369              		.loc 1 186 0
 370 001e 01E0     		b	.L45
 371              	.LVL29:
 372              	.L69:
 373              		.loc 1 186 0 is_stmt 0 discriminator 2
 374 0020 0133     		adds	r3, r3, #1
 375              	.LVL30:
 376 0022 02D0     		beq	.L44
 377              	.LVL31:
 378              	.L45:
 379              		.loc 1 186 0 discriminator 1
 380 0024 A26E     		ldr	r2, [r4, #104]
 381 0026 1507     		lsls	r5, r2, #28
 382 0028 FAD5     		bpl	.L69
 383              	.LVL32:
 384              	.L44:
 385              		.loc 1 189 0 is_stmt 1
 386 002a 184A     		ldr	r2, .L73
 387 002c 146B     		ldr	r4, [r2, #48]
 388              		.loc 1 192 0
 389 002e 1046     		mov	r0, r2
 390              		.loc 1 189 0
 391 0030 24F07004 		bic	r4, r4, #112
 392 0034 2143     		orrs	r1, r1, r4
 393              	.LVL33:
ARM GAS  /tmp/ccSmTGI4.s 			page 8


 394 0036 1163     		str	r1, [r2, #48]
 395              		.loc 1 192 0
 396 0038 02E0     		b	.L48
 397              	.LVL34:
 398              	.L70:
 399              		.loc 1 192 0 is_stmt 0 discriminator 2
 400 003a 0133     		adds	r3, r3, #1
 401 003c 04D0     		beq	.L39
 402              		.loc 1 192 0
 403 003e 0B46     		mov	r3, r1
 404              	.LVL35:
 405              	.L48:
 406              		.loc 1 192 0 discriminator 1
 407 0040 826E     		ldr	r2, [r0, #104]
 408 0042 591C     		adds	r1, r3, #1
 409              	.LVL36:
 410 0044 1407     		lsls	r4, r2, #28
 411 0046 F8D5     		bpl	.L70
 412              	.LVL37:
 413              	.L39:
 414              		.loc 1 210 0 is_stmt 1
 415 0048 30BC     		pop	{r4, r5}
 416 004a 7047     		bx	lr
 417              	.LVL38:
 418              	.L43:
 419              		.loc 1 198 0
 420 004c 0F4A     		ldr	r2, .L73
 421              		.loc 1 176 0
 422 004e 0023     		movs	r3, #0
 423              		.loc 1 198 0
 424 0050 156B     		ldr	r5, [r2, #48]
 425              		.loc 1 201 0
 426 0052 1446     		mov	r4, r2
 427              		.loc 1 198 0
 428 0054 25F07005 		bic	r5, r5, #112
 429 0058 2943     		orrs	r1, r1, r5
 430              	.LVL39:
 431 005a 1163     		str	r1, [r2, #48]
 432              		.loc 1 201 0
 433 005c 01E0     		b	.L50
 434              	.LVL40:
 435              	.L71:
 436              		.loc 1 201 0 is_stmt 0 discriminator 2
 437 005e 0133     		adds	r3, r3, #1
 438              	.LVL41:
 439 0060 02D0     		beq	.L49
 440              	.LVL42:
 441              	.L50:
 442              		.loc 1 201 0 discriminator 1
 443 0062 A26E     		ldr	r2, [r4, #104]
 444 0064 1107     		lsls	r1, r2, #28
 445 0066 FAD5     		bpl	.L71
 446              	.LVL43:
 447              	.L49:
 448              		.loc 1 204 0 is_stmt 1
 449 0068 084A     		ldr	r2, .L73
 450 006a 116B     		ldr	r1, [r2, #48]
ARM GAS  /tmp/ccSmTGI4.s 			page 9


 451              		.loc 1 207 0
 452 006c 1446     		mov	r4, r2
 453              		.loc 1 204 0
 454 006e 21F00301 		bic	r1, r1, #3
 455 0072 0843     		orrs	r0, r0, r1
 456              	.LVL44:
 457 0074 1063     		str	r0, [r2, #48]
 458              		.loc 1 207 0
 459 0076 02E0     		b	.L51
 460              	.LVL45:
 461              	.L72:
 462              		.loc 1 207 0 is_stmt 0 discriminator 2
 463 0078 0133     		adds	r3, r3, #1
 464 007a E5D0     		beq	.L39
 465              		.loc 1 207 0
 466 007c 0B46     		mov	r3, r1
 467              	.LVL46:
 468              	.L51:
 469              		.loc 1 207 0 discriminator 1
 470 007e A26E     		ldr	r2, [r4, #104]
 471 0080 591C     		adds	r1, r3, #1
 472              	.LVL47:
 473 0082 1207     		lsls	r2, r2, #28
 474 0084 F8D5     		bpl	.L72
 475              		.loc 1 210 0 is_stmt 1
 476 0086 30BC     		pop	{r4, r5}
 477 0088 7047     		bx	lr
 478              	.L74:
 479 008a 00BF     		.align	2
 480              	.L73:
 481 008c 00040E40 		.word	1074660352
 482              		.cfi_endproc
 483              	.LFE5:
 484              		.size	PmcMasterClockSelection, .-PmcMasterClockSelection
 485              		.section	.text.ConfigurePck,"ax",%progbits
 486              		.align	2
 487              		.p2align 4,,15
 488              		.global	ConfigurePck
 489              		.thumb
 490              		.thumb_func
 491              		.type	ConfigurePck, %function
 492              	ConfigurePck:
 493              	.LFB6:
 494              		.loc 1 213 0
 495              		.cfi_startproc
 496              		@ args = 0, pretend = 0, frame = 0
 497              		@ frame_needed = 0, uses_anonymous_args = 0
 498              		@ link register save eliminated.
 499              	.LVL48:
 500              		.loc 1 215 0
 501 0000 084B     		ldr	r3, .L78
 502 0002 094A     		ldr	r2, .L78+4
 503              		.loc 1 213 0
 504 0004 10B4     		push	{r4}
 505              		.cfi_def_cfa_offset 4
 506              		.cfi_offset 4, -4
 507              		.loc 1 219 0
ARM GAS  /tmp/ccSmTGI4.s 			page 10


 508 0006 0143     		orrs	r1, r1, r0
 509              	.LVL49:
 510              		.loc 1 217 0
 511 0008 4FF48064 		mov	r4, #1024
 512              		.loc 1 215 0
 513 000c C3F8E420 		str	r2, [r3, #228]
 514              		.loc 1 217 0
 515 0010 5C60     		str	r4, [r3, #4]
 516              		.loc 1 223 0
 517 0012 1A46     		mov	r2, r3
 518              		.loc 1 219 0
 519 0014 9964     		str	r1, [r3, #72]
 520              		.loc 1 221 0
 521 0016 1C60     		str	r4, [r3]
 522              	.L77:
 523              		.loc 1 223 0 discriminator 1
 524 0018 936E     		ldr	r3, [r2, #104]
 525 001a 5B05     		lsls	r3, r3, #21
 526 001c FCD5     		bpl	.L77
 527              		.loc 1 224 0
 528 001e 5DF8044B 		ldr	r4, [sp], #4
 529 0022 7047     		bx	lr
 530              	.L79:
 531              		.align	2
 532              	.L78:
 533 0024 00040E40 		.word	1074660352
 534 0028 00434D50 		.word	1347240704
 535              		.cfi_endproc
 536              	.LFE6:
 537              		.size	ConfigurePck, .-ConfigurePck
 538 002c AFF30080 		.section	.text.PmcMainClockSwitchMainOsc,"ax",%progbits
 539              		.align	2
 540              		.p2align 4,,15
 541              		.global	PmcMainClockSwitchMainOsc
 542              		.thumb
 543              		.thumb_func
 544              		.type	PmcMainClockSwitchMainOsc, %function
 545              	PmcMainClockSwitchMainOsc:
 546              	.LFB7:
 547              		.loc 1 228 0
 548              		.cfi_startproc
 549              		@ args = 0, pretend = 0, frame = 0
 550              		@ frame_needed = 0, uses_anonymous_args = 0
 551              		@ link register save eliminated.
 552              		.loc 1 232 0
 553 0000 054B     		ldr	r3, .L88
 554 0002 064A     		ldr	r2, .L88+4
 555              		.loc 1 235 0
 556 0004 1946     		mov	r1, r3
 557              		.loc 1 232 0
 558 0006 1A62     		str	r2, [r3, #32]
 559              	.LVL50:
 560              		.loc 1 235 0
 561 0008 0023     		movs	r3, #0
 562 000a 01E0     		b	.L82
 563              	.LVL51:
 564              	.L87:
ARM GAS  /tmp/ccSmTGI4.s 			page 11


 565              		.loc 1 235 0 is_stmt 0 discriminator 2
 566 000c 013B     		subs	r3, r3, #1
 567              	.LVL52:
 568 000e 02D0     		beq	.L80
 569              	.LVL53:
 570              	.L82:
 571              		.loc 1 235 0 discriminator 1
 572 0010 8A6E     		ldr	r2, [r1, #104]
 573 0012 D203     		lsls	r2, r2, #15
 574 0014 FAD5     		bpl	.L87
 575              	.LVL54:
 576              	.L80:
 577 0016 7047     		bx	lr
 578              	.L89:
 579              		.align	2
 580              	.L88:
 581 0018 00040E40 		.word	1074660352
 582 001c 09083701 		.word	20383753
 583              		.cfi_endproc
 584              	.LFE7:
 585              		.size	PmcMainClockSwitchMainOsc, .-PmcMainClockSwitchMainOsc
 586              		.section	.text.PmcConfigurePllClock,"ax",%progbits
 587              		.align	2
 588              		.p2align 4,,15
 589              		.global	PmcConfigurePllClock
 590              		.thumb
 591              		.thumb_func
 592              		.type	PmcConfigurePllClock, %function
 593              	PmcConfigurePllClock:
 594              	.LFB8:
 595              		.loc 1 240 0 is_stmt 1
 596              		.cfi_startproc
 597              		@ args = 0, pretend = 0, frame = 0
 598              		@ frame_needed = 0, uses_anonymous_args = 0
 599              		@ link register save eliminated.
 600              	.LVL55:
 601 0000 10B4     		push	{r4}
 602              		.cfi_def_cfa_offset 4
 603              		.cfi_offset 4, -4
 604              		.loc 1 243 0
 605 0002 A8B9     		cbnz	r0, .L91
 606              		.loc 1 246 0
 607 0004 174B     		ldr	r3, .L111
 608 0006 42F00054 		orr	r4, r2, #536870912
 609 000a 0A04     		lsls	r2, r1, #16
 610              	.LVL56:
 611 000c 1340     		ands	r3, r3, r2
 612 000e 44F4F854 		orr	r4, r4, #7936
 613 0012 154A     		ldr	r2, .L111+4
 614 0014 2343     		orrs	r3, r3, r4
 615 0016 9362     		str	r3, [r2, #40]
 616              		.loc 1 249 0
 617 0018 21B9     		cbnz	r1, .L94
 618              	.LVL57:
 619              	.L90:
 620              		.loc 1 268 0
 621 001a 5DF8044B 		ldr	r4, [sp], #4
ARM GAS  /tmp/ccSmTGI4.s 			page 12


 622 001e 7047     		bx	lr
 623              	.LVL58:
 624              	.L109:
 625              		.loc 1 252 0 discriminator 2
 626 0020 0138     		subs	r0, r0, #1
 627              	.LVL59:
 628 0022 FAD0     		beq	.L90
 629              	.LVL60:
 630              	.L94:
 631              		.loc 1 252 0 is_stmt 0 discriminator 1
 632 0024 936E     		ldr	r3, [r2, #104]
 633 0026 9907     		lsls	r1, r3, #30
 634 0028 FAD5     		bpl	.L109
 635              		.loc 1 268 0 is_stmt 1
 636 002a 5DF8044B 		ldr	r4, [sp], #4
 637 002e 7047     		bx	lr
 638              	.LVL61:
 639              	.L91:
 640              		.loc 1 256 0
 641 0030 0128     		cmp	r0, #1
 642 0032 F2D1     		bne	.L90
 643              		.loc 1 259 0
 644 0034 0B4B     		ldr	r3, .L111
 645 0036 0804     		lsls	r0, r1, #16
 646              	.LVL62:
 647 0038 42F00052 		orr	r2, r2, #536870912
 648              	.LVL63:
 649 003c 0340     		ands	r3, r3, r0
 650 003e 42F4F852 		orr	r2, r2, #7936
 651 0042 0948     		ldr	r0, .L111+4
 652 0044 1A43     		orrs	r2, r2, r3
 653 0046 C262     		str	r2, [r0, #44]
 654              		.loc 1 262 0
 655 0048 0029     		cmp	r1, #0
 656 004a E6D0     		beq	.L90
 657              		.loc 1 265 0
 658 004c 0146     		mov	r1, r0
 659              	.LVL64:
 660              		.loc 1 262 0
 661 004e 0023     		movs	r3, #0
 662 0050 01E0     		b	.L95
 663              	.LVL65:
 664              	.L110:
 665              		.loc 1 265 0 discriminator 2
 666 0052 013B     		subs	r3, r3, #1
 667              	.LVL66:
 668 0054 E1D0     		beq	.L90
 669              	.LVL67:
 670              	.L95:
 671              		.loc 1 265 0 is_stmt 0 discriminator 1
 672 0056 8A6E     		ldr	r2, [r1, #104]
 673 0058 5207     		lsls	r2, r2, #29
 674 005a FAD5     		bpl	.L110
 675              		.loc 1 268 0 is_stmt 1
 676 005c 5DF8044B 		ldr	r4, [sp], #4
 677 0060 7047     		bx	lr
 678              	.L112:
ARM GAS  /tmp/ccSmTGI4.s 			page 13


 679 0062 00BF     		.align	2
 680              	.L111:
 681 0064 0000FF07 		.word	134152192
 682 0068 00040E40 		.word	1074660352
 683              		.cfi_endproc
 684              	.LFE8:
 685              		.size	PmcConfigurePllClock, .-PmcConfigurePllClock
 686 006c AFF30080 		.section	.rodata.__func__.4781,"a",%progbits
 687              		.align	2
 688              		.set	.LANCHOR1,. + 0
 689              		.type	__func__.4781, %object
 690              		.size	__func__.4781, 22
 691              	__func__.4781:
 692 0000 504D435F 		.ascii	"PMC_DisablePeripheral\000"
 692      44697361 
 692      626C6550 
 692      65726970 
 692      68657261 
 693 0016 0000     		.section	.rodata.__func__.4777,"a",%progbits
 694              		.align	2
 695              		.set	.LANCHOR0,. + 0
 696              		.type	__func__.4777, %object
 697              		.size	__func__.4777, 21
 698              	__func__.4777:
 699 0000 504D435F 		.ascii	"PMC_EnablePeripheral\000"
 699      456E6162 
 699      6C655065 
 699      72697068 
 699      6572616C 
 700 0015 000000   		.section	.rodata.str1.4,"aMS",%progbits,1
 701              		.align	2
 702              	.LC0:
 703 0000 2E2E2F2E 		.ascii	"../../os/hal/platforms/AT91SAM3S/pmc.c\000"
 703      2E2F6F73 
 703      2F68616C 
 703      2F706C61 
 703      74666F72 
 704 0027 00       		.space	1
 705              	.LC1:
 706 0028 64774964 		.ascii	"dwId < 35\000"
 706      203C2033 
 706      3500
 707 0032 0000     		.section	.rodata.__func__.4803,"a",%progbits
 708              		.align	2
 709              		.set	.LANCHOR2,. + 0
 710              		.type	__func__.4803, %object
 711              		.size	__func__.4803, 20
 712              	__func__.4803:
 713 0000 504D435F 		.ascii	"PMC_IsPeriphEnabled\000"
 713      49735065 
 713      72697068 
 713      456E6162 
 713      6C656400 
 714              		.text
 715              	.Letext0:
 716              		.file 2 "/usr/local/gcc-arm-none-eabi-4_8-2014q2/arm-none-eabi/include/machine/_default_types.h"
 717              		.file 3 "/usr/local/gcc-arm-none-eabi-4_8-2014q2/arm-none-eabi/include/stdint.h"
ARM GAS  /tmp/ccSmTGI4.s 			page 14


 718              		.file 4 "../../os/hal/platforms/AT91SAM3S/at91lib/SAM3S.h"
 719              		.file 5 "/usr/local/gcc-arm-none-eabi-4_8-2014q2/arm-none-eabi/include/assert.h"
 720              		.section	.debug_info,"",%progbits
 721              	.Ldebug_info0:
 722 0000 AE050000 		.4byte	0x5ae
 723 0004 0400     		.2byte	0x4
 724 0006 00000000 		.4byte	.Ldebug_abbrev0
 725 000a 04       		.byte	0x4
 726 000b 01       		.uleb128 0x1
 727 000c 9D020000 		.4byte	.LASF68
 728 0010 01       		.byte	0x1
 729 0011 DB000000 		.4byte	.LASF69
 730 0015 63020000 		.4byte	.LASF70
 731 0019 00000000 		.4byte	.Ldebug_ranges0+0
 732 001d 00000000 		.4byte	0
 733 0021 00000000 		.4byte	.Ldebug_line0
 734 0025 02       		.uleb128 0x2
 735 0026 01       		.byte	0x1
 736 0027 06       		.byte	0x6
 737 0028 D7010000 		.4byte	.LASF0
 738 002c 03       		.uleb128 0x3
 739 002d 75010000 		.4byte	.LASF5
 740 0031 02       		.byte	0x2
 741 0032 1C       		.byte	0x1c
 742 0033 37000000 		.4byte	0x37
 743 0037 02       		.uleb128 0x2
 744 0038 01       		.byte	0x1
 745 0039 08       		.byte	0x8
 746 003a A5010000 		.4byte	.LASF1
 747 003e 02       		.uleb128 0x2
 748 003f 02       		.byte	0x2
 749 0040 05       		.byte	0x5
 750 0041 31000000 		.4byte	.LASF2
 751 0045 02       		.uleb128 0x2
 752 0046 02       		.byte	0x2
 753 0047 07       		.byte	0x7
 754 0048 44020000 		.4byte	.LASF3
 755 004c 02       		.uleb128 0x2
 756 004d 04       		.byte	0x4
 757 004e 05       		.byte	0x5
 758 004f 6C010000 		.4byte	.LASF4
 759 0053 03       		.uleb128 0x3
 760 0054 69000000 		.4byte	.LASF6
 761 0058 02       		.byte	0x2
 762 0059 38       		.byte	0x38
 763 005a 5E000000 		.4byte	0x5e
 764 005e 02       		.uleb128 0x2
 765 005f 04       		.byte	0x4
 766 0060 07       		.byte	0x7
 767 0061 C1030000 		.4byte	.LASF7
 768 0065 02       		.uleb128 0x2
 769 0066 08       		.byte	0x8
 770 0067 05       		.byte	0x5
 771 0068 41010000 		.4byte	.LASF8
 772 006c 02       		.uleb128 0x2
 773 006d 08       		.byte	0x8
 774 006e 07       		.byte	0x7
ARM GAS  /tmp/ccSmTGI4.s 			page 15


 775 006f E3010000 		.4byte	.LASF9
 776 0073 04       		.uleb128 0x4
 777 0074 04       		.byte	0x4
 778 0075 05       		.byte	0x5
 779 0076 696E7400 		.ascii	"int\000"
 780 007a 02       		.uleb128 0x2
 781 007b 04       		.byte	0x4
 782 007c 07       		.byte	0x7
 783 007d 03020000 		.4byte	.LASF10
 784 0081 03       		.uleb128 0x3
 785 0082 AB000000 		.4byte	.LASF11
 786 0086 03       		.byte	0x3
 787 0087 2A       		.byte	0x2a
 788 0088 2C000000 		.4byte	0x2c
 789 008c 03       		.uleb128 0x3
 790 008d FA010000 		.4byte	.LASF12
 791 0091 03       		.byte	0x3
 792 0092 42       		.byte	0x42
 793 0093 53000000 		.4byte	0x53
 794 0097 03       		.uleb128 0x3
 795 0098 9F010000 		.4byte	.LASF13
 796 009c 04       		.byte	0x4
 797 009d 35       		.byte	0x35
 798 009e A2000000 		.4byte	0xa2
 799 00a2 05       		.uleb128 0x5
 800 00a3 A7000000 		.4byte	0xa7
 801 00a7 06       		.uleb128 0x6
 802 00a8 8C000000 		.4byte	0x8c
 803 00ac 03       		.uleb128 0x3
 804 00ad 88000000 		.4byte	.LASF14
 805 00b1 04       		.byte	0x4
 806 00b2 39       		.byte	0x39
 807 00b3 B7000000 		.4byte	0xb7
 808 00b7 06       		.uleb128 0x6
 809 00b8 8C000000 		.4byte	0x8c
 810 00bc 03       		.uleb128 0x3
 811 00bd D1010000 		.4byte	.LASF15
 812 00c1 04       		.byte	0x4
 813 00c2 3A       		.byte	0x3a
 814 00c3 B7000000 		.4byte	0xb7
 815 00c7 02       		.uleb128 0x2
 816 00c8 04       		.byte	0x4
 817 00c9 07       		.byte	0x7
 818 00ca 3B000000 		.4byte	.LASF16
 819 00ce 07       		.uleb128 0x7
 820 00cf BC000000 		.4byte	0xbc
 821 00d3 DE000000 		.4byte	0xde
 822 00d7 08       		.uleb128 0x8
 823 00d8 C7000000 		.4byte	0xc7
 824 00dc 00       		.byte	0
 825 00dd 00       		.byte	0
 826 00de 07       		.uleb128 0x7
 827 00df BC000000 		.4byte	0xbc
 828 00e3 EE000000 		.4byte	0xee
 829 00e7 08       		.uleb128 0x8
 830 00e8 C7000000 		.4byte	0xc7
 831 00ec 04       		.byte	0x4
ARM GAS  /tmp/ccSmTGI4.s 			page 16


 832 00ed 00       		.byte	0
 833 00ee 09       		.uleb128 0x9
 834 00ef 1401     		.2byte	0x114
 835 00f1 04       		.byte	0x4
 836 00f2 3F0D     		.2byte	0xd3f
 837 00f4 B8020000 		.4byte	0x2b8
 838 00f8 0A       		.uleb128 0xa
 839 00f9 98030000 		.4byte	.LASF17
 840 00fd 04       		.byte	0x4
 841 00fe 400D     		.2byte	0xd40
 842 0100 AC000000 		.4byte	0xac
 843 0104 00       		.byte	0
 844 0105 0A       		.uleb128 0xa
 845 0106 43040000 		.4byte	.LASF18
 846 010a 04       		.byte	0x4
 847 010b 410D     		.2byte	0xd41
 848 010d AC000000 		.4byte	0xac
 849 0111 04       		.byte	0x4
 850 0112 0A       		.uleb128 0xa
 851 0113 1A000000 		.4byte	.LASF19
 852 0117 04       		.byte	0x4
 853 0118 420D     		.2byte	0xd42
 854 011a 97000000 		.4byte	0x97
 855 011e 08       		.byte	0x8
 856 011f 0A       		.uleb128 0xa
 857 0120 97000000 		.4byte	.LASF20
 858 0124 04       		.byte	0x4
 859 0125 430D     		.2byte	0xd43
 860 0127 B8020000 		.4byte	0x2b8
 861 012b 0C       		.byte	0xc
 862 012c 0A       		.uleb128 0xa
 863 012d 74000000 		.4byte	.LASF21
 864 0131 04       		.byte	0x4
 865 0132 440D     		.2byte	0xd44
 866 0134 AC000000 		.4byte	0xac
 867 0138 10       		.byte	0x10
 868 0139 0A       		.uleb128 0xa
 869 013a 25010000 		.4byte	.LASF22
 870 013e 04       		.byte	0x4
 871 013f 450D     		.2byte	0xd45
 872 0141 AC000000 		.4byte	0xac
 873 0145 14       		.byte	0x14
 874 0146 0A       		.uleb128 0xa
 875 0147 10020000 		.4byte	.LASF23
 876 014b 04       		.byte	0x4
 877 014c 460D     		.2byte	0xd46
 878 014e 97000000 		.4byte	0x97
 879 0152 18       		.byte	0x18
 880 0153 0A       		.uleb128 0xa
 881 0154 A1000000 		.4byte	.LASF24
 882 0158 04       		.byte	0x4
 883 0159 470D     		.2byte	0xd47
 884 015b BD020000 		.4byte	0x2bd
 885 015f 1C       		.byte	0x1c
 886 0160 0A       		.uleb128 0xa
 887 0161 02010000 		.4byte	.LASF25
 888 0165 04       		.byte	0x4
ARM GAS  /tmp/ccSmTGI4.s 			page 17


 889 0166 480D     		.2byte	0xd48
 890 0168 BC000000 		.4byte	0xbc
 891 016c 20       		.byte	0x20
 892 016d 0A       		.uleb128 0xa
 893 016e F2030000 		.4byte	.LASF26
 894 0172 04       		.byte	0x4
 895 0173 490D     		.2byte	0xd49
 896 0175 97000000 		.4byte	0x97
 897 0179 24       		.byte	0x24
 898 017a 0A       		.uleb128 0xa
 899 017b 8D030000 		.4byte	.LASF27
 900 017f 04       		.byte	0x4
 901 0180 4A0D     		.2byte	0xd4a
 902 0182 BC000000 		.4byte	0xbc
 903 0186 28       		.byte	0x28
 904 0187 0A       		.uleb128 0xa
 905 0188 4C040000 		.4byte	.LASF28
 906 018c 04       		.byte	0x4
 907 018d 4B0D     		.2byte	0xd4b
 908 018f BC000000 		.4byte	0xbc
 909 0193 2C       		.byte	0x2c
 910 0194 0A       		.uleb128 0xa
 911 0195 4F010000 		.4byte	.LASF29
 912 0199 04       		.byte	0x4
 913 019a 4C0D     		.2byte	0xd4c
 914 019c BC000000 		.4byte	0xbc
 915 01a0 30       		.byte	0x30
 916 01a1 0A       		.uleb128 0xa
 917 01a2 D3030000 		.4byte	.LASF30
 918 01a6 04       		.byte	0x4
 919 01a7 4D0D     		.2byte	0xd4d
 920 01a9 C2020000 		.4byte	0x2c2
 921 01ad 34       		.byte	0x34
 922 01ae 0A       		.uleb128 0xa
 923 01af 33020000 		.4byte	.LASF31
 924 01b3 04       		.byte	0x4
 925 01b4 4E0D     		.2byte	0xd4e
 926 01b6 BC000000 		.4byte	0xbc
 927 01ba 38       		.byte	0x38
 928 01bb 0A       		.uleb128 0xa
 929 01bc B3000000 		.4byte	.LASF32
 930 01c0 04       		.byte	0x4
 931 01c1 4F0D     		.2byte	0xd4f
 932 01c3 C7020000 		.4byte	0x2c7
 933 01c7 3C       		.byte	0x3c
 934 01c8 0A       		.uleb128 0xa
 935 01c9 3B040000 		.4byte	.LASF33
 936 01cd 04       		.byte	0x4
 937 01ce 500D     		.2byte	0xd50
 938 01d0 DC020000 		.4byte	0x2dc
 939 01d4 40       		.byte	0x40
 940 01d5 0A       		.uleb128 0xa
 941 01d6 BD000000 		.4byte	.LASF34
 942 01da 04       		.byte	0x4
 943 01db 510D     		.2byte	0xd51
 944 01dd E1020000 		.4byte	0x2e1
 945 01e1 4C       		.byte	0x4c
ARM GAS  /tmp/ccSmTGI4.s 			page 18


 946 01e2 0A       		.uleb128 0xa
 947 01e3 39010000 		.4byte	.LASF35
 948 01e7 04       		.byte	0x4
 949 01e8 520D     		.2byte	0xd52
 950 01ea AC000000 		.4byte	0xac
 951 01ee 60       		.byte	0x60
 952 01ef 0A       		.uleb128 0xa
 953 01f0 12000000 		.4byte	.LASF36
 954 01f4 04       		.byte	0x4
 955 01f5 530D     		.2byte	0xd53
 956 01f7 AC000000 		.4byte	0xac
 957 01fb 64       		.byte	0x64
 958 01fc 0A       		.uleb128 0xa
 959 01fd 57020000 		.4byte	.LASF37
 960 0201 04       		.byte	0x4
 961 0202 540D     		.2byte	0xd54
 962 0204 97000000 		.4byte	0x97
 963 0208 68       		.byte	0x68
 964 0209 0A       		.uleb128 0xa
 965 020a 97010000 		.4byte	.LASF38
 966 020e 04       		.byte	0x4
 967 020f 550D     		.2byte	0xd55
 968 0211 97000000 		.4byte	0x97
 969 0215 6C       		.byte	0x6c
 970 0216 0A       		.uleb128 0xa
 971 0217 8E000000 		.4byte	.LASF39
 972 021b 04       		.byte	0x4
 973 021c 560D     		.2byte	0xd56
 974 021e BC000000 		.4byte	0xbc
 975 0222 70       		.byte	0x70
 976 0223 0A       		.uleb128 0xa
 977 0224 09000000 		.4byte	.LASF40
 978 0228 04       		.byte	0x4
 979 0229 570D     		.2byte	0xd57
 980 022b BC000000 		.4byte	0xbc
 981 022f 74       		.byte	0x74
 982 0230 0A       		.uleb128 0xa
 983 0231 00000000 		.4byte	.LASF41
 984 0235 04       		.byte	0x4
 985 0236 580D     		.2byte	0xd58
 986 0238 AC000000 		.4byte	0xac
 987 023c 78       		.byte	0x78
 988 023d 0A       		.uleb128 0xa
 989 023e C7000000 		.4byte	.LASF42
 990 0242 04       		.byte	0x4
 991 0243 590D     		.2byte	0xd59
 992 0245 F6020000 		.4byte	0x2f6
 993 0249 7C       		.byte	0x7c
 994 024a 0A       		.uleb128 0xa
 995 024b B3010000 		.4byte	.LASF43
 996 024f 04       		.byte	0x4
 997 0250 5A0D     		.2byte	0xd5a
 998 0252 BC000000 		.4byte	0xbc
 999 0256 E4       		.byte	0xe4
 1000 0257 0A       		.uleb128 0xa
 1001 0258 2A020000 		.4byte	.LASF44
 1002 025c 04       		.byte	0x4
ARM GAS  /tmp/ccSmTGI4.s 			page 19


 1003 025d 5B0D     		.2byte	0xd5b
 1004 025f 97000000 		.4byte	0x97
 1005 0263 E8       		.byte	0xe8
 1006 0264 0A       		.uleb128 0xa
 1007 0265 D1000000 		.4byte	.LASF45
 1008 0269 04       		.byte	0x4
 1009 026a 5C0D     		.2byte	0xd5c
 1010 026c FB020000 		.4byte	0x2fb
 1011 0270 EC       		.byte	0xec
 1012 0271 0B       		.uleb128 0xb
 1013 0272 7E000000 		.4byte	.LASF46
 1014 0276 04       		.byte	0x4
 1015 0277 5D0D     		.2byte	0xd5d
 1016 0279 AC000000 		.4byte	0xac
 1017 027d 0001     		.2byte	0x100
 1018 027f 0B       		.uleb128 0xb
 1019 0280 2F010000 		.4byte	.LASF47
 1020 0284 04       		.byte	0x4
 1021 0285 5E0D     		.2byte	0xd5e
 1022 0287 AC000000 		.4byte	0xac
 1023 028b 0401     		.2byte	0x104
 1024 028d 0B       		.uleb128 0xb
 1025 028e 1A020000 		.4byte	.LASF48
 1026 0292 04       		.byte	0x4
 1027 0293 5F0D     		.2byte	0xd5f
 1028 0295 97000000 		.4byte	0x97
 1029 0299 0801     		.2byte	0x108
 1030 029b 0B       		.uleb128 0xb
 1031 029c FC030000 		.4byte	.LASF49
 1032 02a0 04       		.byte	0x4
 1033 02a1 600D     		.2byte	0xd60
 1034 02a3 00030000 		.4byte	0x300
 1035 02a7 0C01     		.2byte	0x10c
 1036 02a9 0B       		.uleb128 0xb
 1037 02aa 23000000 		.4byte	.LASF50
 1038 02ae 04       		.byte	0x4
 1039 02af 610D     		.2byte	0xd61
 1040 02b1 BC000000 		.4byte	0xbc
 1041 02b5 1001     		.2byte	0x110
 1042 02b7 00       		.byte	0
 1043 02b8 06       		.uleb128 0x6
 1044 02b9 CE000000 		.4byte	0xce
 1045 02bd 06       		.uleb128 0x6
 1046 02be CE000000 		.4byte	0xce
 1047 02c2 06       		.uleb128 0x6
 1048 02c3 CE000000 		.4byte	0xce
 1049 02c7 06       		.uleb128 0x6
 1050 02c8 CE000000 		.4byte	0xce
 1051 02cc 07       		.uleb128 0x7
 1052 02cd BC000000 		.4byte	0xbc
 1053 02d1 DC020000 		.4byte	0x2dc
 1054 02d5 08       		.uleb128 0x8
 1055 02d6 C7000000 		.4byte	0xc7
 1056 02da 02       		.byte	0x2
 1057 02db 00       		.byte	0
 1058 02dc 06       		.uleb128 0x6
 1059 02dd CC020000 		.4byte	0x2cc
ARM GAS  /tmp/ccSmTGI4.s 			page 20


 1060 02e1 06       		.uleb128 0x6
 1061 02e2 DE000000 		.4byte	0xde
 1062 02e6 07       		.uleb128 0x7
 1063 02e7 BC000000 		.4byte	0xbc
 1064 02eb F6020000 		.4byte	0x2f6
 1065 02ef 08       		.uleb128 0x8
 1066 02f0 C7000000 		.4byte	0xc7
 1067 02f4 19       		.byte	0x19
 1068 02f5 00       		.byte	0
 1069 02f6 06       		.uleb128 0x6
 1070 02f7 E6020000 		.4byte	0x2e6
 1071 02fb 06       		.uleb128 0x6
 1072 02fc DE000000 		.4byte	0xde
 1073 0300 06       		.uleb128 0x6
 1074 0301 CE000000 		.4byte	0xce
 1075 0305 0C       		.uleb128 0xc
 1076 0306 506D6300 		.ascii	"Pmc\000"
 1077 030a 04       		.byte	0x4
 1078 030b 620D     		.2byte	0xd62
 1079 030d EE000000 		.4byte	0xee
 1080 0311 0D       		.uleb128 0xd
 1081 0312 DD030000 		.4byte	.LASF52
 1082 0316 01       		.byte	0x1
 1083 0317 3D       		.byte	0x3d
 1084 0318 00000000 		.4byte	.LFB0
 1085 031c 54000000 		.4byte	.LFE0-.LFB0
 1086 0320 01       		.uleb128 0x1
 1087 0321 9C       		.byte	0x9c
 1088 0322 70030000 		.4byte	0x370
 1089 0326 0E       		.uleb128 0xe
 1090 0327 88030000 		.4byte	.LASF54
 1091 032b 01       		.byte	0x1
 1092 032c 3D       		.byte	0x3d
 1093 032d 8C000000 		.4byte	0x8c
 1094 0331 00000000 		.4byte	.LLST0
 1095 0335 0F       		.uleb128 0xf
 1096 0336 3B020000 		.4byte	.LASF55
 1097 033a 87030000 		.4byte	0x387
 1098 033e 05       		.uleb128 0x5
 1099 033f 03       		.byte	0x3
 1100 0340 00000000 		.4byte	__func__.4777
 1101 0344 10       		.uleb128 0x10
 1102 0345 44000000 		.4byte	.LVL8
 1103 0349 86050000 		.4byte	0x586
 1104 034d 11       		.uleb128 0x11
 1105 034e 01       		.uleb128 0x1
 1106 034f 53       		.byte	0x53
 1107 0350 05       		.uleb128 0x5
 1108 0351 03       		.byte	0x3
 1109 0352 28000000 		.4byte	.LC1
 1110 0356 11       		.uleb128 0x11
 1111 0357 01       		.uleb128 0x1
 1112 0358 52       		.byte	0x52
 1113 0359 05       		.uleb128 0x5
 1114 035a 03       		.byte	0x3
 1115 035b 00000000 		.4byte	.LANCHOR0
 1116 035f 11       		.uleb128 0x11
ARM GAS  /tmp/ccSmTGI4.s 			page 21


 1117 0360 01       		.uleb128 0x1
 1118 0361 51       		.byte	0x51
 1119 0362 02       		.uleb128 0x2
 1120 0363 08       		.byte	0x8
 1121 0364 3F       		.byte	0x3f
 1122 0365 11       		.uleb128 0x11
 1123 0366 01       		.uleb128 0x1
 1124 0367 50       		.byte	0x50
 1125 0368 05       		.uleb128 0x5
 1126 0369 03       		.byte	0x3
 1127 036a 00000000 		.4byte	.LC0
 1128 036e 00       		.byte	0
 1129 036f 00       		.byte	0
 1130 0370 07       		.uleb128 0x7
 1131 0371 80030000 		.4byte	0x380
 1132 0375 80030000 		.4byte	0x380
 1133 0379 08       		.uleb128 0x8
 1134 037a C7000000 		.4byte	0xc7
 1135 037e 14       		.byte	0x14
 1136 037f 00       		.byte	0
 1137 0380 02       		.uleb128 0x2
 1138 0381 01       		.byte	0x1
 1139 0382 08       		.byte	0x8
 1140 0383 5E020000 		.4byte	.LASF51
 1141 0387 05       		.uleb128 0x5
 1142 0388 70030000 		.4byte	0x370
 1143 038c 0D       		.uleb128 0xd
 1144 038d A1030000 		.4byte	.LASF53
 1145 0391 01       		.byte	0x1
 1146 0392 62       		.byte	0x62
 1147 0393 00000000 		.4byte	.LFB1
 1148 0397 54000000 		.4byte	.LFE1-.LFB1
 1149 039b 01       		.uleb128 0x1
 1150 039c 9C       		.byte	0x9c
 1151 039d EB030000 		.4byte	0x3eb
 1152 03a1 0E       		.uleb128 0xe
 1153 03a2 88030000 		.4byte	.LASF54
 1154 03a6 01       		.byte	0x1
 1155 03a7 62       		.byte	0x62
 1156 03a8 8C000000 		.4byte	0x8c
 1157 03ac 63000000 		.4byte	.LLST1
 1158 03b0 0F       		.uleb128 0xf
 1159 03b1 3B020000 		.4byte	.LASF55
 1160 03b5 FB030000 		.4byte	0x3fb
 1161 03b9 05       		.uleb128 0x5
 1162 03ba 03       		.byte	0x3
 1163 03bb 00000000 		.4byte	__func__.4781
 1164 03bf 10       		.uleb128 0x10
 1165 03c0 44000000 		.4byte	.LVL18
 1166 03c4 86050000 		.4byte	0x586
 1167 03c8 11       		.uleb128 0x11
 1168 03c9 01       		.uleb128 0x1
 1169 03ca 53       		.byte	0x53
 1170 03cb 05       		.uleb128 0x5
 1171 03cc 03       		.byte	0x3
 1172 03cd 28000000 		.4byte	.LC1
 1173 03d1 11       		.uleb128 0x11
ARM GAS  /tmp/ccSmTGI4.s 			page 22


 1174 03d2 01       		.uleb128 0x1
 1175 03d3 52       		.byte	0x52
 1176 03d4 05       		.uleb128 0x5
 1177 03d5 03       		.byte	0x3
 1178 03d6 00000000 		.4byte	.LANCHOR1
 1179 03da 11       		.uleb128 0x11
 1180 03db 01       		.uleb128 0x1
 1181 03dc 51       		.byte	0x51
 1182 03dd 02       		.uleb128 0x2
 1183 03de 08       		.byte	0x8
 1184 03df 64       		.byte	0x64
 1185 03e0 11       		.uleb128 0x11
 1186 03e1 01       		.uleb128 0x1
 1187 03e2 50       		.byte	0x50
 1188 03e3 05       		.uleb128 0x5
 1189 03e4 03       		.byte	0x3
 1190 03e5 00000000 		.4byte	.LC0
 1191 03e9 00       		.byte	0
 1192 03ea 00       		.byte	0
 1193 03eb 07       		.uleb128 0x7
 1194 03ec 80030000 		.4byte	0x380
 1195 03f0 FB030000 		.4byte	0x3fb
 1196 03f4 08       		.uleb128 0x8
 1197 03f5 C7000000 		.4byte	0xc7
 1198 03f9 15       		.byte	0x15
 1199 03fa 00       		.byte	0
 1200 03fb 05       		.uleb128 0x5
 1201 03fc EB030000 		.4byte	0x3eb
 1202 0400 12       		.uleb128 0x12
 1203 0401 50000000 		.4byte	.LASF56
 1204 0405 01       		.byte	0x1
 1205 0406 82       		.byte	0x82
 1206 0407 00000000 		.4byte	.LFB2
 1207 040b 2C000000 		.4byte	.LFE2-.LFB2
 1208 040f 01       		.uleb128 0x1
 1209 0410 9C       		.byte	0x9c
 1210 0411 12       		.uleb128 0x12
 1211 0412 0B010000 		.4byte	.LASF57
 1212 0416 01       		.byte	0x1
 1213 0417 90       		.byte	0x90
 1214 0418 00000000 		.4byte	.LFB3
 1215 041c 28000000 		.4byte	.LFE3-.LFB3
 1216 0420 01       		.uleb128 0x1
 1217 0421 9C       		.byte	0x9c
 1218 0422 13       		.uleb128 0x13
 1219 0423 58010000 		.4byte	.LASF71
 1220 0427 01       		.byte	0x1
 1221 0428 A0       		.byte	0xa0
 1222 0429 8C000000 		.4byte	0x8c
 1223 042d 00000000 		.4byte	.LFB4
 1224 0431 48000000 		.4byte	.LFE4-.LFB4
 1225 0435 01       		.uleb128 0x1
 1226 0436 9C       		.byte	0x9c
 1227 0437 85040000 		.4byte	0x485
 1228 043b 0E       		.uleb128 0xe
 1229 043c 88030000 		.4byte	.LASF54
 1230 0440 01       		.byte	0x1
ARM GAS  /tmp/ccSmTGI4.s 			page 23


 1231 0441 A0       		.byte	0xa0
 1232 0442 8C000000 		.4byte	0x8c
 1233 0446 D1000000 		.4byte	.LLST2
 1234 044a 0F       		.uleb128 0xf
 1235 044b 3B020000 		.4byte	.LASF55
 1236 044f 95040000 		.4byte	0x495
 1237 0453 05       		.uleb128 0x5
 1238 0454 03       		.byte	0x3
 1239 0455 00000000 		.4byte	__func__.4803
 1240 0459 10       		.uleb128 0x10
 1241 045a 36000000 		.4byte	.LVL26
 1242 045e 86050000 		.4byte	0x586
 1243 0462 11       		.uleb128 0x11
 1244 0463 01       		.uleb128 0x1
 1245 0464 53       		.byte	0x53
 1246 0465 05       		.uleb128 0x5
 1247 0466 03       		.byte	0x3
 1248 0467 28000000 		.4byte	.LC1
 1249 046b 11       		.uleb128 0x11
 1250 046c 01       		.uleb128 0x1
 1251 046d 52       		.byte	0x52
 1252 046e 05       		.uleb128 0x5
 1253 046f 03       		.byte	0x3
 1254 0470 00000000 		.4byte	.LANCHOR2
 1255 0474 11       		.uleb128 0x11
 1256 0475 01       		.uleb128 0x1
 1257 0476 51       		.byte	0x51
 1258 0477 02       		.uleb128 0x2
 1259 0478 08       		.byte	0x8
 1260 0479 A2       		.byte	0xa2
 1261 047a 11       		.uleb128 0x11
 1262 047b 01       		.uleb128 0x1
 1263 047c 50       		.byte	0x50
 1264 047d 05       		.uleb128 0x5
 1265 047e 03       		.byte	0x3
 1266 047f 00000000 		.4byte	.LC0
 1267 0483 00       		.byte	0
 1268 0484 00       		.byte	0
 1269 0485 07       		.uleb128 0x7
 1270 0486 80030000 		.4byte	0x380
 1271 048a 95040000 		.4byte	0x495
 1272 048e 08       		.uleb128 0x8
 1273 048f C7000000 		.4byte	0xc7
 1274 0493 13       		.byte	0x13
 1275 0494 00       		.byte	0
 1276 0495 05       		.uleb128 0x5
 1277 0496 85040000 		.4byte	0x485
 1278 049a 0D       		.uleb128 0xd
 1279 049b 7F010000 		.4byte	.LASF58
 1280 049f 01       		.byte	0x1
 1281 04a0 AE       		.byte	0xae
 1282 04a1 00000000 		.4byte	.LFB5
 1283 04a5 90000000 		.4byte	.LFE5-.LFB5
 1284 04a9 01       		.uleb128 0x1
 1285 04aa 9C       		.byte	0x9c
 1286 04ab DD040000 		.4byte	0x4dd
 1287 04af 0E       		.uleb128 0xe
ARM GAS  /tmp/ccSmTGI4.s 			page 24


 1288 04b0 8F020000 		.4byte	.LASF59
 1289 04b4 01       		.byte	0x1
 1290 04b5 AE       		.byte	0xae
 1291 04b6 8C000000 		.4byte	0x8c
 1292 04ba 31010000 		.4byte	.LLST3
 1293 04be 0E       		.uleb128 0xe
 1294 04bf 44000000 		.4byte	.LASF60
 1295 04c3 01       		.byte	0x1
 1296 04c4 AE       		.byte	0xae
 1297 04c5 8C000000 		.4byte	0x8c
 1298 04c9 6B010000 		.4byte	.LLST4
 1299 04cd 14       		.uleb128 0x14
 1300 04ce B7030000 		.4byte	.LASF63
 1301 04d2 01       		.byte	0x1
 1302 04d3 B0       		.byte	0xb0
 1303 04d4 8C000000 		.4byte	0x8c
 1304 04d8 A5010000 		.4byte	.LLST5
 1305 04dc 00       		.byte	0
 1306 04dd 0D       		.uleb128 0xd
 1307 04de 20040000 		.4byte	.LASF61
 1308 04e2 01       		.byte	0x1
 1309 04e3 D4       		.byte	0xd4
 1310 04e4 00000000 		.4byte	.LFB6
 1311 04e8 2C000000 		.4byte	.LFE6-.LFB6
 1312 04ec 01       		.uleb128 0x1
 1313 04ed 9C       		.byte	0x9c
 1314 04ee 0F050000 		.4byte	0x50f
 1315 04f2 15       		.uleb128 0x15
 1316 04f3 8F020000 		.4byte	.LASF59
 1317 04f7 01       		.byte	0x1
 1318 04f8 D4       		.byte	0xd4
 1319 04f9 8C000000 		.4byte	0x8c
 1320 04fd 01       		.uleb128 0x1
 1321 04fe 50       		.byte	0x50
 1322 04ff 0E       		.uleb128 0xe
 1323 0500 44000000 		.4byte	.LASF60
 1324 0504 01       		.byte	0x1
 1325 0505 D4       		.byte	0xd4
 1326 0506 8C000000 		.4byte	0x8c
 1327 050a 67020000 		.4byte	.LLST6
 1328 050e 00       		.byte	0
 1329 050f 0D       		.uleb128 0xd
 1330 0510 06040000 		.4byte	.LASF62
 1331 0514 01       		.byte	0x1
 1332 0515 E3       		.byte	0xe3
 1333 0516 00000000 		.4byte	.LFB7
 1334 051a 20000000 		.4byte	.LFE7-.LFB7
 1335 051e 01       		.uleb128 0x1
 1336 051f 9C       		.byte	0x9c
 1337 0520 34050000 		.4byte	0x534
 1338 0524 14       		.uleb128 0x14
 1339 0525 B7030000 		.4byte	.LASF63
 1340 0529 01       		.byte	0x1
 1341 052a E5       		.byte	0xe5
 1342 052b 8C000000 		.4byte	0x8c
 1343 052f 88020000 		.4byte	.LLST7
 1344 0533 00       		.byte	0
ARM GAS  /tmp/ccSmTGI4.s 			page 25


 1345 0534 0D       		.uleb128 0xd
 1346 0535 BC010000 		.4byte	.LASF64
 1347 0539 01       		.byte	0x1
 1348 053a EF       		.byte	0xef
 1349 053b 00000000 		.4byte	.LFB8
 1350 053f 6C000000 		.4byte	.LFE8-.LFB8
 1351 0543 01       		.uleb128 0x1
 1352 0544 9C       		.byte	0x9c
 1353 0545 86050000 		.4byte	0x586
 1354 0549 0E       		.uleb128 0xe
 1355 054a 2B000000 		.4byte	.LASF65
 1356 054e 01       		.byte	0x1
 1357 054f EF       		.byte	0xef
 1358 0550 81000000 		.4byte	0x81
 1359 0554 C8020000 		.4byte	.LLST8
 1360 0558 0E       		.uleb128 0xe
 1361 0559 82030000 		.4byte	.LASF66
 1362 055d 01       		.byte	0x1
 1363 055e EF       		.byte	0xef
 1364 055f 8C000000 		.4byte	0x8c
 1365 0563 02030000 		.4byte	.LLST9
 1366 0567 0E       		.uleb128 0xe
 1367 0568 24020000 		.4byte	.LASF67
 1368 056c 01       		.byte	0x1
 1369 056d EF       		.byte	0xef
 1370 056e 8C000000 		.4byte	0x8c
 1371 0572 3C030000 		.4byte	.LLST10
 1372 0576 14       		.uleb128 0x14
 1373 0577 B7030000 		.4byte	.LASF63
 1374 057b 01       		.byte	0x1
 1375 057c F1       		.byte	0xf1
 1376 057d 8C000000 		.4byte	0x8c
 1377 0581 76030000 		.4byte	.LLST11
 1378 0585 00       		.byte	0
 1379 0586 16       		.uleb128 0x16
 1380 0587 2D040000 		.4byte	.LASF72
 1381 058b 05       		.byte	0x5
 1382 058c 29       		.byte	0x29
 1383 058d A6050000 		.4byte	0x5a6
 1384 0591 17       		.uleb128 0x17
 1385 0592 A6050000 		.4byte	0x5a6
 1386 0596 17       		.uleb128 0x17
 1387 0597 73000000 		.4byte	0x73
 1388 059b 17       		.uleb128 0x17
 1389 059c A6050000 		.4byte	0x5a6
 1390 05a0 17       		.uleb128 0x17
 1391 05a1 A6050000 		.4byte	0x5a6
 1392 05a5 00       		.byte	0
 1393 05a6 18       		.uleb128 0x18
 1394 05a7 04       		.byte	0x4
 1395 05a8 AC050000 		.4byte	0x5ac
 1396 05ac 05       		.uleb128 0x5
 1397 05ad 80030000 		.4byte	0x380
 1398 05b1 00       		.byte	0
 1399              		.section	.debug_abbrev,"",%progbits
 1400              	.Ldebug_abbrev0:
 1401 0000 01       		.uleb128 0x1
ARM GAS  /tmp/ccSmTGI4.s 			page 26


 1402 0001 11       		.uleb128 0x11
 1403 0002 01       		.byte	0x1
 1404 0003 25       		.uleb128 0x25
 1405 0004 0E       		.uleb128 0xe
 1406 0005 13       		.uleb128 0x13
 1407 0006 0B       		.uleb128 0xb
 1408 0007 03       		.uleb128 0x3
 1409 0008 0E       		.uleb128 0xe
 1410 0009 1B       		.uleb128 0x1b
 1411 000a 0E       		.uleb128 0xe
 1412 000b 55       		.uleb128 0x55
 1413 000c 17       		.uleb128 0x17
 1414 000d 11       		.uleb128 0x11
 1415 000e 01       		.uleb128 0x1
 1416 000f 10       		.uleb128 0x10
 1417 0010 17       		.uleb128 0x17
 1418 0011 00       		.byte	0
 1419 0012 00       		.byte	0
 1420 0013 02       		.uleb128 0x2
 1421 0014 24       		.uleb128 0x24
 1422 0015 00       		.byte	0
 1423 0016 0B       		.uleb128 0xb
 1424 0017 0B       		.uleb128 0xb
 1425 0018 3E       		.uleb128 0x3e
 1426 0019 0B       		.uleb128 0xb
 1427 001a 03       		.uleb128 0x3
 1428 001b 0E       		.uleb128 0xe
 1429 001c 00       		.byte	0
 1430 001d 00       		.byte	0
 1431 001e 03       		.uleb128 0x3
 1432 001f 16       		.uleb128 0x16
 1433 0020 00       		.byte	0
 1434 0021 03       		.uleb128 0x3
 1435 0022 0E       		.uleb128 0xe
 1436 0023 3A       		.uleb128 0x3a
 1437 0024 0B       		.uleb128 0xb
 1438 0025 3B       		.uleb128 0x3b
 1439 0026 0B       		.uleb128 0xb
 1440 0027 49       		.uleb128 0x49
 1441 0028 13       		.uleb128 0x13
 1442 0029 00       		.byte	0
 1443 002a 00       		.byte	0
 1444 002b 04       		.uleb128 0x4
 1445 002c 24       		.uleb128 0x24
 1446 002d 00       		.byte	0
 1447 002e 0B       		.uleb128 0xb
 1448 002f 0B       		.uleb128 0xb
 1449 0030 3E       		.uleb128 0x3e
 1450 0031 0B       		.uleb128 0xb
 1451 0032 03       		.uleb128 0x3
 1452 0033 08       		.uleb128 0x8
 1453 0034 00       		.byte	0
 1454 0035 00       		.byte	0
 1455 0036 05       		.uleb128 0x5
 1456 0037 26       		.uleb128 0x26
 1457 0038 00       		.byte	0
 1458 0039 49       		.uleb128 0x49
ARM GAS  /tmp/ccSmTGI4.s 			page 27


 1459 003a 13       		.uleb128 0x13
 1460 003b 00       		.byte	0
 1461 003c 00       		.byte	0
 1462 003d 06       		.uleb128 0x6
 1463 003e 35       		.uleb128 0x35
 1464 003f 00       		.byte	0
 1465 0040 49       		.uleb128 0x49
 1466 0041 13       		.uleb128 0x13
 1467 0042 00       		.byte	0
 1468 0043 00       		.byte	0
 1469 0044 07       		.uleb128 0x7
 1470 0045 01       		.uleb128 0x1
 1471 0046 01       		.byte	0x1
 1472 0047 49       		.uleb128 0x49
 1473 0048 13       		.uleb128 0x13
 1474 0049 01       		.uleb128 0x1
 1475 004a 13       		.uleb128 0x13
 1476 004b 00       		.byte	0
 1477 004c 00       		.byte	0
 1478 004d 08       		.uleb128 0x8
 1479 004e 21       		.uleb128 0x21
 1480 004f 00       		.byte	0
 1481 0050 49       		.uleb128 0x49
 1482 0051 13       		.uleb128 0x13
 1483 0052 2F       		.uleb128 0x2f
 1484 0053 0B       		.uleb128 0xb
 1485 0054 00       		.byte	0
 1486 0055 00       		.byte	0
 1487 0056 09       		.uleb128 0x9
 1488 0057 13       		.uleb128 0x13
 1489 0058 01       		.byte	0x1
 1490 0059 0B       		.uleb128 0xb
 1491 005a 05       		.uleb128 0x5
 1492 005b 3A       		.uleb128 0x3a
 1493 005c 0B       		.uleb128 0xb
 1494 005d 3B       		.uleb128 0x3b
 1495 005e 05       		.uleb128 0x5
 1496 005f 01       		.uleb128 0x1
 1497 0060 13       		.uleb128 0x13
 1498 0061 00       		.byte	0
 1499 0062 00       		.byte	0
 1500 0063 0A       		.uleb128 0xa
 1501 0064 0D       		.uleb128 0xd
 1502 0065 00       		.byte	0
 1503 0066 03       		.uleb128 0x3
 1504 0067 0E       		.uleb128 0xe
 1505 0068 3A       		.uleb128 0x3a
 1506 0069 0B       		.uleb128 0xb
 1507 006a 3B       		.uleb128 0x3b
 1508 006b 05       		.uleb128 0x5
 1509 006c 49       		.uleb128 0x49
 1510 006d 13       		.uleb128 0x13
 1511 006e 38       		.uleb128 0x38
 1512 006f 0B       		.uleb128 0xb
 1513 0070 00       		.byte	0
 1514 0071 00       		.byte	0
 1515 0072 0B       		.uleb128 0xb
ARM GAS  /tmp/ccSmTGI4.s 			page 28


 1516 0073 0D       		.uleb128 0xd
 1517 0074 00       		.byte	0
 1518 0075 03       		.uleb128 0x3
 1519 0076 0E       		.uleb128 0xe
 1520 0077 3A       		.uleb128 0x3a
 1521 0078 0B       		.uleb128 0xb
 1522 0079 3B       		.uleb128 0x3b
 1523 007a 05       		.uleb128 0x5
 1524 007b 49       		.uleb128 0x49
 1525 007c 13       		.uleb128 0x13
 1526 007d 38       		.uleb128 0x38
 1527 007e 05       		.uleb128 0x5
 1528 007f 00       		.byte	0
 1529 0080 00       		.byte	0
 1530 0081 0C       		.uleb128 0xc
 1531 0082 16       		.uleb128 0x16
 1532 0083 00       		.byte	0
 1533 0084 03       		.uleb128 0x3
 1534 0085 08       		.uleb128 0x8
 1535 0086 3A       		.uleb128 0x3a
 1536 0087 0B       		.uleb128 0xb
 1537 0088 3B       		.uleb128 0x3b
 1538 0089 05       		.uleb128 0x5
 1539 008a 49       		.uleb128 0x49
 1540 008b 13       		.uleb128 0x13
 1541 008c 00       		.byte	0
 1542 008d 00       		.byte	0
 1543 008e 0D       		.uleb128 0xd
 1544 008f 2E       		.uleb128 0x2e
 1545 0090 01       		.byte	0x1
 1546 0091 3F       		.uleb128 0x3f
 1547 0092 19       		.uleb128 0x19
 1548 0093 03       		.uleb128 0x3
 1549 0094 0E       		.uleb128 0xe
 1550 0095 3A       		.uleb128 0x3a
 1551 0096 0B       		.uleb128 0xb
 1552 0097 3B       		.uleb128 0x3b
 1553 0098 0B       		.uleb128 0xb
 1554 0099 27       		.uleb128 0x27
 1555 009a 19       		.uleb128 0x19
 1556 009b 11       		.uleb128 0x11
 1557 009c 01       		.uleb128 0x1
 1558 009d 12       		.uleb128 0x12
 1559 009e 06       		.uleb128 0x6
 1560 009f 40       		.uleb128 0x40
 1561 00a0 18       		.uleb128 0x18
 1562 00a1 9742     		.uleb128 0x2117
 1563 00a3 19       		.uleb128 0x19
 1564 00a4 01       		.uleb128 0x1
 1565 00a5 13       		.uleb128 0x13
 1566 00a6 00       		.byte	0
 1567 00a7 00       		.byte	0
 1568 00a8 0E       		.uleb128 0xe
 1569 00a9 05       		.uleb128 0x5
 1570 00aa 00       		.byte	0
 1571 00ab 03       		.uleb128 0x3
 1572 00ac 0E       		.uleb128 0xe
ARM GAS  /tmp/ccSmTGI4.s 			page 29


 1573 00ad 3A       		.uleb128 0x3a
 1574 00ae 0B       		.uleb128 0xb
 1575 00af 3B       		.uleb128 0x3b
 1576 00b0 0B       		.uleb128 0xb
 1577 00b1 49       		.uleb128 0x49
 1578 00b2 13       		.uleb128 0x13
 1579 00b3 02       		.uleb128 0x2
 1580 00b4 17       		.uleb128 0x17
 1581 00b5 00       		.byte	0
 1582 00b6 00       		.byte	0
 1583 00b7 0F       		.uleb128 0xf
 1584 00b8 34       		.uleb128 0x34
 1585 00b9 00       		.byte	0
 1586 00ba 03       		.uleb128 0x3
 1587 00bb 0E       		.uleb128 0xe
 1588 00bc 49       		.uleb128 0x49
 1589 00bd 13       		.uleb128 0x13
 1590 00be 34       		.uleb128 0x34
 1591 00bf 19       		.uleb128 0x19
 1592 00c0 02       		.uleb128 0x2
 1593 00c1 18       		.uleb128 0x18
 1594 00c2 00       		.byte	0
 1595 00c3 00       		.byte	0
 1596 00c4 10       		.uleb128 0x10
 1597 00c5 898201   		.uleb128 0x4109
 1598 00c8 01       		.byte	0x1
 1599 00c9 11       		.uleb128 0x11
 1600 00ca 01       		.uleb128 0x1
 1601 00cb 31       		.uleb128 0x31
 1602 00cc 13       		.uleb128 0x13
 1603 00cd 00       		.byte	0
 1604 00ce 00       		.byte	0
 1605 00cf 11       		.uleb128 0x11
 1606 00d0 8A8201   		.uleb128 0x410a
 1607 00d3 00       		.byte	0
 1608 00d4 02       		.uleb128 0x2
 1609 00d5 18       		.uleb128 0x18
 1610 00d6 9142     		.uleb128 0x2111
 1611 00d8 18       		.uleb128 0x18
 1612 00d9 00       		.byte	0
 1613 00da 00       		.byte	0
 1614 00db 12       		.uleb128 0x12
 1615 00dc 2E       		.uleb128 0x2e
 1616 00dd 00       		.byte	0
 1617 00de 3F       		.uleb128 0x3f
 1618 00df 19       		.uleb128 0x19
 1619 00e0 03       		.uleb128 0x3
 1620 00e1 0E       		.uleb128 0xe
 1621 00e2 3A       		.uleb128 0x3a
 1622 00e3 0B       		.uleb128 0xb
 1623 00e4 3B       		.uleb128 0x3b
 1624 00e5 0B       		.uleb128 0xb
 1625 00e6 27       		.uleb128 0x27
 1626 00e7 19       		.uleb128 0x19
 1627 00e8 11       		.uleb128 0x11
 1628 00e9 01       		.uleb128 0x1
 1629 00ea 12       		.uleb128 0x12
ARM GAS  /tmp/ccSmTGI4.s 			page 30


 1630 00eb 06       		.uleb128 0x6
 1631 00ec 40       		.uleb128 0x40
 1632 00ed 18       		.uleb128 0x18
 1633 00ee 9742     		.uleb128 0x2117
 1634 00f0 19       		.uleb128 0x19
 1635 00f1 00       		.byte	0
 1636 00f2 00       		.byte	0
 1637 00f3 13       		.uleb128 0x13
 1638 00f4 2E       		.uleb128 0x2e
 1639 00f5 01       		.byte	0x1
 1640 00f6 3F       		.uleb128 0x3f
 1641 00f7 19       		.uleb128 0x19
 1642 00f8 03       		.uleb128 0x3
 1643 00f9 0E       		.uleb128 0xe
 1644 00fa 3A       		.uleb128 0x3a
 1645 00fb 0B       		.uleb128 0xb
 1646 00fc 3B       		.uleb128 0x3b
 1647 00fd 0B       		.uleb128 0xb
 1648 00fe 27       		.uleb128 0x27
 1649 00ff 19       		.uleb128 0x19
 1650 0100 49       		.uleb128 0x49
 1651 0101 13       		.uleb128 0x13
 1652 0102 11       		.uleb128 0x11
 1653 0103 01       		.uleb128 0x1
 1654 0104 12       		.uleb128 0x12
 1655 0105 06       		.uleb128 0x6
 1656 0106 40       		.uleb128 0x40
 1657 0107 18       		.uleb128 0x18
 1658 0108 9742     		.uleb128 0x2117
 1659 010a 19       		.uleb128 0x19
 1660 010b 01       		.uleb128 0x1
 1661 010c 13       		.uleb128 0x13
 1662 010d 00       		.byte	0
 1663 010e 00       		.byte	0
 1664 010f 14       		.uleb128 0x14
 1665 0110 34       		.uleb128 0x34
 1666 0111 00       		.byte	0
 1667 0112 03       		.uleb128 0x3
 1668 0113 0E       		.uleb128 0xe
 1669 0114 3A       		.uleb128 0x3a
 1670 0115 0B       		.uleb128 0xb
 1671 0116 3B       		.uleb128 0x3b
 1672 0117 0B       		.uleb128 0xb
 1673 0118 49       		.uleb128 0x49
 1674 0119 13       		.uleb128 0x13
 1675 011a 02       		.uleb128 0x2
 1676 011b 17       		.uleb128 0x17
 1677 011c 00       		.byte	0
 1678 011d 00       		.byte	0
 1679 011e 15       		.uleb128 0x15
 1680 011f 05       		.uleb128 0x5
 1681 0120 00       		.byte	0
 1682 0121 03       		.uleb128 0x3
 1683 0122 0E       		.uleb128 0xe
 1684 0123 3A       		.uleb128 0x3a
 1685 0124 0B       		.uleb128 0xb
 1686 0125 3B       		.uleb128 0x3b
ARM GAS  /tmp/ccSmTGI4.s 			page 31


 1687 0126 0B       		.uleb128 0xb
 1688 0127 49       		.uleb128 0x49
 1689 0128 13       		.uleb128 0x13
 1690 0129 02       		.uleb128 0x2
 1691 012a 18       		.uleb128 0x18
 1692 012b 00       		.byte	0
 1693 012c 00       		.byte	0
 1694 012d 16       		.uleb128 0x16
 1695 012e 2E       		.uleb128 0x2e
 1696 012f 01       		.byte	0x1
 1697 0130 3F       		.uleb128 0x3f
 1698 0131 19       		.uleb128 0x19
 1699 0132 03       		.uleb128 0x3
 1700 0133 0E       		.uleb128 0xe
 1701 0134 3A       		.uleb128 0x3a
 1702 0135 0B       		.uleb128 0xb
 1703 0136 3B       		.uleb128 0x3b
 1704 0137 0B       		.uleb128 0xb
 1705 0138 27       		.uleb128 0x27
 1706 0139 19       		.uleb128 0x19
 1707 013a 3C       		.uleb128 0x3c
 1708 013b 19       		.uleb128 0x19
 1709 013c 01       		.uleb128 0x1
 1710 013d 13       		.uleb128 0x13
 1711 013e 00       		.byte	0
 1712 013f 00       		.byte	0
 1713 0140 17       		.uleb128 0x17
 1714 0141 05       		.uleb128 0x5
 1715 0142 00       		.byte	0
 1716 0143 49       		.uleb128 0x49
 1717 0144 13       		.uleb128 0x13
 1718 0145 00       		.byte	0
 1719 0146 00       		.byte	0
 1720 0147 18       		.uleb128 0x18
 1721 0148 0F       		.uleb128 0xf
 1722 0149 00       		.byte	0
 1723 014a 0B       		.uleb128 0xb
 1724 014b 0B       		.uleb128 0xb
 1725 014c 49       		.uleb128 0x49
 1726 014d 13       		.uleb128 0x13
 1727 014e 00       		.byte	0
 1728 014f 00       		.byte	0
 1729 0150 00       		.byte	0
 1730              		.section	.debug_loc,"",%progbits
 1731              	.Ldebug_loc0:
 1732              	.LLST0:
 1733 0000 00000000 		.4byte	.LVL0
 1734 0004 10000000 		.4byte	.LVL1
 1735 0008 0100     		.2byte	0x1
 1736 000a 50       		.byte	0x50
 1737 000b 10000000 		.4byte	.LVL1
 1738 000f 1E000000 		.4byte	.LVL2
 1739 0013 0400     		.2byte	0x4
 1740 0015 F3       		.byte	0xf3
 1741 0016 01       		.uleb128 0x1
 1742 0017 50       		.byte	0x50
 1743 0018 9F       		.byte	0x9f
ARM GAS  /tmp/ccSmTGI4.s 			page 32


 1744 0019 1E000000 		.4byte	.LVL2
 1745 001d 22000000 		.4byte	.LVL3
 1746 0021 0300     		.2byte	0x3
 1747 0023 70       		.byte	0x70
 1748 0024 60       		.sleb128 -32
 1749 0025 9F       		.byte	0x9f
 1750 0026 22000000 		.4byte	.LVL3
 1751 002a 26000000 		.4byte	.LVL4
 1752 002e 0100     		.2byte	0x1
 1753 0030 50       		.byte	0x50
 1754 0031 26000000 		.4byte	.LVL4
 1755 0035 36000000 		.4byte	.LVL5
 1756 0039 0700     		.2byte	0x7
 1757 003b F3       		.byte	0xf3
 1758 003c 01       		.uleb128 0x1
 1759 003d 50       		.byte	0x50
 1760 003e 08       		.byte	0x8
 1761 003f 20       		.byte	0x20
 1762 0040 1C       		.byte	0x1c
 1763 0041 9F       		.byte	0x9f
 1764 0042 38000000 		.4byte	.LVL6
 1765 0046 3A000000 		.4byte	.LVL7
 1766 004a 0100     		.2byte	0x1
 1767 004c 50       		.byte	0x50
 1768 004d 3A000000 		.4byte	.LVL7
 1769 0051 54000000 		.4byte	.LFE0
 1770 0055 0400     		.2byte	0x4
 1771 0057 F3       		.byte	0xf3
 1772 0058 01       		.uleb128 0x1
 1773 0059 50       		.byte	0x50
 1774 005a 9F       		.byte	0x9f
 1775 005b 00000000 		.4byte	0
 1776 005f 00000000 		.4byte	0
 1777              	.LLST1:
 1778 0063 00000000 		.4byte	.LVL9
 1779 0067 0A000000 		.4byte	.LVL10
 1780 006b 0100     		.2byte	0x1
 1781 006d 50       		.byte	0x50
 1782 006e 0A000000 		.4byte	.LVL10
 1783 0072 0E000000 		.4byte	.LVL11
 1784 0076 0300     		.2byte	0x3
 1785 0078 70       		.byte	0x70
 1786 0079 60       		.sleb128 -32
 1787 007a 9F       		.byte	0x9f
 1788 007b 0E000000 		.4byte	.LVL11
 1789 007f 12000000 		.4byte	.LVL12
 1790 0083 0100     		.2byte	0x1
 1791 0085 50       		.byte	0x50
 1792 0086 12000000 		.4byte	.LVL12
 1793 008a 22000000 		.4byte	.LVL13
 1794 008e 0700     		.2byte	0x7
 1795 0090 F3       		.byte	0xf3
 1796 0091 01       		.uleb128 0x1
 1797 0092 50       		.byte	0x50
 1798 0093 08       		.byte	0x8
 1799 0094 20       		.byte	0x20
 1800 0095 1C       		.byte	0x1c
ARM GAS  /tmp/ccSmTGI4.s 			page 33


 1801 0096 9F       		.byte	0x9f
 1802 0097 24000000 		.4byte	.LVL14
 1803 009b 2A000000 		.4byte	.LVL15
 1804 009f 0100     		.2byte	0x1
 1805 00a1 50       		.byte	0x50
 1806 00a2 2A000000 		.4byte	.LVL15
 1807 00a6 38000000 		.4byte	.LVL16
 1808 00aa 0400     		.2byte	0x4
 1809 00ac F3       		.byte	0xf3
 1810 00ad 01       		.uleb128 0x1
 1811 00ae 50       		.byte	0x50
 1812 00af 9F       		.byte	0x9f
 1813 00b0 38000000 		.4byte	.LVL16
 1814 00b4 3A000000 		.4byte	.LVL17
 1815 00b8 0100     		.2byte	0x1
 1816 00ba 50       		.byte	0x50
 1817 00bb 3A000000 		.4byte	.LVL17
 1818 00bf 54000000 		.4byte	.LFE1
 1819 00c3 0400     		.2byte	0x4
 1820 00c5 F3       		.byte	0xf3
 1821 00c6 01       		.uleb128 0x1
 1822 00c7 50       		.byte	0x50
 1823 00c8 9F       		.byte	0x9f
 1824 00c9 00000000 		.4byte	0
 1825 00cd 00000000 		.4byte	0
 1826              	.LLST2:
 1827 00d1 00000000 		.4byte	.LVL19
 1828 00d5 0E000000 		.4byte	.LVL20
 1829 00d9 0100     		.2byte	0x1
 1830 00db 50       		.byte	0x50
 1831 00dc 0E000000 		.4byte	.LVL20
 1832 00e0 12000000 		.4byte	.LVL21
 1833 00e4 0300     		.2byte	0x3
 1834 00e6 70       		.byte	0x70
 1835 00e7 20       		.sleb128 32
 1836 00e8 9F       		.byte	0x9f
 1837 00e9 12000000 		.4byte	.LVL21
 1838 00ed 1C000000 		.4byte	.LVL22
 1839 00f1 0400     		.2byte	0x4
 1840 00f3 F3       		.byte	0xf3
 1841 00f4 01       		.uleb128 0x1
 1842 00f5 50       		.byte	0x50
 1843 00f6 9F       		.byte	0x9f
 1844 00f7 1C000000 		.4byte	.LVL22
 1845 00fb 22000000 		.4byte	.LVL23
 1846 00ff 0100     		.2byte	0x1
 1847 0101 50       		.byte	0x50
 1848 0102 22000000 		.4byte	.LVL23
 1849 0106 2A000000 		.4byte	.LVL24
 1850 010a 0400     		.2byte	0x4
 1851 010c F3       		.byte	0xf3
 1852 010d 01       		.uleb128 0x1
 1853 010e 50       		.byte	0x50
 1854 010f 9F       		.byte	0x9f
 1855 0110 2A000000 		.4byte	.LVL24
 1856 0114 2C000000 		.4byte	.LVL25
 1857 0118 0100     		.2byte	0x1
ARM GAS  /tmp/ccSmTGI4.s 			page 34


 1858 011a 50       		.byte	0x50
 1859 011b 2C000000 		.4byte	.LVL25
 1860 011f 48000000 		.4byte	.LFE4
 1861 0123 0400     		.2byte	0x4
 1862 0125 F3       		.byte	0xf3
 1863 0126 01       		.uleb128 0x1
 1864 0127 50       		.byte	0x50
 1865 0128 9F       		.byte	0x9f
 1866 0129 00000000 		.4byte	0
 1867 012d 00000000 		.4byte	0
 1868              	.LLST3:
 1869 0131 00000000 		.4byte	.LVL27
 1870 0135 1C000000 		.4byte	.LVL28
 1871 0139 0100     		.2byte	0x1
 1872 013b 50       		.byte	0x50
 1873 013c 1C000000 		.4byte	.LVL28
 1874 0140 4C000000 		.4byte	.LVL38
 1875 0144 0400     		.2byte	0x4
 1876 0146 F3       		.byte	0xf3
 1877 0147 01       		.uleb128 0x1
 1878 0148 50       		.byte	0x50
 1879 0149 9F       		.byte	0x9f
 1880 014a 4C000000 		.4byte	.LVL38
 1881 014e 74000000 		.4byte	.LVL44
 1882 0152 0100     		.2byte	0x1
 1883 0154 50       		.byte	0x50
 1884 0155 74000000 		.4byte	.LVL44
 1885 0159 90000000 		.4byte	.LFE5
 1886 015d 0400     		.2byte	0x4
 1887 015f F3       		.byte	0xf3
 1888 0160 01       		.uleb128 0x1
 1889 0161 50       		.byte	0x50
 1890 0162 9F       		.byte	0x9f
 1891 0163 00000000 		.4byte	0
 1892 0167 00000000 		.4byte	0
 1893              	.LLST4:
 1894 016b 00000000 		.4byte	.LVL27
 1895 016f 36000000 		.4byte	.LVL33
 1896 0173 0100     		.2byte	0x1
 1897 0175 51       		.byte	0x51
 1898 0176 36000000 		.4byte	.LVL33
 1899 017a 4C000000 		.4byte	.LVL38
 1900 017e 0400     		.2byte	0x4
 1901 0180 F3       		.byte	0xf3
 1902 0181 01       		.uleb128 0x1
 1903 0182 51       		.byte	0x51
 1904 0183 9F       		.byte	0x9f
 1905 0184 4C000000 		.4byte	.LVL38
 1906 0188 5A000000 		.4byte	.LVL39
 1907 018c 0100     		.2byte	0x1
 1908 018e 51       		.byte	0x51
 1909 018f 5A000000 		.4byte	.LVL39
 1910 0193 90000000 		.4byte	.LFE5
 1911 0197 0400     		.2byte	0x4
 1912 0199 F3       		.byte	0xf3
 1913 019a 01       		.uleb128 0x1
 1914 019b 51       		.byte	0x51
ARM GAS  /tmp/ccSmTGI4.s 			page 35


 1915 019c 9F       		.byte	0x9f
 1916 019d 00000000 		.4byte	0
 1917 01a1 00000000 		.4byte	0
 1918              	.LLST5:
 1919 01a5 00000000 		.4byte	.LVL27
 1920 01a9 20000000 		.4byte	.LVL29
 1921 01ad 0200     		.2byte	0x2
 1922 01af 30       		.byte	0x30
 1923 01b0 9F       		.byte	0x9f
 1924 01b1 20000000 		.4byte	.LVL29
 1925 01b5 22000000 		.4byte	.LVL30
 1926 01b9 0300     		.2byte	0x3
 1927 01bb 73       		.byte	0x73
 1928 01bc 01       		.sleb128 1
 1929 01bd 9F       		.byte	0x9f
 1930 01be 22000000 		.4byte	.LVL30
 1931 01c2 24000000 		.4byte	.LVL31
 1932 01c6 0100     		.2byte	0x1
 1933 01c8 53       		.byte	0x53
 1934 01c9 24000000 		.4byte	.LVL31
 1935 01cd 2A000000 		.4byte	.LVL32
 1936 01d1 0300     		.2byte	0x3
 1937 01d3 73       		.byte	0x73
 1938 01d4 01       		.sleb128 1
 1939 01d5 9F       		.byte	0x9f
 1940 01d6 2A000000 		.4byte	.LVL32
 1941 01da 3A000000 		.4byte	.LVL34
 1942 01de 0100     		.2byte	0x1
 1943 01e0 53       		.byte	0x53
 1944 01e1 3A000000 		.4byte	.LVL34
 1945 01e5 40000000 		.4byte	.LVL35
 1946 01e9 0100     		.2byte	0x1
 1947 01eb 51       		.byte	0x51
 1948 01ec 40000000 		.4byte	.LVL35
 1949 01f0 44000000 		.4byte	.LVL36
 1950 01f4 0100     		.2byte	0x1
 1951 01f6 53       		.byte	0x53
 1952 01f7 44000000 		.4byte	.LVL36
 1953 01fb 48000000 		.4byte	.LVL37
 1954 01ff 0100     		.2byte	0x1
 1955 0201 51       		.byte	0x51
 1956 0202 4C000000 		.4byte	.LVL38
 1957 0206 5E000000 		.4byte	.LVL40
 1958 020a 0200     		.2byte	0x2
 1959 020c 30       		.byte	0x30
 1960 020d 9F       		.byte	0x9f
 1961 020e 5E000000 		.4byte	.LVL40
 1962 0212 60000000 		.4byte	.LVL41
 1963 0216 0300     		.2byte	0x3
 1964 0218 73       		.byte	0x73
 1965 0219 01       		.sleb128 1
 1966 021a 9F       		.byte	0x9f
 1967 021b 60000000 		.4byte	.LVL41
 1968 021f 62000000 		.4byte	.LVL42
 1969 0223 0100     		.2byte	0x1
 1970 0225 53       		.byte	0x53
 1971 0226 62000000 		.4byte	.LVL42
ARM GAS  /tmp/ccSmTGI4.s 			page 36


 1972 022a 68000000 		.4byte	.LVL43
 1973 022e 0300     		.2byte	0x3
 1974 0230 73       		.byte	0x73
 1975 0231 01       		.sleb128 1
 1976 0232 9F       		.byte	0x9f
 1977 0233 68000000 		.4byte	.LVL43
 1978 0237 78000000 		.4byte	.LVL45
 1979 023b 0100     		.2byte	0x1
 1980 023d 53       		.byte	0x53
 1981 023e 78000000 		.4byte	.LVL45
 1982 0242 7E000000 		.4byte	.LVL46
 1983 0246 0100     		.2byte	0x1
 1984 0248 51       		.byte	0x51
 1985 0249 7E000000 		.4byte	.LVL46
 1986 024d 82000000 		.4byte	.LVL47
 1987 0251 0100     		.2byte	0x1
 1988 0253 53       		.byte	0x53
 1989 0254 82000000 		.4byte	.LVL47
 1990 0258 90000000 		.4byte	.LFE5
 1991 025c 0100     		.2byte	0x1
 1992 025e 51       		.byte	0x51
 1993 025f 00000000 		.4byte	0
 1994 0263 00000000 		.4byte	0
 1995              	.LLST6:
 1996 0267 00000000 		.4byte	.LVL48
 1997 026b 08000000 		.4byte	.LVL49
 1998 026f 0100     		.2byte	0x1
 1999 0271 51       		.byte	0x51
 2000 0272 08000000 		.4byte	.LVL49
 2001 0276 2C000000 		.4byte	.LFE6
 2002 027a 0400     		.2byte	0x4
 2003 027c F3       		.byte	0xf3
 2004 027d 01       		.uleb128 0x1
 2005 027e 51       		.byte	0x51
 2006 027f 9F       		.byte	0x9f
 2007 0280 00000000 		.4byte	0
 2008 0284 00000000 		.4byte	0
 2009              	.LLST7:
 2010 0288 08000000 		.4byte	.LVL50
 2011 028c 0C000000 		.4byte	.LVL51
 2012 0290 0200     		.2byte	0x2
 2013 0292 30       		.byte	0x30
 2014 0293 9F       		.byte	0x9f
 2015 0294 0C000000 		.4byte	.LVL51
 2016 0298 0E000000 		.4byte	.LVL52
 2017 029c 0500     		.2byte	0x5
 2018 029e 31       		.byte	0x31
 2019 029f 73       		.byte	0x73
 2020 02a0 00       		.sleb128 0
 2021 02a1 1C       		.byte	0x1c
 2022 02a2 9F       		.byte	0x9f
 2023 02a3 0E000000 		.4byte	.LVL52
 2024 02a7 10000000 		.4byte	.LVL53
 2025 02ab 0400     		.2byte	0x4
 2026 02ad 73       		.byte	0x73
 2027 02ae 00       		.sleb128 0
 2028 02af 1F       		.byte	0x1f
ARM GAS  /tmp/ccSmTGI4.s 			page 37


 2029 02b0 9F       		.byte	0x9f
 2030 02b1 10000000 		.4byte	.LVL53
 2031 02b5 16000000 		.4byte	.LVL54
 2032 02b9 0500     		.2byte	0x5
 2033 02bb 31       		.byte	0x31
 2034 02bc 73       		.byte	0x73
 2035 02bd 00       		.sleb128 0
 2036 02be 1C       		.byte	0x1c
 2037 02bf 9F       		.byte	0x9f
 2038 02c0 00000000 		.4byte	0
 2039 02c4 00000000 		.4byte	0
 2040              	.LLST8:
 2041 02c8 00000000 		.4byte	.LVL55
 2042 02cc 1A000000 		.4byte	.LVL57
 2043 02d0 0100     		.2byte	0x1
 2044 02d2 50       		.byte	0x50
 2045 02d3 1A000000 		.4byte	.LVL57
 2046 02d7 30000000 		.4byte	.LVL61
 2047 02db 0400     		.2byte	0x4
 2048 02dd F3       		.byte	0xf3
 2049 02de 01       		.uleb128 0x1
 2050 02df 50       		.byte	0x50
 2051 02e0 9F       		.byte	0x9f
 2052 02e1 30000000 		.4byte	.LVL61
 2053 02e5 38000000 		.4byte	.LVL62
 2054 02e9 0100     		.2byte	0x1
 2055 02eb 50       		.byte	0x50
 2056 02ec 38000000 		.4byte	.LVL62
 2057 02f0 6C000000 		.4byte	.LFE8
 2058 02f4 0400     		.2byte	0x4
 2059 02f6 F3       		.byte	0xf3
 2060 02f7 01       		.uleb128 0x1
 2061 02f8 50       		.byte	0x50
 2062 02f9 9F       		.byte	0x9f
 2063 02fa 00000000 		.4byte	0
 2064 02fe 00000000 		.4byte	0
 2065              	.LLST9:
 2066 0302 00000000 		.4byte	.LVL55
 2067 0306 1A000000 		.4byte	.LVL57
 2068 030a 0100     		.2byte	0x1
 2069 030c 51       		.byte	0x51
 2070 030d 1A000000 		.4byte	.LVL57
 2071 0311 30000000 		.4byte	.LVL61
 2072 0315 0400     		.2byte	0x4
 2073 0317 F3       		.byte	0xf3
 2074 0318 01       		.uleb128 0x1
 2075 0319 51       		.byte	0x51
 2076 031a 9F       		.byte	0x9f
 2077 031b 30000000 		.4byte	.LVL61
 2078 031f 4E000000 		.4byte	.LVL64
 2079 0323 0100     		.2byte	0x1
 2080 0325 51       		.byte	0x51
 2081 0326 4E000000 		.4byte	.LVL64
 2082 032a 6C000000 		.4byte	.LFE8
 2083 032e 0400     		.2byte	0x4
 2084 0330 F3       		.byte	0xf3
 2085 0331 01       		.uleb128 0x1
ARM GAS  /tmp/ccSmTGI4.s 			page 38


 2086 0332 51       		.byte	0x51
 2087 0333 9F       		.byte	0x9f
 2088 0334 00000000 		.4byte	0
 2089 0338 00000000 		.4byte	0
 2090              	.LLST10:
 2091 033c 00000000 		.4byte	.LVL55
 2092 0340 0C000000 		.4byte	.LVL56
 2093 0344 0100     		.2byte	0x1
 2094 0346 52       		.byte	0x52
 2095 0347 0C000000 		.4byte	.LVL56
 2096 034b 30000000 		.4byte	.LVL61
 2097 034f 0400     		.2byte	0x4
 2098 0351 F3       		.byte	0xf3
 2099 0352 01       		.uleb128 0x1
 2100 0353 52       		.byte	0x52
 2101 0354 9F       		.byte	0x9f
 2102 0355 30000000 		.4byte	.LVL61
 2103 0359 3C000000 		.4byte	.LVL63
 2104 035d 0100     		.2byte	0x1
 2105 035f 52       		.byte	0x52
 2106 0360 3C000000 		.4byte	.LVL63
 2107 0364 6C000000 		.4byte	.LFE8
 2108 0368 0400     		.2byte	0x4
 2109 036a F3       		.byte	0xf3
 2110 036b 01       		.uleb128 0x1
 2111 036c 52       		.byte	0x52
 2112 036d 9F       		.byte	0x9f
 2113 036e 00000000 		.4byte	0
 2114 0372 00000000 		.4byte	0
 2115              	.LLST11:
 2116 0376 00000000 		.4byte	.LVL55
 2117 037a 1A000000 		.4byte	.LVL57
 2118 037e 0200     		.2byte	0x2
 2119 0380 30       		.byte	0x30
 2120 0381 9F       		.byte	0x9f
 2121 0382 20000000 		.4byte	.LVL58
 2122 0386 22000000 		.4byte	.LVL59
 2123 038a 0500     		.2byte	0x5
 2124 038c 31       		.byte	0x31
 2125 038d 70       		.byte	0x70
 2126 038e 00       		.sleb128 0
 2127 038f 1C       		.byte	0x1c
 2128 0390 9F       		.byte	0x9f
 2129 0391 22000000 		.4byte	.LVL59
 2130 0395 24000000 		.4byte	.LVL60
 2131 0399 0400     		.2byte	0x4
 2132 039b 70       		.byte	0x70
 2133 039c 00       		.sleb128 0
 2134 039d 1F       		.byte	0x1f
 2135 039e 9F       		.byte	0x9f
 2136 039f 24000000 		.4byte	.LVL60
 2137 03a3 30000000 		.4byte	.LVL61
 2138 03a7 0500     		.2byte	0x5
 2139 03a9 31       		.byte	0x31
 2140 03aa 70       		.byte	0x70
 2141 03ab 00       		.sleb128 0
 2142 03ac 1C       		.byte	0x1c
ARM GAS  /tmp/ccSmTGI4.s 			page 39


 2143 03ad 9F       		.byte	0x9f
 2144 03ae 30000000 		.4byte	.LVL61
 2145 03b2 52000000 		.4byte	.LVL65
 2146 03b6 0200     		.2byte	0x2
 2147 03b8 30       		.byte	0x30
 2148 03b9 9F       		.byte	0x9f
 2149 03ba 52000000 		.4byte	.LVL65
 2150 03be 54000000 		.4byte	.LVL66
 2151 03c2 0500     		.2byte	0x5
 2152 03c4 31       		.byte	0x31
 2153 03c5 73       		.byte	0x73
 2154 03c6 00       		.sleb128 0
 2155 03c7 1C       		.byte	0x1c
 2156 03c8 9F       		.byte	0x9f
 2157 03c9 54000000 		.4byte	.LVL66
 2158 03cd 56000000 		.4byte	.LVL67
 2159 03d1 0400     		.2byte	0x4
 2160 03d3 73       		.byte	0x73
 2161 03d4 00       		.sleb128 0
 2162 03d5 1F       		.byte	0x1f
 2163 03d6 9F       		.byte	0x9f
 2164 03d7 56000000 		.4byte	.LVL67
 2165 03db 6C000000 		.4byte	.LFE8
 2166 03df 0500     		.2byte	0x5
 2167 03e1 31       		.byte	0x31
 2168 03e2 73       		.byte	0x73
 2169 03e3 00       		.sleb128 0
 2170 03e4 1C       		.byte	0x1c
 2171 03e5 9F       		.byte	0x9f
 2172 03e6 00000000 		.4byte	0
 2173 03ea 00000000 		.4byte	0
 2174              		.section	.debug_aranges,"",%progbits
 2175 0000 5C000000 		.4byte	0x5c
 2176 0004 0200     		.2byte	0x2
 2177 0006 00000000 		.4byte	.Ldebug_info0
 2178 000a 04       		.byte	0x4
 2179 000b 00       		.byte	0
 2180 000c 0000     		.2byte	0
 2181 000e 0000     		.2byte	0
 2182 0010 00000000 		.4byte	.LFB0
 2183 0014 54000000 		.4byte	.LFE0-.LFB0
 2184 0018 00000000 		.4byte	.LFB1
 2185 001c 54000000 		.4byte	.LFE1-.LFB1
 2186 0020 00000000 		.4byte	.LFB2
 2187 0024 2C000000 		.4byte	.LFE2-.LFB2
 2188 0028 00000000 		.4byte	.LFB3
 2189 002c 28000000 		.4byte	.LFE3-.LFB3
 2190 0030 00000000 		.4byte	.LFB4
 2191 0034 48000000 		.4byte	.LFE4-.LFB4
 2192 0038 00000000 		.4byte	.LFB5
 2193 003c 90000000 		.4byte	.LFE5-.LFB5
 2194 0040 00000000 		.4byte	.LFB6
 2195 0044 2C000000 		.4byte	.LFE6-.LFB6
 2196 0048 00000000 		.4byte	.LFB7
 2197 004c 20000000 		.4byte	.LFE7-.LFB7
 2198 0050 00000000 		.4byte	.LFB8
 2199 0054 6C000000 		.4byte	.LFE8-.LFB8
ARM GAS  /tmp/ccSmTGI4.s 			page 40


 2200 0058 00000000 		.4byte	0
 2201 005c 00000000 		.4byte	0
 2202              		.section	.debug_ranges,"",%progbits
 2203              	.Ldebug_ranges0:
 2204 0000 00000000 		.4byte	.LFB0
 2205 0004 54000000 		.4byte	.LFE0
 2206 0008 00000000 		.4byte	.LFB1
 2207 000c 54000000 		.4byte	.LFE1
 2208 0010 00000000 		.4byte	.LFB2
 2209 0014 2C000000 		.4byte	.LFE2
 2210 0018 00000000 		.4byte	.LFB3
 2211 001c 28000000 		.4byte	.LFE3
 2212 0020 00000000 		.4byte	.LFB4
 2213 0024 48000000 		.4byte	.LFE4
 2214 0028 00000000 		.4byte	.LFB5
 2215 002c 90000000 		.4byte	.LFE5
 2216 0030 00000000 		.4byte	.LFB6
 2217 0034 2C000000 		.4byte	.LFE6
 2218 0038 00000000 		.4byte	.LFB7
 2219 003c 20000000 		.4byte	.LFE7
 2220 0040 00000000 		.4byte	.LFB8
 2221 0044 6C000000 		.4byte	.LFE8
 2222 0048 00000000 		.4byte	0
 2223 004c 00000000 		.4byte	0
 2224              		.section	.debug_line,"",%progbits
 2225              	.Ldebug_line0:
 2226 0000 9E020000 		.section	.debug_str,"MS",%progbits,1
 2226      02002101 
 2226      00000201 
 2226      FB0E0D00 
 2226      01010101 
 2227              	.LASF41:
 2228 0000 504D435F 		.ascii	"PMC_FOCR\000"
 2228      464F4352 
 2228      00
 2229              	.LASF40:
 2230 0009 504D435F 		.ascii	"PMC_FSPR\000"
 2230      46535052 
 2230      00
 2231              	.LASF36:
 2232 0012 504D435F 		.ascii	"PMC_IDR\000"
 2232      49445200 
 2233              	.LASF19:
 2234 001a 504D435F 		.ascii	"PMC_SCSR\000"
 2234      53435352 
 2234      00
 2235              	.LASF50:
 2236 0023 504D435F 		.ascii	"PMC_OCR\000"
 2236      4F435200 
 2237              	.LASF65:
 2238 002b 706C6C61 		.ascii	"pllab\000"
 2238      6200
 2239              	.LASF2:
 2240 0031 73686F72 		.ascii	"short int\000"
 2240      7420696E 
 2240      7400
 2241              	.LASF16:
ARM GAS  /tmp/ccSmTGI4.s 			page 41


 2242 003b 73697A65 		.ascii	"sizetype\000"
 2242      74797065 
 2242      00
 2243              	.LASF60:
 2244 0044 64775072 		.ascii	"dwPrescaler\000"
 2244      65736361 
 2244      6C657200 
 2245              	.LASF56:
 2246 0050 504D435F 		.ascii	"PMC_EnableAllPeripherals\000"
 2246      456E6162 
 2246      6C65416C 
 2246      6C506572 
 2246      69706865 
 2247              	.LASF6:
 2248 0069 5F5F7569 		.ascii	"__uint32_t\000"
 2248      6E743332 
 2248      5F7400
 2249              	.LASF21:
 2250 0074 504D435F 		.ascii	"PMC_PCER0\000"
 2250      50434552 
 2250      3000
 2251              	.LASF46:
 2252 007e 504D435F 		.ascii	"PMC_PCER1\000"
 2252      50434552 
 2252      3100
 2253              	.LASF14:
 2254 0088 576F5265 		.ascii	"WoReg\000"
 2254      6700
 2255              	.LASF39:
 2256 008e 504D435F 		.ascii	"PMC_FSMR\000"
 2256      46534D52 
 2256      00
 2257              	.LASF20:
 2258 0097 52657365 		.ascii	"Reserved1\000"
 2258      72766564 
 2258      3100
 2259              	.LASF24:
 2260 00a1 52657365 		.ascii	"Reserved2\000"
 2260      72766564 
 2260      3200
 2261              	.LASF11:
 2262 00ab 75696E74 		.ascii	"uint8_t\000"
 2262      385F7400 
 2263              	.LASF32:
 2264 00b3 52657365 		.ascii	"Reserved4\000"
 2264      72766564 
 2264      3400
 2265              	.LASF34:
 2266 00bd 52657365 		.ascii	"Reserved5\000"
 2266      72766564 
 2266      3500
 2267              	.LASF42:
 2268 00c7 52657365 		.ascii	"Reserved6\000"
 2268      72766564 
 2268      3600
 2269              	.LASF45:
 2270 00d1 52657365 		.ascii	"Reserved7\000"
ARM GAS  /tmp/ccSmTGI4.s 			page 42


 2270      72766564 
 2270      3700
 2271              	.LASF69:
 2272 00db 2E2E2F2E 		.ascii	"../../os/hal/platforms/AT91SAM3S/pmc.c\000"
 2272      2E2F6F73 
 2272      2F68616C 
 2272      2F706C61 
 2272      74666F72 
 2273              	.LASF25:
 2274 0102 434B4752 		.ascii	"CKGR_MOR\000"
 2274      5F4D4F52 
 2274      00
 2275              	.LASF57:
 2276 010b 504D435F 		.ascii	"PMC_DisableAllPeripherals\000"
 2276      44697361 
 2276      626C6541 
 2276      6C6C5065 
 2276      72697068 
 2277              	.LASF22:
 2278 0125 504D435F 		.ascii	"PMC_PCDR0\000"
 2278      50434452 
 2278      3000
 2279              	.LASF47:
 2280 012f 504D435F 		.ascii	"PMC_PCDR1\000"
 2280      50434452 
 2280      3100
 2281              	.LASF35:
 2282 0139 504D435F 		.ascii	"PMC_IER\000"
 2282      49455200 
 2283              	.LASF8:
 2284 0141 6C6F6E67 		.ascii	"long long int\000"
 2284      206C6F6E 
 2284      6720696E 
 2284      7400
 2285              	.LASF29:
 2286 014f 504D435F 		.ascii	"PMC_MCKR\000"
 2286      4D434B52 
 2286      00
 2287              	.LASF71:
 2288 0158 504D435F 		.ascii	"PMC_IsPeriphEnabled\000"
 2288      49735065 
 2288      72697068 
 2288      456E6162 
 2288      6C656400 
 2289              	.LASF4:
 2290 016c 6C6F6E67 		.ascii	"long int\000"
 2290      20696E74 
 2290      00
 2291              	.LASF5:
 2292 0175 5F5F7569 		.ascii	"__uint8_t\000"
 2292      6E74385F 
 2292      7400
 2293              	.LASF58:
 2294 017f 506D634D 		.ascii	"PmcMasterClockSelection\000"
 2294      61737465 
 2294      72436C6F 
 2294      636B5365 
ARM GAS  /tmp/ccSmTGI4.s 			page 43


 2294      6C656374 
 2295              	.LASF38:
 2296 0197 504D435F 		.ascii	"PMC_IMR\000"
 2296      494D5200 
 2297              	.LASF13:
 2298 019f 526F5265 		.ascii	"RoReg\000"
 2298      6700
 2299              	.LASF1:
 2300 01a5 756E7369 		.ascii	"unsigned char\000"
 2300      676E6564 
 2300      20636861 
 2300      7200
 2301              	.LASF43:
 2302 01b3 504D435F 		.ascii	"PMC_WPMR\000"
 2302      57504D52 
 2302      00
 2303              	.LASF64:
 2304 01bc 506D6343 		.ascii	"PmcConfigurePllClock\000"
 2304      6F6E6669 
 2304      67757265 
 2304      506C6C43 
 2304      6C6F636B 
 2305              	.LASF15:
 2306 01d1 52775265 		.ascii	"RwReg\000"
 2306      6700
 2307              	.LASF0:
 2308 01d7 7369676E 		.ascii	"signed char\000"
 2308      65642063 
 2308      68617200 
 2309              	.LASF9:
 2310 01e3 6C6F6E67 		.ascii	"long long unsigned int\000"
 2310      206C6F6E 
 2310      6720756E 
 2310      7369676E 
 2310      65642069 
 2311              	.LASF12:
 2312 01fa 75696E74 		.ascii	"uint32_t\000"
 2312      33325F74 
 2312      00
 2313              	.LASF10:
 2314 0203 756E7369 		.ascii	"unsigned int\000"
 2314      676E6564 
 2314      20696E74 
 2314      00
 2315              	.LASF23:
 2316 0210 504D435F 		.ascii	"PMC_PCSR0\000"
 2316      50435352 
 2316      3000
 2317              	.LASF48:
 2318 021a 504D435F 		.ascii	"PMC_PCSR1\000"
 2318      50435352 
 2318      3100
 2319              	.LASF67:
 2320 0224 64774469 		.ascii	"dwDiv\000"
 2320      7600
 2321              	.LASF44:
 2322 022a 504D435F 		.ascii	"PMC_WPSR\000"
ARM GAS  /tmp/ccSmTGI4.s 			page 44


 2322      57505352 
 2322      00
 2323              	.LASF31:
 2324 0233 504D435F 		.ascii	"PMC_USB\000"
 2324      55534200 
 2325              	.LASF55:
 2326 023b 5F5F6675 		.ascii	"__func__\000"
 2326      6E635F5F 
 2326      00
 2327              	.LASF3:
 2328 0244 73686F72 		.ascii	"short unsigned int\000"
 2328      7420756E 
 2328      7369676E 
 2328      65642069 
 2328      6E7400
 2329              	.LASF37:
 2330 0257 504D435F 		.ascii	"PMC_SR\000"
 2330      535200
 2331              	.LASF51:
 2332 025e 63686172 		.ascii	"char\000"
 2332      00
 2333              	.LASF70:
 2334 0263 2F686F6D 		.ascii	"/home/alejandro/Desktop/ChibiOS/sam3s/blink\000"
 2334      652F616C 
 2334      656A616E 
 2334      64726F2F 
 2334      4465736B 
 2335              	.LASF59:
 2336 028f 6477436C 		.ascii	"dwClockSource\000"
 2336      6F636B53 
 2336      6F757263 
 2336      6500
 2337              	.LASF68:
 2338 029d 474E5520 		.ascii	"GNU C 4.8.4 20140526 (release) [ARM/embedded-4_8-br"
 2338      4320342E 
 2338      382E3420 
 2338      32303134 
 2338      30353236 
 2339 02d0 616E6368 		.ascii	"anch revision 211358] -mcpu=cortex-m3 -mno-thumb-in"
 2339      20726576 
 2339      6973696F 
 2339      6E203231 
 2339      31333538 
 2340 0303 74657277 		.ascii	"terwork -mthumb -ggdb -O2 -std=gnu99 -fomit-frame-p"
 2340      6F726B20 
 2340      2D6D7468 
 2340      756D6220 
 2340      2D676764 
 2341 0336 6F696E74 		.ascii	"ointer -falign-functions=16 -ffunction-sections -fd"
 2341      6572202D 
 2341      66616C69 
 2341      676E2D66 
 2341      756E6374 
 2342 0369 6174612D 		.ascii	"ata-sections -fno-common\000"
 2342      73656374 
 2342      696F6E73 
 2342      202D666E 
ARM GAS  /tmp/ccSmTGI4.s 			page 45


 2342      6F2D636F 
 2343              	.LASF66:
 2344 0382 64774D75 		.ascii	"dwMul\000"
 2344      6C00
 2345              	.LASF54:
 2346 0388 64774964 		.ascii	"dwId\000"
 2346      00
 2347              	.LASF27:
 2348 038d 434B4752 		.ascii	"CKGR_PLLAR\000"
 2348      5F504C4C 
 2348      415200
 2349              	.LASF17:
 2350 0398 504D435F 		.ascii	"PMC_SCER\000"
 2350      53434552 
 2350      00
 2351              	.LASF53:
 2352 03a1 504D435F 		.ascii	"PMC_DisablePeripheral\000"
 2352      44697361 
 2352      626C6550 
 2352      65726970 
 2352      68657261 
 2353              	.LASF63:
 2354 03b7 64775469 		.ascii	"dwTimeout\000"
 2354      6D656F75 
 2354      7400
 2355              	.LASF7:
 2356 03c1 6C6F6E67 		.ascii	"long unsigned int\000"
 2356      20756E73 
 2356      69676E65 
 2356      6420696E 
 2356      7400
 2357              	.LASF30:
 2358 03d3 52657365 		.ascii	"Reserved3\000"
 2358      72766564 
 2358      3300
 2359              	.LASF52:
 2360 03dd 504D435F 		.ascii	"PMC_EnablePeripheral\000"
 2360      456E6162 
 2360      6C655065 
 2360      72697068 
 2360      6572616C 
 2361              	.LASF26:
 2362 03f2 434B4752 		.ascii	"CKGR_MCFR\000"
 2362      5F4D4346 
 2362      5200
 2363              	.LASF49:
 2364 03fc 52657365 		.ascii	"Reserved8\000"
 2364      72766564 
 2364      3800
 2365              	.LASF62:
 2366 0406 506D634D 		.ascii	"PmcMainClockSwitchMainOsc\000"
 2366      61696E43 
 2366      6C6F636B 
 2366      53776974 
 2366      63684D61 
 2367              	.LASF61:
 2368 0420 436F6E66 		.ascii	"ConfigurePck\000"
ARM GAS  /tmp/ccSmTGI4.s 			page 46


 2368      69677572 
 2368      6550636B 
 2368      00
 2369              	.LASF72:
 2370 042d 5F5F6173 		.ascii	"__assert_func\000"
 2370      73657274 
 2370      5F66756E 
 2370      6300
 2371              	.LASF33:
 2372 043b 504D435F 		.ascii	"PMC_PCK\000"
 2372      50434B00 
 2373              	.LASF18:
 2374 0443 504D435F 		.ascii	"PMC_SCDR\000"
 2374      53434452 
 2374      00
 2375              	.LASF28:
 2376 044c 434B4752 		.ascii	"CKGR_PLLBR\000"
 2376      5F504C4C 
 2376      425200
 2377              		.ident	"GCC: (GNU Tools for ARM Embedded Processors) 4.8.4 20140526 (release) [ARM/embedded-4_8-br
ARM GAS  /tmp/ccSmTGI4.s 			page 47


DEFINED SYMBOLS
                            *ABS*:00000000 pmc.c
     /tmp/ccSmTGI4.s:19     .text.PMC_EnablePeripheral:00000000 $t
     /tmp/ccSmTGI4.s:25     .text.PMC_EnablePeripheral:00000000 PMC_EnablePeripheral
     /tmp/ccSmTGI4.s:90     .text.PMC_EnablePeripheral:00000044 $d
     /tmp/ccSmTGI4.s:98     .text.PMC_DisablePeripheral:00000000 $t
     /tmp/ccSmTGI4.s:104    .text.PMC_DisablePeripheral:00000000 PMC_DisablePeripheral
     /tmp/ccSmTGI4.s:169    .text.PMC_DisablePeripheral:00000044 $d
     /tmp/ccSmTGI4.s:177    .text.PMC_EnableAllPeripherals:00000000 $t
     /tmp/ccSmTGI4.s:183    .text.PMC_EnableAllPeripherals:00000000 PMC_EnableAllPeripherals
     /tmp/ccSmTGI4.s:214    .text.PMC_EnableAllPeripherals:00000028 $d
     /tmp/ccSmTGI4.s:219    .text.PMC_DisableAllPeripherals:00000000 $t
     /tmp/ccSmTGI4.s:225    .text.PMC_DisableAllPeripherals:00000000 PMC_DisableAllPeripherals
     /tmp/ccSmTGI4.s:255    .text.PMC_DisableAllPeripherals:00000024 $d
     /tmp/ccSmTGI4.s:260    .text.PMC_IsPeriphEnabled:00000000 $t
     /tmp/ccSmTGI4.s:266    .text.PMC_IsPeriphEnabled:00000000 PMC_IsPeriphEnabled
     /tmp/ccSmTGI4.s:319    .text.PMC_IsPeriphEnabled:00000038 $d
     /tmp/ccSmTGI4.s:327    .text.PmcMasterClockSelection:00000000 $t
     /tmp/ccSmTGI4.s:333    .text.PmcMasterClockSelection:00000000 PmcMasterClockSelection
     /tmp/ccSmTGI4.s:350    .text.PmcMasterClockSelection:0000000a $d
     /tmp/ccSmTGI4.s:354    .text.PmcMasterClockSelection:0000000e $t
     /tmp/ccSmTGI4.s:481    .text.PmcMasterClockSelection:0000008c $d
     /tmp/ccSmTGI4.s:486    .text.ConfigurePck:00000000 $t
     /tmp/ccSmTGI4.s:492    .text.ConfigurePck:00000000 ConfigurePck
     /tmp/ccSmTGI4.s:533    .text.ConfigurePck:00000024 $d
     /tmp/ccSmTGI4.s:539    .text.PmcMainClockSwitchMainOsc:00000000 $t
     /tmp/ccSmTGI4.s:545    .text.PmcMainClockSwitchMainOsc:00000000 PmcMainClockSwitchMainOsc
     /tmp/ccSmTGI4.s:581    .text.PmcMainClockSwitchMainOsc:00000018 $d
     /tmp/ccSmTGI4.s:587    .text.PmcConfigurePllClock:00000000 $t
     /tmp/ccSmTGI4.s:593    .text.PmcConfigurePllClock:00000000 PmcConfigurePllClock
     /tmp/ccSmTGI4.s:681    .text.PmcConfigurePllClock:00000064 $d
     /tmp/ccSmTGI4.s:687    .rodata.__func__.4781:00000000 $d
     /tmp/ccSmTGI4.s:691    .rodata.__func__.4781:00000000 __func__.4781
     /tmp/ccSmTGI4.s:694    .rodata.__func__.4777:00000000 $d
     /tmp/ccSmTGI4.s:698    .rodata.__func__.4777:00000000 __func__.4777
     /tmp/ccSmTGI4.s:701    .rodata.str1.4:00000000 $d
     /tmp/ccSmTGI4.s:708    .rodata.__func__.4803:00000000 $d
     /tmp/ccSmTGI4.s:712    .rodata.__func__.4803:00000000 __func__.4803
                     .debug_frame:00000010 $d
     /tmp/ccSmTGI4.s:97     .text.PMC_EnablePeripheral:00000054 $t
     /tmp/ccSmTGI4.s:176    .text.PMC_DisablePeripheral:00000054 $t
     /tmp/ccSmTGI4.s:218    .text.PMC_EnableAllPeripherals:0000002c $t
     /tmp/ccSmTGI4.s:259    .text.PMC_DisableAllPeripherals:00000028 $t
     /tmp/ccSmTGI4.s:326    .text.PMC_IsPeriphEnabled:00000048 $t
     /tmp/ccSmTGI4.s:538    .text.ConfigurePck:0000002c $t
     /tmp/ccSmTGI4.s:686    .text.PmcConfigurePllClock:0000006c $t

UNDEFINED SYMBOLS
__assert_func
