ARM GAS  /tmp/ccSmTGI4.s 			page 1


   1              		.syntax unified
   2              		.cpu cortex-m3
   3              		.fpu softvfp
   4              		.eabi_attribute 20, 1
   5              		.eabi_attribute 21, 1
   6              		.eabi_attribute 23, 3
   7              		.eabi_attribute 24, 1
   8              		.eabi_attribute 25, 1
   9              		.eabi_attribute 26, 1
  10              		.eabi_attribute 30, 2
  11              		.eabi_attribute 34, 1
  12              		.eabi_attribute 18, 4
  13              		.thumb
  14              		.file	"pmc.c"
  15              		.text
  16              	.Ltext0:
  17              		.cfi_sections	.debug_frame
  18              		.section	.text.PMC_EnablePeripheral,"ax",%progbits
  19              		.align	2
  20              		.p2align 4,,15
  21              		.global	PMC_EnablePeripheral
  22              		.thumb
  23              		.thumb_func
  24              		.type	PMC_EnablePeripheral, %function
  25              	PMC_EnablePeripheral:
  26              	.LFB0:
  27              		.file 1 "../../os/hal/platforms/AT91SAM3S/pmc.c"
  28              		.loc 1 62 0
  29              		.cfi_startproc
  30              		@ args = 0, pretend = 0, frame = 0
  31              		@ frame_needed = 0, uses_anonymous_args = 0
  32              	.LVL0:
  33              		.loc 1 63 0
  34 0000 2228     		cmp	r0, #34
  35              		.loc 1 62 0
  36 0002 08B5     		push	{r3, lr}
  37              		.cfi_def_cfa_offset 8
  38              		.cfi_offset 3, -8
  39              		.cfi_offset 14, -4
  40              		.loc 1 63 0
  41 0004 18D8     		bhi	.L6
  42              		.loc 1 65 0
  43 0006 1F28     		cmp	r0, #31
  44 0008 09D8     		bhi	.L3
  45              		.loc 1 67 0
  46 000a 0123     		movs	r3, #1
  47 000c 03FA00F0 		lsl	r0, r3, r0
  48              	.LVL1:
  49 0010 0C4B     		ldr	r3, .L7
  50 0012 9A69     		ldr	r2, [r3, #24]
  51 0014 0240     		ands	r2, r2, r0
  52 0016 9042     		cmp	r0, r2
  53 0018 0DD0     		beq	.L1
  54              		.loc 1 73 0
  55 001a 1861     		str	r0, [r3, #16]
  56 001c 08BD     		pop	{r3, pc}
  57              	.LVL2:
ARM GAS  /tmp/ccSmTGI4.s 			page 2


  58              	.L3:
  59              		.loc 1 79 0
  60 001e 0123     		movs	r3, #1
  61              		.loc 1 78 0
  62 0020 2038     		subs	r0, r0, #32
  63              	.LVL3:
  64              		.loc 1 79 0
  65 0022 03FA00F0 		lsl	r0, r3, r0
  66              	.LVL4:
  67 0026 074B     		ldr	r3, .L7
  68 0028 D3F80821 		ldr	r2, [r3, #264]
  69 002c 0240     		ands	r2, r2, r0
  70 002e 9042     		cmp	r0, r2
  71              		.loc 1 85 0
  72 0030 18BF     		it	ne
  73 0032 C3F80001 		strne	r0, [r3, #256]
  74              	.LVL5:
  75              	.L1:
  76 0036 08BD     		pop	{r3, pc}
  77              	.LVL6:
  78              	.L6:
  79              		.loc 1 63 0 discriminator 1
  80 0038 0348     		ldr	r0, .L7+4
  81              	.LVL7:
  82 003a 3F21     		movs	r1, #63
  83 003c 034A     		ldr	r2, .L7+8
  84 003e 044B     		ldr	r3, .L7+12
  85 0040 FFF7FEFF 		bl	__assert_func
  86              	.LVL8:
  87              	.L8:
  88              		.align	2
  89              	.L7:
  90 0044 00040E40 		.word	1074660352
  91 0048 00000000 		.word	.LC0
  92 004c 00000000 		.word	.LANCHOR0
  93 0050 28000000 		.word	.LC1
  94              		.cfi_endproc
  95              	.LFE0:
  96              		.size	PMC_EnablePeripheral, .-PMC_EnablePeripheral
  97 0054 AFF30080 		.section	.text.PMC_DisablePeripheral,"ax",%progbits
  97      AFF30080 
  97      AFF30080 
  98              		.align	2
  99              		.p2align 4,,15
 100              		.global	PMC_DisablePeripheral
 101              		.thumb
 102              		.thumb_func
 103              		.type	PMC_DisablePeripheral, %function
 104              	PMC_DisablePeripheral:
 105              	.LFB1:
 106              		.loc 1 99 0
 107              		.cfi_startproc
 108              		@ args = 0, pretend = 0, frame = 0
 109              		@ frame_needed = 0, uses_anonymous_args = 0
 110              	.LVL9:
 111              		.loc 1 100 0
 112 0000 2228     		cmp	r0, #34
ARM GAS  /tmp/ccSmTGI4.s 			page 3


 113              		.loc 1 99 0
 114 0002 08B5     		push	{r3, lr}
 115              		.cfi_def_cfa_offset 8
 116              		.cfi_offset 3, -8
 117              		.cfi_offset 14, -4
 118              		.loc 1 100 0
 119 0004 18D8     		bhi	.L13
 120              		.loc 1 102 0
 121 0006 1F28     		cmp	r0, #31
 122 0008 0CD9     		bls	.L14
 123              	.LVL10:
 124              		.loc 1 116 0
 125 000a 0123     		movs	r3, #1
 126              		.loc 1 115 0
 127 000c 2038     		subs	r0, r0, #32
 128              	.LVL11:
 129              		.loc 1 116 0
 130 000e 03FA00F0 		lsl	r0, r3, r0
 131              	.LVL12:
 132 0012 0C4B     		ldr	r3, .L15
 133 0014 D3F80821 		ldr	r2, [r3, #264]
 134 0018 0240     		ands	r2, r2, r0
 135 001a 9042     		cmp	r0, r2
 136              		.loc 1 122 0
 137 001c 08BF     		it	eq
 138 001e C3F80401 		streq	r0, [r3, #260]
 139              	.LVL13:
 140              	.L9:
 141 0022 08BD     		pop	{r3, pc}
 142              	.LVL14:
 143              	.L14:
 144              		.loc 1 104 0
 145 0024 0123     		movs	r3, #1
 146 0026 03FA00F0 		lsl	r0, r3, r0
 147              	.LVL15:
 148 002a 064B     		ldr	r3, .L15
 149 002c 9A69     		ldr	r2, [r3, #24]
 150 002e 0240     		ands	r2, r2, r0
 151 0030 9042     		cmp	r0, r2
 152 0032 F6D1     		bne	.L9
 153              		.loc 1 110 0
 154 0034 5861     		str	r0, [r3, #20]
 155 0036 08BD     		pop	{r3, pc}
 156              	.LVL16:
 157              	.L13:
 158              		.loc 1 100 0 discriminator 1
 159 0038 0348     		ldr	r0, .L15+4
 160              	.LVL17:
 161 003a 6421     		movs	r1, #100
 162 003c 034A     		ldr	r2, .L15+8
 163 003e 044B     		ldr	r3, .L15+12
 164 0040 FFF7FEFF 		bl	__assert_func
 165              	.LVL18:
 166              	.L16:
 167              		.align	2
 168              	.L15:
 169 0044 00040E40 		.word	1074660352
ARM GAS  /tmp/ccSmTGI4.s 			page 4


 170 0048 00000000 		.word	.LC0
 171 004c 00000000 		.word	.LANCHOR1
 172 0050 28000000 		.word	.LC1
 173              		.cfi_endproc
 174              	.LFE1:
 175              		.size	PMC_DisablePeripheral, .-PMC_DisablePeripheral
 176 0054 AFF30080 		.section	.text.PMC_EnableAllPeripherals,"ax",%progbits
 176      AFF30080 
 176      AFF30080 
 177              		.align	2
 178              		.p2align 4,,15
 179              		.global	PMC_EnableAllPeripherals
 180              		.thumb
 181              		.thumb_func
 182              		.type	PMC_EnableAllPeripherals, %function
 183              	PMC_EnableAllPeripherals:
 184              	.LFB2:
 185              		.loc 1 131 0
 186              		.cfi_startproc
 187              		@ args = 0, pretend = 0, frame = 0
 188              		@ frame_needed = 0, uses_anonymous_args = 0
 189              		@ link register save eliminated.
 190              		.loc 1 132 0
 191 0000 0949     		ldr	r1, .L22
 192 0002 6FF00303 		mvn	r3, #3
 193 0006 0B61     		str	r3, [r1, #16]
 194              	.L19:
 195              		.loc 1 133 0 discriminator 1
 196 0008 8B69     		ldr	r3, [r1, #24]
 197 000a 074A     		ldr	r2, .L22
 198 000c 23F00303 		bic	r3, r3, #3
 199 0010 0433     		adds	r3, r3, #4
 200 0012 F9D1     		bne	.L19
 201              		.loc 1 135 0
 202 0014 4FF0FF33 		mov	r3, #-1
 203 0018 C2F80031 		str	r3, [r2, #256]
 204              	.L21:
 205              		.loc 1 136 0 discriminator 1
 206 001c D2F80831 		ldr	r3, [r2, #264]
 207 0020 0133     		adds	r3, r3, #1
 208 0022 FBD1     		bne	.L21
 209              		.loc 1 139 0
 210 0024 7047     		bx	lr
 211              	.L23:
 212 0026 00BF     		.align	2
 213              	.L22:
 214 0028 00040E40 		.word	1074660352
 215              		.cfi_endproc
 216              	.LFE2:
 217              		.size	PMC_EnableAllPeripherals, .-PMC_EnableAllPeripherals
 218 002c AFF30080 		.section	.text.PMC_DisableAllPeripherals,"ax",%progbits
 219              		.align	2
 220              		.p2align 4,,15
 221              		.global	PMC_DisableAllPeripherals
 222              		.thumb
 223              		.thumb_func
 224              		.type	PMC_DisableAllPeripherals, %function
ARM GAS  /tmp/ccSmTGI4.s 			page 5


 225              	PMC_DisableAllPeripherals:
 226              	.LFB3:
 227              		.loc 1 145 0
 228              		.cfi_startproc
 229              		@ args = 0, pretend = 0, frame = 0
 230              		@ frame_needed = 0, uses_anonymous_args = 0
 231              		@ link register save eliminated.
 232              		.loc 1 146 0
 233 0000 0849     		ldr	r1, .L29
 234 0002 6FF00303 		mvn	r3, #3
 235 0006 4B61     		str	r3, [r1, #20]
 236              	.L26:
 237              		.loc 1 147 0 discriminator 1
 238 0008 8B69     		ldr	r3, [r1, #24]
 239 000a 064A     		ldr	r2, .L29
 240 000c 33F00300 		bics	r0, r3, #3
 241 0010 FAD1     		bne	.L26
 242              		.loc 1 149 0
 243 0012 4FF0FF33 		mov	r3, #-1
 244 0016 C2F80431 		str	r3, [r2, #260]
 245              	.L28:
 246              		.loc 1 150 0 discriminator 1
 247 001a D2F80831 		ldr	r3, [r2, #264]
 248 001e 002B     		cmp	r3, #0
 249 0020 FBD1     		bne	.L28
 250              		.loc 1 153 0
 251 0022 7047     		bx	lr
 252              	.L30:
 253              		.align	2
 254              	.L29:
 255 0024 00040E40 		.word	1074660352
 256              		.cfi_endproc
 257              	.LFE3:
 258              		.size	PMC_DisableAllPeripherals, .-PMC_DisableAllPeripherals
 259 0028 AFF30080 		.section	.text.PMC_IsPeriphEnabled,"ax",%progbits
 259      AFF30080 
 260              		.align	2
 261              		.p2align 4,,15
 262              		.global	PMC_IsPeriphEnabled
 263              		.thumb
 264              		.thumb_func
 265              		.type	PMC_IsPeriphEnabled, %function
 266              	PMC_IsPeriphEnabled:
 267              	.LFB4:
 268              		.loc 1 161 0
 269              		.cfi_startproc
 270              		@ args = 0, pretend = 0, frame = 0
 271              		@ frame_needed = 0, uses_anonymous_args = 0
 272              	.LVL19:
 273              		.loc 1 162 0
 274 0000 2228     		cmp	r0, #34
 275              		.loc 1 161 0
 276 0002 08B5     		push	{r3, lr}
 277              		.cfi_def_cfa_offset 8
 278              		.cfi_offset 3, -8
 279              		.cfi_offset 14, -4
 280              		.loc 1 162 0
ARM GAS  /tmp/ccSmTGI4.s 			page 6


 281 0004 11D8     		bhi	.L35
 282              		.loc 1 164 0
 283 0006 1F28     		cmp	r0, #31
 284 0008 08D9     		bls	.L36
 285              		.loc 1 169 0
 286 000a 0123     		movs	r3, #1
 287 000c 2038     		subs	r0, r0, #32
 288              	.LVL20:
 289 000e 03FA00F0 		lsl	r0, r3, r0
 290              	.LVL21:
 291 0012 094B     		ldr	r3, .L37
 292 0014 D3F80831 		ldr	r3, [r3, #264]
 293 0018 1840     		ands	r0, r0, r3
 294              		.loc 1 171 0
 295 001a 08BD     		pop	{r3, pc}
 296              	.LVL22:
 297              	.L36:
 298              		.loc 1 166 0
 299 001c 0123     		movs	r3, #1
 300 001e 03FA00F0 		lsl	r0, r3, r0
 301              	.LVL23:
 302 0022 054B     		ldr	r3, .L37
 303 0024 9B69     		ldr	r3, [r3, #24]
 304 0026 1840     		ands	r0, r0, r3
 305 0028 08BD     		pop	{r3, pc}
 306              	.LVL24:
 307              	.L35:
 308              		.loc 1 162 0 discriminator 1
 309 002a 0448     		ldr	r0, .L37+4
 310              	.LVL25:
 311 002c A221     		movs	r1, #162
 312 002e 044A     		ldr	r2, .L37+8
 313 0030 044B     		ldr	r3, .L37+12
 314 0032 FFF7FEFF 		bl	__assert_func
 315              	.LVL26:
 316              	.L38:
 317 0036 00BF     		.align	2
 318              	.L37:
 319 0038 00040E40 		.word	1074660352
 320 003c 00000000 		.word	.LC0
 321 0040 00000000 		.word	.LANCHOR2
 322 0044 28000000 		.word	.LC1
 323              		.cfi_endproc
 324              	.LFE4:
 325              		.size	PMC_IsPeriphEnabled, .-PMC_IsPeriphEnabled
 326 0048 AFF30080 		.section	.text.PmcMasterClockSelection,"ax",%progbits
 326      AFF30080 
 327              		.align	2
 328              		.p2align 4,,15
 329              		.global	PmcMasterClockSelection
 330              		.thumb
 331              		.thumb_func
 332              		.type	PmcMasterClockSelection, %function
 333              	PmcMasterClockSelection:
 334              	.LFB5:
 335              		.loc 1 175 0
 336              		.cfi_startproc
ARM GAS  /tmp/ccSmTGI4.s 			page 7


 337              		@ args = 0, pretend = 0, frame = 0
 338              		@ frame_needed = 0, uses_anonymous_args = 0
 339              		@ link register save eliminated.
 340              	.LVL27:
 341 0000 30B4     		push	{r4, r5}
 342              		.cfi_def_cfa_offset 8
 343              		.cfi_offset 4, -8
 344              		.cfi_offset 5, -4
 345              		.loc 1 178 0
 346 0002 0328     		cmp	r0, #3
 347 0004 20D8     		bhi	.L39
 348 0006 DFE800F0 		tbb	[pc, r0]
 349              	.L42:
 350 000a 02       		.byte	(.L41-.L42)/2
 351 000b 02       		.byte	(.L41-.L42)/2
 352 000c 21       		.byte	(.L43-.L42)/2
 353 000d 21       		.byte	(.L43-.L42)/2
 354              		.p2align 1
 355              	.L41:
 356              		.loc 1 183 0
 357 000e 1F4A     		ldr	r2, .L73
 358              		.loc 1 176 0
 359 0010 0023     		movs	r3, #0
 360              		.loc 1 183 0
 361 0012 156B     		ldr	r5, [r2, #48]
 362              		.loc 1 186 0
 363 0014 1446     		mov	r4, r2
 364              		.loc 1 183 0
 365 0016 25F00305 		bic	r5, r5, #3
 366 001a 2843     		orrs	r0, r0, r5
 367              	.LVL28:
 368 001c 1063     		str	r0, [r2, #48]
 369              		.loc 1 186 0
 370 001e 01E0     		b	.L45
 371              	.LVL29:
 372              	.L69:
 373              		.loc 1 186 0 is_stmt 0 discriminator 2
 374 0020 0133     		adds	r3, r3, #1
 375              	.LVL30:
 376 0022 02D0     		beq	.L44
 377              	.LVL31:
 378              	.L45:
 379              		.loc 1 186 0 discriminator 1
 380 0024 A26E     		ldr	r2, [r4, #104]
 381 0026 1507     		lsls	r5, r2, #28
 382 0028 FAD5     		bpl	.L69
 383              	.LVL32:
 384              	.L44:
 385              		.loc 1 189 0 is_stmt 1
 386 002a 184A     		ldr	r2, .L73
 387 002c 146B     		ldr	r4, [r2, #48]
 388              		.loc 1 192 0
 389 002e 1046     		mov	r0, r2
 390              		.loc 1 189 0
 391 0030 24F07004 		bic	r4, r4, #112
 392 0034 2143     		orrs	r1, r1, r4
 393              	.LVL33:
ARM GAS  /tmp/ccSmTGI4.s 			page 8


 394 0036 1163     		str	r1, [r2, #48]
 395              		.loc 1 192 0
 396 0038 02E0     		b	.L48
 397              	.LVL34:
 398              	.L70:
 399              		.loc 1 192 0 is_stmt 0 discriminator 2
 400 003a 0133     		adds	r3, r3, #1
 401 003c 04D0     		beq	.L39
 402              		.loc 1 192 0
 403 003e 0B46     		mov	r3, r1
 404              	.LVL35:
 405              	.L48:
 406              		.loc 1 192 0 discriminator 1
 407 0040 826E     		ldr	r2, [r0, #104]
 408 0042 591C     		adds	r1, r3, #1
 409              	.LVL36:
 410 0044 1407     		lsls	r4, r2, #28
 411 0046 F8D5     		bpl	.L70
 412              	.LVL37:
 413              	.L39:
 414              		.loc 1 210 0 is_stmt 1
 415 0048 30BC     		pop	{r4, r5}
 416 004a 7047     		bx	lr
 417              	.LVL38:
 418              	.L43:
 419              		.loc 1 198 0
 420 004c 0F4A     		ldr	r2, .L73
 421              		.loc 1 176 0
 422 004e 0023     		movs	r3, #0
 423              		.loc 1 198 0
 424 0050 156B     		ldr	r5, [r2, #48]
 425              		.loc 1 201 0
 426 0052 1446     		mov	r4, r2
 427              		.loc 1 198 0
 428 0054 25F07005 		bic	r5, r5, #112
 429 0058 2943     		orrs	r1, r1, r5
 430              	.LVL39:
 431 005a 1163     		str	r1, [r2, #48]
 432              		.loc 1 201 0
 433 005c 01E0     		b	.L50
 434              	.LVL40:
 435              	.L71:
 436              		.loc 1 201 0 is_stmt 0 discriminator 2
 437 005e 0133     		adds	r3, r3, #1
 438              	.LVL41:
 439 0060 02D0     		beq	.L49
 440              	.LVL42:
 441              	.L50:
 442              		.loc 1 201 0 discriminator 1
 443 0062 A26E     		ldr	r2, [r4, #104]
 444 0064 1107     		lsls	r1, r2, #28
 445 0066 FAD5     		bpl	.L71
 446              	.LVL43:
 447              	.L49:
 448              		.loc 1 204 0 is_stmt 1
 449 0068 084A     		ldr	r2, .L73
 450 006a 116B     		ldr	r1, [r2, #48]
ARM GAS  /tmp/ccSmTGI4.s 			page 9


 451              		.loc 1 207 0
 452 006c 1446     		mov	r4, r2
 453              		.loc 1 204 0
 454 006e 21F00301 		bic	r1, r1, #3
 455 0072 0843     		orrs	r0, r0, r1
 456              	.LVL44:
 457 0074 1063     		str	r0, [r2, #48]
 458              		.loc 1 207 0
 459 0076 02E0     		b	.L51
 460              	.LVL45:
 461              	.L72:
 462              		.loc 1 207 0 is_stmt 0 discriminator 2
 463 0078 0133     		adds	r3, r3, #1
 464 007a E5D0     		beq	.L39
 465              		.loc 1 207 0
 466 007c 0B46     		mov	r3, r1
 467              	.LVL46:
 468              	.L51:
 469              		.loc 1 207 0 discriminator 1
 470 007e A26E     		ldr	r2, [r4, #104]
 471 0080 591C     		adds	r1, r3, #1
 472              	.LVL47:
 473 0082 1207     		lsls	r2, r2, #28
 474 0084 F8D5     		bpl	.L72
 475              		.loc 1 210 0 is_stmt 1
 476 0086 30BC     		pop	{r4, r5}
 477 0088 7047     		bx	lr
 478              	.L74:
 479 008a 00BF     		.align	2
 480              	.L73:
 481 008c 00040E40 		.word	1074660352
 482              		.cfi_endproc
 483              	.LFE5:
 484              		.size	PmcMasterClockSelection, .-PmcMasterClockSelection
 485              		.section	.text.ConfigurePck,"ax",%progbits
 486              		.align	2
 487              		.p2align 4,,15
 488              		.global	ConfigurePck
 489              		.thumb
 490              		.thumb_func
 491              		.type	ConfigurePck, %function
 492              	ConfigurePck:
 493              	.LFB6:
 494              		.loc 1 213 0
 495              		.cfi_startproc
 496              		@ args = 0, pretend = 0, frame = 0
 497              		@ frame_needed = 0, uses_anonymous_args = 0
 498              		@ link register save eliminated.
 499              	.LVL48:
 500              		.loc 1 215 0
 501 0000 084B     		ldr	r3, .L78
 502 0002 094A     		ldr	r2, .L78+4
 503              		.loc 1 213 0
 504 0004 10B4     		push	{r4}
 505              		.cfi_def_cfa_offset 4
 506              		.cfi_offset 4, -4
 507              		.loc 1 219 0
ARM GAS  /tmp/ccSmTGI4.s 			page 10


 508 0006 0143     		orrs	r1, r1, r0
 509              	.LVL49:
 510              		.loc 1 217 0
 511 0008 4FF48064 		mov	r4, #1024
 512              		.loc 1 215 0
 513 000c C3F8E420 		str	r2, [r3, #228]
 514              		.loc 1 217 0
 515 0010 5C60     		str	r4, [r3, #4]
 516              		.loc 1 223 0
 517 0012 1A46     		mov	r2, r3
 518              		.loc 1 219 0
 519 0014 9964     		str	r1, [r3, #72]
 520              		.loc 1 221 0
 521 0016 1C60     		str	r4, [r3]
 522              	.L77:
 523              		.loc 1 223 0 discriminator 1
 524 0018 936E     		ldr	r3, [r2, #104]
 525 001a 5B05     		lsls	r3, r3, #21
 526 001c FCD5     		bpl	.L77
 527              		.loc 1 224 0
 528 001e 5DF8044B 		ldr	r4, [sp], #4
 529 0022 7047     		bx	lr
 530              	.L79:
 531              		.align	2
 532              	.L78:
 533 0024 00040E40 		.word	1074660352
 534 0028 00434D50 		.word	1347240704
 535              		.cfi_endproc
 536              	.LFE6:
 537              		.size	ConfigurePck, .-ConfigurePck
 538 002c AFF30080 		.section	.text.PmcMainClockSwitchMainOsc,"ax",%progbits
 539              		.align	2
 540              		.p2align 4,,15
 541              		.global	PmcMainClockSwitchMainOsc
 542              		.thumb
 543              		.thumb_func
 544              		.type	PmcMainClockSwitchMainOsc, %function
 545              	PmcMainClockSwitchMainOsc:
 546              	.LFB7:
 547              		.loc 1 228 0
 548              		.cfi_startproc
 549              		@ args = 0, pretend = 0, frame = 0
 550              		@ frame_needed = 0, uses_anonymous_args = 0
 551              		@ link register save eliminated.
 552              		.loc 1 232 0
 553 0000 054B     		ldr	r3, .L88
 554 0002 064A     		ldr	r2, .L88+4
 555              		.loc 1 235 0
 556 0004 1946     		mov	r1, r3
 557              		.loc 1 232 0
 558 0006 1A62     		str	r2, [r3, #32]
 559              	.LVL50:
 560              		.loc 1 235 0
 561 0008 0023     		movs	r3, #0
 562 000a 01E0     		b	.L82
 563              	.LVL51:
 564              	.L87:
ARM GAS  /tmp/ccSmTGI4.s 			page 11


 565              		.loc 1 235 0 is_stmt 0 discriminator 2
 566 000c 013B     		subs	r3, r3, #1
 567              	.LVL52:
 568 000e 02D0     		beq	.L80
 569              	.LVL53:
 570              	.L82:
 571              		.loc 1 235 0 discriminator 1
 572 0010 8A6E     		ldr	r2, [r1, #104]
 573 0012 D203     		lsls	r2, r2, #15
 574 0014 FAD5     		bpl	.L87
 575              	.LVL54:
 576              	.L80:
 577 0016 7047     		bx	lr
 578              	.L89:
 579              		.align	2
 580              	.L88:
 581 0018 00040E40 		.word	1074660352
 582 001c 09083701 		.word	20383753
 583              		.cfi_endproc
 584              	.LFE7:
 585              		.size	PmcMainClockSwitchMainOsc, .-PmcMainClockSwitchMainOsc
 586              		.section	.text.PmcConfigurePllClock,"ax",%progbits
 587              		.align	2
 588              		.p2align 4,,15
 589              		.global	PmcConfigurePllClock
 590              		.thumb
 591              		.thumb_func
 592              		.type	PmcConfigurePllClock, %function
 593              	PmcConfigurePllClock:
 594              	.LFB8:
 595              		.loc 1 240 0 is_stmt 1
 596              		.cfi_startproc
 597              		@ args = 0, pretend = 0, frame = 0
 598              		@ frame_needed = 0, uses_anonymous_args = 0
 599              		@ link register save eliminated.
 600              	.LVL55:
 601 0000 10B4     		push	{r4}
 602              		.cfi_def_cfa_offset 4
 603              		.cfi_offset 4, -4
 604              		.loc 1 243 0
 605 0002 A8B9     		cbnz	r0, .L91
 606              		.loc 1 246 0
 607 0004 174B     		ldr	r3, .L111
 608 0006 42F00054 		orr	r4, r2, #536870912
 609 000a 0A04     		lsls	r2, r1, #16
 610              	.LVL56:
 611 000c 1340     		ands	r3, r3, r2
 612 000e 44F4F854 		orr	r4, r4, #7936
 613 0012 154A     		ldr	r2, .L111+4
 614 0014 2343     		orrs	r3, r3, r4
 615 0016 9362     		str	r3, [r2, #40]
 616              		.loc 1 249 0
 617 0018 21B9     		cbnz	r1, .L94
 618              	.LVL57:
 619              	.L90:
 620              		.loc 1 268 0
 621 001a 5DF8044B 		ldr	r4, [sp], #4
ARM GAS  /tmp/ccSmTGI4.s 			page 12


 622 001e 7047     		bx	lr
 623              	.LVL58:
 624              	.L109:
 625              		.loc 1 252 0 discriminator 2
 626 0020 0138     		subs	r0, r0, #1
 627              	.LVL59:
 628 0022 FAD0     		beq	.L90
 629              	.LVL60:
 630              	.L94:
 631              		.loc 1 252 0 is_stmt 0 discriminator 1
 632 0024 936E     		ldr	r3, [r2, #104]
 633 0026 9907     		lsls	r1, r3, #30
 634 0028 FAD5     		bpl	.L109
 635              		.loc 1 268 0 is_stmt 1
 636 002a 5DF8044B 		ldr	r4, [sp], #4
 637 002e 7047     		bx	lr
 638              	.LVL61:
 639              	.L91:
 640              		.loc 1 256 0
 641 0030 0128     		cmp	r0, #1
 642 0032 F2D1     		bne	.L90
 643              		.loc 1 259 0
 644 0034 0B4B     		ldr	r3, .L111
 645 0036 0804     		lsls	r0, r1, #16
 646              	.LVL62:
 647 0038 42F00052 		orr	r2, r2, #536870912
 648              	.LVL63:
 649 003c 0340     		ands	r3, r3, r0
 650 003e 42F4F852 		orr	r2, r2, #7936
 651 0042 0948     		ldr	r0, .L111+4
 652 0044 1A43     		orrs	r2, r2, r3
 653 0046 C262     		str	r2, [r0, #44]
 654              		.loc 1 262 0
 655 0048 0029     		cmp	r1, #0
 656 004a E6D0     		beq	.L90
 657              		.loc 1 265 0
 658 004c 0146     		mov	r1, r0
 659              	.LVL64:
 660              		.loc 1 262 0
 661 004e 0023     		movs	r3, #0
 662 0050 01E0     		b	.L95
 663              	.LVL65:
 664              	.L110:
 665              		.loc 1 265 0 discriminator 2
 666 0052 013B     		subs	r3, r3, #1
 667              	.LVL66:
 668 0054 E1D0     		beq	.L90
 669              	.LVL67:
 670              	.L95:
 671              		.loc 1 265 0 is_stmt 0 discriminator 1
 672 0056 8A6E     		ldr	r2, [r1, #104]
 673 0058 5207     		lsls	r2, r2, #29
 674 005a FAD5     		bpl	.L110
 675              		.loc 1 268 0 is_stmt 1
 676 005c 5DF8044B 		ldr	r4, [sp], #4
 677 0060 7047     		bx	lr
 678              	.L112:
ARM GAS  /tmp/ccSmTGI4.s 			page 13


 679 0062 00BF     		.align	2
 680              	.L111:
 681 0064 0000FF07 		.word	134152192
 682 0068 00040E40 		.word	1074660352
 683              		.cfi_endproc
 684              	.LFE8:
 685              		.size	PmcConfigurePllClock, .-PmcConfigurePllClock
 686 006c AFF30080 		.section	.rodata.__func__.4781,"a",%progbits
 687              		.align	2
 688              		.set	.LANCHOR1,. + 0
 689              		.type	__func__.4781, %object
 690              		.size	__func__.4781, 22
 691              	__func__.4781:
 692 0000 504D435F 		.ascii	"PMC_DisablePeripheral\000"
 692      44697361 
 692      626C6550 
 692      65726970 
 692      68657261 
 693 0016 0000     		.section	.rodata.__func__.4777,"a",%progbits
 694              		.align	2
 695              		.set	.LANCHOR0,. + 0
 696              		.type	__func__.4777, %object
 697              		.size	__func__.4777, 21
 698              	__func__.4777:
 699 0000 504D435F 		.ascii	"PMC_EnablePeripheral\000"
 699      456E6162 
 699      6C655065 
 699      72697068 
 699      6572616C 
 700 0015 000000   		.section	.rodata.str1.4,"aMS",%progbits,1
 701              		.align	2
 702              	.LC0:
 703 0000 2E2E2F2E 		.ascii	"../../os/hal/platforms/AT91SAM3S/pmc.c\000"
 703      2E2F6F73 
 703      2F68616C 
 703      2F706C61 
 703      74666F72 
 704 0027 00       		.space	1
 705              	.LC1:
 706 0028 64774964 		.ascii	"dwId < 35\000"
 706      203C2033 
 706      3500
 707 0032 0000     		.section	.rodata.__func__.4803,"a",%progbits
 708              		.align	2
 709              		.set	.LANCHOR2,. + 0
 710              		.type	__func__.4803, %object
 711              		.size	__func__.4803, 20
 712              	__func__.4803:
 713 0000 504D435F 		.ascii	"PMC_IsPeriphEnabled\000"
 713      49735065 
 713      72697068 
 713      456E6162 
 713      6C656400 
 714              		.text
 715              	.Letext0:
 716              		.file 2 "/usr/local/gcc-arm-none-eabi-4_8-2014q2/arm-none-eabi/include/machine/_default_types.h"
 717              		.file 3 "/usr/local/gcc-arm-none-eabi-4_8-2014q2/arm-none-eabi/include/stdint.h"
ARM GAS  /tmp/ccSmTGI4.s 			page 14


 718              		.file 4 "../../os/hal/platforms/AT91SAM3S/at91lib/SAM3S.h"
 719              		.file 5 "/usr/local/gcc-arm-none-eabi-4_8-2014q2/arm-none-eabi/include/assert.h"