ARM GAS  /tmp/cc01KxiS.s 			page 1


   1              		.syntax unified
   2              		.cpu cortex-m3
   3              		.fpu softvfp
   4              		.eabi_attribute 20, 1
   5              		.eabi_attribute 21, 1
   6              		.eabi_attribute 23, 3
   7              		.eabi_attribute 24, 1
   8              		.eabi_attribute 25, 1
   9              		.eabi_attribute 26, 1
  10              		.eabi_attribute 30, 2
  11              		.eabi_attribute 34, 1
  12              		.eabi_attribute 18, 4
  13              		.thumb
  14              		.file	"serial_lld.c"
  15              		.text
  16              	.Ltext0:
  17              		.cfi_sections	.debug_frame
  18              		.section	.text.notify1,"ax",%progbits
  19              		.align	2
  20              		.p2align 4,,15
  21              		.thumb
  22              		.thumb_func
  23              		.type	notify1, %function
  24              	notify1:
  25              	.LFB40:
  26              		.file 1 "ChibiOS//os/hal/platforms/AT91SAM3S/serial_lld.c"
  27              		.loc 1 174 0
  28              		.cfi_startproc
  29              		@ args = 0, pretend = 0, frame = 0
  30              		@ frame_needed = 0, uses_anonymous_args = 0
  31              		@ link register save eliminated.
  32              	.LVL0:
  33              		.loc 1 177 0
  34 0000 014B     		ldr	r3, .L2
  35 0002 0222     		movs	r2, #2
  36 0004 9A60     		str	r2, [r3, #8]
  37 0006 7047     		bx	lr
  38              	.L3:
  39              		.align	2
  40              	.L2:
  41 0008 00060E40 		.word	1074660864
  42              		.cfi_endproc
  43              	.LFE40:
  44              		.size	notify1, .-notify1
  45              		.section	.text.notify2,"ax",%progbits
  46              		.align	2
  47              		.p2align 4,,15
  48              		.thumb
  49              		.thumb_func
  50              		.type	notify2, %function
  51              	notify2:
  52              	.LFB41:
  53              		.loc 1 183 0
  54              		.cfi_startproc
  55              		@ args = 0, pretend = 0, frame = 0
  56              		@ frame_needed = 0, uses_anonymous_args = 0
  57              		@ link register save eliminated.
ARM GAS  /tmp/cc01KxiS.s 			page 2


  58              	.LVL1:
  59              		.loc 1 186 0
  60 0000 014B     		ldr	r3, .L5
  61 0002 0222     		movs	r2, #2
  62 0004 9A60     		str	r2, [r3, #8]
  63 0006 7047     		bx	lr
  64              	.L6:
  65              		.align	2
  66              	.L5:
  67 0008 00080E40 		.word	1074661376
  68              		.cfi_endproc
  69              	.LFE41:
  70              		.size	notify2, .-notify2
  71              		.section	.text.serve_interrupt,"ax",%progbits
  72              		.align	2
  73              		.p2align 4,,15
  74              		.thumb
  75              		.thumb_func
  76              		.type	serve_interrupt, %function
  77              	serve_interrupt:
  78              	.LFB39:
  79              		.loc 1 136 0
  80              		.cfi_startproc
  81              		@ args = 0, pretend = 0, frame = 0
  82              		@ frame_needed = 0, uses_anonymous_args = 0
  83              	.LVL2:
  84 0000 70B5     		push	{r4, r5, r6, lr}
  85              		.cfi_def_cfa_offset 16
  86              		.cfi_offset 4, -16
  87              		.cfi_offset 5, -12
  88              		.cfi_offset 6, -8
  89              		.cfi_offset 14, -4
  90              		.loc 1 138 0
  91 0002 056F     		ldr	r5, [r0, #112]
  92              	.LVL3:
  93              		.loc 1 136 0
  94 0004 0646     		mov	r6, r0
  95              		.loc 1 141 0
  96 0006 6C69     		ldr	r4, [r5, #20]
  97              	.LVL4:
  98              		.loc 1 144 0
  99 0008 E107     		lsls	r1, r4, #31
 100 000a 26D4     		bmi	.L37
 101              	.LVL5:
 102              	.L8:
 103              		.loc 1 151 0
 104 000c 2B69     		ldr	r3, [r5, #16]
 105 000e 9B07     		lsls	r3, r3, #30
 106 0010 01D5     		bpl	.L9
 107              		.loc 1 151 0 is_stmt 0 discriminator 1
 108 0012 A007     		lsls	r0, r4, #30
 109 0014 2CD4     		bmi	.L38
 110              	.L9:
 111              	.LVL6:
 112              		.loc 1 167 0 is_stmt 1
 113 0016 14F0E004 		ands	r4, r4, #224
 114              	.LVL7:
ARM GAS  /tmp/cc01KxiS.s 			page 3


 115 001a 1DD0     		beq	.L7
 116              		.loc 1 168 0
 117 001c A4B2     		uxth	r4, r4
 118              	.LVL8:
 119              	.LBB17:
 120              	.LBB18:
 121              		.loc 1 121 0
 122 001e 14F0200F 		tst	r4, #32
 123 0022 0CBF     		ite	eq
 124 0024 0022     		moveq	r2, #0
 125 0026 8022     		movne	r2, #128
 126              	.LVL9:
 127              		.loc 1 122 0
 128 0028 2106     		lsls	r1, r4, #24
 129              		.loc 1 123 0
 130 002a 48BF     		it	mi
 131 002c 42F02002 		orrmi	r2, r2, #32
 132              	.LVL10:
 133              		.loc 1 124 0
 134 0030 6306     		lsls	r3, r4, #25
 135              		.loc 1 125 0
 136 0032 48BF     		it	mi
 137 0034 42F04002 		orrmi	r2, r2, #64
 138              	.LVL11:
 139              	.LBB19:
 140              		.loc 1 126 0
 141 0038 2023     		movs	r3, #32
 142              	@ 126 "ChibiOS//os/hal/platforms/AT91SAM3S/serial_lld.c" 1
 143 003a 83F31188 		msr     BASEPRI, r3
 144              	@ 0 "" 2
 145              		.thumb
 146              	.LBE19:
 147              		.loc 1 127 0
 148 003e B368     		ldr	r3, [r6, #8]
 149 0040 301D     		adds	r0, r6, #4
 150 0042 1A43     		orrs	r2, r2, r3
 151              	.LVL12:
 152 0044 B260     		str	r2, [r6, #8]
 153 0046 0021     		movs	r1, #0
 154 0048 FFF7FEFF 		bl	chEvtBroadcastFlagsI
 155              	.LVL13:
 156              	.LBB20:
 157              		.loc 1 128 0
 158 004c 0023     		movs	r3, #0
 159              	@ 128 "ChibiOS//os/hal/platforms/AT91SAM3S/serial_lld.c" 1
 160 004e 83F31188 		msr     BASEPRI, r3
 161              	@ 0 "" 2
 162              		.thumb
 163              	.LBE20:
 164              	.LBE18:
 165              	.LBE17:
 166              		.loc 1 169 0
 167 0052 4FF48073 		mov	r3, #256
 168 0056 2B60     		str	r3, [r5]
 169              	.LVL14:
 170              	.L7:
 171 0058 70BD     		pop	{r4, r5, r6, pc}
ARM GAS  /tmp/cc01KxiS.s 			page 4


 172              	.LVL15:
 173              	.L37:
 174              	.LBB21:
 175              		.loc 1 145 0
 176 005a 2023     		movs	r3, #32
 177              	@ 145 "ChibiOS//os/hal/platforms/AT91SAM3S/serial_lld.c" 1
 178 005c 83F31188 		msr     BASEPRI, r3
 179              	@ 0 "" 2
 180              		.thumb
 181              	.LBE21:
 182              		.loc 1 146 0
 183 0060 A969     		ldr	r1, [r5, #24]
 184 0062 C9B2     		uxtb	r1, r1
 185 0064 FFF7FEFF 		bl	sdIncomingDataI
 186              	.LVL16:
 187              	.LBB22:
 188              		.loc 1 147 0
 189 0068 0023     		movs	r3, #0
 190              	@ 147 "ChibiOS//os/hal/platforms/AT91SAM3S/serial_lld.c" 1
 191 006a 83F31188 		msr     BASEPRI, r3
 192              	@ 0 "" 2
 193              		.thumb
 194 006e CDE7     		b	.L8
 195              	.L38:
 196              	.LBE22:
 197              	.LBB23:
 198              	.LBB24:
 199              		.loc 1 154 0
 200 0070 2023     		movs	r3, #32
 201              	@ 154 "ChibiOS//os/hal/platforms/AT91SAM3S/serial_lld.c" 1
 202 0072 83F31188 		msr     BASEPRI, r3
 203              	@ 0 "" 2
 204              		.thumb
 205              	.LBE24:
 206              		.loc 1 155 0
 207 0076 06F13000 		add	r0, r6, #48
 208 007a FFF7FEFF 		bl	chOQGetI
 209              	.LVL17:
 210              		.loc 1 156 0
 211 007e 0028     		cmp	r0, #0
 212 0080 04DB     		blt	.L39
 213              		.loc 1 161 0
 214 0082 E861     		str	r0, [r5, #28]
 215              	.LVL18:
 216              	.L11:
 217              	.LBB25:
 218              		.loc 1 162 0
 219 0084 0023     		movs	r3, #0
 220              	@ 162 "ChibiOS//os/hal/platforms/AT91SAM3S/serial_lld.c" 1
 221 0086 83F31188 		msr     BASEPRI, r3
 222              	@ 0 "" 2
 223              		.thumb
 224 008a C4E7     		b	.L9
 225              	.LVL19:
 226              	.L39:
 227              	.LBE25:
 228              		.loc 1 157 0
ARM GAS  /tmp/cc01KxiS.s 			page 5


 229 008c B368     		ldr	r3, [r6, #8]
 230 008e 301D     		adds	r0, r6, #4
 231              	.LVL20:
 232 0090 43F00803 		orr	r3, r3, #8
 233 0094 B360     		str	r3, [r6, #8]
 234 0096 0021     		movs	r1, #0
 235 0098 FFF7FEFF 		bl	chEvtBroadcastFlagsI
 236              	.LVL21:
 237              		.loc 1 158 0
 238 009c 0223     		movs	r3, #2
 239 009e EB60     		str	r3, [r5, #12]
 240 00a0 F0E7     		b	.L11
 241              	.LBE23:
 242              		.cfi_endproc
 243              	.LFE39:
 244              		.size	serve_interrupt, .-serve_interrupt
 245 00a2 00BF     		.section	.text.Vector60,"ax",%progbits
 246              		.align	2
 247              		.p2align 4,,15
 248              		.global	Vector60
 249              		.thumb
 250              		.thumb_func
 251              		.type	Vector60, %function
 252              	Vector60:
 253              	.LFB42:
 254              		.loc 1 201 0
 255              		.cfi_startproc
 256              		@ args = 0, pretend = 0, frame = 0
 257              		@ frame_needed = 0, uses_anonymous_args = 0
 258 0000 08B5     		push	{r3, lr}
 259              		.cfi_def_cfa_offset 8
 260              		.cfi_offset 3, -8
 261              		.cfi_offset 14, -4
 262              		.loc 1 205 0
 263 0002 0348     		ldr	r0, .L42
 264 0004 FFF7FEFF 		bl	serve_interrupt
 265              	.LVL22:
 266              		.loc 1 208 0
 267 0008 BDE80840 		pop	{r3, lr}
 268              		.cfi_restore 14
 269              		.cfi_restore 3
 270              		.cfi_def_cfa_offset 0
 271              		.loc 1 207 0
 272 000c FFF7FEBF 		b	_port_irq_epilogue
 273              	.LVL23:
 274              	.L43:
 275              		.align	2
 276              	.L42:
 277 0010 00000000 		.word	.LANCHOR0
 278              		.cfi_endproc
 279              	.LFE42:
 280              		.size	Vector60, .-Vector60
 281              		.section	.text.Vector64,"ax",%progbits
 282              		.align	2
 283              		.p2align 4,,15
 284              		.global	Vector64
 285              		.thumb
ARM GAS  /tmp/cc01KxiS.s 			page 6


 286              		.thumb_func
 287              		.type	Vector64, %function
 288              	Vector64:
 289              	.LFB43:
 290              		.loc 1 218 0
 291              		.cfi_startproc
 292              		@ args = 0, pretend = 0, frame = 0
 293              		@ frame_needed = 0, uses_anonymous_args = 0
 294 0000 08B5     		push	{r3, lr}
 295              		.cfi_def_cfa_offset 8
 296              		.cfi_offset 3, -8
 297              		.cfi_offset 14, -4
 298              		.loc 1 222 0
 299 0002 0348     		ldr	r0, .L46
 300 0004 FFF7FEFF 		bl	serve_interrupt
 301              	.LVL24:
 302              		.loc 1 225 0
 303 0008 BDE80840 		pop	{r3, lr}
 304              		.cfi_restore 14
 305              		.cfi_restore 3
 306              		.cfi_def_cfa_offset 0
 307              		.loc 1 224 0
 308 000c FFF7FEBF 		b	_port_irq_epilogue
 309              	.LVL25:
 310              	.L47:
 311              		.align	2
 312              	.L46:
 313 0010 00000000 		.word	.LANCHOR1
 314              		.cfi_endproc
 315              	.LFE43:
 316              		.size	Vector64, .-Vector64
 317              		.section	.text.sd_lld_init,"ax",%progbits
 318              		.align	2
 319              		.p2align 4,,15
 320              		.global	sd_lld_init
 321              		.thumb
 322              		.thumb_func
 323              		.type	sd_lld_init, %function
 324              	sd_lld_init:
 325              	.LFB44:
 326              		.loc 1 238 0
 327              		.cfi_startproc
 328              		@ args = 0, pretend = 0, frame = 0
 329              		@ frame_needed = 0, uses_anonymous_args = 0
 330 0000 70B5     		push	{r4, r5, r6, lr}
 331              		.cfi_def_cfa_offset 16
 332              		.cfi_offset 4, -16
 333              		.cfi_offset 5, -12
 334              		.cfi_offset 6, -8
 335              		.cfi_offset 14, -4
 336              		.loc 1 241 0
 337 0002 0D4D     		ldr	r5, .L50
 338 0004 0021     		movs	r1, #0
 339 0006 2846     		mov	r0, r5
 340 0008 0C4A     		ldr	r2, .L50+4
 341 000a FFF7FEFF 		bl	sdObjectInit
 342              	.LVL26:
ARM GAS  /tmp/cc01KxiS.s 			page 7


 343              		.loc 1 248 0
 344 000e 0C4C     		ldr	r4, .L50+8
 345              		.loc 1 243 0
 346 0010 0C4B     		ldr	r3, .L50+12
 347 0012 4FF4C062 		mov	r2, #1536
 348              		.loc 1 242 0
 349 0016 0C4E     		ldr	r6, .L50+16
 350              		.loc 1 243 0
 351 0018 5A60     		str	r2, [r3, #4]
 352              		.loc 1 248 0
 353 001a 0021     		movs	r1, #0
 354              		.loc 1 244 0
 355 001c 1A66     		str	r2, [r3, #96]
 356              		.loc 1 248 0
 357 001e 2046     		mov	r0, r4
 358 0020 0A4A     		ldr	r2, .L50+20
 359              		.loc 1 242 0
 360 0022 2E67     		str	r6, [r5, #112]
 361              		.loc 1 248 0
 362 0024 FFF7FEFF 		bl	sdObjectInit
 363              	.LVL27:
 364              		.loc 1 250 0
 365 0028 094B     		ldr	r3, .L50+24
 366              		.loc 1 249 0
 367 002a 0A49     		ldr	r1, .L50+28
 368              		.loc 1 250 0
 369 002c 0C22     		movs	r2, #12
 370              		.loc 1 249 0
 371 002e 2167     		str	r1, [r4, #112]
 372              		.loc 1 250 0
 373 0030 5A60     		str	r2, [r3, #4]
 374              		.loc 1 251 0
 375 0032 1A66     		str	r2, [r3, #96]
 376 0034 70BD     		pop	{r4, r5, r6, pc}
 377              	.L51:
 378 0036 00BF     		.align	2
 379              	.L50:
 380 0038 00000000 		.word	.LANCHOR0
 381 003c 00000000 		.word	notify1
 382 0040 00000000 		.word	.LANCHOR1
 383 0044 000E0E40 		.word	1074662912
 384 0048 00060E40 		.word	1074660864
 385 004c 00000000 		.word	notify2
 386 0050 00100E40 		.word	1074663424
 387 0054 00080E40 		.word	1074661376
 388              		.cfi_endproc
 389              	.LFE44:
 390              		.size	sd_lld_init, .-sd_lld_init
 391              		.section	.text.sd_lld_start,"ax",%progbits
 392              		.align	2
 393              		.p2align 4,,15
 394              		.global	sd_lld_start
 395              		.thumb
 396              		.thumb_func
 397              		.type	sd_lld_start, %function
 398              	sd_lld_start:
 399              	.LFB45:
ARM GAS  /tmp/cc01KxiS.s 			page 8


 400              		.loc 1 266 0
 401              		.cfi_startproc
 402              		@ args = 0, pretend = 0, frame = 0
 403              		@ frame_needed = 0, uses_anonymous_args = 0
 404              	.LVL28:
 405 0000 70B5     		push	{r4, r5, r6, lr}
 406              		.cfi_def_cfa_offset 16
 407              		.cfi_offset 4, -16
 408              		.cfi_offset 5, -12
 409              		.cfi_offset 6, -8
 410              		.cfi_offset 14, -4
 411              		.loc 1 271 0
 412 0002 037B     		ldrb	r3, [r0, #12]	@ zero_extendqisi2
 413              		.loc 1 269 0
 414 0004 204D     		ldr	r5, .L59
 415              		.loc 1 266 0
 416 0006 0446     		mov	r4, r0
 417              		.loc 1 269 0
 418 0008 0029     		cmp	r1, #0
 419 000a 18BF     		it	ne
 420 000c 0D46     		movne	r5, r1
 421              	.LVL29:
 422              		.loc 1 271 0
 423 000e 012B     		cmp	r3, #1
 424 0010 16D0     		beq	.L57
 425              	.LVL30:
 426              	.L54:
 427 0012 246F     		ldr	r4, [r4, #112]
 428              	.LVL31:
 429              	.LBB26:
 430              	.LBB27:
 431              		.loc 1 81 0
 432 0014 FFF7FEFF 		bl	SystemCoreClockUpdate
 433              	.LVL32:
 434              		.loc 1 82 0
 435 0018 1C4A     		ldr	r2, .L59+4
 436              		.loc 1 89 0
 437 001a 2B68     		ldr	r3, [r5]
 438              		.loc 1 82 0
 439 001c 1268     		ldr	r2, [r2]
 440              	.LVL33:
 441              		.loc 1 89 0
 442 001e 1B01     		lsls	r3, r3, #4
 443 0020 B2FBF3F3 		udiv	r3, r2, r3
 444              		.loc 1 90 0
 445 0024 6868     		ldr	r0, [r5, #4]
 446              		.loc 1 85 0
 447 0026 4FF0FF36 		mov	r6, #-1
 448              		.loc 1 86 0
 449 002a 4FF48675 		mov	r5, #268
 450              	.LVL34:
 451              		.loc 1 93 0
 452 002e 5021     		movs	r1, #80
 453              		.loc 1 94 0
 454 0030 E322     		movs	r2, #227
 455              	.LVL35:
 456              		.loc 1 85 0
ARM GAS  /tmp/cc01KxiS.s 			page 9


 457 0032 E660     		str	r6, [r4, #12]
 458              		.loc 1 86 0
 459 0034 2560     		str	r5, [r4]
 460              		.loc 1 89 0
 461 0036 2362     		str	r3, [r4, #32]
 462              		.loc 1 90 0
 463 0038 6060     		str	r0, [r4, #4]
 464              		.loc 1 93 0
 465 003a 2160     		str	r1, [r4]
 466              		.loc 1 94 0
 467 003c A260     		str	r2, [r4, #8]
 468 003e 70BD     		pop	{r4, r5, r6, pc}
 469              	.LVL36:
 470              	.L57:
 471              	.LBE27:
 472              	.LBE26:
 473              		.loc 1 273 0
 474 0040 134B     		ldr	r3, .L59+8
 475 0042 9842     		cmp	r0, r3
 476 0044 11D0     		beq	.L58
 477              		.loc 1 289 0
 478 0046 134B     		ldr	r3, .L59+12
 479 0048 9842     		cmp	r0, r3
 480 004a E2D1     		bne	.L54
 481              		.loc 1 294 0
 482 004c 124B     		ldr	r3, .L59+16
 483 004e 1348     		ldr	r0, .L59+20
 484              	.LVL37:
 485              		.loc 1 296 0
 486 0050 134A     		ldr	r2, .L59+24
 487              		.loc 1 295 0
 488 0052 4FF40071 		mov	r1, #512
 489              		.loc 1 294 0
 490 0056 C3F8E400 		str	r0, [r3, #228]
 491              		.loc 1 295 0
 492 005a 1961     		str	r1, [r3, #16]
 493              		.loc 1 300 0
 494 005c 0920     		movs	r0, #9
 495 005e C021     		movs	r1, #192
 496              		.loc 1 296 0
 497 0060 C3F8E420 		str	r2, [r3, #228]
 498              		.loc 1 300 0
 499 0064 FFF7FEFF 		bl	nvicEnableVector
 500              	.LVL38:
 501 0068 D3E7     		b	.L54
 502              	.LVL39:
 503              	.L58:
 504              		.loc 1 278 0
 505 006a 0B4B     		ldr	r3, .L59+16
 506 006c 0B48     		ldr	r0, .L59+20
 507              	.LVL40:
 508              		.loc 1 280 0
 509 006e 0C4A     		ldr	r2, .L59+24
 510              		.loc 1 279 0
 511 0070 4FF48071 		mov	r1, #256
 512              		.loc 1 278 0
 513 0074 C3F8E400 		str	r0, [r3, #228]
ARM GAS  /tmp/cc01KxiS.s 			page 10


 514              		.loc 1 279 0
 515 0078 1961     		str	r1, [r3, #16]
 516              		.loc 1 284 0
 517 007a 0820     		movs	r0, #8
 518 007c C021     		movs	r1, #192
 519              		.loc 1 280 0
 520 007e C3F8E420 		str	r2, [r3, #228]
 521              		.loc 1 284 0
 522 0082 FFF7FEFF 		bl	nvicEnableVector
 523              	.LVL41:
 524 0086 C4E7     		b	.L54
 525              	.L60:
 526              		.align	2
 527              	.L59:
 528 0088 00000000 		.word	.LANCHOR2
 529 008c 00000000 		.word	SystemCoreClock
 530 0090 00000000 		.word	.LANCHOR0
 531 0094 00000000 		.word	.LANCHOR1
 532 0098 00040E40 		.word	1074660352
 533 009c 00434D50 		.word	1347240704
 534 00a0 01434D50 		.word	1347240705
 535              		.cfi_endproc
 536              	.LFE45:
 537              		.size	sd_lld_start, .-sd_lld_start
 538              		.section	.text.sd_lld_stop,"ax",%progbits
 539              		.align	2
 540              		.p2align 4,,15
 541              		.global	sd_lld_stop
 542              		.thumb
 543              		.thumb_func
 544              		.type	sd_lld_stop, %function
 545              	sd_lld_stop:
 546              	.LFB46:
 547              		.loc 1 317 0
 548              		.cfi_startproc
 549              		@ args = 0, pretend = 0, frame = 0
 550              		@ frame_needed = 0, uses_anonymous_args = 0
 551              		@ link register save eliminated.
 552              	.LVL42:
 553              		.loc 1 319 0
 554 0000 037B     		ldrb	r3, [r0, #12]	@ zero_extendqisi2
 555 0002 022B     		cmp	r3, #2
 556 0004 00D0     		beq	.L70
 557              		.loc 1 355 0
 558 0006 7047     		bx	lr
 559              	.L70:
 560              		.loc 1 317 0
 561 0008 30B4     		push	{r4, r5}
 562              		.cfi_def_cfa_offset 8
 563              		.cfi_offset 4, -8
 564              		.cfi_offset 5, -4
 565              		.loc 1 322 0
 566 000a 184D     		ldr	r5, .L72
 567              		.loc 1 320 0
 568 000c 036F     		ldr	r3, [r0, #112]
 569              	.LVL43:
 570              	.LBB28:
ARM GAS  /tmp/cc01KxiS.s 			page 11


 571              	.LBB29:
 572              		.loc 1 106 0
 573 000e 4FF0FF34 		mov	r4, #-1
 574              		.loc 1 107 0
 575 0012 4FF48671 		mov	r1, #268
 576              		.loc 1 108 0
 577 0016 0022     		movs	r2, #0
 578              	.LBE29:
 579              	.LBE28:
 580              		.loc 1 322 0
 581 0018 A842     		cmp	r0, r5
 582              	.LBB31:
 583              	.LBB30:
 584              		.loc 1 106 0
 585 001a DC60     		str	r4, [r3, #12]
 586              		.loc 1 107 0
 587 001c 1960     		str	r1, [r3]
 588              		.loc 1 108 0
 589 001e 5A60     		str	r2, [r3, #4]
 590              	.LBE30:
 591              	.LBE31:
 592              		.loc 1 322 0
 593 0020 15D0     		beq	.L71
 594              	.LVL44:
 595              		.loc 1 340 0
 596 0022 134D     		ldr	r5, .L72+4
 597              	.LBB32:
 598              	.LBB33:
 599              		.loc 1 106 0
 600 0024 DC60     		str	r4, [r3, #12]
 601              	.LBE33:
 602              	.LBE32:
 603              		.loc 1 340 0
 604 0026 A842     		cmp	r0, r5
 605              	.LBB35:
 606              	.LBB34:
 607              		.loc 1 107 0
 608 0028 1960     		str	r1, [r3]
 609              		.loc 1 108 0
 610 002a 5A60     		str	r2, [r3, #4]
 611              	.LBE34:
 612              	.LBE35:
 613              		.loc 1 340 0
 614 002c 01D0     		beq	.L65
 615              		.loc 1 355 0
 616 002e 30BC     		pop	{r4, r5}
 617              		.cfi_remember_state
 618              		.cfi_restore 5
 619              		.cfi_restore 4
 620              		.cfi_def_cfa_offset 0
 621 0030 7047     		bx	lr
 622              	.L65:
 623              		.cfi_restore_state
 624              		.loc 1 345 0
 625 0032 104B     		ldr	r3, .L72+8
 626              	.LVL45:
 627 0034 1048     		ldr	r0, .L72+12
ARM GAS  /tmp/cc01KxiS.s 			page 12


 628              	.LVL46:
 629              		.loc 1 347 0
 630 0036 114A     		ldr	r2, .L72+16
 631              		.loc 1 346 0
 632 0038 4FF40071 		mov	r1, #512
 633              		.loc 1 345 0
 634 003c C3F8E400 		str	r0, [r3, #228]
 635              		.loc 1 355 0
 636 0040 30BC     		pop	{r4, r5}
 637              		.cfi_remember_state
 638              		.cfi_restore 5
 639              		.cfi_restore 4
 640              		.cfi_def_cfa_offset 0
 641              		.loc 1 346 0
 642 0042 5961     		str	r1, [r3, #20]
 643              		.loc 1 349 0
 644 0044 0920     		movs	r0, #9
 645              		.loc 1 347 0
 646 0046 C3F8E420 		str	r2, [r3, #228]
 647              		.loc 1 349 0
 648 004a FFF7FEBF 		b	nvicDisableVector
 649              	.LVL47:
 650              	.L71:
 651              		.cfi_restore_state
 652              		.loc 1 327 0
 653 004e 094B     		ldr	r3, .L72+8
 654              	.LVL48:
 655 0050 0948     		ldr	r0, .L72+12
 656              	.LVL49:
 657              		.loc 1 329 0
 658 0052 0A4A     		ldr	r2, .L72+16
 659              		.loc 1 328 0
 660 0054 4FF48071 		mov	r1, #256
 661              		.loc 1 327 0
 662 0058 C3F8E400 		str	r0, [r3, #228]
 663              		.loc 1 355 0
 664 005c 30BC     		pop	{r4, r5}
 665              		.cfi_restore 5
 666              		.cfi_restore 4
 667              		.cfi_def_cfa_offset 0
 668              		.loc 1 328 0
 669 005e 5961     		str	r1, [r3, #20]
 670              		.loc 1 331 0
 671 0060 0820     		movs	r0, #8
 672              		.loc 1 329 0
 673 0062 C3F8E420 		str	r2, [r3, #228]
 674              		.loc 1 331 0
 675 0066 FFF7FEBF 		b	nvicDisableVector
 676              	.LVL50:
 677              	.L73:
 678 006a 00BF     		.align	2
 679              	.L72:
 680 006c 00000000 		.word	.LANCHOR0
 681 0070 00000000 		.word	.LANCHOR1
 682 0074 00040E40 		.word	1074660352
 683 0078 00434D50 		.word	1347240704
 684 007c 01434D50 		.word	1347240705
ARM GAS  /tmp/cc01KxiS.s 			page 13


 685              		.cfi_endproc
 686              	.LFE46:
 687              		.size	sd_lld_stop, .-sd_lld_stop
 688              		.global	SD2
 689              		.global	SD1
 690              		.section	.rodata.default_config,"a",%progbits
 691              		.align	2
 692              		.set	.LANCHOR2,. + 0
 693              		.type	default_config, %object
 694              		.size	default_config, 8
 695              	default_config:
 696 0000 00C20100 		.word	115200
 697 0004 00280000 		.word	10240
 698              		.section	.bss.SD1,"aw",%nobits
 699              		.align	2
 700              		.set	.LANCHOR0,. + 0
 701              		.type	SD1, %object
 702              		.size	SD1, 116
 703              	SD1:
 704 0000 00000000 		.space	116
 704      00000000 
 704      00000000 
 704      00000000 
 704      00000000 
 705              		.section	.bss.SD2,"aw",%nobits
 706              		.align	2
 707              		.set	.LANCHOR1,. + 0
 708              		.type	SD2, %object
 709              		.size	SD2, 116
 710              	SD2:
 711 0000 00000000 		.space	116
 711      00000000 
 711      00000000 
 711      00000000 
 711      00000000 
 712              		.text
 713              	.Letext0:
 714              		.file 2 "/usr/lib/gcc/arm-none-eabi/4.9.3/include/stddef.h"
 715              		.file 3 "/usr/include/newlib/machine/_default_types.h"
 716              		.file 4 "/usr/include/newlib/sys/_stdint.h"
 717              		.file 5 "/usr/include/newlib/stdint.h"
 718              		.file 6 "ChibiOS//os/ports/GCC/ARMCMx/chtypes.h"
 719              		.file 7 "ChibiOS//os/kernel/include/chlists.h"
 720              		.file 8 "ChibiOS//os/kernel/include/chthreads.h"
 721              		.file 9 "ChibiOS//os/ports/GCC/ARMCMx/chcore_v7m.h"
 722              		.file 10 "ChibiOS//os/kernel/include/chmtx.h"
 723              		.file 11 "ChibiOS//os/kernel/include/chevents.h"
 724              		.file 12 "ChibiOS//os/kernel/include/chqueues.h"
 725              		.file 13 "ChibiOS//os/kernel/include/chioch.h"
 726              		.file 14 "ChibiOS//os/hal/platforms/AT91SAM3S/at91lib/SAM3S.h"
 727              		.file 15 "ChibiOS//os/hal/include/serial.h"
 728              		.file 16 "ChibiOS//os/hal/platforms/AT91SAM3S/serial_lld.h"
 729              		.file 17 "ChibiOS//os/hal/platforms/AT91SAM3S/core_cm3.h"
 730              		.file 18 "ChibiOS//os/hal/platforms/AT91SAM3S/system_SAM3.h"
 731              		.file 19 "ChibiOS//os/ports/common/ARMCMx/nvic.h"
 732              		.section	.debug_info,"",%progbits
 733              	.Ldebug_info0:
ARM GAS  /tmp/cc01KxiS.s 			page 14


 734 0000 90150000 		.4byte	0x1590
 735 0004 0400     		.2byte	0x4
 736 0006 00000000 		.4byte	.Ldebug_abbrev0
 737 000a 04       		.byte	0x4
 738 000b 01       		.uleb128 0x1
 739 000c 02080000 		.4byte	.LASF288
 740 0010 01       		.byte	0x1
 741 0011 6B050000 		.4byte	.LASF289
 742 0015 20070000 		.4byte	.LASF290
 743 0019 30000000 		.4byte	.Ldebug_ranges0+0x30
 744 001d 00000000 		.4byte	0
 745 0021 00000000 		.4byte	.Ldebug_line0
 746 0025 02       		.uleb128 0x2
 747 0026 04       		.byte	0x4
 748 0027 05       		.byte	0x5
 749 0028 696E7400 		.ascii	"int\000"
 750 002c 03       		.uleb128 0x3
 751 002d 25000000 		.4byte	.LASF2
 752 0031 02       		.byte	0x2
 753 0032 D4       		.byte	0xd4
 754 0033 37000000 		.4byte	0x37
 755 0037 04       		.uleb128 0x4
 756 0038 04       		.byte	0x4
 757 0039 07       		.byte	0x7
 758 003a 9B060000 		.4byte	.LASF0
 759 003e 04       		.uleb128 0x4
 760 003f 01       		.byte	0x1
 761 0040 06       		.byte	0x6
 762 0041 8D020000 		.4byte	.LASF1
 763 0045 03       		.uleb128 0x3
 764 0046 49010000 		.4byte	.LASF3
 765 004a 03       		.byte	0x3
 766 004b 1D       		.byte	0x1d
 767 004c 50000000 		.4byte	0x50
 768 0050 04       		.uleb128 0x4
 769 0051 01       		.byte	0x1
 770 0052 08       		.byte	0x8
 771 0053 C5020000 		.4byte	.LASF4
 772 0057 04       		.uleb128 0x4
 773 0058 02       		.byte	0x2
 774 0059 05       		.byte	0x5
 775 005a 490A0000 		.4byte	.LASF5
 776 005e 03       		.uleb128 0x3
 777 005f 6B030000 		.4byte	.LASF6
 778 0063 03       		.byte	0x3
 779 0064 2B       		.byte	0x2b
 780 0065 69000000 		.4byte	0x69
 781 0069 04       		.uleb128 0x4
 782 006a 02       		.byte	0x2
 783 006b 07       		.byte	0x7
 784 006c 4F0B0000 		.4byte	.LASF7
 785 0070 03       		.uleb128 0x3
 786 0071 960B0000 		.4byte	.LASF8
 787 0075 03       		.byte	0x3
 788 0076 3F       		.byte	0x3f
 789 0077 7B000000 		.4byte	0x7b
 790 007b 04       		.uleb128 0x4
ARM GAS  /tmp/cc01KxiS.s 			page 15


 791 007c 04       		.byte	0x4
 792 007d 05       		.byte	0x5
 793 007e AE010000 		.4byte	.LASF9
 794 0082 03       		.uleb128 0x3
 795 0083 BF050000 		.4byte	.LASF10
 796 0087 03       		.byte	0x3
 797 0088 41       		.byte	0x41
 798 0089 8D000000 		.4byte	0x8d
 799 008d 04       		.uleb128 0x4
 800 008e 04       		.byte	0x4
 801 008f 07       		.byte	0x7
 802 0090 E7040000 		.4byte	.LASF11
 803 0094 04       		.uleb128 0x4
 804 0095 08       		.byte	0x8
 805 0096 05       		.byte	0x5
 806 0097 E8050000 		.4byte	.LASF12
 807 009b 04       		.uleb128 0x4
 808 009c 08       		.byte	0x8
 809 009d 07       		.byte	0x7
 810 009e DA070000 		.4byte	.LASF13
 811 00a2 03       		.uleb128 0x3
 812 00a3 A0020000 		.4byte	.LASF14
 813 00a7 04       		.byte	0x4
 814 00a8 14       		.byte	0x14
 815 00a9 45000000 		.4byte	0x45
 816 00ad 03       		.uleb128 0x3
 817 00ae F9070000 		.4byte	.LASF15
 818 00b2 04       		.byte	0x4
 819 00b3 1A       		.byte	0x1a
 820 00b4 5E000000 		.4byte	0x5e
 821 00b8 03       		.uleb128 0x3
 822 00b9 6F000000 		.4byte	.LASF16
 823 00bd 04       		.byte	0x4
 824 00be 1F       		.byte	0x1f
 825 00bf 70000000 		.4byte	0x70
 826 00c3 03       		.uleb128 0x3
 827 00c4 F40A0000 		.4byte	.LASF17
 828 00c8 04       		.byte	0x4
 829 00c9 20       		.byte	0x20
 830 00ca 82000000 		.4byte	0x82
 831 00ce 03       		.uleb128 0x3
 832 00cf 1D0B0000 		.4byte	.LASF18
 833 00d3 05       		.byte	0x5
 834 00d4 3E       		.byte	0x3e
 835 00d5 37000000 		.4byte	0x37
 836 00d9 03       		.uleb128 0x3
 837 00da 7E0A0000 		.4byte	.LASF19
 838 00de 06       		.byte	0x6
 839 00df 2E       		.byte	0x2e
 840 00e0 B8000000 		.4byte	0xb8
 841 00e4 03       		.uleb128 0x3
 842 00e5 B6090000 		.4byte	.LASF20
 843 00e9 06       		.byte	0x6
 844 00ea 2F       		.byte	0x2f
 845 00eb A2000000 		.4byte	0xa2
 846 00ef 03       		.uleb128 0x3
 847 00f0 0C020000 		.4byte	.LASF21
ARM GAS  /tmp/cc01KxiS.s 			page 16


 848 00f4 06       		.byte	0x6
 849 00f5 30       		.byte	0x30
 850 00f6 A2000000 		.4byte	0xa2
 851 00fa 03       		.uleb128 0x3
 852 00fb AD0A0000 		.4byte	.LASF22
 853 00ff 06       		.byte	0x6
 854 0100 31       		.byte	0x31
 855 0101 A2000000 		.4byte	0xa2
 856 0105 03       		.uleb128 0x3
 857 0106 51000000 		.4byte	.LASF23
 858 010a 06       		.byte	0x6
 859 010b 32       		.byte	0x32
 860 010c C3000000 		.4byte	0xc3
 861 0110 03       		.uleb128 0x3
 862 0111 C8080000 		.4byte	.LASF24
 863 0115 06       		.byte	0x6
 864 0116 33       		.byte	0x33
 865 0117 B8000000 		.4byte	0xb8
 866 011b 03       		.uleb128 0x3
 867 011c A8020000 		.4byte	.LASF25
 868 0120 06       		.byte	0x6
 869 0121 35       		.byte	0x35
 870 0122 C3000000 		.4byte	0xc3
 871 0126 03       		.uleb128 0x3
 872 0127 41000000 		.4byte	.LASF26
 873 012b 06       		.byte	0x6
 874 012c 36       		.byte	0x36
 875 012d C3000000 		.4byte	0xc3
 876 0131 03       		.uleb128 0x3
 877 0132 850A0000 		.4byte	.LASF27
 878 0136 07       		.byte	0x7
 879 0137 2A       		.byte	0x2a
 880 0138 3C010000 		.4byte	0x13c
 881 013c 05       		.uleb128 0x5
 882 013d 850A0000 		.4byte	.LASF27
 883 0141 48       		.byte	0x48
 884 0142 08       		.byte	0x8
 885 0143 5E       		.byte	0x5e
 886 0144 2D020000 		.4byte	0x22d
 887 0148 06       		.uleb128 0x6
 888 0149 B7010000 		.4byte	.LASF28
 889 014d 08       		.byte	0x8
 890 014e 5F       		.byte	0x5f
 891 014f 4E020000 		.4byte	0x24e
 892 0153 00       		.byte	0
 893 0154 06       		.uleb128 0x6
 894 0155 CF010000 		.4byte	.LASF29
 895 0159 08       		.byte	0x8
 896 015a 61       		.byte	0x61
 897 015b 4E020000 		.4byte	0x24e
 898 015f 04       		.byte	0x4
 899 0160 06       		.uleb128 0x6
 900 0161 64030000 		.4byte	.LASF30
 901 0165 08       		.byte	0x8
 902 0166 63       		.byte	0x63
 903 0167 05010000 		.4byte	0x105
 904 016b 08       		.byte	0x8
ARM GAS  /tmp/cc01KxiS.s 			page 17


 905 016c 06       		.uleb128 0x6
 906 016d 4B000000 		.4byte	.LASF31
 907 0171 08       		.byte	0x8
 908 0172 64       		.byte	0x64
 909 0173 07030000 		.4byte	0x307
 910 0177 0C       		.byte	0xc
 911 0178 06       		.uleb128 0x6
 912 0179 A6010000 		.4byte	.LASF32
 913 017d 08       		.byte	0x8
 914 017e 66       		.byte	0x66
 915 017f 4E020000 		.4byte	0x24e
 916 0183 10       		.byte	0x10
 917 0184 06       		.uleb128 0x6
 918 0185 F1070000 		.4byte	.LASF33
 919 0189 08       		.byte	0x8
 920 018a 67       		.byte	0x67
 921 018b 4E020000 		.4byte	0x24e
 922 018f 14       		.byte	0x14
 923 0190 06       		.uleb128 0x6
 924 0191 CD0B0000 		.4byte	.LASF34
 925 0195 08       		.byte	0x8
 926 0196 6E       		.byte	0x6e
 927 0197 16040000 		.4byte	0x416
 928 019b 18       		.byte	0x18
 929 019c 06       		.uleb128 0x6
 930 019d 2F0C0000 		.4byte	.LASF35
 931 01a1 08       		.byte	0x8
 932 01a2 79       		.byte	0x79
 933 01a3 EF000000 		.4byte	0xef
 934 01a7 1C       		.byte	0x1c
 935 01a8 06       		.uleb128 0x6
 936 01a9 85060000 		.4byte	.LASF36
 937 01ad 08       		.byte	0x8
 938 01ae 7D       		.byte	0x7d
 939 01af E4000000 		.4byte	0xe4
 940 01b3 1D       		.byte	0x1d
 941 01b4 06       		.uleb128 0x6
 942 01b5 CC060000 		.4byte	.LASF37
 943 01b9 08       		.byte	0x8
 944 01ba 82       		.byte	0x82
 945 01bb FA000000 		.4byte	0xfa
 946 01bf 1E       		.byte	0x1e
 947 01c0 06       		.uleb128 0x6
 948 01c1 43070000 		.4byte	.LASF38
 949 01c5 08       		.byte	0x8
 950 01c6 89       		.byte	0x89
 951 01c7 34030000 		.4byte	0x334
 952 01cb 20       		.byte	0x20
 953 01cc 07       		.uleb128 0x7
 954 01cd 705F7500 		.ascii	"p_u\000"
 955 01d1 08       		.byte	0x8
 956 01d2 AE       		.byte	0xae
 957 01d3 E1030000 		.4byte	0x3e1
 958 01d7 24       		.byte	0x24
 959 01d8 06       		.uleb128 0x6
 960 01d9 75060000 		.4byte	.LASF39
 961 01dd 08       		.byte	0x8
ARM GAS  /tmp/cc01KxiS.s 			page 18


 962 01de B3       		.byte	0xb3
 963 01df 74020000 		.4byte	0x274
 964 01e3 28       		.byte	0x28
 965 01e4 06       		.uleb128 0x6
 966 01e5 64000000 		.4byte	.LASF40
 967 01e9 08       		.byte	0x8
 968 01ea B9       		.byte	0xb9
 969 01eb 54020000 		.4byte	0x254
 970 01ef 2C       		.byte	0x2c
 971 01f0 06       		.uleb128 0x6
 972 01f1 0A0C0000 		.4byte	.LASF41
 973 01f5 08       		.byte	0x8
 974 01f6 BD       		.byte	0xbd
 975 01f7 10010000 		.4byte	0x110
 976 01fb 34       		.byte	0x34
 977 01fc 06       		.uleb128 0x6
 978 01fd 2F040000 		.4byte	.LASF42
 979 0201 08       		.byte	0x8
 980 0202 C3       		.byte	0xc3
 981 0203 1B010000 		.4byte	0x11b
 982 0207 38       		.byte	0x38
 983 0208 06       		.uleb128 0x6
 984 0209 29020000 		.4byte	.LASF43
 985 020d 08       		.byte	0x8
 986 020e CA       		.byte	0xca
 987 020f 28040000 		.4byte	0x428
 988 0213 3C       		.byte	0x3c
 989 0214 06       		.uleb128 0x6
 990 0215 A0070000 		.4byte	.LASF44
 991 0219 08       		.byte	0x8
 992 021a CE       		.byte	0xce
 993 021b 05010000 		.4byte	0x105
 994 021f 40       		.byte	0x40
 995 0220 06       		.uleb128 0x6
 996 0221 BA060000 		.4byte	.LASF45
 997 0225 08       		.byte	0x8
 998 0226 D4       		.byte	0xd4
 999 0227 8A020000 		.4byte	0x28a
 1000 022b 44       		.byte	0x44
 1001 022c 00       		.byte	0
 1002 022d 08       		.uleb128 0x8
 1003 022e 08       		.byte	0x8
 1004 022f 07       		.byte	0x7
 1005 0230 61       		.byte	0x61
 1006 0231 4E020000 		.4byte	0x24e
 1007 0235 06       		.uleb128 0x6
 1008 0236 B7010000 		.4byte	.LASF28
 1009 023a 07       		.byte	0x7
 1010 023b 62       		.byte	0x62
 1011 023c 4E020000 		.4byte	0x24e
 1012 0240 00       		.byte	0
 1013 0241 06       		.uleb128 0x6
 1014 0242 CF010000 		.4byte	.LASF29
 1015 0246 07       		.byte	0x7
 1016 0247 64       		.byte	0x64
 1017 0248 4E020000 		.4byte	0x24e
 1018 024c 04       		.byte	0x4
ARM GAS  /tmp/cc01KxiS.s 			page 19


 1019 024d 00       		.byte	0
 1020 024e 09       		.uleb128 0x9
 1021 024f 04       		.byte	0x4
 1022 0250 31010000 		.4byte	0x131
 1023 0254 03       		.uleb128 0x3
 1024 0255 070B0000 		.4byte	.LASF46
 1025 0259 07       		.byte	0x7
 1026 025a 66       		.byte	0x66
 1027 025b 2D020000 		.4byte	0x22d
 1028 025f 08       		.uleb128 0x8
 1029 0260 04       		.byte	0x4
 1030 0261 07       		.byte	0x7
 1031 0262 6B       		.byte	0x6b
 1032 0263 74020000 		.4byte	0x274
 1033 0267 06       		.uleb128 0x6
 1034 0268 B7010000 		.4byte	.LASF28
 1035 026c 07       		.byte	0x7
 1036 026d 6D       		.byte	0x6d
 1037 026e 4E020000 		.4byte	0x24e
 1038 0272 00       		.byte	0
 1039 0273 00       		.byte	0
 1040 0274 03       		.uleb128 0x3
 1041 0275 0A070000 		.4byte	.LASF47
 1042 0279 07       		.byte	0x7
 1043 027a 70       		.byte	0x70
 1044 027b 5F020000 		.4byte	0x25f
 1045 027f 03       		.uleb128 0x3
 1046 0280 3A020000 		.4byte	.LASF48
 1047 0284 09       		.byte	0x9
 1048 0285 D7       		.byte	0xd7
 1049 0286 8A020000 		.4byte	0x28a
 1050 028a 0A       		.uleb128 0xa
 1051 028b 04       		.byte	0x4
 1052 028c 05       		.uleb128 0x5
 1053 028d 28040000 		.4byte	.LASF49
 1054 0291 24       		.byte	0x24
 1055 0292 09       		.byte	0x9
 1056 0293 FE       		.byte	0xfe
 1057 0294 07030000 		.4byte	0x307
 1058 0298 0B       		.uleb128 0xb
 1059 0299 723400   		.ascii	"r4\000"
 1060 029c 09       		.byte	0x9
 1061 029d 1101     		.2byte	0x111
 1062 029f 7F020000 		.4byte	0x27f
 1063 02a3 00       		.byte	0
 1064 02a4 0B       		.uleb128 0xb
 1065 02a5 723500   		.ascii	"r5\000"
 1066 02a8 09       		.byte	0x9
 1067 02a9 1201     		.2byte	0x112
 1068 02ab 7F020000 		.4byte	0x27f
 1069 02af 04       		.byte	0x4
 1070 02b0 0B       		.uleb128 0xb
 1071 02b1 723600   		.ascii	"r6\000"
 1072 02b4 09       		.byte	0x9
 1073 02b5 1301     		.2byte	0x113
 1074 02b7 7F020000 		.4byte	0x27f
 1075 02bb 08       		.byte	0x8
ARM GAS  /tmp/cc01KxiS.s 			page 20


 1076 02bc 0B       		.uleb128 0xb
 1077 02bd 723700   		.ascii	"r7\000"
 1078 02c0 09       		.byte	0x9
 1079 02c1 1401     		.2byte	0x114
 1080 02c3 7F020000 		.4byte	0x27f
 1081 02c7 0C       		.byte	0xc
 1082 02c8 0B       		.uleb128 0xb
 1083 02c9 723800   		.ascii	"r8\000"
 1084 02cc 09       		.byte	0x9
 1085 02cd 1501     		.2byte	0x115
 1086 02cf 7F020000 		.4byte	0x27f
 1087 02d3 10       		.byte	0x10
 1088 02d4 0B       		.uleb128 0xb
 1089 02d5 723900   		.ascii	"r9\000"
 1090 02d8 09       		.byte	0x9
 1091 02d9 1601     		.2byte	0x116
 1092 02db 7F020000 		.4byte	0x27f
 1093 02df 14       		.byte	0x14
 1094 02e0 0B       		.uleb128 0xb
 1095 02e1 72313000 		.ascii	"r10\000"
 1096 02e5 09       		.byte	0x9
 1097 02e6 1701     		.2byte	0x117
 1098 02e8 7F020000 		.4byte	0x27f
 1099 02ec 18       		.byte	0x18
 1100 02ed 0B       		.uleb128 0xb
 1101 02ee 72313100 		.ascii	"r11\000"
 1102 02f2 09       		.byte	0x9
 1103 02f3 1801     		.2byte	0x118
 1104 02f5 7F020000 		.4byte	0x27f
 1105 02f9 1C       		.byte	0x1c
 1106 02fa 0B       		.uleb128 0xb
 1107 02fb 6C7200   		.ascii	"lr\000"
 1108 02fe 09       		.byte	0x9
 1109 02ff 1901     		.2byte	0x119
 1110 0301 7F020000 		.4byte	0x27f
 1111 0305 20       		.byte	0x20
 1112 0306 00       		.byte	0
 1113 0307 0C       		.uleb128 0xc
 1114 0308 B4020000 		.4byte	.LASF50
 1115 030c 04       		.byte	0x4
 1116 030d 09       		.byte	0x9
 1117 030e 2301     		.2byte	0x123
 1118 0310 22030000 		.4byte	0x322
 1119 0314 0B       		.uleb128 0xb
 1120 0315 72313300 		.ascii	"r13\000"
 1121 0319 09       		.byte	0x9
 1122 031a 2401     		.2byte	0x124
 1123 031c 22030000 		.4byte	0x322
 1124 0320 00       		.byte	0
 1125 0321 00       		.byte	0
 1126 0322 09       		.uleb128 0x9
 1127 0323 04       		.byte	0x4
 1128 0324 8C020000 		.4byte	0x28c
 1129 0328 0D       		.uleb128 0xd
 1130 0329 C3000000 		.4byte	0xc3
 1131 032d 04       		.uleb128 0x4
 1132 032e 04       		.byte	0x4
ARM GAS  /tmp/cc01KxiS.s 			page 21


 1133 032f 07       		.byte	0x7
 1134 0330 2C000000 		.4byte	.LASF51
 1135 0334 0D       		.uleb128 0xd
 1136 0335 26010000 		.4byte	0x126
 1137 0339 05       		.uleb128 0x5
 1138 033a D2050000 		.4byte	.LASF52
 1139 033e 10       		.byte	0x10
 1140 033f 0A       		.byte	0xa
 1141 0340 2C       		.byte	0x2c
 1142 0341 6A030000 		.4byte	0x36a
 1143 0345 06       		.uleb128 0x6
 1144 0346 00060000 		.4byte	.LASF53
 1145 034a 0A       		.byte	0xa
 1146 034b 2D       		.byte	0x2d
 1147 034c 54020000 		.4byte	0x254
 1148 0350 00       		.byte	0
 1149 0351 06       		.uleb128 0x6
 1150 0352 38010000 		.4byte	.LASF54
 1151 0356 0A       		.byte	0xa
 1152 0357 2F       		.byte	0x2f
 1153 0358 4E020000 		.4byte	0x24e
 1154 035c 08       		.byte	0x8
 1155 035d 06       		.uleb128 0x6
 1156 035e D40B0000 		.4byte	.LASF55
 1157 0362 0A       		.byte	0xa
 1158 0363 31       		.byte	0x31
 1159 0364 6A030000 		.4byte	0x36a
 1160 0368 0C       		.byte	0xc
 1161 0369 00       		.byte	0
 1162 036a 09       		.uleb128 0x9
 1163 036b 04       		.byte	0x4
 1164 036c 39030000 		.4byte	0x339
 1165 0370 03       		.uleb128 0x3
 1166 0371 D2050000 		.4byte	.LASF52
 1167 0375 0A       		.byte	0xa
 1168 0376 33       		.byte	0x33
 1169 0377 39030000 		.4byte	0x339
 1170 037b 03       		.uleb128 0x3
 1171 037c B50A0000 		.4byte	.LASF56
 1172 0380 0B       		.byte	0xb
 1173 0381 29       		.byte	0x29
 1174 0382 86030000 		.4byte	0x386
 1175 0386 05       		.uleb128 0x5
 1176 0387 B50A0000 		.4byte	.LASF56
 1177 038b 0C       		.byte	0xc
 1178 038c 0B       		.byte	0xb
 1179 038d 2E       		.byte	0x2e
 1180 038e B7030000 		.4byte	0x3b7
 1181 0392 06       		.uleb128 0x6
 1182 0393 27050000 		.4byte	.LASF57
 1183 0397 0B       		.byte	0xb
 1184 0398 2F       		.byte	0x2f
 1185 0399 B7030000 		.4byte	0x3b7
 1186 039d 00       		.byte	0
 1187 039e 06       		.uleb128 0x6
 1188 039f 100C0000 		.4byte	.LASF58
 1189 03a3 0B       		.byte	0xb
ARM GAS  /tmp/cc01KxiS.s 			page 22


 1190 03a4 32       		.byte	0x32
 1191 03a5 4E020000 		.4byte	0x24e
 1192 03a9 04       		.byte	0x4
 1193 03aa 06       		.uleb128 0x6
 1194 03ab B10B0000 		.4byte	.LASF59
 1195 03af 0B       		.byte	0xb
 1196 03b0 34       		.byte	0x34
 1197 03b1 1B010000 		.4byte	0x11b
 1198 03b5 08       		.byte	0x8
 1199 03b6 00       		.byte	0
 1200 03b7 09       		.uleb128 0x9
 1201 03b8 04       		.byte	0x4
 1202 03b9 7B030000 		.4byte	0x37b
 1203 03bd 05       		.uleb128 0x5
 1204 03be DB040000 		.4byte	.LASF60
 1205 03c2 04       		.byte	0x4
 1206 03c3 0B       		.byte	0xb
 1207 03c4 3C       		.byte	0x3c
 1208 03c5 D6030000 		.4byte	0x3d6
 1209 03c9 06       		.uleb128 0x6
 1210 03ca 90040000 		.4byte	.LASF61
 1211 03ce 0B       		.byte	0xb
 1212 03cf 3D       		.byte	0x3d
 1213 03d0 B7030000 		.4byte	0x3b7
 1214 03d4 00       		.byte	0
 1215 03d5 00       		.byte	0
 1216 03d6 03       		.uleb128 0x3
 1217 03d7 DB040000 		.4byte	.LASF60
 1218 03db 0B       		.byte	0xb
 1219 03dc 40       		.byte	0x40
 1220 03dd BD030000 		.4byte	0x3bd
 1221 03e1 0E       		.uleb128 0xe
 1222 03e2 04       		.byte	0x4
 1223 03e3 08       		.byte	0x8
 1224 03e4 90       		.byte	0x90
 1225 03e5 16040000 		.4byte	0x416
 1226 03e9 0F       		.uleb128 0xf
 1227 03ea 400B0000 		.4byte	.LASF62
 1228 03ee 08       		.byte	0x8
 1229 03ef 97       		.byte	0x97
 1230 03f0 10010000 		.4byte	0x110
 1231 03f4 0F       		.uleb128 0xf
 1232 03f5 40010000 		.4byte	.LASF63
 1233 03f9 08       		.byte	0x8
 1234 03fa 9E       		.byte	0x9e
 1235 03fb 10010000 		.4byte	0x110
 1236 03ff 0F       		.uleb128 0xf
 1237 0400 8C030000 		.4byte	.LASF64
 1238 0404 08       		.byte	0x8
 1239 0405 A5       		.byte	0xa5
 1240 0406 8A020000 		.4byte	0x28a
 1241 040a 0F       		.uleb128 0xf
 1242 040b 99020000 		.4byte	.LASF65
 1243 040f 08       		.byte	0x8
 1244 0410 AC       		.byte	0xac
 1245 0411 1B010000 		.4byte	0x11b
 1246 0415 00       		.byte	0
ARM GAS  /tmp/cc01KxiS.s 			page 23


 1247 0416 09       		.uleb128 0x9
 1248 0417 04       		.byte	0x4
 1249 0418 1C040000 		.4byte	0x41c
 1250 041c 10       		.uleb128 0x10
 1251 041d 21040000 		.4byte	0x421
 1252 0421 04       		.uleb128 0x4
 1253 0422 01       		.byte	0x1
 1254 0423 08       		.byte	0x8
 1255 0424 22030000 		.4byte	.LASF66
 1256 0428 09       		.uleb128 0x9
 1257 0429 04       		.byte	0x4
 1258 042a 70030000 		.4byte	0x370
 1259 042e 03       		.uleb128 0x3
 1260 042f 76030000 		.4byte	.LASF67
 1261 0433 0C       		.byte	0xc
 1262 0434 37       		.byte	0x37
 1263 0435 39040000 		.4byte	0x439
 1264 0439 05       		.uleb128 0x5
 1265 043a 76030000 		.4byte	.LASF67
 1266 043e 20       		.byte	0x20
 1267 043f 0C       		.byte	0xc
 1268 0440 45       		.byte	0x45
 1269 0441 9A040000 		.4byte	0x49a
 1270 0445 06       		.uleb128 0x6
 1271 0446 52090000 		.4byte	.LASF68
 1272 044a 0C       		.byte	0xc
 1273 044b 46       		.byte	0x46
 1274 044c 54020000 		.4byte	0x254
 1275 0450 00       		.byte	0
 1276 0451 06       		.uleb128 0x6
 1277 0452 98040000 		.4byte	.LASF69
 1278 0456 0C       		.byte	0xc
 1279 0457 47       		.byte	0x47
 1280 0458 2C000000 		.4byte	0x2c
 1281 045c 08       		.byte	0x8
 1282 045d 06       		.uleb128 0x6
 1283 045e 75010000 		.4byte	.LASF70
 1284 0462 0C       		.byte	0xc
 1285 0463 48       		.byte	0x48
 1286 0464 BC040000 		.4byte	0x4bc
 1287 0468 0C       		.byte	0xc
 1288 0469 06       		.uleb128 0x6
 1289 046a 53010000 		.4byte	.LASF71
 1290 046e 0C       		.byte	0xc
 1291 046f 49       		.byte	0x49
 1292 0470 BC040000 		.4byte	0x4bc
 1293 0474 10       		.byte	0x10
 1294 0475 06       		.uleb128 0x6
 1295 0476 41050000 		.4byte	.LASF72
 1296 047a 0C       		.byte	0xc
 1297 047b 4B       		.byte	0x4b
 1298 047c BC040000 		.4byte	0x4bc
 1299 0480 14       		.byte	0x14
 1300 0481 06       		.uleb128 0x6
 1301 0482 BE010000 		.4byte	.LASF73
 1302 0486 0C       		.byte	0xc
 1303 0487 4C       		.byte	0x4c
ARM GAS  /tmp/cc01KxiS.s 			page 24


 1304 0488 BC040000 		.4byte	0x4bc
 1305 048c 18       		.byte	0x18
 1306 048d 06       		.uleb128 0x6
 1307 048e 86010000 		.4byte	.LASF74
 1308 0492 0C       		.byte	0xc
 1309 0493 4D       		.byte	0x4d
 1310 0494 9A040000 		.4byte	0x49a
 1311 0498 1C       		.byte	0x1c
 1312 0499 00       		.byte	0
 1313 049a 03       		.uleb128 0x3
 1314 049b 6B060000 		.4byte	.LASF75
 1315 049f 0C       		.byte	0xc
 1316 04a0 3A       		.byte	0x3a
 1317 04a1 A5040000 		.4byte	0x4a5
 1318 04a5 09       		.uleb128 0x9
 1319 04a6 04       		.byte	0x4
 1320 04a7 AB040000 		.4byte	0x4ab
 1321 04ab 11       		.uleb128 0x11
 1322 04ac B6040000 		.4byte	0x4b6
 1323 04b0 12       		.uleb128 0x12
 1324 04b1 B6040000 		.4byte	0x4b6
 1325 04b5 00       		.byte	0
 1326 04b6 09       		.uleb128 0x9
 1327 04b7 04       		.byte	0x4
 1328 04b8 2E040000 		.4byte	0x42e
 1329 04bc 09       		.uleb128 0x9
 1330 04bd 04       		.byte	0x4
 1331 04be A2000000 		.4byte	0xa2
 1332 04c2 03       		.uleb128 0x3
 1333 04c3 760B0000 		.4byte	.LASF76
 1334 04c7 0C       		.byte	0xc
 1335 04c8 76       		.byte	0x76
 1336 04c9 2E040000 		.4byte	0x42e
 1337 04cd 03       		.uleb128 0x3
 1338 04ce AD030000 		.4byte	.LASF77
 1339 04d2 0C       		.byte	0xc
 1340 04d3 E6       		.byte	0xe6
 1341 04d4 2E040000 		.4byte	0x42e
 1342 04d8 13       		.uleb128 0x13
 1343 04d9 2C000000 		.4byte	0x2c
 1344 04dd F1040000 		.4byte	0x4f1
 1345 04e1 12       		.uleb128 0x12
 1346 04e2 8A020000 		.4byte	0x28a
 1347 04e6 12       		.uleb128 0x12
 1348 04e7 F1040000 		.4byte	0x4f1
 1349 04eb 12       		.uleb128 0x12
 1350 04ec 2C000000 		.4byte	0x2c
 1351 04f0 00       		.byte	0
 1352 04f1 09       		.uleb128 0x9
 1353 04f2 04       		.byte	0x4
 1354 04f3 F7040000 		.4byte	0x4f7
 1355 04f7 10       		.uleb128 0x10
 1356 04f8 A2000000 		.4byte	0xa2
 1357 04fc 09       		.uleb128 0x9
 1358 04fd 04       		.byte	0x4
 1359 04fe D8040000 		.4byte	0x4d8
 1360 0502 13       		.uleb128 0x13
ARM GAS  /tmp/cc01KxiS.s 			page 25


 1361 0503 2C000000 		.4byte	0x2c
 1362 0507 1B050000 		.4byte	0x51b
 1363 050b 12       		.uleb128 0x12
 1364 050c 8A020000 		.4byte	0x28a
 1365 0510 12       		.uleb128 0x12
 1366 0511 BC040000 		.4byte	0x4bc
 1367 0515 12       		.uleb128 0x12
 1368 0516 2C000000 		.4byte	0x2c
 1369 051a 00       		.byte	0
 1370 051b 09       		.uleb128 0x9
 1371 051c 04       		.byte	0x4
 1372 051d 02050000 		.4byte	0x502
 1373 0521 13       		.uleb128 0x13
 1374 0522 D9000000 		.4byte	0xd9
 1375 0526 30050000 		.4byte	0x530
 1376 052a 12       		.uleb128 0x12
 1377 052b 8A020000 		.4byte	0x28a
 1378 052f 00       		.byte	0
 1379 0530 09       		.uleb128 0x9
 1380 0531 04       		.byte	0x4
 1381 0532 21050000 		.4byte	0x521
 1382 0536 13       		.uleb128 0x13
 1383 0537 10010000 		.4byte	0x110
 1384 053b 4F050000 		.4byte	0x54f
 1385 053f 12       		.uleb128 0x12
 1386 0540 8A020000 		.4byte	0x28a
 1387 0544 12       		.uleb128 0x12
 1388 0545 A2000000 		.4byte	0xa2
 1389 0549 12       		.uleb128 0x12
 1390 054a 26010000 		.4byte	0x126
 1391 054e 00       		.byte	0
 1392 054f 09       		.uleb128 0x9
 1393 0550 04       		.byte	0x4
 1394 0551 36050000 		.4byte	0x536
 1395 0555 13       		.uleb128 0x13
 1396 0556 10010000 		.4byte	0x110
 1397 055a 69050000 		.4byte	0x569
 1398 055e 12       		.uleb128 0x12
 1399 055f 8A020000 		.4byte	0x28a
 1400 0563 12       		.uleb128 0x12
 1401 0564 26010000 		.4byte	0x126
 1402 0568 00       		.byte	0
 1403 0569 09       		.uleb128 0x9
 1404 056a 04       		.byte	0x4
 1405 056b 55050000 		.4byte	0x555
 1406 056f 13       		.uleb128 0x13
 1407 0570 2C000000 		.4byte	0x2c
 1408 0574 8D050000 		.4byte	0x58d
 1409 0578 12       		.uleb128 0x12
 1410 0579 8A020000 		.4byte	0x28a
 1411 057d 12       		.uleb128 0x12
 1412 057e F1040000 		.4byte	0x4f1
 1413 0582 12       		.uleb128 0x12
 1414 0583 2C000000 		.4byte	0x2c
 1415 0587 12       		.uleb128 0x12
 1416 0588 26010000 		.4byte	0x126
 1417 058c 00       		.byte	0
ARM GAS  /tmp/cc01KxiS.s 			page 26


 1418 058d 09       		.uleb128 0x9
 1419 058e 04       		.byte	0x4
 1420 058f 6F050000 		.4byte	0x56f
 1421 0593 13       		.uleb128 0x13
 1422 0594 2C000000 		.4byte	0x2c
 1423 0598 B1050000 		.4byte	0x5b1
 1424 059c 12       		.uleb128 0x12
 1425 059d 8A020000 		.4byte	0x28a
 1426 05a1 12       		.uleb128 0x12
 1427 05a2 BC040000 		.4byte	0x4bc
 1428 05a6 12       		.uleb128 0x12
 1429 05a7 2C000000 		.4byte	0x2c
 1430 05ab 12       		.uleb128 0x12
 1431 05ac 26010000 		.4byte	0x126
 1432 05b0 00       		.byte	0
 1433 05b1 09       		.uleb128 0x9
 1434 05b2 04       		.byte	0x4
 1435 05b3 93050000 		.4byte	0x593
 1436 05b7 14       		.uleb128 0x14
 1437 05b8 16070000 		.4byte	.LASF78
 1438 05bc 0D       		.byte	0xd
 1439 05bd 0B01     		.2byte	0x10b
 1440 05bf CE000000 		.4byte	0xce
 1441 05c3 13       		.uleb128 0x13
 1442 05c4 B7050000 		.4byte	0x5b7
 1443 05c8 D2050000 		.4byte	0x5d2
 1444 05cc 12       		.uleb128 0x12
 1445 05cd 8A020000 		.4byte	0x28a
 1446 05d1 00       		.byte	0
 1447 05d2 09       		.uleb128 0x9
 1448 05d3 04       		.byte	0x4
 1449 05d4 C3050000 		.4byte	0x5c3
 1450 05d8 03       		.uleb128 0x3
 1451 05d9 530A0000 		.4byte	.LASF79
 1452 05dd 0E       		.byte	0xe
 1453 05de 35       		.byte	0x35
 1454 05df E3050000 		.4byte	0x5e3
 1455 05e3 10       		.uleb128 0x10
 1456 05e4 28030000 		.4byte	0x328
 1457 05e8 03       		.uleb128 0x3
 1458 05e9 9E000000 		.4byte	.LASF80
 1459 05ed 0E       		.byte	0xe
 1460 05ee 39       		.byte	0x39
 1461 05ef 28030000 		.4byte	0x328
 1462 05f3 03       		.uleb128 0x3
 1463 05f4 8C0A0000 		.4byte	.LASF81
 1464 05f8 0E       		.byte	0xe
 1465 05f9 3A       		.byte	0x3a
 1466 05fa 28030000 		.4byte	0x328
 1467 05fe 15       		.uleb128 0x15
 1468 05ff 53070000 		.4byte	.LASF291
 1469 0603 01       		.byte	0x1
 1470 0604 0E       		.byte	0xe
 1471 0605 49       		.byte	0x49
 1472 0606 FB060000 		.4byte	0x6fb
 1473 060a 16       		.uleb128 0x16
 1474 060b C7040000 		.4byte	.LASF82
ARM GAS  /tmp/cc01KxiS.s 			page 27


 1475 060f 72       		.sleb128 -14
 1476 0610 16       		.uleb128 0x16
 1477 0611 F9040000 		.4byte	.LASF83
 1478 0615 74       		.sleb128 -12
 1479 0616 16       		.uleb128 0x16
 1480 0617 A5050000 		.4byte	.LASF84
 1481 061b 75       		.sleb128 -11
 1482 061c 16       		.uleb128 0x16
 1483 061d 12030000 		.4byte	.LASF85
 1484 0621 76       		.sleb128 -10
 1485 0622 16       		.uleb128 0x16
 1486 0623 23060000 		.4byte	.LASF86
 1487 0627 7B       		.sleb128 -5
 1488 0628 16       		.uleb128 0x16
 1489 0629 F7090000 		.4byte	.LASF87
 1490 062d 7C       		.sleb128 -4
 1491 062e 16       		.uleb128 0x16
 1492 062f 810B0000 		.4byte	.LASF88
 1493 0633 7E       		.sleb128 -2
 1494 0634 16       		.uleb128 0x16
 1495 0635 80020000 		.4byte	.LASF89
 1496 0639 7F       		.sleb128 -1
 1497 063a 16       		.uleb128 0x16
 1498 063b 62040000 		.4byte	.LASF90
 1499 063f 00       		.sleb128 0
 1500 0640 16       		.uleb128 0x16
 1501 0641 F8000000 		.4byte	.LASF91
 1502 0645 01       		.sleb128 1
 1503 0646 16       		.uleb128 0x16
 1504 0647 F60B0000 		.4byte	.LASF92
 1505 064b 02       		.sleb128 2
 1506 064c 16       		.uleb128 0x16
 1507 064d A2040000 		.4byte	.LASF93
 1508 0651 03       		.sleb128 3
 1509 0652 16       		.uleb128 0x16
 1510 0653 9C050000 		.4byte	.LASF94
 1511 0657 04       		.sleb128 4
 1512 0658 16       		.uleb128 0x16
 1513 0659 45040000 		.4byte	.LASF95
 1514 065d 05       		.sleb128 5
 1515 065e 16       		.uleb128 0x16
 1516 065f 4E040000 		.4byte	.LASF96
 1517 0663 06       		.sleb128 6
 1518 0664 16       		.uleb128 0x16
 1519 0665 1D090000 		.4byte	.LASF97
 1520 0669 08       		.sleb128 8
 1521 066a 16       		.uleb128 0x16
 1522 066b 3A040000 		.4byte	.LASF98
 1523 066f 09       		.sleb128 9
 1524 0670 16       		.uleb128 0x16
 1525 0671 2F030000 		.4byte	.LASF99
 1526 0675 0A       		.sleb128 10
 1527 0676 16       		.uleb128 0x16
 1528 0677 740A0000 		.4byte	.LASF100
 1529 067b 0B       		.sleb128 11
 1530 067c 16       		.uleb128 0x16
 1531 067d C8090000 		.4byte	.LASF101
ARM GAS  /tmp/cc01KxiS.s 			page 28


 1532 0681 0C       		.sleb128 12
 1533 0682 16       		.uleb128 0x16
 1534 0683 75040000 		.4byte	.LASF102
 1535 0687 0D       		.sleb128 13
 1536 0688 16       		.uleb128 0x16
 1537 0689 65090000 		.4byte	.LASF103
 1538 068d 0E       		.sleb128 14
 1539 068e 16       		.uleb128 0x16
 1540 068f E2080000 		.4byte	.LASF104
 1541 0693 0F       		.sleb128 15
 1542 0694 16       		.uleb128 0x16
 1543 0695 D7080000 		.4byte	.LASF105
 1544 0699 12       		.sleb128 18
 1545 069a 16       		.uleb128 0x16
 1546 069b C2060000 		.4byte	.LASF106
 1547 069f 13       		.sleb128 19
 1548 06a0 16       		.uleb128 0x16
 1549 06a1 11060000 		.4byte	.LASF107
 1550 06a5 14       		.sleb128 20
 1551 06a6 16       		.uleb128 0x16
 1552 06a7 5C090000 		.4byte	.LASF108
 1553 06ab 15       		.sleb128 21
 1554 06ac 16       		.uleb128 0x16
 1555 06ad EB0A0000 		.4byte	.LASF109
 1556 06b1 16       		.sleb128 22
 1557 06b2 16       		.uleb128 0x16
 1558 06b3 AD090000 		.4byte	.LASF110
 1559 06b7 17       		.sleb128 23
 1560 06b8 16       		.uleb128 0x16
 1561 06b9 6C040000 		.4byte	.LASF111
 1562 06bd 18       		.sleb128 24
 1563 06be 16       		.uleb128 0x16
 1564 06bf 13000000 		.4byte	.LASF112
 1565 06c3 19       		.sleb128 25
 1566 06c4 16       		.uleb128 0x16
 1567 06c5 8D0B0000 		.4byte	.LASF113
 1568 06c9 1A       		.sleb128 26
 1569 06ca 16       		.uleb128 0x16
 1570 06cb B1060000 		.4byte	.LASF114
 1571 06cf 1B       		.sleb128 27
 1572 06d0 16       		.uleb128 0x16
 1573 06d1 55020000 		.4byte	.LASF115
 1574 06d5 1C       		.sleb128 28
 1575 06d6 16       		.uleb128 0x16
 1576 06d7 02090000 		.4byte	.LASF116
 1577 06db 1D       		.sleb128 29
 1578 06dc 16       		.uleb128 0x16
 1579 06dd BD040000 		.4byte	.LASF117
 1580 06e1 1E       		.sleb128 30
 1581 06e2 16       		.uleb128 0x16
 1582 06e3 CC030000 		.4byte	.LASF118
 1583 06e7 1F       		.sleb128 31
 1584 06e8 16       		.uleb128 0x16
 1585 06e9 57040000 		.4byte	.LASF119
 1586 06ed 20       		.sleb128 32
 1587 06ee 16       		.uleb128 0x16
 1588 06ef 1F040000 		.4byte	.LASF120
ARM GAS  /tmp/cc01KxiS.s 			page 29


 1589 06f3 21       		.sleb128 33
 1590 06f4 16       		.uleb128 0x16
 1591 06f5 B4040000 		.4byte	.LASF121
 1592 06f9 22       		.sleb128 34
 1593 06fa 00       		.byte	0
 1594 06fb 17       		.uleb128 0x17
 1595 06fc F3050000 		.4byte	0x5f3
 1596 0700 0B070000 		.4byte	0x70b
 1597 0704 18       		.uleb128 0x18
 1598 0705 2D030000 		.4byte	0x32d
 1599 0709 12       		.byte	0x12
 1600 070a 00       		.byte	0
 1601 070b 17       		.uleb128 0x17
 1602 070c F3050000 		.4byte	0x5f3
 1603 0710 1B070000 		.4byte	0x71b
 1604 0714 18       		.uleb128 0x18
 1605 0715 2D030000 		.4byte	0x32d
 1606 0719 00       		.byte	0
 1607 071a 00       		.byte	0
 1608 071b 17       		.uleb128 0x17
 1609 071c F3050000 		.4byte	0x5f3
 1610 0720 2B070000 		.4byte	0x72b
 1611 0724 18       		.uleb128 0x18
 1612 0725 2D030000 		.4byte	0x32d
 1613 0729 01       		.byte	0x1
 1614 072a 00       		.byte	0
 1615 072b 17       		.uleb128 0x17
 1616 072c F3050000 		.4byte	0x5f3
 1617 0730 3B070000 		.4byte	0x73b
 1618 0734 18       		.uleb128 0x18
 1619 0735 2D030000 		.4byte	0x32d
 1620 0739 04       		.byte	0x4
 1621 073a 00       		.byte	0
 1622 073b 19       		.uleb128 0x19
 1623 073c 9001     		.2byte	0x190
 1624 073e 0E       		.byte	0xe
 1625 073f DA06     		.2byte	0x6da
 1626 0741 340B0000 		.4byte	0xb34
 1627 0745 1A       		.uleb128 0x1a
 1628 0746 6E0B0000 		.4byte	.LASF122
 1629 074a 0E       		.byte	0xe
 1630 074b DB06     		.2byte	0x6db
 1631 074d E8050000 		.4byte	0x5e8
 1632 0751 00       		.byte	0
 1633 0752 1A       		.uleb128 0x1a
 1634 0753 DE030000 		.4byte	.LASF123
 1635 0757 0E       		.byte	0xe
 1636 0758 DC06     		.2byte	0x6dc
 1637 075a E8050000 		.4byte	0x5e8
 1638 075e 04       		.byte	0x4
 1639 075f 1A       		.uleb128 0x1a
 1640 0760 7F040000 		.4byte	.LASF124
 1641 0764 0E       		.byte	0xe
 1642 0765 DD06     		.2byte	0x6dd
 1643 0767 D8050000 		.4byte	0x5d8
 1644 076b 08       		.byte	0x8
 1645 076c 1A       		.uleb128 0x1a
ARM GAS  /tmp/cc01KxiS.s 			page 30


 1646 076d 71090000 		.4byte	.LASF125
 1647 0771 0E       		.byte	0xe
 1648 0772 DE06     		.2byte	0x6de
 1649 0774 340B0000 		.4byte	0xb34
 1650 0778 0C       		.byte	0xc
 1651 0779 1A       		.uleb128 0x1a
 1652 077a 0B090000 		.4byte	.LASF126
 1653 077e 0E       		.byte	0xe
 1654 077f DF06     		.2byte	0x6df
 1655 0781 E8050000 		.4byte	0x5e8
 1656 0785 10       		.byte	0x10
 1657 0786 1A       		.uleb128 0x1a
 1658 0787 C0080000 		.4byte	.LASF127
 1659 078b 0E       		.byte	0xe
 1660 078c E006     		.2byte	0x6e0
 1661 078e E8050000 		.4byte	0x5e8
 1662 0792 14       		.byte	0x14
 1663 0793 1A       		.uleb128 0x1a
 1664 0794 78020000 		.4byte	.LASF128
 1665 0798 0E       		.byte	0xe
 1666 0799 E106     		.2byte	0x6e1
 1667 079b D8050000 		.4byte	0x5d8
 1668 079f 18       		.byte	0x18
 1669 07a0 1A       		.uleb128 0x1a
 1670 07a1 7B090000 		.4byte	.LASF129
 1671 07a5 0E       		.byte	0xe
 1672 07a6 E206     		.2byte	0x6e2
 1673 07a8 390B0000 		.4byte	0xb39
 1674 07ac 1C       		.byte	0x1c
 1675 07ad 1A       		.uleb128 0x1a
 1676 07ae CE080000 		.4byte	.LASF130
 1677 07b2 0E       		.byte	0xe
 1678 07b3 E306     		.2byte	0x6e3
 1679 07b5 E8050000 		.4byte	0x5e8
 1680 07b9 20       		.byte	0x20
 1681 07ba 1A       		.uleb128 0x1a
 1682 07bb C2070000 		.4byte	.LASF131
 1683 07bf 0E       		.byte	0xe
 1684 07c0 E406     		.2byte	0x6e4
 1685 07c2 E8050000 		.4byte	0x5e8
 1686 07c6 24       		.byte	0x24
 1687 07c7 1A       		.uleb128 0x1a
 1688 07c8 F8010000 		.4byte	.LASF132
 1689 07cc 0E       		.byte	0xe
 1690 07cd E506     		.2byte	0x6e5
 1691 07cf D8050000 		.4byte	0x5d8
 1692 07d3 28       		.byte	0x28
 1693 07d4 1A       		.uleb128 0x1a
 1694 07d5 85090000 		.4byte	.LASF133
 1695 07d9 0E       		.byte	0xe
 1696 07da E606     		.2byte	0x6e6
 1697 07dc 3E0B0000 		.4byte	0xb3e
 1698 07e0 2C       		.byte	0x2c
 1699 07e1 1A       		.uleb128 0x1a
 1700 07e2 57060000 		.4byte	.LASF134
 1701 07e6 0E       		.byte	0xe
 1702 07e7 E706     		.2byte	0x6e7
ARM GAS  /tmp/cc01KxiS.s 			page 31


 1703 07e9 E8050000 		.4byte	0x5e8
 1704 07ed 30       		.byte	0x30
 1705 07ee 1A       		.uleb128 0x1a
 1706 07ef 62050000 		.4byte	.LASF135
 1707 07f3 0E       		.byte	0xe
 1708 07f4 E806     		.2byte	0x6e8
 1709 07f6 E8050000 		.4byte	0x5e8
 1710 07fa 34       		.byte	0x34
 1711 07fb 1A       		.uleb128 0x1a
 1712 07fc 120A0000 		.4byte	.LASF136
 1713 0800 0E       		.byte	0xe
 1714 0801 E906     		.2byte	0x6e9
 1715 0803 F3050000 		.4byte	0x5f3
 1716 0807 38       		.byte	0x38
 1717 0808 1A       		.uleb128 0x1a
 1718 0809 93030000 		.4byte	.LASF137
 1719 080d 0E       		.byte	0xe
 1720 080e EA06     		.2byte	0x6ea
 1721 0810 D8050000 		.4byte	0x5d8
 1722 0814 3C       		.byte	0x3c
 1723 0815 1A       		.uleb128 0x1a
 1724 0816 38060000 		.4byte	.LASF138
 1725 081a 0E       		.byte	0xe
 1726 081b EB06     		.2byte	0x6eb
 1727 081d E8050000 		.4byte	0x5e8
 1728 0821 40       		.byte	0x40
 1729 0822 1A       		.uleb128 0x1a
 1730 0823 CA050000 		.4byte	.LASF139
 1731 0827 0E       		.byte	0xe
 1732 0828 EC06     		.2byte	0x6ec
 1733 082a E8050000 		.4byte	0x5e8
 1734 082e 44       		.byte	0x44
 1735 082f 1A       		.uleb128 0x1a
 1736 0830 EF090000 		.4byte	.LASF140
 1737 0834 0E       		.byte	0xe
 1738 0835 ED06     		.2byte	0x6ed
 1739 0837 D8050000 		.4byte	0x5d8
 1740 083b 48       		.byte	0x48
 1741 083c 1A       		.uleb128 0x1a
 1742 083d DB0B0000 		.4byte	.LASF141
 1743 0841 0E       		.byte	0xe
 1744 0842 EE06     		.2byte	0x6ee
 1745 0844 D8050000 		.4byte	0x5d8
 1746 0848 4C       		.byte	0x4c
 1747 0849 1A       		.uleb128 0x1a
 1748 084a D5030000 		.4byte	.LASF142
 1749 084e 0E       		.byte	0xe
 1750 084f EF06     		.2byte	0x6ef
 1751 0851 E8050000 		.4byte	0x5e8
 1752 0855 50       		.byte	0x50
 1753 0856 1A       		.uleb128 0x1a
 1754 0857 83030000 		.4byte	.LASF143
 1755 085b 0E       		.byte	0xe
 1756 085c F006     		.2byte	0x6f0
 1757 085e E8050000 		.4byte	0x5e8
 1758 0862 54       		.byte	0x54
 1759 0863 1A       		.uleb128 0x1a
ARM GAS  /tmp/cc01KxiS.s 			page 32


 1760 0864 E6090000 		.4byte	.LASF144
 1761 0868 0E       		.byte	0xe
 1762 0869 F106     		.2byte	0x6f1
 1763 086b D8050000 		.4byte	0x5d8
 1764 086f 58       		.byte	0x58
 1765 0870 1A       		.uleb128 0x1a
 1766 0871 8F090000 		.4byte	.LASF145
 1767 0875 0E       		.byte	0xe
 1768 0876 F206     		.2byte	0x6f2
 1769 0878 430B0000 		.4byte	0xb43
 1770 087c 5C       		.byte	0x5c
 1771 087d 1A       		.uleb128 0x1a
 1772 087e D3020000 		.4byte	.LASF146
 1773 0882 0E       		.byte	0xe
 1774 0883 F306     		.2byte	0x6f3
 1775 0885 E8050000 		.4byte	0x5e8
 1776 0889 60       		.byte	0x60
 1777 088a 1A       		.uleb128 0x1a
 1778 088b AB040000 		.4byte	.LASF147
 1779 088f 0E       		.byte	0xe
 1780 0890 F406     		.2byte	0x6f4
 1781 0892 E8050000 		.4byte	0x5e8
 1782 0896 64       		.byte	0x64
 1783 0897 1A       		.uleb128 0x1a
 1784 0898 F9080000 		.4byte	.LASF148
 1785 089c 0E       		.byte	0xe
 1786 089d F506     		.2byte	0x6f5
 1787 089f D8050000 		.4byte	0x5d8
 1788 08a3 68       		.byte	0x68
 1789 08a4 1A       		.uleb128 0x1a
 1790 08a5 99090000 		.4byte	.LASF149
 1791 08a9 0E       		.byte	0xe
 1792 08aa F606     		.2byte	0x6f6
 1793 08ac 480B0000 		.4byte	0xb48
 1794 08b0 6C       		.byte	0x6c
 1795 08b1 1A       		.uleb128 0x1a
 1796 08b2 01020000 		.4byte	.LASF150
 1797 08b6 0E       		.byte	0xe
 1798 08b7 F706     		.2byte	0x6f7
 1799 08b9 4D0B0000 		.4byte	0xb4d
 1800 08bd 70       		.byte	0x70
 1801 08be 1A       		.uleb128 0x1a
 1802 08bf A3090000 		.4byte	.LASF151
 1803 08c3 0E       		.byte	0xe
 1804 08c4 F806     		.2byte	0x6f8
 1805 08c6 520B0000 		.4byte	0xb52
 1806 08ca 78       		.byte	0x78
 1807 08cb 1A       		.uleb128 0x1a
 1808 08cc EE080000 		.4byte	.LASF152
 1809 08d0 0E       		.byte	0xe
 1810 08d1 F906     		.2byte	0x6f9
 1811 08d3 E8050000 		.4byte	0x5e8
 1812 08d7 80       		.byte	0x80
 1813 08d8 1A       		.uleb128 0x1a
 1814 08d9 60060000 		.4byte	.LASF153
 1815 08dd 0E       		.byte	0xe
 1816 08de FA06     		.2byte	0x6fa
ARM GAS  /tmp/cc01KxiS.s 			page 33


 1817 08e0 E8050000 		.4byte	0x5e8
 1818 08e4 84       		.byte	0x84
 1819 08e5 1A       		.uleb128 0x1a
 1820 08e6 00000000 		.4byte	.LASF154
 1821 08ea 0E       		.byte	0xe
 1822 08eb FB06     		.2byte	0x6fb
 1823 08ed D8050000 		.4byte	0x5d8
 1824 08f1 88       		.byte	0x88
 1825 08f2 1A       		.uleb128 0x1a
 1826 08f3 08060000 		.4byte	.LASF155
 1827 08f7 0E       		.byte	0xe
 1828 08f8 FC06     		.2byte	0x6fc
 1829 08fa F3050000 		.4byte	0x5f3
 1830 08fe 8C       		.byte	0x8c
 1831 08ff 1A       		.uleb128 0x1a
 1832 0900 9C010000 		.4byte	.LASF156
 1833 0904 0E       		.byte	0xe
 1834 0905 FD06     		.2byte	0x6fd
 1835 0907 E8050000 		.4byte	0x5e8
 1836 090b 90       		.byte	0x90
 1837 090c 1A       		.uleb128 0x1a
 1838 090d 43020000 		.4byte	.LASF157
 1839 0911 0E       		.byte	0xe
 1840 0912 FE06     		.2byte	0x6fe
 1841 0914 E8050000 		.4byte	0x5e8
 1842 0918 94       		.byte	0x94
 1843 0919 1A       		.uleb128 0x1a
 1844 091a 6F070000 		.4byte	.LASF158
 1845 091e 0E       		.byte	0xe
 1846 091f FF06     		.2byte	0x6ff
 1847 0921 D8050000 		.4byte	0x5d8
 1848 0925 98       		.byte	0x98
 1849 0926 1A       		.uleb128 0x1a
 1850 0927 DB000000 		.4byte	.LASF159
 1851 092b 0E       		.byte	0xe
 1852 092c 0007     		.2byte	0x700
 1853 092e 570B0000 		.4byte	0xb57
 1854 0932 9C       		.byte	0x9c
 1855 0933 1A       		.uleb128 0x1a
 1856 0934 EF010000 		.4byte	.LASF160
 1857 0938 0E       		.byte	0xe
 1858 0939 0107     		.2byte	0x701
 1859 093b E8050000 		.4byte	0x5e8
 1860 093f A0       		.byte	0xa0
 1861 0940 1A       		.uleb128 0x1a
 1862 0941 59010000 		.4byte	.LASF161
 1863 0945 0E       		.byte	0xe
 1864 0946 0207     		.2byte	0x702
 1865 0948 E8050000 		.4byte	0x5e8
 1866 094c A4       		.byte	0xa4
 1867 094d 1A       		.uleb128 0x1a
 1868 094e 4A070000 		.4byte	.LASF162
 1869 0952 0E       		.byte	0xe
 1870 0953 0307     		.2byte	0x703
 1871 0955 D8050000 		.4byte	0x5d8
 1872 0959 A8       		.byte	0xa8
 1873 095a 1A       		.uleb128 0x1a
ARM GAS  /tmp/cc01KxiS.s 			page 34


 1874 095b E5000000 		.4byte	.LASF163
 1875 095f 0E       		.byte	0xe
 1876 0960 0407     		.2byte	0x704
 1877 0962 5C0B0000 		.4byte	0xb5c
 1878 0966 AC       		.byte	0xac
 1879 0967 1A       		.uleb128 0x1a
 1880 0968 D2090000 		.4byte	.LASF164
 1881 096c 0E       		.byte	0xe
 1882 096d 0507     		.2byte	0x705
 1883 096f E8050000 		.4byte	0x5e8
 1884 0973 B0       		.byte	0xb0
 1885 0974 1A       		.uleb128 0x1a
 1886 0975 13090000 		.4byte	.LASF165
 1887 0979 0E       		.byte	0xe
 1888 097a 0607     		.2byte	0x706
 1889 097c E8050000 		.4byte	0x5e8
 1890 0980 B4       		.byte	0xb4
 1891 0981 1A       		.uleb128 0x1a
 1892 0982 8B000000 		.4byte	.LASF166
 1893 0986 0E       		.byte	0xe
 1894 0987 0707     		.2byte	0x707
 1895 0989 D8050000 		.4byte	0x5d8
 1896 098d B8       		.byte	0xb8
 1897 098e 1A       		.uleb128 0x1a
 1898 098f BE090000 		.4byte	.LASF167
 1899 0993 0E       		.byte	0xe
 1900 0994 0807     		.2byte	0x708
 1901 0996 610B0000 		.4byte	0xb61
 1902 099a BC       		.byte	0xbc
 1903 099b 1A       		.uleb128 0x1a
 1904 099c 4D020000 		.4byte	.LASF168
 1905 09a0 0E       		.byte	0xe
 1906 09a1 0907     		.2byte	0x709
 1907 09a3 E8050000 		.4byte	0x5e8
 1908 09a7 C0       		.byte	0xc0
 1909 09a8 1A       		.uleb128 0x1a
 1910 09a9 E6060000 		.4byte	.LASF169
 1911 09ad 0E       		.byte	0xe
 1912 09ae 0A07     		.2byte	0x70a
 1913 09b0 E8050000 		.4byte	0x5e8
 1914 09b4 C4       		.byte	0xc4
 1915 09b5 1A       		.uleb128 0x1a
 1916 09b6 16040000 		.4byte	.LASF170
 1917 09ba 0E       		.byte	0xe
 1918 09bb 0B07     		.2byte	0x70b
 1919 09bd D8050000 		.4byte	0x5d8
 1920 09c1 C8       		.byte	0xc8
 1921 09c2 1A       		.uleb128 0x1a
 1922 09c3 38030000 		.4byte	.LASF171
 1923 09c7 0E       		.byte	0xe
 1924 09c8 0C07     		.2byte	0x70c
 1925 09ca 660B0000 		.4byte	0xb66
 1926 09ce CC       		.byte	0xcc
 1927 09cf 1A       		.uleb128 0x1a
 1928 09d0 B9030000 		.4byte	.LASF172
 1929 09d4 0E       		.byte	0xe
 1930 09d5 0D07     		.2byte	0x70d
ARM GAS  /tmp/cc01KxiS.s 			page 35


 1931 09d7 E8050000 		.4byte	0x5e8
 1932 09db D0       		.byte	0xd0
 1933 09dc 1A       		.uleb128 0x1a
 1934 09dd 350B0000 		.4byte	.LASF173
 1935 09e1 0E       		.byte	0xe
 1936 09e2 0E07     		.2byte	0x70e
 1937 09e4 E8050000 		.4byte	0x5e8
 1938 09e8 D4       		.byte	0xd4
 1939 09e9 1A       		.uleb128 0x1a
 1940 09ea 3D090000 		.4byte	.LASF174
 1941 09ee 0E       		.byte	0xe
 1942 09ef 0F07     		.2byte	0x70f
 1943 09f1 D8050000 		.4byte	0x5d8
 1944 09f5 D8       		.byte	0xd8
 1945 09f6 1A       		.uleb128 0x1a
 1946 09f7 43030000 		.4byte	.LASF175
 1947 09fb 0E       		.byte	0xe
 1948 09fc 1007     		.2byte	0x710
 1949 09fe 6B0B0000 		.4byte	0xb6b
 1950 0a02 DC       		.byte	0xdc
 1951 0a03 1A       		.uleb128 0x1a
 1952 0a04 A2030000 		.4byte	.LASF176
 1953 0a08 0E       		.byte	0xe
 1954 0a09 1107     		.2byte	0x711
 1955 0a0b D8050000 		.4byte	0x5d8
 1956 0a0f E0       		.byte	0xe0
 1957 0a10 1A       		.uleb128 0x1a
 1958 0a11 A4000000 		.4byte	.LASF177
 1959 0a15 0E       		.byte	0xe
 1960 0a16 1207     		.2byte	0x712
 1961 0a18 F3050000 		.4byte	0x5f3
 1962 0a1c E4       		.byte	0xe4
 1963 0a1d 1A       		.uleb128 0x1a
 1964 0a1e F8020000 		.4byte	.LASF178
 1965 0a22 0E       		.byte	0xe
 1966 0a23 1307     		.2byte	0x713
 1967 0a25 D8050000 		.4byte	0x5d8
 1968 0a29 E8       		.byte	0xe8
 1969 0a2a 1A       		.uleb128 0x1a
 1970 0a2b 4E030000 		.4byte	.LASF179
 1971 0a2f 0E       		.byte	0xe
 1972 0a30 1407     		.2byte	0x714
 1973 0a32 700B0000 		.4byte	0xb70
 1974 0a36 EC       		.byte	0xec
 1975 0a37 1B       		.uleb128 0x1b
 1976 0a38 3D0A0000 		.4byte	.LASF180
 1977 0a3c 0E       		.byte	0xe
 1978 0a3d 1507     		.2byte	0x715
 1979 0a3f F3050000 		.4byte	0x5f3
 1980 0a43 0001     		.2byte	0x100
 1981 0a45 1B       		.uleb128 0x1b
 1982 0a46 59030000 		.4byte	.LASF181
 1983 0a4a 0E       		.byte	0xe
 1984 0a4b 1607     		.2byte	0x716
 1985 0a4d 750B0000 		.4byte	0xb75
 1986 0a51 0401     		.2byte	0x104
 1987 0a53 1B       		.uleb128 0x1b
ARM GAS  /tmp/cc01KxiS.s 			page 36


 1988 0a54 E20A0000 		.4byte	.LASF182
 1989 0a58 0E       		.byte	0xe
 1990 0a59 1707     		.2byte	0x717
 1991 0a5b F3050000 		.4byte	0x5f3
 1992 0a5f 5001     		.2byte	0x150
 1993 0a61 1B       		.uleb128 0x1b
 1994 0a62 250C0000 		.4byte	.LASF183
 1995 0a66 0E       		.byte	0xe
 1996 0a67 1807     		.2byte	0x718
 1997 0a69 E8050000 		.4byte	0x5e8
 1998 0a6d 5401     		.2byte	0x154
 1999 0a6f 1B       		.uleb128 0x1b
 2000 0a70 DC060000 		.4byte	.LASF184
 2001 0a74 0E       		.byte	0xe
 2002 0a75 1907     		.2byte	0x719
 2003 0a77 E8050000 		.4byte	0x5e8
 2004 0a7b 5801     		.2byte	0x158
 2005 0a7d 1B       		.uleb128 0x1b
 2006 0a7e A30A0000 		.4byte	.LASF185
 2007 0a82 0E       		.byte	0xe
 2008 0a83 1A07     		.2byte	0x71a
 2009 0a85 D8050000 		.4byte	0x5d8
 2010 0a89 5C01     		.2byte	0x15c
 2011 0a8b 1B       		.uleb128 0x1b
 2012 0a8c C8000000 		.4byte	.LASF186
 2013 0a90 0E       		.byte	0xe
 2014 0a91 1B07     		.2byte	0x71b
 2015 0a93 D8050000 		.4byte	0x5d8
 2016 0a97 6001     		.2byte	0x160
 2017 0a99 1B       		.uleb128 0x1b
 2018 0a9a 40060000 		.4byte	.LASF187
 2019 0a9e 0E       		.byte	0xe
 2020 0a9f 1C07     		.2byte	0x71c
 2021 0aa1 D8050000 		.4byte	0x5d8
 2022 0aa5 6401     		.2byte	0x164
 2023 0aa7 1B       		.uleb128 0x1b
 2024 0aa8 470B0000 		.4byte	.LASF188
 2025 0aac 0E       		.byte	0xe
 2026 0aad 1D07     		.2byte	0x71d
 2027 0aaf F3050000 		.4byte	0x5f3
 2028 0ab3 6801     		.2byte	0x168
 2029 0ab5 1B       		.uleb128 0x1b
 2030 0ab6 27030000 		.4byte	.LASF189
 2031 0aba 0E       		.byte	0xe
 2032 0abb 1E07     		.2byte	0x71e
 2033 0abd F3050000 		.4byte	0x5f3
 2034 0ac1 6C01     		.2byte	0x16c
 2035 0ac3 1B       		.uleb128 0x1b
 2036 0ac4 1C010000 		.4byte	.LASF190
 2037 0ac8 0E       		.byte	0xe
 2038 0ac9 1F07     		.2byte	0x71f
 2039 0acb F3050000 		.4byte	0x5f3
 2040 0acf 7001     		.2byte	0x170
 2041 0ad1 1B       		.uleb128 0x1b
 2042 0ad2 D2070000 		.4byte	.LASF191
 2043 0ad6 0E       		.byte	0xe
 2044 0ad7 2007     		.2byte	0x720
ARM GAS  /tmp/cc01KxiS.s 			page 37


 2045 0ad9 F3050000 		.4byte	0x5f3
 2046 0add 7401     		.2byte	0x174
 2047 0adf 1B       		.uleb128 0x1b
 2048 0ae0 BC020000 		.4byte	.LASF192
 2049 0ae4 0E       		.byte	0xe
 2050 0ae5 2107     		.2byte	0x721
 2051 0ae7 F3050000 		.4byte	0x5f3
 2052 0aeb 7801     		.2byte	0x178
 2053 0aed 1B       		.uleb128 0x1b
 2054 0aee 1B0A0000 		.4byte	.LASF193
 2055 0af2 0E       		.byte	0xe
 2056 0af3 2207     		.2byte	0x722
 2057 0af5 F3050000 		.4byte	0x5f3
 2058 0af9 7C01     		.2byte	0x17c
 2059 0afb 1B       		.uleb128 0x1b
 2060 0afc E5020000 		.4byte	.LASF194
 2061 0b00 0E       		.byte	0xe
 2062 0b01 2307     		.2byte	0x723
 2063 0b03 F3050000 		.4byte	0x5f3
 2064 0b07 8001     		.2byte	0x180
 2065 0b09 1B       		.uleb128 0x1b
 2066 0b0a 340A0000 		.4byte	.LASF195
 2067 0b0e 0E       		.byte	0xe
 2068 0b0f 2407     		.2byte	0x724
 2069 0b11 F3050000 		.4byte	0x5f3
 2070 0b15 8401     		.2byte	0x184
 2071 0b17 1B       		.uleb128 0x1b
 2072 0b18 1C0C0000 		.4byte	.LASF196
 2073 0b1c 0E       		.byte	0xe
 2074 0b1d 2507     		.2byte	0x725
 2075 0b1f E8050000 		.4byte	0x5e8
 2076 0b23 8801     		.2byte	0x188
 2077 0b25 1B       		.uleb128 0x1b
 2078 0b26 2F060000 		.4byte	.LASF197
 2079 0b2a 0E       		.byte	0xe
 2080 0b2b 2607     		.2byte	0x726
 2081 0b2d D8050000 		.4byte	0x5d8
 2082 0b31 8C01     		.2byte	0x18c
 2083 0b33 00       		.byte	0
 2084 0b34 0D       		.uleb128 0xd
 2085 0b35 0B070000 		.4byte	0x70b
 2086 0b39 0D       		.uleb128 0xd
 2087 0b3a 0B070000 		.4byte	0x70b
 2088 0b3e 0D       		.uleb128 0xd
 2089 0b3f 0B070000 		.4byte	0x70b
 2090 0b43 0D       		.uleb128 0xd
 2091 0b44 0B070000 		.4byte	0x70b
 2092 0b48 0D       		.uleb128 0xd
 2093 0b49 0B070000 		.4byte	0x70b
 2094 0b4d 0D       		.uleb128 0xd
 2095 0b4e 1B070000 		.4byte	0x71b
 2096 0b52 0D       		.uleb128 0xd
 2097 0b53 1B070000 		.4byte	0x71b
 2098 0b57 0D       		.uleb128 0xd
 2099 0b58 0B070000 		.4byte	0x70b
 2100 0b5c 0D       		.uleb128 0xd
 2101 0b5d 0B070000 		.4byte	0x70b
ARM GAS  /tmp/cc01KxiS.s 			page 38


 2102 0b61 0D       		.uleb128 0xd
 2103 0b62 0B070000 		.4byte	0x70b
 2104 0b66 0D       		.uleb128 0xd
 2105 0b67 0B070000 		.4byte	0x70b
 2106 0b6b 0D       		.uleb128 0xd
 2107 0b6c 0B070000 		.4byte	0x70b
 2108 0b70 0D       		.uleb128 0xd
 2109 0b71 2B070000 		.4byte	0x72b
 2110 0b75 0D       		.uleb128 0xd
 2111 0b76 FB060000 		.4byte	0x6fb
 2112 0b7a 1C       		.uleb128 0x1c
 2113 0b7b 50696F00 		.ascii	"Pio\000"
 2114 0b7f 0E       		.byte	0xe
 2115 0b80 2707     		.2byte	0x727
 2116 0b82 3B070000 		.4byte	0x73b
 2117 0b86 19       		.uleb128 0x19
 2118 0b87 1401     		.2byte	0x114
 2119 0b89 0E       		.byte	0xe
 2120 0b8a 3F0D     		.2byte	0xd3f
 2121 0b8c 500D0000 		.4byte	0xd50
 2122 0b90 1A       		.uleb128 0x1a
 2123 0b91 E30B0000 		.4byte	.LASF198
 2124 0b95 0E       		.byte	0xe
 2125 0b96 400D     		.2byte	0xd40
 2126 0b98 E8050000 		.4byte	0x5e8
 2127 0b9c 00       		.byte	0
 2128 0b9d 1A       		.uleb128 0x1a
 2129 0b9e A80B0000 		.4byte	.LASF199
 2130 0ba2 0E       		.byte	0xe
 2131 0ba3 410D     		.2byte	0xd41
 2132 0ba5 E8050000 		.4byte	0x5e8
 2133 0ba9 04       		.byte	0x4
 2134 0baa 1A       		.uleb128 0x1a
 2135 0bab 49050000 		.4byte	.LASF200
 2136 0baf 0E       		.byte	0xe
 2137 0bb0 420D     		.2byte	0xd42
 2138 0bb2 D8050000 		.4byte	0x5d8
 2139 0bb6 08       		.byte	0x8
 2140 0bb7 1A       		.uleb128 0x1a
 2141 0bb8 71090000 		.4byte	.LASF125
 2142 0bbc 0E       		.byte	0xe
 2143 0bbd 430D     		.2byte	0xd43
 2144 0bbf 500D0000 		.4byte	0xd50
 2145 0bc3 0C       		.byte	0xc
 2146 0bc4 1A       		.uleb128 0x1a
 2147 0bc5 15020000 		.4byte	.LASF201
 2148 0bc9 0E       		.byte	0xe
 2149 0bca 440D     		.2byte	0xd44
 2150 0bcc E8050000 		.4byte	0x5e8
 2151 0bd0 10       		.byte	0x10
 2152 0bd1 1A       		.uleb128 0x1a
 2153 0bd2 B90B0000 		.4byte	.LASF202
 2154 0bd6 0E       		.byte	0xe
 2155 0bd7 450D     		.2byte	0xd45
 2156 0bd9 E8050000 		.4byte	0x5e8
 2157 0bdd 14       		.byte	0x14
 2158 0bde 1A       		.uleb128 0x1a
ARM GAS  /tmp/cc01KxiS.s 			page 39


 2159 0bdf F6050000 		.4byte	.LASF203
 2160 0be3 0E       		.byte	0xe
 2161 0be4 460D     		.2byte	0xd46
 2162 0be6 D8050000 		.4byte	0x5d8
 2163 0bea 18       		.byte	0x18
 2164 0beb 1A       		.uleb128 0x1a
 2165 0bec 7B090000 		.4byte	.LASF129
 2166 0bf0 0E       		.byte	0xe
 2167 0bf1 470D     		.2byte	0xd47
 2168 0bf3 550D0000 		.4byte	0xd55
 2169 0bf7 1C       		.byte	0x1c
 2170 0bf8 1A       		.uleb128 0x1a
 2171 0bf9 5E020000 		.4byte	.LASF204
 2172 0bfd 0E       		.byte	0xe
 2173 0bfe 480D     		.2byte	0xd48
 2174 0c00 F3050000 		.4byte	0x5f3
 2175 0c04 20       		.byte	0x20
 2176 0c05 1A       		.uleb128 0x1a
 2177 0c06 12010000 		.4byte	.LASF205
 2178 0c0a 0E       		.byte	0xe
 2179 0c0b 490D     		.2byte	0xd49
 2180 0c0d D8050000 		.4byte	0x5d8
 2181 0c11 24       		.byte	0x24
 2182 0c12 1A       		.uleb128 0x1a
 2183 0c13 FF0B0000 		.4byte	.LASF206
 2184 0c17 0E       		.byte	0xe
 2185 0c18 4A0D     		.2byte	0xd4a
 2186 0c1a F3050000 		.4byte	0x5f3
 2187 0c1e 28       		.byte	0x28
 2188 0c1f 1A       		.uleb128 0x1a
 2189 0c20 59000000 		.4byte	.LASF207
 2190 0c24 0E       		.byte	0xe
 2191 0c25 4B0D     		.2byte	0xd4b
 2192 0c27 F3050000 		.4byte	0x5f3
 2193 0c2b 2C       		.byte	0x2c
 2194 0c2c 1A       		.uleb128 0x1a
 2195 0c2d C6010000 		.4byte	.LASF208
 2196 0c31 0E       		.byte	0xe
 2197 0c32 4C0D     		.2byte	0xd4c
 2198 0c34 F3050000 		.4byte	0x5f3
 2199 0c38 30       		.byte	0x30
 2200 0c39 1A       		.uleb128 0x1a
 2201 0c3a 85090000 		.4byte	.LASF133
 2202 0c3e 0E       		.byte	0xe
 2203 0c3f 4D0D     		.2byte	0xd4d
 2204 0c41 5A0D0000 		.4byte	0xd5a
 2205 0c45 34       		.byte	0x34
 2206 0c46 1A       		.uleb128 0x1a
 2207 0c47 0B000000 		.4byte	.LASF209
 2208 0c4b 0E       		.byte	0xe
 2209 0c4c 4E0D     		.2byte	0xd4e
 2210 0c4e F3050000 		.4byte	0x5f3
 2211 0c52 38       		.byte	0x38
 2212 0c53 1A       		.uleb128 0x1a
 2213 0c54 8F090000 		.4byte	.LASF145
 2214 0c58 0E       		.byte	0xe
 2215 0c59 4F0D     		.2byte	0xd4f
ARM GAS  /tmp/cc01KxiS.s 			page 40


 2216 0c5b 5F0D0000 		.4byte	0xd5f
 2217 0c5f 3C       		.byte	0x3c
 2218 0c60 1A       		.uleb128 0x1a
 2219 0c61 1B060000 		.4byte	.LASF210
 2220 0c65 0E       		.byte	0xe
 2221 0c66 500D     		.2byte	0xd50
 2222 0c68 740D0000 		.4byte	0xd74
 2223 0c6c 40       		.byte	0x40
 2224 0c6d 1A       		.uleb128 0x1a
 2225 0c6e 99090000 		.4byte	.LASF149
 2226 0c72 0E       		.byte	0xe
 2227 0c73 510D     		.2byte	0xd51
 2228 0c75 790D0000 		.4byte	0xd79
 2229 0c79 4C       		.byte	0x4c
 2230 0c7a 1A       		.uleb128 0x1a
 2231 0c7b 28090000 		.4byte	.LASF211
 2232 0c7f 0E       		.byte	0xe
 2233 0c80 520D     		.2byte	0xd52
 2234 0c82 E8050000 		.4byte	0x5e8
 2235 0c86 60       		.byte	0x60
 2236 0c87 1A       		.uleb128 0x1a
 2237 0c88 7E010000 		.4byte	.LASF212
 2238 0c8c 0E       		.byte	0xe
 2239 0c8d 530D     		.2byte	0xd53
 2240 0c8f E8050000 		.4byte	0x5e8
 2241 0c93 64       		.byte	0x64
 2242 0c94 1A       		.uleb128 0x1a
 2243 0c95 6D0A0000 		.4byte	.LASF213
 2244 0c99 0E       		.byte	0xe
 2245 0c9a 540D     		.2byte	0xd54
 2246 0c9c D8050000 		.4byte	0x5d8
 2247 0ca0 68       		.byte	0x68
 2248 0ca1 1A       		.uleb128 0x1a
 2249 0ca2 1F050000 		.4byte	.LASF214
 2250 0ca6 0E       		.byte	0xe
 2251 0ca7 550D     		.2byte	0xd55
 2252 0ca9 D8050000 		.4byte	0x5d8
 2253 0cad 6C       		.byte	0x6c
 2254 0cae 1A       		.uleb128 0x1a
 2255 0caf 140B0000 		.4byte	.LASF215
 2256 0cb3 0E       		.byte	0xe
 2257 0cb4 560D     		.2byte	0xd56
 2258 0cb6 F3050000 		.4byte	0x5f3
 2259 0cba 70       		.byte	0x70
 2260 0cbb 1A       		.uleb128 0x1a
 2261 0cbc 1C000000 		.4byte	.LASF216
 2262 0cc0 0E       		.byte	0xe
 2263 0cc1 570D     		.2byte	0xd57
 2264 0cc3 F3050000 		.4byte	0x5f3
 2265 0cc7 74       		.byte	0x74
 2266 0cc8 1A       		.uleb128 0x1a
 2267 0cc9 8D060000 		.4byte	.LASF217
 2268 0ccd 0E       		.byte	0xe
 2269 0cce 580D     		.2byte	0xd58
 2270 0cd0 E8050000 		.4byte	0x5e8
 2271 0cd4 78       		.byte	0x78
 2272 0cd5 1A       		.uleb128 0x1a
ARM GAS  /tmp/cc01KxiS.s 			page 41


 2273 0cd6 A3090000 		.4byte	.LASF151
 2274 0cda 0E       		.byte	0xe
 2275 0cdb 590D     		.2byte	0xd59
 2276 0cdd 8E0D0000 		.4byte	0xd8e
 2277 0ce1 7C       		.byte	0x7c
 2278 0ce2 1A       		.uleb128 0x1a
 2279 0ce3 C30A0000 		.4byte	.LASF218
 2280 0ce7 0E       		.byte	0xe
 2281 0ce8 5A0D     		.2byte	0xd5a
 2282 0cea F3050000 		.4byte	0x5f3
 2283 0cee E4       		.byte	0xe4
 2284 0cef 1A       		.uleb128 0x1a
 2285 0cf0 EF000000 		.4byte	.LASF219
 2286 0cf4 0E       		.byte	0xe
 2287 0cf5 5B0D     		.2byte	0xd5b
 2288 0cf7 D8050000 		.4byte	0x5d8
 2289 0cfb E8       		.byte	0xe8
 2290 0cfc 1A       		.uleb128 0x1a
 2291 0cfd DB000000 		.4byte	.LASF159
 2292 0d01 0E       		.byte	0xe
 2293 0d02 5C0D     		.2byte	0xd5c
 2294 0d04 930D0000 		.4byte	0xd93
 2295 0d08 EC       		.byte	0xec
 2296 0d09 1B       		.uleb128 0x1b
 2297 0d0a 1F020000 		.4byte	.LASF220
 2298 0d0e 0E       		.byte	0xe
 2299 0d0f 5D0D     		.2byte	0xd5d
 2300 0d11 E8050000 		.4byte	0x5e8
 2301 0d15 0001     		.2byte	0x100
 2302 0d17 1B       		.uleb128 0x1b
 2303 0d18 C30B0000 		.4byte	.LASF221
 2304 0d1c 0E       		.byte	0xe
 2305 0d1d 5E0D     		.2byte	0xd5e
 2306 0d1f E8050000 		.4byte	0x5e8
 2307 0d23 0401     		.2byte	0x104
 2308 0d25 1B       		.uleb128 0x1b
 2309 0d26 EC0B0000 		.4byte	.LASF222
 2310 0d2a 0E       		.byte	0xe
 2311 0d2b 5F0D     		.2byte	0xd5f
 2312 0d2d D8050000 		.4byte	0x5d8
 2313 0d31 0801     		.2byte	0x108
 2314 0d33 1B       		.uleb128 0x1b
 2315 0d34 E5000000 		.4byte	.LASF163
 2316 0d38 0E       		.byte	0xe
 2317 0d39 600D     		.2byte	0xd60
 2318 0d3b 980D0000 		.4byte	0xd98
 2319 0d3f 0C01     		.2byte	0x10c
 2320 0d41 1B       		.uleb128 0x1b
 2321 0d42 C4030000 		.4byte	.LASF223
 2322 0d46 0E       		.byte	0xe
 2323 0d47 610D     		.2byte	0xd61
 2324 0d49 F3050000 		.4byte	0x5f3
 2325 0d4d 1001     		.2byte	0x110
 2326 0d4f 00       		.byte	0
 2327 0d50 0D       		.uleb128 0xd
 2328 0d51 0B070000 		.4byte	0x70b
 2329 0d55 0D       		.uleb128 0xd
ARM GAS  /tmp/cc01KxiS.s 			page 42


 2330 0d56 0B070000 		.4byte	0x70b
 2331 0d5a 0D       		.uleb128 0xd
 2332 0d5b 0B070000 		.4byte	0x70b
 2333 0d5f 0D       		.uleb128 0xd
 2334 0d60 0B070000 		.4byte	0x70b
 2335 0d64 17       		.uleb128 0x17
 2336 0d65 F3050000 		.4byte	0x5f3
 2337 0d69 740D0000 		.4byte	0xd74
 2338 0d6d 18       		.uleb128 0x18
 2339 0d6e 2D030000 		.4byte	0x32d
 2340 0d72 02       		.byte	0x2
 2341 0d73 00       		.byte	0
 2342 0d74 0D       		.uleb128 0xd
 2343 0d75 640D0000 		.4byte	0xd64
 2344 0d79 0D       		.uleb128 0xd
 2345 0d7a 2B070000 		.4byte	0x72b
 2346 0d7e 17       		.uleb128 0x17
 2347 0d7f F3050000 		.4byte	0x5f3
 2348 0d83 8E0D0000 		.4byte	0xd8e
 2349 0d87 18       		.uleb128 0x18
 2350 0d88 2D030000 		.4byte	0x32d
 2351 0d8c 19       		.byte	0x19
 2352 0d8d 00       		.byte	0
 2353 0d8e 0D       		.uleb128 0xd
 2354 0d8f 7E0D0000 		.4byte	0xd7e
 2355 0d93 0D       		.uleb128 0xd
 2356 0d94 2B070000 		.4byte	0x72b
 2357 0d98 0D       		.uleb128 0xd
 2358 0d99 0B070000 		.4byte	0x70b
 2359 0d9d 1C       		.uleb128 0x1c
 2360 0d9e 506D6300 		.ascii	"Pmc\000"
 2361 0da2 0E       		.byte	0xe
 2362 0da3 620D     		.2byte	0xd62
 2363 0da5 860B0000 		.4byte	0xb86
 2364 0da9 19       		.uleb128 0x19
 2365 0daa 2801     		.2byte	0x128
 2366 0dac 0E       		.byte	0xe
 2367 0dad 0817     		.2byte	0x1708
 2368 0daf C20E0000 		.4byte	0xec2
 2369 0db3 1A       		.uleb128 0x1a
 2370 0db4 0A030000 		.4byte	.LASF224
 2371 0db8 0E       		.byte	0xe
 2372 0db9 0917     		.2byte	0x1709
 2373 0dbb E8050000 		.4byte	0x5e8
 2374 0dbf 00       		.byte	0
 2375 0dc0 1A       		.uleb128 0x1a
 2376 0dc1 9B0A0000 		.4byte	.LASF225
 2377 0dc5 0E       		.byte	0xe
 2378 0dc6 0A17     		.2byte	0x170a
 2379 0dc8 F3050000 		.4byte	0x5f3
 2380 0dcc 04       		.byte	0x4
 2381 0dcd 1A       		.uleb128 0x1a
 2382 0dce D2000000 		.4byte	.LASF226
 2383 0dd2 0E       		.byte	0xe
 2384 0dd3 0B17     		.2byte	0x170b
 2385 0dd5 E8050000 		.4byte	0x5e8
 2386 0dd9 08       		.byte	0x8
ARM GAS  /tmp/cc01KxiS.s 			page 43


 2387 0dda 1A       		.uleb128 0x1a
 2388 0ddb 95000000 		.4byte	.LASF227
 2389 0ddf 0E       		.byte	0xe
 2390 0de0 0C17     		.2byte	0x170c
 2391 0de2 E8050000 		.4byte	0x5e8
 2392 0de6 0C       		.byte	0xc
 2393 0de7 1A       		.uleb128 0x1a
 2394 0de8 FE030000 		.4byte	.LASF228
 2395 0dec 0E       		.byte	0xe
 2396 0ded 0D17     		.2byte	0x170d
 2397 0def D8050000 		.4byte	0x5d8
 2398 0df3 10       		.byte	0x10
 2399 0df4 1A       		.uleb128 0x1a
 2400 0df5 C0000000 		.4byte	.LASF229
 2401 0df9 0E       		.byte	0xe
 2402 0dfa 0E17     		.2byte	0x170e
 2403 0dfc D8050000 		.4byte	0x5d8
 2404 0e00 14       		.byte	0x14
 2405 0e01 1A       		.uleb128 0x1a
 2406 0e02 A8060000 		.4byte	.LASF230
 2407 0e06 0E       		.byte	0xe
 2408 0e07 0F17     		.2byte	0x170f
 2409 0e09 D8050000 		.4byte	0x5d8
 2410 0e0d 18       		.byte	0x18
 2411 0e0e 1A       		.uleb128 0x1a
 2412 0e0f 87040000 		.4byte	.LASF231
 2413 0e13 0E       		.byte	0xe
 2414 0e14 1017     		.2byte	0x1710
 2415 0e16 E8050000 		.4byte	0x5e8
 2416 0e1a 1C       		.byte	0x1c
 2417 0e1b 1A       		.uleb128 0x1a
 2418 0e1c 48090000 		.4byte	.LASF232
 2419 0e20 0E       		.byte	0xe
 2420 0e21 1117     		.2byte	0x1711
 2421 0e23 F3050000 		.4byte	0x5f3
 2422 0e27 20       		.byte	0x20
 2423 0e28 1A       		.uleb128 0x1a
 2424 0e29 71090000 		.4byte	.LASF125
 2425 0e2d 0E       		.byte	0xe
 2426 0e2e 1217     		.2byte	0x1712
 2427 0e30 D20E0000 		.4byte	0xed2
 2428 0e34 24       		.byte	0x24
 2429 0e35 1B       		.uleb128 0x1b
 2430 0e36 01030000 		.4byte	.LASF233
 2431 0e3a 0E       		.byte	0xe
 2432 0e3b 1317     		.2byte	0x1713
 2433 0e3d F3050000 		.4byte	0x5f3
 2434 0e41 0001     		.2byte	0x100
 2435 0e43 1B       		.uleb128 0x1b
 2436 0e44 590A0000 		.4byte	.LASF234
 2437 0e48 0E       		.byte	0xe
 2438 0e49 1417     		.2byte	0x1714
 2439 0e4b F3050000 		.4byte	0x5f3
 2440 0e4f 0401     		.2byte	0x104
 2441 0e51 1B       		.uleb128 0x1b
 2442 0e52 B9070000 		.4byte	.LASF235
 2443 0e56 0E       		.byte	0xe
ARM GAS  /tmp/cc01KxiS.s 			page 44


 2444 0e57 1517     		.2byte	0x1715
 2445 0e59 F3050000 		.4byte	0x5f3
 2446 0e5d 0801     		.2byte	0x108
 2447 0e5f 1B       		.uleb128 0x1b
 2448 0e60 DC020000 		.4byte	.LASF236
 2449 0e64 0E       		.byte	0xe
 2450 0e65 1617     		.2byte	0x1716
 2451 0e67 F3050000 		.4byte	0x5f3
 2452 0e6b 0C01     		.2byte	0x10c
 2453 0e6d 1B       		.uleb128 0x1b
 2454 0e6e F4030000 		.4byte	.LASF237
 2455 0e72 0E       		.byte	0xe
 2456 0e73 1717     		.2byte	0x1717
 2457 0e75 F3050000 		.4byte	0x5f3
 2458 0e79 1001     		.2byte	0x110
 2459 0e7b 1B       		.uleb128 0x1b
 2460 0e7c FD0A0000 		.4byte	.LASF238
 2461 0e80 0E       		.byte	0xe
 2462 0e81 1817     		.2byte	0x1718
 2463 0e83 F3050000 		.4byte	0x5f3
 2464 0e87 1401     		.2byte	0x114
 2465 0e89 1B       		.uleb128 0x1b
 2466 0e8a 0C040000 		.4byte	.LASF239
 2467 0e8e 0E       		.byte	0xe
 2468 0e8f 1917     		.2byte	0x1719
 2469 0e91 F3050000 		.4byte	0x5f3
 2470 0e95 1801     		.2byte	0x118
 2471 0e97 1B       		.uleb128 0x1b
 2472 0e98 2B0B0000 		.4byte	.LASF240
 2473 0e9c 0E       		.byte	0xe
 2474 0e9d 1A17     		.2byte	0x171a
 2475 0e9f F3050000 		.4byte	0x5f3
 2476 0ea3 1C01     		.2byte	0x11c
 2477 0ea5 1B       		.uleb128 0x1b
 2478 0ea6 24010000 		.4byte	.LASF241
 2479 0eaa 0E       		.byte	0xe
 2480 0eab 1B17     		.2byte	0x171b
 2481 0ead E8050000 		.4byte	0x5e8
 2482 0eb1 2001     		.2byte	0x120
 2483 0eb3 1B       		.uleb128 0x1b
 2484 0eb4 65070000 		.4byte	.LASF242
 2485 0eb8 0E       		.byte	0xe
 2486 0eb9 1C17     		.2byte	0x171c
 2487 0ebb D8050000 		.4byte	0x5d8
 2488 0ebf 2401     		.2byte	0x124
 2489 0ec1 00       		.byte	0
 2490 0ec2 17       		.uleb128 0x17
 2491 0ec3 F3050000 		.4byte	0x5f3
 2492 0ec7 D20E0000 		.4byte	0xed2
 2493 0ecb 18       		.uleb128 0x18
 2494 0ecc 2D030000 		.4byte	0x32d
 2495 0ed0 36       		.byte	0x36
 2496 0ed1 00       		.byte	0
 2497 0ed2 0D       		.uleb128 0xd
 2498 0ed3 C20E0000 		.4byte	0xec2
 2499 0ed7 14       		.uleb128 0x14
 2500 0ed8 07040000 		.4byte	.LASF243
ARM GAS  /tmp/cc01KxiS.s 			page 45


 2501 0edc 0E       		.byte	0xe
 2502 0edd 1D17     		.2byte	0x171d
 2503 0edf A90D0000 		.4byte	0xda9
 2504 0ee3 1D       		.uleb128 0x1d
 2505 0ee4 01       		.byte	0x1
 2506 0ee5 0F       		.byte	0xf
 2507 0ee6 64       		.byte	0x64
 2508 0ee7 FE0E0000 		.4byte	0xefe
 2509 0eeb 16       		.uleb128 0x16
 2510 0eec EE020000 		.4byte	.LASF244
 2511 0ef0 00       		.sleb128 0
 2512 0ef1 16       		.uleb128 0x16
 2513 0ef2 A00B0000 		.4byte	.LASF245
 2514 0ef6 01       		.sleb128 1
 2515 0ef7 16       		.uleb128 0x16
 2516 0ef8 090A0000 		.4byte	.LASF246
 2517 0efc 02       		.sleb128 2
 2518 0efd 00       		.byte	0
 2519 0efe 03       		.uleb128 0x3
 2520 0eff DC090000 		.4byte	.LASF247
 2521 0f03 0F       		.byte	0xf
 2522 0f04 68       		.byte	0x68
 2523 0f05 E30E0000 		.4byte	0xee3
 2524 0f09 03       		.uleb128 0x3
 2525 0f0a 30090000 		.4byte	.LASF248
 2526 0f0e 0F       		.byte	0xf
 2527 0f0f 6D       		.byte	0x6d
 2528 0f10 140F0000 		.4byte	0xf14
 2529 0f14 05       		.uleb128 0x5
 2530 0f15 30090000 		.4byte	.LASF248
 2531 0f19 74       		.byte	0x74
 2532 0f1a 0F       		.byte	0xf
 2533 0f1b 87       		.byte	0x87
 2534 0f1c 8B0F0000 		.4byte	0xf8b
 2535 0f20 07       		.uleb128 0x7
 2536 0f21 766D7400 		.ascii	"vmt\000"
 2537 0f25 0F       		.byte	0xf
 2538 0f26 89       		.byte	0x89
 2539 0f27 30100000 		.4byte	0x1030
 2540 0f2b 00       		.byte	0
 2541 0f2c 06       		.uleb128 0x6
 2542 0f2d 7F060000 		.4byte	.LASF249
 2543 0f31 0F       		.byte	0xf
 2544 0f32 8A       		.byte	0x8a
 2545 0f33 D6030000 		.4byte	0x3d6
 2546 0f37 04       		.byte	0x4
 2547 0f38 06       		.uleb128 0x6
 2548 0f39 9C030000 		.4byte	.LASF250
 2549 0f3d 0F       		.byte	0xf
 2550 0f3e 8A       		.byte	0x8a
 2551 0f3f B7050000 		.4byte	0x5b7
 2552 0f43 08       		.byte	0x8
 2553 0f44 06       		.uleb128 0x6
 2554 0f45 670A0000 		.4byte	.LASF251
 2555 0f49 0F       		.byte	0xf
 2556 0f4a 8A       		.byte	0x8a
 2557 0f4b FE0E0000 		.4byte	0xefe
ARM GAS  /tmp/cc01KxiS.s 			page 46


 2558 0f4f 0C       		.byte	0xc
 2559 0f50 06       		.uleb128 0x6
 2560 0f51 CB070000 		.4byte	.LASF252
 2561 0f55 0F       		.byte	0xf
 2562 0f56 8A       		.byte	0x8a
 2563 0f57 C2040000 		.4byte	0x4c2
 2564 0f5b 10       		.byte	0x10
 2565 0f5c 06       		.uleb128 0x6
 2566 0f5d 33020000 		.4byte	.LASF253
 2567 0f61 0F       		.byte	0xf
 2568 0f62 8A       		.byte	0x8a
 2569 0f63 CD040000 		.4byte	0x4cd
 2570 0f67 30       		.byte	0x30
 2571 0f68 07       		.uleb128 0x7
 2572 0f69 696200   		.ascii	"ib\000"
 2573 0f6c 0F       		.byte	0xf
 2574 0f6d 8A       		.byte	0x8a
 2575 0f6e 3B100000 		.4byte	0x103b
 2576 0f72 50       		.byte	0x50
 2577 0f73 07       		.uleb128 0x7
 2578 0f74 6F6200   		.ascii	"ob\000"
 2579 0f77 0F       		.byte	0xf
 2580 0f78 8A       		.byte	0x8a
 2581 0f79 3B100000 		.4byte	0x103b
 2582 0f7d 60       		.byte	0x60
 2583 0f7e 06       		.uleb128 0x6
 2584 0f7f 620A0000 		.4byte	.LASF254
 2585 0f83 0F       		.byte	0xf
 2586 0f84 8A       		.byte	0x8a
 2587 0f85 4B100000 		.4byte	0x104b
 2588 0f89 70       		.byte	0x70
 2589 0f8a 00       		.byte	0
 2590 0f8b 08       		.uleb128 0x8
 2591 0f8c 08       		.byte	0x8
 2592 0f8d 10       		.byte	0x10
 2593 0f8e 58       		.byte	0x58
 2594 0f8f AC0F0000 		.4byte	0xfac
 2595 0f93 06       		.uleb128 0x6
 2596 0f94 EE060000 		.4byte	.LASF255
 2597 0f98 10       		.byte	0x10
 2598 0f99 5D       		.byte	0x5d
 2599 0f9a C3000000 		.4byte	0xc3
 2600 0f9e 00       		.byte	0
 2601 0f9f 06       		.uleb128 0x6
 2602 0fa0 B3000000 		.4byte	.LASF256
 2603 0fa4 10       		.byte	0x10
 2604 0fa5 62       		.byte	0x62
 2605 0fa6 C3000000 		.4byte	0xc3
 2606 0faa 04       		.byte	0x4
 2607 0fab 00       		.byte	0
 2608 0fac 03       		.uleb128 0x3
 2609 0fad 77000000 		.4byte	.LASF257
 2610 0fb1 10       		.byte	0x10
 2611 0fb2 63       		.byte	0x63
 2612 0fb3 8B0F0000 		.4byte	0xf8b
 2613 0fb7 05       		.uleb128 0x5
 2614 0fb8 52050000 		.4byte	.LASF258
ARM GAS  /tmp/cc01KxiS.s 			page 47


 2615 0fbc 24       		.byte	0x24
 2616 0fbd 0F       		.byte	0xf
 2617 0fbe 7C       		.byte	0x7c
 2618 0fbf 30100000 		.4byte	0x1030
 2619 0fc3 06       		.uleb128 0x6
 2620 0fc4 AD000000 		.4byte	.LASF259
 2621 0fc8 0F       		.byte	0xf
 2622 0fc9 7D       		.byte	0x7d
 2623 0fca FC040000 		.4byte	0x4fc
 2624 0fce 00       		.byte	0
 2625 0fcf 06       		.uleb128 0x6
 2626 0fd0 96060000 		.4byte	.LASF260
 2627 0fd4 0F       		.byte	0xf
 2628 0fd5 7D       		.byte	0x7d
 2629 0fd6 1B050000 		.4byte	0x51b
 2630 0fda 04       		.byte	0x4
 2631 0fdb 06       		.uleb128 0x6
 2632 0fdc E6030000 		.4byte	.LASF261
 2633 0fe0 0F       		.byte	0xf
 2634 0fe1 7D       		.byte	0x7d
 2635 0fe2 30050000 		.4byte	0x530
 2636 0fe6 08       		.byte	0x8
 2637 0fe7 06       		.uleb128 0x6
 2638 0fe8 AB070000 		.4byte	.LASF262
 2639 0fec 0F       		.byte	0xf
 2640 0fed 7D       		.byte	0x7d
 2641 0fee 30050000 		.4byte	0x530
 2642 0ff2 0C       		.byte	0xc
 2643 0ff3 07       		.uleb128 0x7
 2644 0ff4 70757400 		.ascii	"put\000"
 2645 0ff8 0F       		.byte	0xf
 2646 0ff9 7D       		.byte	0x7d
 2647 0ffa 4F050000 		.4byte	0x54f
 2648 0ffe 10       		.byte	0x10
 2649 0fff 07       		.uleb128 0x7
 2650 1000 67657400 		.ascii	"get\000"
 2651 1004 0F       		.byte	0xf
 2652 1005 7D       		.byte	0x7d
 2653 1006 69050000 		.4byte	0x569
 2654 100a 14       		.byte	0x14
 2655 100b 06       		.uleb128 0x6
 2656 100c 84000000 		.4byte	.LASF263
 2657 1010 0F       		.byte	0xf
 2658 1011 7D       		.byte	0x7d
 2659 1012 8D050000 		.4byte	0x58d
 2660 1016 18       		.byte	0x18
 2661 1017 06       		.uleb128 0x6
 2662 1018 62010000 		.4byte	.LASF264
 2663 101c 0F       		.byte	0xf
 2664 101d 7D       		.byte	0x7d
 2665 101e B1050000 		.4byte	0x5b1
 2666 1022 1C       		.byte	0x1c
 2667 1023 06       		.uleb128 0x6
 2668 1024 920A0000 		.4byte	.LASF265
 2669 1028 0F       		.byte	0xf
 2670 1029 7D       		.byte	0x7d
 2671 102a D2050000 		.4byte	0x5d2
ARM GAS  /tmp/cc01KxiS.s 			page 48


 2672 102e 20       		.byte	0x20
 2673 102f 00       		.byte	0
 2674 1030 09       		.uleb128 0x9
 2675 1031 04       		.byte	0x4
 2676 1032 36100000 		.4byte	0x1036
 2677 1036 10       		.uleb128 0x10
 2678 1037 B70F0000 		.4byte	0xfb7
 2679 103b 17       		.uleb128 0x17
 2680 103c A2000000 		.4byte	0xa2
 2681 1040 4B100000 		.4byte	0x104b
 2682 1044 18       		.uleb128 0x18
 2683 1045 2D030000 		.4byte	0x32d
 2684 1049 0F       		.byte	0xf
 2685 104a 00       		.byte	0
 2686 104b 09       		.uleb128 0x9
 2687 104c 04       		.byte	0x4
 2688 104d D70E0000 		.4byte	0xed7
 2689 1051 1E       		.uleb128 0x1e
 2690 1052 E5010000 		.4byte	.LASF268
 2691 1056 01       		.byte	0x1
 2692 1057 4C       		.byte	0x4c
 2693 1058 01       		.byte	0x1
 2694 1059 88100000 		.4byte	0x1088
 2695 105d 1F       		.uleb128 0x1f
 2696 105e 73647000 		.ascii	"sdp\000"
 2697 1062 01       		.byte	0x1
 2698 1063 4C       		.byte	0x4c
 2699 1064 88100000 		.4byte	0x1088
 2700 1068 20       		.uleb128 0x20
 2701 1069 B9000000 		.4byte	.LASF266
 2702 106d 01       		.byte	0x1
 2703 106e 4C       		.byte	0x4c
 2704 106f 8E100000 		.4byte	0x108e
 2705 1073 21       		.uleb128 0x21
 2706 1074 7500     		.ascii	"u\000"
 2707 1076 01       		.byte	0x1
 2708 1077 4D       		.byte	0x4d
 2709 1078 4B100000 		.4byte	0x104b
 2710 107c 22       		.uleb128 0x22
 2711 107d 58070000 		.4byte	.LASF267
 2712 1081 01       		.byte	0x1
 2713 1082 4E       		.byte	0x4e
 2714 1083 C3000000 		.4byte	0xc3
 2715 1087 00       		.byte	0
 2716 1088 09       		.uleb128 0x9
 2717 1089 04       		.byte	0x4
 2718 108a 090F0000 		.4byte	0xf09
 2719 108e 09       		.uleb128 0x9
 2720 108f 04       		.byte	0x4
 2721 1090 94100000 		.4byte	0x1094
 2722 1094 10       		.uleb128 0x10
 2723 1095 AC0F0000 		.4byte	0xfac
 2724 1099 1E       		.uleb128 0x1e
 2725 109a 35000000 		.4byte	.LASF269
 2726 109e 01       		.byte	0x1
 2727 109f 67       		.byte	0x67
 2728 10a0 01       		.byte	0x1
ARM GAS  /tmp/cc01KxiS.s 			page 49


 2729 10a1 AF100000 		.4byte	0x10af
 2730 10a5 1F       		.uleb128 0x1f
 2731 10a6 7500     		.ascii	"u\000"
 2732 10a8 01       		.byte	0x1
 2733 10a9 67       		.byte	0x67
 2734 10aa 4B100000 		.4byte	0x104b
 2735 10ae 00       		.byte	0
 2736 10af 23       		.uleb128 0x23
 2737 10b0 240A0000 		.4byte	.LASF270
 2738 10b4 01       		.byte	0x1
 2739 10b5 AE       		.byte	0xae
 2740 10b6 00000000 		.4byte	.LFB40
 2741 10ba 0C000000 		.4byte	.LFE40-.LFB40
 2742 10be 01       		.uleb128 0x1
 2743 10bf 9C       		.byte	0x9c
 2744 10c0 D1100000 		.4byte	0x10d1
 2745 10c4 24       		.uleb128 0x24
 2746 10c5 717000   		.ascii	"qp\000"
 2747 10c8 01       		.byte	0x1
 2748 10c9 AE       		.byte	0xae
 2749 10ca B6040000 		.4byte	0x4b6
 2750 10ce 01       		.uleb128 0x1
 2751 10cf 50       		.byte	0x50
 2752 10d0 00       		.byte	0
 2753 10d1 23       		.uleb128 0x23
 2754 10d2 2C0A0000 		.4byte	.LASF271
 2755 10d6 01       		.byte	0x1
 2756 10d7 B7       		.byte	0xb7
 2757 10d8 00000000 		.4byte	.LFB41
 2758 10dc 0C000000 		.4byte	.LFE41-.LFB41
 2759 10e0 01       		.uleb128 0x1
 2760 10e1 9C       		.byte	0x9c
 2761 10e2 F3100000 		.4byte	0x10f3
 2762 10e6 24       		.uleb128 0x24
 2763 10e7 717000   		.ascii	"qp\000"
 2764 10ea 01       		.byte	0x1
 2765 10eb B7       		.byte	0xb7
 2766 10ec B6040000 		.4byte	0x4b6
 2767 10f0 01       		.uleb128 0x1
 2768 10f1 50       		.byte	0x50
 2769 10f2 00       		.byte	0
 2770 10f3 1E       		.uleb128 0x1e
 2771 10f4 2E010000 		.4byte	.LASF272
 2772 10f8 01       		.byte	0x1
 2773 10f9 75       		.byte	0x75
 2774 10fa 01       		.byte	0x1
 2775 10fb 3E110000 		.4byte	0x113e
 2776 10ff 1F       		.uleb128 0x1f
 2777 1100 73647000 		.ascii	"sdp\000"
 2778 1104 01       		.byte	0x1
 2779 1105 75       		.byte	0x75
 2780 1106 88100000 		.4byte	0x1088
 2781 110a 1F       		.uleb128 0x1f
 2782 110b 737200   		.ascii	"sr\000"
 2783 110e 01       		.byte	0x1
 2784 110f 75       		.byte	0x75
 2785 1110 AD000000 		.4byte	0xad
ARM GAS  /tmp/cc01KxiS.s 			page 50


 2786 1114 21       		.uleb128 0x21
 2787 1115 73747300 		.ascii	"sts\000"
 2788 1119 01       		.byte	0x1
 2789 111a 76       		.byte	0x76
 2790 111b B7050000 		.4byte	0x5b7
 2791 111f 25       		.uleb128 0x25
 2792 1120 30110000 		.4byte	0x1130
 2793 1124 21       		.uleb128 0x21
 2794 1125 746D7000 		.ascii	"tmp\000"
 2795 1129 01       		.byte	0x1
 2796 112a 7E       		.byte	0x7e
 2797 112b C3000000 		.4byte	0xc3
 2798 112f 00       		.byte	0
 2799 1130 26       		.uleb128 0x26
 2800 1131 21       		.uleb128 0x21
 2801 1132 746D7000 		.ascii	"tmp\000"
 2802 1136 01       		.byte	0x1
 2803 1137 80       		.byte	0x80
 2804 1138 C3000000 		.4byte	0xc3
 2805 113c 00       		.byte	0
 2806 113d 00       		.byte	0
 2807 113e 23       		.uleb128 0x23
 2808 113f 02010000 		.4byte	.LASF273
 2809 1143 01       		.byte	0x1
 2810 1144 88       		.byte	0x88
 2811 1145 00000000 		.4byte	.LFB39
 2812 1149 A2000000 		.4byte	.LFE39-.LFB39
 2813 114d 01       		.uleb128 0x1
 2814 114e 9C       		.byte	0x9c
 2815 114f AD120000 		.4byte	0x12ad
 2816 1153 27       		.uleb128 0x27
 2817 1154 73647000 		.ascii	"sdp\000"
 2818 1158 01       		.byte	0x1
 2819 1159 88       		.byte	0x88
 2820 115a 88100000 		.4byte	0x1088
 2821 115e 00000000 		.4byte	.LLST0
 2822 1162 28       		.uleb128 0x28
 2823 1163 737200   		.ascii	"sr\000"
 2824 1166 01       		.byte	0x1
 2825 1167 89       		.byte	0x89
 2826 1168 C3000000 		.4byte	0xc3
 2827 116c 34000000 		.4byte	.LLST1
 2828 1170 29       		.uleb128 0x29
 2829 1171 7500     		.ascii	"u\000"
 2830 1173 01       		.byte	0x1
 2831 1174 8A       		.byte	0x8a
 2832 1175 4B100000 		.4byte	0x104b
 2833 1179 01       		.uleb128 0x1
 2834 117a 55       		.byte	0x55
 2835 117b 2A       		.uleb128 0x2a
 2836 117c F3100000 		.4byte	0x10f3
 2837 1180 1E000000 		.4byte	.LBB17
 2838 1184 34000000 		.4byte	.LBE17-.LBB17
 2839 1188 01       		.byte	0x1
 2840 1189 A8       		.byte	0xa8
 2841 118a F3110000 		.4byte	0x11f3
 2842 118e 2B       		.uleb128 0x2b
ARM GAS  /tmp/cc01KxiS.s 			page 51


 2843 118f 0A110000 		.4byte	0x110a
 2844 1193 6D000000 		.4byte	.LLST2
 2845 1197 2B       		.uleb128 0x2b
 2846 1198 FF100000 		.4byte	0x10ff
 2847 119c 80000000 		.4byte	.LLST3
 2848 11a0 2C       		.uleb128 0x2c
 2849 11a1 1E000000 		.4byte	.LBB18
 2850 11a5 34000000 		.4byte	.LBE18-.LBB18
 2851 11a9 2D       		.uleb128 0x2d
 2852 11aa 14110000 		.4byte	0x1114
 2853 11ae 93000000 		.4byte	.LLST4
 2854 11b2 2E       		.uleb128 0x2e
 2855 11b3 38000000 		.4byte	.LBB19
 2856 11b7 06000000 		.4byte	.LBE19-.LBB19
 2857 11bb C7110000 		.4byte	0x11c7
 2858 11bf 2F       		.uleb128 0x2f
 2859 11c0 24110000 		.4byte	0x1124
 2860 11c4 01       		.uleb128 0x1
 2861 11c5 53       		.byte	0x53
 2862 11c6 00       		.byte	0
 2863 11c7 2E       		.uleb128 0x2e
 2864 11c8 4C000000 		.4byte	.LBB20
 2865 11cc 06000000 		.4byte	.LBE20-.LBB20
 2866 11d0 DC110000 		.4byte	0x11dc
 2867 11d4 2F       		.uleb128 0x2f
 2868 11d5 31110000 		.4byte	0x1131
 2869 11d9 01       		.uleb128 0x1
 2870 11da 53       		.byte	0x53
 2871 11db 00       		.byte	0
 2872 11dc 30       		.uleb128 0x30
 2873 11dd 4C000000 		.4byte	.LVL13
 2874 11e1 F4140000 		.4byte	0x14f4
 2875 11e5 31       		.uleb128 0x31
 2876 11e6 01       		.uleb128 0x1
 2877 11e7 51       		.byte	0x51
 2878 11e8 01       		.uleb128 0x1
 2879 11e9 30       		.byte	0x30
 2880 11ea 31       		.uleb128 0x31
 2881 11eb 01       		.uleb128 0x1
 2882 11ec 50       		.byte	0x50
 2883 11ed 02       		.uleb128 0x2
 2884 11ee 76       		.byte	0x76
 2885 11ef 04       		.sleb128 4
 2886 11f0 00       		.byte	0
 2887 11f1 00       		.byte	0
 2888 11f2 00       		.byte	0
 2889 11f3 2E       		.uleb128 0x2e
 2890 11f4 5A000000 		.4byte	.LBB21
 2891 11f8 06000000 		.4byte	.LBE21-.LBB21
 2892 11fc 0E120000 		.4byte	0x120e
 2893 1200 29       		.uleb128 0x29
 2894 1201 746D7000 		.ascii	"tmp\000"
 2895 1205 01       		.byte	0x1
 2896 1206 91       		.byte	0x91
 2897 1207 C3000000 		.4byte	0xc3
 2898 120b 01       		.uleb128 0x1
 2899 120c 53       		.byte	0x53
ARM GAS  /tmp/cc01KxiS.s 			page 52


 2900 120d 00       		.byte	0
 2901 120e 2E       		.uleb128 0x2e
 2902 120f 68000000 		.4byte	.LBB22
 2903 1213 08000000 		.4byte	.LBE22-.LBB22
 2904 1217 29120000 		.4byte	0x1229
 2905 121b 29       		.uleb128 0x29
 2906 121c 746D7000 		.ascii	"tmp\000"
 2907 1220 01       		.byte	0x1
 2908 1221 93       		.byte	0x93
 2909 1222 C3000000 		.4byte	0xc3
 2910 1226 01       		.uleb128 0x1
 2911 1227 53       		.byte	0x53
 2912 1228 00       		.byte	0
 2913 1229 2E       		.uleb128 0x2e
 2914 122a 70000000 		.4byte	.LBB23
 2915 122e 32000000 		.4byte	.LBE23-.LBB23
 2916 1232 A3120000 		.4byte	0x12a3
 2917 1236 28       		.uleb128 0x28
 2918 1237 6200     		.ascii	"b\000"
 2919 1239 01       		.byte	0x1
 2920 123a 98       		.byte	0x98
 2921 123b 10010000 		.4byte	0x110
 2922 123f B2000000 		.4byte	.LLST5
 2923 1243 2E       		.uleb128 0x2e
 2924 1244 70000000 		.4byte	.LBB24
 2925 1248 06000000 		.4byte	.LBE24-.LBB24
 2926 124c 5E120000 		.4byte	0x125e
 2927 1250 29       		.uleb128 0x29
 2928 1251 746D7000 		.ascii	"tmp\000"
 2929 1255 01       		.byte	0x1
 2930 1256 9A       		.byte	0x9a
 2931 1257 C3000000 		.4byte	0xc3
 2932 125b 01       		.uleb128 0x1
 2933 125c 53       		.byte	0x53
 2934 125d 00       		.byte	0
 2935 125e 2E       		.uleb128 0x2e
 2936 125f 84000000 		.4byte	.LBB25
 2937 1263 08000000 		.4byte	.LBE25-.LBB25
 2938 1267 79120000 		.4byte	0x1279
 2939 126b 29       		.uleb128 0x29
 2940 126c 746D7000 		.ascii	"tmp\000"
 2941 1270 01       		.byte	0x1
 2942 1271 A2       		.byte	0xa2
 2943 1272 C3000000 		.4byte	0xc3
 2944 1276 01       		.uleb128 0x1
 2945 1277 53       		.byte	0x53
 2946 1278 00       		.byte	0
 2947 1279 32       		.uleb128 0x32
 2948 127a 7E000000 		.4byte	.LVL17
 2949 127e 10150000 		.4byte	0x1510
 2950 1282 8D120000 		.4byte	0x128d
 2951 1286 31       		.uleb128 0x31
 2952 1287 01       		.uleb128 0x1
 2953 1288 50       		.byte	0x50
 2954 1289 02       		.uleb128 0x2
 2955 128a 76       		.byte	0x76
 2956 128b 30       		.sleb128 48
ARM GAS  /tmp/cc01KxiS.s 			page 53


 2957 128c 00       		.byte	0
 2958 128d 30       		.uleb128 0x30
 2959 128e 9C000000 		.4byte	.LVL21
 2960 1292 F4140000 		.4byte	0x14f4
 2961 1296 31       		.uleb128 0x31
 2962 1297 01       		.uleb128 0x1
 2963 1298 51       		.byte	0x51
 2964 1299 01       		.uleb128 0x1
 2965 129a 30       		.byte	0x30
 2966 129b 31       		.uleb128 0x31
 2967 129c 01       		.uleb128 0x1
 2968 129d 50       		.byte	0x50
 2969 129e 02       		.uleb128 0x2
 2970 129f 76       		.byte	0x76
 2971 12a0 04       		.sleb128 4
 2972 12a1 00       		.byte	0
 2973 12a2 00       		.byte	0
 2974 12a3 33       		.uleb128 0x33
 2975 12a4 68000000 		.4byte	.LVL16
 2976 12a8 2C150000 		.4byte	0x152c
 2977 12ac 00       		.byte	0
 2978 12ad 34       		.uleb128 0x34
 2979 12ae 2F050000 		.4byte	.LASF274
 2980 12b2 01       		.byte	0x1
 2981 12b3 C9       		.byte	0xc9
 2982 12b4 00000000 		.4byte	.LFB42
 2983 12b8 14000000 		.4byte	.LFE42-.LFB42
 2984 12bc 01       		.uleb128 0x1
 2985 12bd 9C       		.byte	0x9c
 2986 12be E3120000 		.4byte	0x12e3
 2987 12c2 32       		.uleb128 0x32
 2988 12c3 08000000 		.4byte	.LVL22
 2989 12c7 3E110000 		.4byte	0x113e
 2990 12cb D9120000 		.4byte	0x12d9
 2991 12cf 31       		.uleb128 0x31
 2992 12d0 01       		.uleb128 0x1
 2993 12d1 50       		.byte	0x50
 2994 12d2 05       		.uleb128 0x5
 2995 12d3 03       		.byte	0x3
 2996 12d4 00000000 		.4byte	.LANCHOR0
 2997 12d8 00       		.byte	0
 2998 12d9 35       		.uleb128 0x35
 2999 12da 10000000 		.4byte	.LVL23
 3000 12de 43150000 		.4byte	0x1543
 3001 12e2 00       		.byte	0
 3002 12e3 34       		.uleb128 0x34
 3003 12e4 38050000 		.4byte	.LASF275
 3004 12e8 01       		.byte	0x1
 3005 12e9 DA       		.byte	0xda
 3006 12ea 00000000 		.4byte	.LFB43
 3007 12ee 14000000 		.4byte	.LFE43-.LFB43
 3008 12f2 01       		.uleb128 0x1
 3009 12f3 9C       		.byte	0x9c
 3010 12f4 19130000 		.4byte	0x1319
 3011 12f8 32       		.uleb128 0x32
 3012 12f9 08000000 		.4byte	.LVL24
 3013 12fd 3E110000 		.4byte	0x113e
ARM GAS  /tmp/cc01KxiS.s 			page 54


 3014 1301 0F130000 		.4byte	0x130f
 3015 1305 31       		.uleb128 0x31
 3016 1306 01       		.uleb128 0x1
 3017 1307 50       		.byte	0x50
 3018 1308 05       		.uleb128 0x5
 3019 1309 03       		.byte	0x3
 3020 130a 00000000 		.4byte	.LANCHOR1
 3021 130e 00       		.byte	0
 3022 130f 35       		.uleb128 0x35
 3023 1310 10000000 		.4byte	.LVL25
 3024 1314 43150000 		.4byte	0x1543
 3025 1318 00       		.byte	0
 3026 1319 34       		.uleb128 0x34
 3027 131a B3050000 		.4byte	.LASF276
 3028 131e 01       		.byte	0x1
 3029 131f EE       		.byte	0xee
 3030 1320 00000000 		.4byte	.LFB44
 3031 1324 58000000 		.4byte	.LFE44-.LFB44
 3032 1328 01       		.uleb128 0x1
 3033 1329 9C       		.byte	0x9c
 3034 132a 6F130000 		.4byte	0x136f
 3035 132e 32       		.uleb128 0x32
 3036 132f 0E000000 		.4byte	.LVL26
 3037 1333 4B150000 		.4byte	0x154b
 3038 1337 50130000 		.4byte	0x1350
 3039 133b 31       		.uleb128 0x31
 3040 133c 01       		.uleb128 0x1
 3041 133d 52       		.byte	0x52
 3042 133e 05       		.uleb128 0x5
 3043 133f 03       		.byte	0x3
 3044 1340 00000000 		.4byte	notify1
 3045 1344 31       		.uleb128 0x31
 3046 1345 01       		.uleb128 0x1
 3047 1346 51       		.byte	0x51
 3048 1347 01       		.uleb128 0x1
 3049 1348 30       		.byte	0x30
 3050 1349 31       		.uleb128 0x31
 3051 134a 01       		.uleb128 0x1
 3052 134b 50       		.byte	0x50
 3053 134c 02       		.uleb128 0x2
 3054 134d 75       		.byte	0x75
 3055 134e 00       		.sleb128 0
 3056 134f 00       		.byte	0
 3057 1350 30       		.uleb128 0x30
 3058 1351 28000000 		.4byte	.LVL27
 3059 1355 4B150000 		.4byte	0x154b
 3060 1359 31       		.uleb128 0x31
 3061 135a 01       		.uleb128 0x1
 3062 135b 52       		.byte	0x52
 3063 135c 05       		.uleb128 0x5
 3064 135d 03       		.byte	0x3
 3065 135e 00000000 		.4byte	notify2
 3066 1362 31       		.uleb128 0x31
 3067 1363 01       		.uleb128 0x1
 3068 1364 51       		.byte	0x51
 3069 1365 01       		.uleb128 0x1
 3070 1366 30       		.byte	0x30
ARM GAS  /tmp/cc01KxiS.s 			page 55


 3071 1367 31       		.uleb128 0x31
 3072 1368 01       		.uleb128 0x1
 3073 1369 50       		.byte	0x50
 3074 136a 02       		.uleb128 0x2
 3075 136b 74       		.byte	0x74
 3076 136c 00       		.sleb128 0
 3077 136d 00       		.byte	0
 3078 136e 00       		.byte	0
 3079 136f 36       		.uleb128 0x36
 3080 1370 68010000 		.4byte	.LASF277
 3081 1374 01       		.byte	0x1
 3082 1375 0A01     		.2byte	0x10a
 3083 1377 00000000 		.4byte	.LFB45
 3084 137b A4000000 		.4byte	.LFE45-.LFB45
 3085 137f 01       		.uleb128 0x1
 3086 1380 9C       		.byte	0x9c
 3087 1381 20140000 		.4byte	0x1420
 3088 1385 37       		.uleb128 0x37
 3089 1386 73647000 		.ascii	"sdp\000"
 3090 138a 01       		.byte	0x1
 3091 138b 0A01     		.2byte	0x10a
 3092 138d 88100000 		.4byte	0x1088
 3093 1391 D0000000 		.4byte	.LLST6
 3094 1395 38       		.uleb128 0x38
 3095 1396 B9000000 		.4byte	.LASF266
 3096 139a 01       		.byte	0x1
 3097 139b 0A01     		.2byte	0x10a
 3098 139d 8E100000 		.4byte	0x108e
 3099 13a1 28010000 		.4byte	.LLST7
 3100 13a5 39       		.uleb128 0x39
 3101 13a6 51100000 		.4byte	0x1051
 3102 13aa 14000000 		.4byte	.LBB26
 3103 13ae 2C000000 		.4byte	.LBE26-.LBB26
 3104 13b2 01       		.byte	0x1
 3105 13b3 3101     		.2byte	0x131
 3106 13b5 F1130000 		.4byte	0x13f1
 3107 13b9 2B       		.uleb128 0x2b
 3108 13ba 5D100000 		.4byte	0x105d
 3109 13be 6E010000 		.4byte	.LLST8
 3110 13c2 2B       		.uleb128 0x2b
 3111 13c3 68100000 		.4byte	0x1068
 3112 13c7 84010000 		.4byte	.LLST9
 3113 13cb 2C       		.uleb128 0x2c
 3114 13cc 14000000 		.4byte	.LBB27
 3115 13d0 2C000000 		.4byte	.LBE27-.LBB27
 3116 13d4 2D       		.uleb128 0x2d
 3117 13d5 73100000 		.4byte	0x1073
 3118 13d9 B4010000 		.4byte	.LLST10
 3119 13dd 2D       		.uleb128 0x2d
 3120 13de 7C100000 		.4byte	0x107c
 3121 13e2 C7010000 		.4byte	.LLST11
 3122 13e6 33       		.uleb128 0x33
 3123 13e7 18000000 		.4byte	.LVL32
 3124 13eb 67150000 		.4byte	0x1567
 3125 13ef 00       		.byte	0
 3126 13f0 00       		.byte	0
 3127 13f1 32       		.uleb128 0x32
ARM GAS  /tmp/cc01KxiS.s 			page 56


 3128 13f2 68000000 		.4byte	.LVL38
 3129 13f6 6E150000 		.4byte	0x156e
 3130 13fa 0A140000 		.4byte	0x140a
 3131 13fe 31       		.uleb128 0x31
 3132 13ff 01       		.uleb128 0x1
 3133 1400 51       		.byte	0x51
 3134 1401 02       		.uleb128 0x2
 3135 1402 08       		.byte	0x8
 3136 1403 C0       		.byte	0xc0
 3137 1404 31       		.uleb128 0x31
 3138 1405 01       		.uleb128 0x1
 3139 1406 50       		.byte	0x50
 3140 1407 01       		.uleb128 0x1
 3141 1408 39       		.byte	0x39
 3142 1409 00       		.byte	0
 3143 140a 30       		.uleb128 0x30
 3144 140b 86000000 		.4byte	.LVL41
 3145 140f 6E150000 		.4byte	0x156e
 3146 1413 31       		.uleb128 0x31
 3147 1414 01       		.uleb128 0x1
 3148 1415 51       		.byte	0x51
 3149 1416 02       		.uleb128 0x2
 3150 1417 08       		.byte	0x8
 3151 1418 C0       		.byte	0xc0
 3152 1419 31       		.uleb128 0x31
 3153 141a 01       		.uleb128 0x1
 3154 141b 50       		.byte	0x50
 3155 141c 01       		.uleb128 0x1
 3156 141d 38       		.byte	0x38
 3157 141e 00       		.byte	0
 3158 141f 00       		.byte	0
 3159 1420 36       		.uleb128 0x36
 3160 1421 620B0000 		.4byte	.LASF278
 3161 1425 01       		.byte	0x1
 3162 1426 3D01     		.2byte	0x13d
 3163 1428 00000000 		.4byte	.LFB46
 3164 142c 80000000 		.4byte	.LFE46-.LFB46
 3165 1430 01       		.uleb128 0x1
 3166 1431 9C       		.byte	0x9c
 3167 1432 A5140000 		.4byte	0x14a5
 3168 1436 37       		.uleb128 0x37
 3169 1437 73647000 		.ascii	"sdp\000"
 3170 143b 01       		.byte	0x1
 3171 143c 3D01     		.2byte	0x13d
 3172 143e 88100000 		.4byte	0x1088
 3173 1442 DA010000 		.4byte	.LLST12
 3174 1446 3A       		.uleb128 0x3a
 3175 1447 99100000 		.4byte	0x1099
 3176 144b 0E000000 		.4byte	.LBB28
 3177 144f 00000000 		.4byte	.Ldebug_ranges0+0
 3178 1453 01       		.byte	0x1
 3179 1454 4001     		.2byte	0x140
 3180 1456 64140000 		.4byte	0x1464
 3181 145a 2B       		.uleb128 0x2b
 3182 145b A5100000 		.4byte	0x10a5
 3183 145f 14020000 		.4byte	.LLST13
 3184 1463 00       		.byte	0
ARM GAS  /tmp/cc01KxiS.s 			page 57


 3185 1464 3A       		.uleb128 0x3a
 3186 1465 99100000 		.4byte	0x1099
 3187 1469 24000000 		.4byte	.LBB32
 3188 146d 18000000 		.4byte	.Ldebug_ranges0+0x18
 3189 1471 01       		.byte	0x1
 3190 1472 5201     		.2byte	0x152
 3191 1474 82140000 		.4byte	0x1482
 3192 1478 2B       		.uleb128 0x2b
 3193 1479 A5100000 		.4byte	0x10a5
 3194 147d 6A020000 		.4byte	.LLST14
 3195 1481 00       		.byte	0
 3196 1482 3B       		.uleb128 0x3b
 3197 1483 4E000000 		.4byte	.LVL47
 3198 1487 85150000 		.4byte	0x1585
 3199 148b 95140000 		.4byte	0x1495
 3200 148f 31       		.uleb128 0x31
 3201 1490 01       		.uleb128 0x1
 3202 1491 50       		.byte	0x50
 3203 1492 01       		.uleb128 0x1
 3204 1493 39       		.byte	0x39
 3205 1494 00       		.byte	0
 3206 1495 3C       		.uleb128 0x3c
 3207 1496 6A000000 		.4byte	.LVL50
 3208 149a 85150000 		.4byte	0x1585
 3209 149e 31       		.uleb128 0x31
 3210 149f 01       		.uleb128 0x1
 3211 14a0 50       		.byte	0x50
 3212 14a1 01       		.uleb128 0x1
 3213 14a2 38       		.byte	0x38
 3214 14a3 00       		.byte	0
 3215 14a4 00       		.byte	0
 3216 14a5 3D       		.uleb128 0x3d
 3217 14a6 D6010000 		.4byte	.LASF279
 3218 14aa 01       		.byte	0x1
 3219 14ab 3C       		.byte	0x3c
 3220 14ac 94100000 		.4byte	0x1094
 3221 14b0 05       		.uleb128 0x5
 3222 14b1 03       		.byte	0x3
 3223 14b2 00000000 		.4byte	default_config
 3224 14b6 3E       		.uleb128 0x3e
 3225 14b7 4A060000 		.4byte	.LASF280
 3226 14bb 11       		.byte	0x11
 3227 14bc CE06     		.2byte	0x6ce
 3228 14be C2140000 		.4byte	0x14c2
 3229 14c2 0D       		.uleb128 0xd
 3230 14c3 25000000 		.4byte	0x25
 3231 14c7 3F       		.uleb128 0x3f
 3232 14c8 0F050000 		.4byte	.LASF281
 3233 14cc 12       		.byte	0x12
 3234 14cd 21       		.byte	0x21
 3235 14ce C3000000 		.4byte	0xc3
 3236 14d2 40       		.uleb128 0x40
 3237 14d3 53443100 		.ascii	"SD1\000"
 3238 14d7 01       		.byte	0x1
 3239 14d8 2E       		.byte	0x2e
 3240 14d9 090F0000 		.4byte	0xf09
 3241 14dd 05       		.uleb128 0x5
ARM GAS  /tmp/cc01KxiS.s 			page 58


 3242 14de 03       		.byte	0x3
 3243 14df 00000000 		.4byte	SD1
 3244 14e3 40       		.uleb128 0x40
 3245 14e4 53443200 		.ascii	"SD2\000"
 3246 14e8 01       		.byte	0x1
 3247 14e9 32       		.byte	0x32
 3248 14ea 090F0000 		.4byte	0xf09
 3249 14ee 05       		.uleb128 0x5
 3250 14ef 03       		.byte	0x3
 3251 14f0 00000000 		.4byte	SD2
 3252 14f4 41       		.uleb128 0x41
 3253 14f5 79070000 		.4byte	.LASF282
 3254 14f9 0B       		.byte	0xb
 3255 14fa B3       		.byte	0xb3
 3256 14fb 0A150000 		.4byte	0x150a
 3257 14ff 12       		.uleb128 0x12
 3258 1500 0A150000 		.4byte	0x150a
 3259 1504 12       		.uleb128 0x12
 3260 1505 1B010000 		.4byte	0x11b
 3261 1509 00       		.byte	0
 3262 150a 09       		.uleb128 0x9
 3263 150b 04       		.byte	0x4
 3264 150c D6030000 		.4byte	0x3d6
 3265 1510 42       		.uleb128 0x42
 3266 1511 D3060000 		.4byte	.LASF292
 3267 1515 0C       		.byte	0xc
 3268 1516 5A01     		.2byte	0x15a
 3269 1518 10010000 		.4byte	0x110
 3270 151c 26150000 		.4byte	0x1526
 3271 1520 12       		.uleb128 0x12
 3272 1521 26150000 		.4byte	0x1526
 3273 1525 00       		.byte	0
 3274 1526 09       		.uleb128 0x9
 3275 1527 04       		.byte	0x4
 3276 1528 CD040000 		.4byte	0x4cd
 3277 152c 43       		.uleb128 0x43
 3278 152d D8050000 		.4byte	.LASF283
 3279 1531 0F       		.byte	0xf
 3280 1532 3B01     		.2byte	0x13b
 3281 1534 43150000 		.4byte	0x1543
 3282 1538 12       		.uleb128 0x12
 3283 1539 88100000 		.4byte	0x1088
 3284 153d 12       		.uleb128 0x12
 3285 153e A2000000 		.4byte	0xa2
 3286 1542 00       		.byte	0
 3287 1543 44       		.uleb128 0x44
 3288 1544 F7060000 		.4byte	.LASF285
 3289 1548 09       		.byte	0x9
 3290 1549 F501     		.2byte	0x1f5
 3291 154b 43       		.uleb128 0x43
 3292 154c 8F010000 		.4byte	.LASF284
 3293 1550 0F       		.byte	0xf
 3294 1551 3801     		.2byte	0x138
 3295 1553 67150000 		.4byte	0x1567
 3296 1557 12       		.uleb128 0x12
 3297 1558 88100000 		.4byte	0x1088
 3298 155c 12       		.uleb128 0x12
ARM GAS  /tmp/cc01KxiS.s 			page 59


 3299 155d 9A040000 		.4byte	0x49a
 3300 1561 12       		.uleb128 0x12
 3301 1562 9A040000 		.4byte	0x49a
 3302 1566 00       		.byte	0
 3303 1567 45       		.uleb128 0x45
 3304 1568 CC0A0000 		.4byte	.LASF286
 3305 156c 12       		.byte	0x12
 3306 156d 38       		.byte	0x38
 3307 156e 43       		.uleb128 0x43
 3308 156f 67020000 		.4byte	.LASF287
 3309 1573 13       		.byte	0x13
 3310 1574 2301     		.2byte	0x123
 3311 1576 85150000 		.4byte	0x1585
 3312 157a 12       		.uleb128 0x12
 3313 157b C3000000 		.4byte	0xc3
 3314 157f 12       		.uleb128 0x12
 3315 1580 C3000000 		.4byte	0xc3
 3316 1584 00       		.byte	0
 3317 1585 46       		.uleb128 0x46
 3318 1586 8E070000 		.4byte	.LASF293
 3319 158a 13       		.byte	0x13
 3320 158b 2401     		.2byte	0x124
 3321 158d 12       		.uleb128 0x12
 3322 158e C3000000 		.4byte	0xc3
 3323 1592 00       		.byte	0
 3324 1593 00       		.byte	0
 3325              		.section	.debug_abbrev,"",%progbits
 3326              	.Ldebug_abbrev0:
 3327 0000 01       		.uleb128 0x1
 3328 0001 11       		.uleb128 0x11
 3329 0002 01       		.byte	0x1
 3330 0003 25       		.uleb128 0x25
 3331 0004 0E       		.uleb128 0xe
 3332 0005 13       		.uleb128 0x13
 3333 0006 0B       		.uleb128 0xb
 3334 0007 03       		.uleb128 0x3
 3335 0008 0E       		.uleb128 0xe
 3336 0009 1B       		.uleb128 0x1b
 3337 000a 0E       		.uleb128 0xe
 3338 000b 55       		.uleb128 0x55
 3339 000c 17       		.uleb128 0x17
 3340 000d 11       		.uleb128 0x11
 3341 000e 01       		.uleb128 0x1
 3342 000f 10       		.uleb128 0x10
 3343 0010 17       		.uleb128 0x17
 3344 0011 00       		.byte	0
 3345 0012 00       		.byte	0
 3346 0013 02       		.uleb128 0x2
 3347 0014 24       		.uleb128 0x24
 3348 0015 00       		.byte	0
 3349 0016 0B       		.uleb128 0xb
 3350 0017 0B       		.uleb128 0xb
 3351 0018 3E       		.uleb128 0x3e
 3352 0019 0B       		.uleb128 0xb
 3353 001a 03       		.uleb128 0x3
 3354 001b 08       		.uleb128 0x8
 3355 001c 00       		.byte	0
ARM GAS  /tmp/cc01KxiS.s 			page 60


 3356 001d 00       		.byte	0
 3357 001e 03       		.uleb128 0x3
 3358 001f 16       		.uleb128 0x16
 3359 0020 00       		.byte	0
 3360 0021 03       		.uleb128 0x3
 3361 0022 0E       		.uleb128 0xe
 3362 0023 3A       		.uleb128 0x3a
 3363 0024 0B       		.uleb128 0xb
 3364 0025 3B       		.uleb128 0x3b
 3365 0026 0B       		.uleb128 0xb
 3366 0027 49       		.uleb128 0x49
 3367 0028 13       		.uleb128 0x13
 3368 0029 00       		.byte	0
 3369 002a 00       		.byte	0
 3370 002b 04       		.uleb128 0x4
 3371 002c 24       		.uleb128 0x24
 3372 002d 00       		.byte	0
 3373 002e 0B       		.uleb128 0xb
 3374 002f 0B       		.uleb128 0xb
 3375 0030 3E       		.uleb128 0x3e
 3376 0031 0B       		.uleb128 0xb
 3377 0032 03       		.uleb128 0x3
 3378 0033 0E       		.uleb128 0xe
 3379 0034 00       		.byte	0
 3380 0035 00       		.byte	0
 3381 0036 05       		.uleb128 0x5
 3382 0037 13       		.uleb128 0x13
 3383 0038 01       		.byte	0x1
 3384 0039 03       		.uleb128 0x3
 3385 003a 0E       		.uleb128 0xe
 3386 003b 0B       		.uleb128 0xb
 3387 003c 0B       		.uleb128 0xb
 3388 003d 3A       		.uleb128 0x3a
 3389 003e 0B       		.uleb128 0xb
 3390 003f 3B       		.uleb128 0x3b
 3391 0040 0B       		.uleb128 0xb
 3392 0041 01       		.uleb128 0x1
 3393 0042 13       		.uleb128 0x13
 3394 0043 00       		.byte	0
 3395 0044 00       		.byte	0
 3396 0045 06       		.uleb128 0x6
 3397 0046 0D       		.uleb128 0xd
 3398 0047 00       		.byte	0
 3399 0048 03       		.uleb128 0x3
 3400 0049 0E       		.uleb128 0xe
 3401 004a 3A       		.uleb128 0x3a
 3402 004b 0B       		.uleb128 0xb
 3403 004c 3B       		.uleb128 0x3b
 3404 004d 0B       		.uleb128 0xb
 3405 004e 49       		.uleb128 0x49
 3406 004f 13       		.uleb128 0x13
 3407 0050 38       		.uleb128 0x38
 3408 0051 0B       		.uleb128 0xb
 3409 0052 00       		.byte	0
 3410 0053 00       		.byte	0
 3411 0054 07       		.uleb128 0x7
 3412 0055 0D       		.uleb128 0xd
ARM GAS  /tmp/cc01KxiS.s 			page 61


 3413 0056 00       		.byte	0
 3414 0057 03       		.uleb128 0x3
 3415 0058 08       		.uleb128 0x8
 3416 0059 3A       		.uleb128 0x3a
 3417 005a 0B       		.uleb128 0xb
 3418 005b 3B       		.uleb128 0x3b
 3419 005c 0B       		.uleb128 0xb
 3420 005d 49       		.uleb128 0x49
 3421 005e 13       		.uleb128 0x13
 3422 005f 38       		.uleb128 0x38
 3423 0060 0B       		.uleb128 0xb
 3424 0061 00       		.byte	0
 3425 0062 00       		.byte	0
 3426 0063 08       		.uleb128 0x8
 3427 0064 13       		.uleb128 0x13
 3428 0065 01       		.byte	0x1
 3429 0066 0B       		.uleb128 0xb
 3430 0067 0B       		.uleb128 0xb
 3431 0068 3A       		.uleb128 0x3a
 3432 0069 0B       		.uleb128 0xb
 3433 006a 3B       		.uleb128 0x3b
 3434 006b 0B       		.uleb128 0xb
 3435 006c 01       		.uleb128 0x1
 3436 006d 13       		.uleb128 0x13
 3437 006e 00       		.byte	0
 3438 006f 00       		.byte	0
 3439 0070 09       		.uleb128 0x9
 3440 0071 0F       		.uleb128 0xf
 3441 0072 00       		.byte	0
 3442 0073 0B       		.uleb128 0xb
 3443 0074 0B       		.uleb128 0xb
 3444 0075 49       		.uleb128 0x49
 3445 0076 13       		.uleb128 0x13
 3446 0077 00       		.byte	0
 3447 0078 00       		.byte	0
 3448 0079 0A       		.uleb128 0xa
 3449 007a 0F       		.uleb128 0xf
 3450 007b 00       		.byte	0
 3451 007c 0B       		.uleb128 0xb
 3452 007d 0B       		.uleb128 0xb
 3453 007e 00       		.byte	0
 3454 007f 00       		.byte	0
 3455 0080 0B       		.uleb128 0xb
 3456 0081 0D       		.uleb128 0xd
 3457 0082 00       		.byte	0
 3458 0083 03       		.uleb128 0x3
 3459 0084 08       		.uleb128 0x8
 3460 0085 3A       		.uleb128 0x3a
 3461 0086 0B       		.uleb128 0xb
 3462 0087 3B       		.uleb128 0x3b
 3463 0088 05       		.uleb128 0x5
 3464 0089 49       		.uleb128 0x49
 3465 008a 13       		.uleb128 0x13
 3466 008b 38       		.uleb128 0x38
 3467 008c 0B       		.uleb128 0xb
 3468 008d 00       		.byte	0
 3469 008e 00       		.byte	0
ARM GAS  /tmp/cc01KxiS.s 			page 62


 3470 008f 0C       		.uleb128 0xc
 3471 0090 13       		.uleb128 0x13
 3472 0091 01       		.byte	0x1
 3473 0092 03       		.uleb128 0x3
 3474 0093 0E       		.uleb128 0xe
 3475 0094 0B       		.uleb128 0xb
 3476 0095 0B       		.uleb128 0xb
 3477 0096 3A       		.uleb128 0x3a
 3478 0097 0B       		.uleb128 0xb
 3479 0098 3B       		.uleb128 0x3b
 3480 0099 05       		.uleb128 0x5
 3481 009a 01       		.uleb128 0x1
 3482 009b 13       		.uleb128 0x13
 3483 009c 00       		.byte	0
 3484 009d 00       		.byte	0
 3485 009e 0D       		.uleb128 0xd
 3486 009f 35       		.uleb128 0x35
 3487 00a0 00       		.byte	0
 3488 00a1 49       		.uleb128 0x49
 3489 00a2 13       		.uleb128 0x13
 3490 00a3 00       		.byte	0
 3491 00a4 00       		.byte	0
 3492 00a5 0E       		.uleb128 0xe
 3493 00a6 17       		.uleb128 0x17
 3494 00a7 01       		.byte	0x1
 3495 00a8 0B       		.uleb128 0xb
 3496 00a9 0B       		.uleb128 0xb
 3497 00aa 3A       		.uleb128 0x3a
 3498 00ab 0B       		.uleb128 0xb
 3499 00ac 3B       		.uleb128 0x3b
 3500 00ad 0B       		.uleb128 0xb
 3501 00ae 01       		.uleb128 0x1
 3502 00af 13       		.uleb128 0x13
 3503 00b0 00       		.byte	0
 3504 00b1 00       		.byte	0
 3505 00b2 0F       		.uleb128 0xf
 3506 00b3 0D       		.uleb128 0xd
 3507 00b4 00       		.byte	0
 3508 00b5 03       		.uleb128 0x3
 3509 00b6 0E       		.uleb128 0xe
 3510 00b7 3A       		.uleb128 0x3a
 3511 00b8 0B       		.uleb128 0xb
 3512 00b9 3B       		.uleb128 0x3b
 3513 00ba 0B       		.uleb128 0xb
 3514 00bb 49       		.uleb128 0x49
 3515 00bc 13       		.uleb128 0x13
 3516 00bd 00       		.byte	0
 3517 00be 00       		.byte	0
 3518 00bf 10       		.uleb128 0x10
 3519 00c0 26       		.uleb128 0x26
 3520 00c1 00       		.byte	0
 3521 00c2 49       		.uleb128 0x49
 3522 00c3 13       		.uleb128 0x13
 3523 00c4 00       		.byte	0
 3524 00c5 00       		.byte	0
 3525 00c6 11       		.uleb128 0x11
 3526 00c7 15       		.uleb128 0x15
ARM GAS  /tmp/cc01KxiS.s 			page 63


 3527 00c8 01       		.byte	0x1
 3528 00c9 27       		.uleb128 0x27
 3529 00ca 19       		.uleb128 0x19
 3530 00cb 01       		.uleb128 0x1
 3531 00cc 13       		.uleb128 0x13
 3532 00cd 00       		.byte	0
 3533 00ce 00       		.byte	0
 3534 00cf 12       		.uleb128 0x12
 3535 00d0 05       		.uleb128 0x5
 3536 00d1 00       		.byte	0
 3537 00d2 49       		.uleb128 0x49
 3538 00d3 13       		.uleb128 0x13
 3539 00d4 00       		.byte	0
 3540 00d5 00       		.byte	0
 3541 00d6 13       		.uleb128 0x13
 3542 00d7 15       		.uleb128 0x15
 3543 00d8 01       		.byte	0x1
 3544 00d9 27       		.uleb128 0x27
 3545 00da 19       		.uleb128 0x19
 3546 00db 49       		.uleb128 0x49
 3547 00dc 13       		.uleb128 0x13
 3548 00dd 01       		.uleb128 0x1
 3549 00de 13       		.uleb128 0x13
 3550 00df 00       		.byte	0
 3551 00e0 00       		.byte	0
 3552 00e1 14       		.uleb128 0x14
 3553 00e2 16       		.uleb128 0x16
 3554 00e3 00       		.byte	0
 3555 00e4 03       		.uleb128 0x3
 3556 00e5 0E       		.uleb128 0xe
 3557 00e6 3A       		.uleb128 0x3a
 3558 00e7 0B       		.uleb128 0xb
 3559 00e8 3B       		.uleb128 0x3b
 3560 00e9 05       		.uleb128 0x5
 3561 00ea 49       		.uleb128 0x49
 3562 00eb 13       		.uleb128 0x13
 3563 00ec 00       		.byte	0
 3564 00ed 00       		.byte	0
 3565 00ee 15       		.uleb128 0x15
 3566 00ef 04       		.uleb128 0x4
 3567 00f0 01       		.byte	0x1
 3568 00f1 03       		.uleb128 0x3
 3569 00f2 0E       		.uleb128 0xe
 3570 00f3 0B       		.uleb128 0xb
 3571 00f4 0B       		.uleb128 0xb
 3572 00f5 3A       		.uleb128 0x3a
 3573 00f6 0B       		.uleb128 0xb
 3574 00f7 3B       		.uleb128 0x3b
 3575 00f8 0B       		.uleb128 0xb
 3576 00f9 01       		.uleb128 0x1
 3577 00fa 13       		.uleb128 0x13
 3578 00fb 00       		.byte	0
 3579 00fc 00       		.byte	0
 3580 00fd 16       		.uleb128 0x16
 3581 00fe 28       		.uleb128 0x28
 3582 00ff 00       		.byte	0
 3583 0100 03       		.uleb128 0x3
ARM GAS  /tmp/cc01KxiS.s 			page 64


 3584 0101 0E       		.uleb128 0xe
 3585 0102 1C       		.uleb128 0x1c
 3586 0103 0D       		.uleb128 0xd
 3587 0104 00       		.byte	0
 3588 0105 00       		.byte	0
 3589 0106 17       		.uleb128 0x17
 3590 0107 01       		.uleb128 0x1
 3591 0108 01       		.byte	0x1
 3592 0109 49       		.uleb128 0x49
 3593 010a 13       		.uleb128 0x13
 3594 010b 01       		.uleb128 0x1
 3595 010c 13       		.uleb128 0x13
 3596 010d 00       		.byte	0
 3597 010e 00       		.byte	0
 3598 010f 18       		.uleb128 0x18
 3599 0110 21       		.uleb128 0x21
 3600 0111 00       		.byte	0
 3601 0112 49       		.uleb128 0x49
 3602 0113 13       		.uleb128 0x13
 3603 0114 2F       		.uleb128 0x2f
 3604 0115 0B       		.uleb128 0xb
 3605 0116 00       		.byte	0
 3606 0117 00       		.byte	0
 3607 0118 19       		.uleb128 0x19
 3608 0119 13       		.uleb128 0x13
 3609 011a 01       		.byte	0x1
 3610 011b 0B       		.uleb128 0xb
 3611 011c 05       		.uleb128 0x5
 3612 011d 3A       		.uleb128 0x3a
 3613 011e 0B       		.uleb128 0xb
 3614 011f 3B       		.uleb128 0x3b
 3615 0120 05       		.uleb128 0x5
 3616 0121 01       		.uleb128 0x1
 3617 0122 13       		.uleb128 0x13
 3618 0123 00       		.byte	0
 3619 0124 00       		.byte	0
 3620 0125 1A       		.uleb128 0x1a
 3621 0126 0D       		.uleb128 0xd
 3622 0127 00       		.byte	0
 3623 0128 03       		.uleb128 0x3
 3624 0129 0E       		.uleb128 0xe
 3625 012a 3A       		.uleb128 0x3a
 3626 012b 0B       		.uleb128 0xb
 3627 012c 3B       		.uleb128 0x3b
 3628 012d 05       		.uleb128 0x5
 3629 012e 49       		.uleb128 0x49
 3630 012f 13       		.uleb128 0x13
 3631 0130 38       		.uleb128 0x38
 3632 0131 0B       		.uleb128 0xb
 3633 0132 00       		.byte	0
 3634 0133 00       		.byte	0
 3635 0134 1B       		.uleb128 0x1b
 3636 0135 0D       		.uleb128 0xd
 3637 0136 00       		.byte	0
 3638 0137 03       		.uleb128 0x3
 3639 0138 0E       		.uleb128 0xe
 3640 0139 3A       		.uleb128 0x3a
ARM GAS  /tmp/cc01KxiS.s 			page 65


 3641 013a 0B       		.uleb128 0xb
 3642 013b 3B       		.uleb128 0x3b
 3643 013c 05       		.uleb128 0x5
 3644 013d 49       		.uleb128 0x49
 3645 013e 13       		.uleb128 0x13
 3646 013f 38       		.uleb128 0x38
 3647 0140 05       		.uleb128 0x5
 3648 0141 00       		.byte	0
 3649 0142 00       		.byte	0
 3650 0143 1C       		.uleb128 0x1c
 3651 0144 16       		.uleb128 0x16
 3652 0145 00       		.byte	0
 3653 0146 03       		.uleb128 0x3
 3654 0147 08       		.uleb128 0x8
 3655 0148 3A       		.uleb128 0x3a
 3656 0149 0B       		.uleb128 0xb
 3657 014a 3B       		.uleb128 0x3b
 3658 014b 05       		.uleb128 0x5
 3659 014c 49       		.uleb128 0x49
 3660 014d 13       		.uleb128 0x13
 3661 014e 00       		.byte	0
 3662 014f 00       		.byte	0
 3663 0150 1D       		.uleb128 0x1d
 3664 0151 04       		.uleb128 0x4
 3665 0152 01       		.byte	0x1
 3666 0153 0B       		.uleb128 0xb
 3667 0154 0B       		.uleb128 0xb
 3668 0155 3A       		.uleb128 0x3a
 3669 0156 0B       		.uleb128 0xb
 3670 0157 3B       		.uleb128 0x3b
 3671 0158 0B       		.uleb128 0xb
 3672 0159 01       		.uleb128 0x1
 3673 015a 13       		.uleb128 0x13
 3674 015b 00       		.byte	0
 3675 015c 00       		.byte	0
 3676 015d 1E       		.uleb128 0x1e
 3677 015e 2E       		.uleb128 0x2e
 3678 015f 01       		.byte	0x1
 3679 0160 03       		.uleb128 0x3
 3680 0161 0E       		.uleb128 0xe
 3681 0162 3A       		.uleb128 0x3a
 3682 0163 0B       		.uleb128 0xb
 3683 0164 3B       		.uleb128 0x3b
 3684 0165 0B       		.uleb128 0xb
 3685 0166 27       		.uleb128 0x27
 3686 0167 19       		.uleb128 0x19
 3687 0168 20       		.uleb128 0x20
 3688 0169 0B       		.uleb128 0xb
 3689 016a 01       		.uleb128 0x1
 3690 016b 13       		.uleb128 0x13
 3691 016c 00       		.byte	0
 3692 016d 00       		.byte	0
 3693 016e 1F       		.uleb128 0x1f
 3694 016f 05       		.uleb128 0x5
 3695 0170 00       		.byte	0
 3696 0171 03       		.uleb128 0x3
 3697 0172 08       		.uleb128 0x8
ARM GAS  /tmp/cc01KxiS.s 			page 66


 3698 0173 3A       		.uleb128 0x3a
 3699 0174 0B       		.uleb128 0xb
 3700 0175 3B       		.uleb128 0x3b
 3701 0176 0B       		.uleb128 0xb
 3702 0177 49       		.uleb128 0x49
 3703 0178 13       		.uleb128 0x13
 3704 0179 00       		.byte	0
 3705 017a 00       		.byte	0
 3706 017b 20       		.uleb128 0x20
 3707 017c 05       		.uleb128 0x5
 3708 017d 00       		.byte	0
 3709 017e 03       		.uleb128 0x3
 3710 017f 0E       		.uleb128 0xe
 3711 0180 3A       		.uleb128 0x3a
 3712 0181 0B       		.uleb128 0xb
 3713 0182 3B       		.uleb128 0x3b
 3714 0183 0B       		.uleb128 0xb
 3715 0184 49       		.uleb128 0x49
 3716 0185 13       		.uleb128 0x13
 3717 0186 00       		.byte	0
 3718 0187 00       		.byte	0
 3719 0188 21       		.uleb128 0x21
 3720 0189 34       		.uleb128 0x34
 3721 018a 00       		.byte	0
 3722 018b 03       		.uleb128 0x3
 3723 018c 08       		.uleb128 0x8
 3724 018d 3A       		.uleb128 0x3a
 3725 018e 0B       		.uleb128 0xb
 3726 018f 3B       		.uleb128 0x3b
 3727 0190 0B       		.uleb128 0xb
 3728 0191 49       		.uleb128 0x49
 3729 0192 13       		.uleb128 0x13
 3730 0193 00       		.byte	0
 3731 0194 00       		.byte	0
 3732 0195 22       		.uleb128 0x22
 3733 0196 34       		.uleb128 0x34
 3734 0197 00       		.byte	0
 3735 0198 03       		.uleb128 0x3
 3736 0199 0E       		.uleb128 0xe
 3737 019a 3A       		.uleb128 0x3a
 3738 019b 0B       		.uleb128 0xb
 3739 019c 3B       		.uleb128 0x3b
 3740 019d 0B       		.uleb128 0xb
 3741 019e 49       		.uleb128 0x49
 3742 019f 13       		.uleb128 0x13
 3743 01a0 00       		.byte	0
 3744 01a1 00       		.byte	0
 3745 01a2 23       		.uleb128 0x23
 3746 01a3 2E       		.uleb128 0x2e
 3747 01a4 01       		.byte	0x1
 3748 01a5 03       		.uleb128 0x3
 3749 01a6 0E       		.uleb128 0xe
 3750 01a7 3A       		.uleb128 0x3a
 3751 01a8 0B       		.uleb128 0xb
 3752 01a9 3B       		.uleb128 0x3b
 3753 01aa 0B       		.uleb128 0xb
 3754 01ab 27       		.uleb128 0x27
ARM GAS  /tmp/cc01KxiS.s 			page 67


 3755 01ac 19       		.uleb128 0x19
 3756 01ad 11       		.uleb128 0x11
 3757 01ae 01       		.uleb128 0x1
 3758 01af 12       		.uleb128 0x12
 3759 01b0 06       		.uleb128 0x6
 3760 01b1 40       		.uleb128 0x40
 3761 01b2 18       		.uleb128 0x18
 3762 01b3 9742     		.uleb128 0x2117
 3763 01b5 19       		.uleb128 0x19
 3764 01b6 01       		.uleb128 0x1
 3765 01b7 13       		.uleb128 0x13
 3766 01b8 00       		.byte	0
 3767 01b9 00       		.byte	0
 3768 01ba 24       		.uleb128 0x24
 3769 01bb 05       		.uleb128 0x5
 3770 01bc 00       		.byte	0
 3771 01bd 03       		.uleb128 0x3
 3772 01be 08       		.uleb128 0x8
 3773 01bf 3A       		.uleb128 0x3a
 3774 01c0 0B       		.uleb128 0xb
 3775 01c1 3B       		.uleb128 0x3b
 3776 01c2 0B       		.uleb128 0xb
 3777 01c3 49       		.uleb128 0x49
 3778 01c4 13       		.uleb128 0x13
 3779 01c5 02       		.uleb128 0x2
 3780 01c6 18       		.uleb128 0x18
 3781 01c7 00       		.byte	0
 3782 01c8 00       		.byte	0
 3783 01c9 25       		.uleb128 0x25
 3784 01ca 0B       		.uleb128 0xb
 3785 01cb 01       		.byte	0x1
 3786 01cc 01       		.uleb128 0x1
 3787 01cd 13       		.uleb128 0x13
 3788 01ce 00       		.byte	0
 3789 01cf 00       		.byte	0
 3790 01d0 26       		.uleb128 0x26
 3791 01d1 0B       		.uleb128 0xb
 3792 01d2 01       		.byte	0x1
 3793 01d3 00       		.byte	0
 3794 01d4 00       		.byte	0
 3795 01d5 27       		.uleb128 0x27
 3796 01d6 05       		.uleb128 0x5
 3797 01d7 00       		.byte	0
 3798 01d8 03       		.uleb128 0x3
 3799 01d9 08       		.uleb128 0x8
 3800 01da 3A       		.uleb128 0x3a
 3801 01db 0B       		.uleb128 0xb
 3802 01dc 3B       		.uleb128 0x3b
 3803 01dd 0B       		.uleb128 0xb
 3804 01de 49       		.uleb128 0x49
 3805 01df 13       		.uleb128 0x13
 3806 01e0 02       		.uleb128 0x2
 3807 01e1 17       		.uleb128 0x17
 3808 01e2 00       		.byte	0
 3809 01e3 00       		.byte	0
 3810 01e4 28       		.uleb128 0x28
 3811 01e5 34       		.uleb128 0x34
ARM GAS  /tmp/cc01KxiS.s 			page 68


 3812 01e6 00       		.byte	0
 3813 01e7 03       		.uleb128 0x3
 3814 01e8 08       		.uleb128 0x8
 3815 01e9 3A       		.uleb128 0x3a
 3816 01ea 0B       		.uleb128 0xb
 3817 01eb 3B       		.uleb128 0x3b
 3818 01ec 0B       		.uleb128 0xb
 3819 01ed 49       		.uleb128 0x49
 3820 01ee 13       		.uleb128 0x13
 3821 01ef 02       		.uleb128 0x2
 3822 01f0 17       		.uleb128 0x17
 3823 01f1 00       		.byte	0
 3824 01f2 00       		.byte	0
 3825 01f3 29       		.uleb128 0x29
 3826 01f4 34       		.uleb128 0x34
 3827 01f5 00       		.byte	0
 3828 01f6 03       		.uleb128 0x3
 3829 01f7 08       		.uleb128 0x8
 3830 01f8 3A       		.uleb128 0x3a
 3831 01f9 0B       		.uleb128 0xb
 3832 01fa 3B       		.uleb128 0x3b
 3833 01fb 0B       		.uleb128 0xb
 3834 01fc 49       		.uleb128 0x49
 3835 01fd 13       		.uleb128 0x13
 3836 01fe 02       		.uleb128 0x2
 3837 01ff 18       		.uleb128 0x18
 3838 0200 00       		.byte	0
 3839 0201 00       		.byte	0
 3840 0202 2A       		.uleb128 0x2a
 3841 0203 1D       		.uleb128 0x1d
 3842 0204 01       		.byte	0x1
 3843 0205 31       		.uleb128 0x31
 3844 0206 13       		.uleb128 0x13
 3845 0207 11       		.uleb128 0x11
 3846 0208 01       		.uleb128 0x1
 3847 0209 12       		.uleb128 0x12
 3848 020a 06       		.uleb128 0x6
 3849 020b 58       		.uleb128 0x58
 3850 020c 0B       		.uleb128 0xb
 3851 020d 59       		.uleb128 0x59
 3852 020e 0B       		.uleb128 0xb
 3853 020f 01       		.uleb128 0x1
 3854 0210 13       		.uleb128 0x13
 3855 0211 00       		.byte	0
 3856 0212 00       		.byte	0
 3857 0213 2B       		.uleb128 0x2b
 3858 0214 05       		.uleb128 0x5
 3859 0215 00       		.byte	0
 3860 0216 31       		.uleb128 0x31
 3861 0217 13       		.uleb128 0x13
 3862 0218 02       		.uleb128 0x2
 3863 0219 17       		.uleb128 0x17
 3864 021a 00       		.byte	0
 3865 021b 00       		.byte	0
 3866 021c 2C       		.uleb128 0x2c
 3867 021d 0B       		.uleb128 0xb
 3868 021e 01       		.byte	0x1
ARM GAS  /tmp/cc01KxiS.s 			page 69


 3869 021f 11       		.uleb128 0x11
 3870 0220 01       		.uleb128 0x1
 3871 0221 12       		.uleb128 0x12
 3872 0222 06       		.uleb128 0x6
 3873 0223 00       		.byte	0
 3874 0224 00       		.byte	0
 3875 0225 2D       		.uleb128 0x2d
 3876 0226 34       		.uleb128 0x34
 3877 0227 00       		.byte	0
 3878 0228 31       		.uleb128 0x31
 3879 0229 13       		.uleb128 0x13
 3880 022a 02       		.uleb128 0x2
 3881 022b 17       		.uleb128 0x17
 3882 022c 00       		.byte	0
 3883 022d 00       		.byte	0
 3884 022e 2E       		.uleb128 0x2e
 3885 022f 0B       		.uleb128 0xb
 3886 0230 01       		.byte	0x1
 3887 0231 11       		.uleb128 0x11
 3888 0232 01       		.uleb128 0x1
 3889 0233 12       		.uleb128 0x12
 3890 0234 06       		.uleb128 0x6
 3891 0235 01       		.uleb128 0x1
 3892 0236 13       		.uleb128 0x13
 3893 0237 00       		.byte	0
 3894 0238 00       		.byte	0
 3895 0239 2F       		.uleb128 0x2f
 3896 023a 34       		.uleb128 0x34
 3897 023b 00       		.byte	0
 3898 023c 31       		.uleb128 0x31
 3899 023d 13       		.uleb128 0x13
 3900 023e 02       		.uleb128 0x2
 3901 023f 18       		.uleb128 0x18
 3902 0240 00       		.byte	0
 3903 0241 00       		.byte	0
 3904 0242 30       		.uleb128 0x30
 3905 0243 898201   		.uleb128 0x4109
 3906 0246 01       		.byte	0x1
 3907 0247 11       		.uleb128 0x11
 3908 0248 01       		.uleb128 0x1
 3909 0249 31       		.uleb128 0x31
 3910 024a 13       		.uleb128 0x13
 3911 024b 00       		.byte	0
 3912 024c 00       		.byte	0
 3913 024d 31       		.uleb128 0x31
 3914 024e 8A8201   		.uleb128 0x410a
 3915 0251 00       		.byte	0
 3916 0252 02       		.uleb128 0x2
 3917 0253 18       		.uleb128 0x18
 3918 0254 9142     		.uleb128 0x2111
 3919 0256 18       		.uleb128 0x18
 3920 0257 00       		.byte	0
 3921 0258 00       		.byte	0
 3922 0259 32       		.uleb128 0x32
 3923 025a 898201   		.uleb128 0x4109
 3924 025d 01       		.byte	0x1
 3925 025e 11       		.uleb128 0x11
ARM GAS  /tmp/cc01KxiS.s 			page 70


 3926 025f 01       		.uleb128 0x1
 3927 0260 31       		.uleb128 0x31
 3928 0261 13       		.uleb128 0x13
 3929 0262 01       		.uleb128 0x1
 3930 0263 13       		.uleb128 0x13
 3931 0264 00       		.byte	0
 3932 0265 00       		.byte	0
 3933 0266 33       		.uleb128 0x33
 3934 0267 898201   		.uleb128 0x4109
 3935 026a 00       		.byte	0
 3936 026b 11       		.uleb128 0x11
 3937 026c 01       		.uleb128 0x1
 3938 026d 31       		.uleb128 0x31
 3939 026e 13       		.uleb128 0x13
 3940 026f 00       		.byte	0
 3941 0270 00       		.byte	0
 3942 0271 34       		.uleb128 0x34
 3943 0272 2E       		.uleb128 0x2e
 3944 0273 01       		.byte	0x1
 3945 0274 3F       		.uleb128 0x3f
 3946 0275 19       		.uleb128 0x19
 3947 0276 03       		.uleb128 0x3
 3948 0277 0E       		.uleb128 0xe
 3949 0278 3A       		.uleb128 0x3a
 3950 0279 0B       		.uleb128 0xb
 3951 027a 3B       		.uleb128 0x3b
 3952 027b 0B       		.uleb128 0xb
 3953 027c 27       		.uleb128 0x27
 3954 027d 19       		.uleb128 0x19
 3955 027e 11       		.uleb128 0x11
 3956 027f 01       		.uleb128 0x1
 3957 0280 12       		.uleb128 0x12
 3958 0281 06       		.uleb128 0x6
 3959 0282 40       		.uleb128 0x40
 3960 0283 18       		.uleb128 0x18
 3961 0284 9742     		.uleb128 0x2117
 3962 0286 19       		.uleb128 0x19
 3963 0287 01       		.uleb128 0x1
 3964 0288 13       		.uleb128 0x13
 3965 0289 00       		.byte	0
 3966 028a 00       		.byte	0
 3967 028b 35       		.uleb128 0x35
 3968 028c 898201   		.uleb128 0x4109
 3969 028f 00       		.byte	0
 3970 0290 11       		.uleb128 0x11
 3971 0291 01       		.uleb128 0x1
 3972 0292 9542     		.uleb128 0x2115
 3973 0294 19       		.uleb128 0x19
 3974 0295 31       		.uleb128 0x31
 3975 0296 13       		.uleb128 0x13
 3976 0297 00       		.byte	0
 3977 0298 00       		.byte	0
 3978 0299 36       		.uleb128 0x36
 3979 029a 2E       		.uleb128 0x2e
 3980 029b 01       		.byte	0x1
 3981 029c 3F       		.uleb128 0x3f
 3982 029d 19       		.uleb128 0x19
ARM GAS  /tmp/cc01KxiS.s 			page 71


 3983 029e 03       		.uleb128 0x3
 3984 029f 0E       		.uleb128 0xe
 3985 02a0 3A       		.uleb128 0x3a
 3986 02a1 0B       		.uleb128 0xb
 3987 02a2 3B       		.uleb128 0x3b
 3988 02a3 05       		.uleb128 0x5
 3989 02a4 27       		.uleb128 0x27
 3990 02a5 19       		.uleb128 0x19
 3991 02a6 11       		.uleb128 0x11
 3992 02a7 01       		.uleb128 0x1
 3993 02a8 12       		.uleb128 0x12
 3994 02a9 06       		.uleb128 0x6
 3995 02aa 40       		.uleb128 0x40
 3996 02ab 18       		.uleb128 0x18
 3997 02ac 9742     		.uleb128 0x2117
 3998 02ae 19       		.uleb128 0x19
 3999 02af 01       		.uleb128 0x1
 4000 02b0 13       		.uleb128 0x13
 4001 02b1 00       		.byte	0
 4002 02b2 00       		.byte	0
 4003 02b3 37       		.uleb128 0x37
 4004 02b4 05       		.uleb128 0x5
 4005 02b5 00       		.byte	0
 4006 02b6 03       		.uleb128 0x3
 4007 02b7 08       		.uleb128 0x8
 4008 02b8 3A       		.uleb128 0x3a
 4009 02b9 0B       		.uleb128 0xb
 4010 02ba 3B       		.uleb128 0x3b
 4011 02bb 05       		.uleb128 0x5
 4012 02bc 49       		.uleb128 0x49
 4013 02bd 13       		.uleb128 0x13
 4014 02be 02       		.uleb128 0x2
 4015 02bf 17       		.uleb128 0x17
 4016 02c0 00       		.byte	0
 4017 02c1 00       		.byte	0
 4018 02c2 38       		.uleb128 0x38
 4019 02c3 05       		.uleb128 0x5
 4020 02c4 00       		.byte	0
 4021 02c5 03       		.uleb128 0x3
 4022 02c6 0E       		.uleb128 0xe
 4023 02c7 3A       		.uleb128 0x3a
 4024 02c8 0B       		.uleb128 0xb
 4025 02c9 3B       		.uleb128 0x3b
 4026 02ca 05       		.uleb128 0x5
 4027 02cb 49       		.uleb128 0x49
 4028 02cc 13       		.uleb128 0x13
 4029 02cd 02       		.uleb128 0x2
 4030 02ce 17       		.uleb128 0x17
 4031 02cf 00       		.byte	0
 4032 02d0 00       		.byte	0
 4033 02d1 39       		.uleb128 0x39
 4034 02d2 1D       		.uleb128 0x1d
 4035 02d3 01       		.byte	0x1
 4036 02d4 31       		.uleb128 0x31
 4037 02d5 13       		.uleb128 0x13
 4038 02d6 11       		.uleb128 0x11
 4039 02d7 01       		.uleb128 0x1
ARM GAS  /tmp/cc01KxiS.s 			page 72


 4040 02d8 12       		.uleb128 0x12
 4041 02d9 06       		.uleb128 0x6
 4042 02da 58       		.uleb128 0x58
 4043 02db 0B       		.uleb128 0xb
 4044 02dc 59       		.uleb128 0x59
 4045 02dd 05       		.uleb128 0x5
 4046 02de 01       		.uleb128 0x1
 4047 02df 13       		.uleb128 0x13
 4048 02e0 00       		.byte	0
 4049 02e1 00       		.byte	0
 4050 02e2 3A       		.uleb128 0x3a
 4051 02e3 1D       		.uleb128 0x1d
 4052 02e4 01       		.byte	0x1
 4053 02e5 31       		.uleb128 0x31
 4054 02e6 13       		.uleb128 0x13
 4055 02e7 52       		.uleb128 0x52
 4056 02e8 01       		.uleb128 0x1
 4057 02e9 55       		.uleb128 0x55
 4058 02ea 17       		.uleb128 0x17
 4059 02eb 58       		.uleb128 0x58
 4060 02ec 0B       		.uleb128 0xb
 4061 02ed 59       		.uleb128 0x59
 4062 02ee 05       		.uleb128 0x5
 4063 02ef 01       		.uleb128 0x1
 4064 02f0 13       		.uleb128 0x13
 4065 02f1 00       		.byte	0
 4066 02f2 00       		.byte	0
 4067 02f3 3B       		.uleb128 0x3b
 4068 02f4 898201   		.uleb128 0x4109
 4069 02f7 01       		.byte	0x1
 4070 02f8 11       		.uleb128 0x11
 4071 02f9 01       		.uleb128 0x1
 4072 02fa 9542     		.uleb128 0x2115
 4073 02fc 19       		.uleb128 0x19
 4074 02fd 31       		.uleb128 0x31
 4075 02fe 13       		.uleb128 0x13
 4076 02ff 01       		.uleb128 0x1
 4077 0300 13       		.uleb128 0x13
 4078 0301 00       		.byte	0
 4079 0302 00       		.byte	0
 4080 0303 3C       		.uleb128 0x3c
 4081 0304 898201   		.uleb128 0x4109
 4082 0307 01       		.byte	0x1
 4083 0308 11       		.uleb128 0x11
 4084 0309 01       		.uleb128 0x1
 4085 030a 9542     		.uleb128 0x2115
 4086 030c 19       		.uleb128 0x19
 4087 030d 31       		.uleb128 0x31
 4088 030e 13       		.uleb128 0x13
 4089 030f 00       		.byte	0
 4090 0310 00       		.byte	0
 4091 0311 3D       		.uleb128 0x3d
 4092 0312 34       		.uleb128 0x34
 4093 0313 00       		.byte	0
 4094 0314 03       		.uleb128 0x3
 4095 0315 0E       		.uleb128 0xe
 4096 0316 3A       		.uleb128 0x3a
ARM GAS  /tmp/cc01KxiS.s 			page 73


 4097 0317 0B       		.uleb128 0xb
 4098 0318 3B       		.uleb128 0x3b
 4099 0319 0B       		.uleb128 0xb
 4100 031a 49       		.uleb128 0x49
 4101 031b 13       		.uleb128 0x13
 4102 031c 02       		.uleb128 0x2
 4103 031d 18       		.uleb128 0x18
 4104 031e 00       		.byte	0
 4105 031f 00       		.byte	0
 4106 0320 3E       		.uleb128 0x3e
 4107 0321 34       		.uleb128 0x34
 4108 0322 00       		.byte	0
 4109 0323 03       		.uleb128 0x3
 4110 0324 0E       		.uleb128 0xe
 4111 0325 3A       		.uleb128 0x3a
 4112 0326 0B       		.uleb128 0xb
 4113 0327 3B       		.uleb128 0x3b
 4114 0328 05       		.uleb128 0x5
 4115 0329 49       		.uleb128 0x49
 4116 032a 13       		.uleb128 0x13
 4117 032b 3F       		.uleb128 0x3f
 4118 032c 19       		.uleb128 0x19
 4119 032d 3C       		.uleb128 0x3c
 4120 032e 19       		.uleb128 0x19
 4121 032f 00       		.byte	0
 4122 0330 00       		.byte	0
 4123 0331 3F       		.uleb128 0x3f
 4124 0332 34       		.uleb128 0x34
 4125 0333 00       		.byte	0
 4126 0334 03       		.uleb128 0x3
 4127 0335 0E       		.uleb128 0xe
 4128 0336 3A       		.uleb128 0x3a
 4129 0337 0B       		.uleb128 0xb
 4130 0338 3B       		.uleb128 0x3b
 4131 0339 0B       		.uleb128 0xb
 4132 033a 49       		.uleb128 0x49
 4133 033b 13       		.uleb128 0x13
 4134 033c 3F       		.uleb128 0x3f
 4135 033d 19       		.uleb128 0x19
 4136 033e 3C       		.uleb128 0x3c
 4137 033f 19       		.uleb128 0x19
 4138 0340 00       		.byte	0
 4139 0341 00       		.byte	0
 4140 0342 40       		.uleb128 0x40
 4141 0343 34       		.uleb128 0x34
 4142 0344 00       		.byte	0
 4143 0345 03       		.uleb128 0x3
 4144 0346 08       		.uleb128 0x8
 4145 0347 3A       		.uleb128 0x3a
 4146 0348 0B       		.uleb128 0xb
 4147 0349 3B       		.uleb128 0x3b
 4148 034a 0B       		.uleb128 0xb
 4149 034b 49       		.uleb128 0x49
 4150 034c 13       		.uleb128 0x13
 4151 034d 3F       		.uleb128 0x3f
 4152 034e 19       		.uleb128 0x19
 4153 034f 02       		.uleb128 0x2
ARM GAS  /tmp/cc01KxiS.s 			page 74


 4154 0350 18       		.uleb128 0x18
 4155 0351 00       		.byte	0
 4156 0352 00       		.byte	0
 4157 0353 41       		.uleb128 0x41
 4158 0354 2E       		.uleb128 0x2e
 4159 0355 01       		.byte	0x1
 4160 0356 3F       		.uleb128 0x3f
 4161 0357 19       		.uleb128 0x19
 4162 0358 03       		.uleb128 0x3
 4163 0359 0E       		.uleb128 0xe
 4164 035a 3A       		.uleb128 0x3a
 4165 035b 0B       		.uleb128 0xb
 4166 035c 3B       		.uleb128 0x3b
 4167 035d 0B       		.uleb128 0xb
 4168 035e 27       		.uleb128 0x27
 4169 035f 19       		.uleb128 0x19
 4170 0360 3C       		.uleb128 0x3c
 4171 0361 19       		.uleb128 0x19
 4172 0362 01       		.uleb128 0x1
 4173 0363 13       		.uleb128 0x13
 4174 0364 00       		.byte	0
 4175 0365 00       		.byte	0
 4176 0366 42       		.uleb128 0x42
 4177 0367 2E       		.uleb128 0x2e
 4178 0368 01       		.byte	0x1
 4179 0369 3F       		.uleb128 0x3f
 4180 036a 19       		.uleb128 0x19
 4181 036b 03       		.uleb128 0x3
 4182 036c 0E       		.uleb128 0xe
 4183 036d 3A       		.uleb128 0x3a
 4184 036e 0B       		.uleb128 0xb
 4185 036f 3B       		.uleb128 0x3b
 4186 0370 05       		.uleb128 0x5
 4187 0371 27       		.uleb128 0x27
 4188 0372 19       		.uleb128 0x19
 4189 0373 49       		.uleb128 0x49
 4190 0374 13       		.uleb128 0x13
 4191 0375 3C       		.uleb128 0x3c
 4192 0376 19       		.uleb128 0x19
 4193 0377 01       		.uleb128 0x1
 4194 0378 13       		.uleb128 0x13
 4195 0379 00       		.byte	0
 4196 037a 00       		.byte	0
 4197 037b 43       		.uleb128 0x43
 4198 037c 2E       		.uleb128 0x2e
 4199 037d 01       		.byte	0x1
 4200 037e 3F       		.uleb128 0x3f
 4201 037f 19       		.uleb128 0x19
 4202 0380 03       		.uleb128 0x3
 4203 0381 0E       		.uleb128 0xe
 4204 0382 3A       		.uleb128 0x3a
 4205 0383 0B       		.uleb128 0xb
 4206 0384 3B       		.uleb128 0x3b
 4207 0385 05       		.uleb128 0x5
 4208 0386 27       		.uleb128 0x27
 4209 0387 19       		.uleb128 0x19
 4210 0388 3C       		.uleb128 0x3c
ARM GAS  /tmp/cc01KxiS.s 			page 75


 4211 0389 19       		.uleb128 0x19
 4212 038a 01       		.uleb128 0x1
 4213 038b 13       		.uleb128 0x13
 4214 038c 00       		.byte	0
 4215 038d 00       		.byte	0
 4216 038e 44       		.uleb128 0x44
 4217 038f 2E       		.uleb128 0x2e
 4218 0390 00       		.byte	0
 4219 0391 3F       		.uleb128 0x3f
 4220 0392 19       		.uleb128 0x19
 4221 0393 03       		.uleb128 0x3
 4222 0394 0E       		.uleb128 0xe
 4223 0395 3A       		.uleb128 0x3a
 4224 0396 0B       		.uleb128 0xb
 4225 0397 3B       		.uleb128 0x3b
 4226 0398 05       		.uleb128 0x5
 4227 0399 27       		.uleb128 0x27
 4228 039a 19       		.uleb128 0x19
 4229 039b 3C       		.uleb128 0x3c
 4230 039c 19       		.uleb128 0x19
 4231 039d 00       		.byte	0
 4232 039e 00       		.byte	0
 4233 039f 45       		.uleb128 0x45
 4234 03a0 2E       		.uleb128 0x2e
 4235 03a1 00       		.byte	0
 4236 03a2 3F       		.uleb128 0x3f
 4237 03a3 19       		.uleb128 0x19
 4238 03a4 03       		.uleb128 0x3
 4239 03a5 0E       		.uleb128 0xe
 4240 03a6 3A       		.uleb128 0x3a
 4241 03a7 0B       		.uleb128 0xb
 4242 03a8 3B       		.uleb128 0x3b
 4243 03a9 0B       		.uleb128 0xb
 4244 03aa 27       		.uleb128 0x27
 4245 03ab 19       		.uleb128 0x19
 4246 03ac 3C       		.uleb128 0x3c
 4247 03ad 19       		.uleb128 0x19
 4248 03ae 00       		.byte	0
 4249 03af 00       		.byte	0
 4250 03b0 46       		.uleb128 0x46
 4251 03b1 2E       		.uleb128 0x2e
 4252 03b2 01       		.byte	0x1
 4253 03b3 3F       		.uleb128 0x3f
 4254 03b4 19       		.uleb128 0x19
 4255 03b5 03       		.uleb128 0x3
 4256 03b6 0E       		.uleb128 0xe
 4257 03b7 3A       		.uleb128 0x3a
 4258 03b8 0B       		.uleb128 0xb
 4259 03b9 3B       		.uleb128 0x3b
 4260 03ba 05       		.uleb128 0x5
 4261 03bb 27       		.uleb128 0x27
 4262 03bc 19       		.uleb128 0x19
 4263 03bd 3C       		.uleb128 0x3c
 4264 03be 19       		.uleb128 0x19
 4265 03bf 00       		.byte	0
 4266 03c0 00       		.byte	0
 4267 03c1 00       		.byte	0
ARM GAS  /tmp/cc01KxiS.s 			page 76


 4268              		.section	.debug_loc,"",%progbits
 4269              	.Ldebug_loc0:
 4270              	.LLST0:
 4271 0000 00000000 		.4byte	.LVL2
 4272 0004 0C000000 		.4byte	.LVL5
 4273 0008 0100     		.2byte	0x1
 4274 000a 50       		.byte	0x50
 4275 000b 0C000000 		.4byte	.LVL5
 4276 000f 5A000000 		.4byte	.LVL15
 4277 0013 0100     		.2byte	0x1
 4278 0015 56       		.byte	0x56
 4279 0016 5A000000 		.4byte	.LVL15
 4280 001a 67000000 		.4byte	.LVL16-1
 4281 001e 0100     		.2byte	0x1
 4282 0020 50       		.byte	0x50
 4283 0021 67000000 		.4byte	.LVL16-1
 4284 0025 A2000000 		.4byte	.LFE39
 4285 0029 0100     		.2byte	0x1
 4286 002b 56       		.byte	0x56
 4287 002c 00000000 		.4byte	0
 4288 0030 00000000 		.4byte	0
 4289              	.LLST1:
 4290 0034 08000000 		.4byte	.LVL4
 4291 0038 16000000 		.4byte	.LVL6
 4292 003c 0100     		.2byte	0x1
 4293 003e 54       		.byte	0x54
 4294 003f 16000000 		.4byte	.LVL6
 4295 0043 1A000000 		.4byte	.LVL7
 4296 0047 0600     		.2byte	0x6
 4297 0049 74       		.byte	0x74
 4298 004a 00       		.sleb128 0
 4299 004b 08       		.byte	0x8
 4300 004c E0       		.byte	0xe0
 4301 004d 1A       		.byte	0x1a
 4302 004e 9F       		.byte	0x9f
 4303 004f 1A000000 		.4byte	.LVL7
 4304 0053 1E000000 		.4byte	.LVL8
 4305 0057 0100     		.2byte	0x1
 4306 0059 54       		.byte	0x54
 4307 005a 5A000000 		.4byte	.LVL15
 4308 005e A2000000 		.4byte	.LFE39
 4309 0062 0100     		.2byte	0x1
 4310 0064 54       		.byte	0x54
 4311 0065 00000000 		.4byte	0
 4312 0069 00000000 		.4byte	0
 4313              	.LLST2:
 4314 006d 1E000000 		.4byte	.LVL8
 4315 0071 58000000 		.4byte	.LVL14
 4316 0075 0100     		.2byte	0x1
 4317 0077 54       		.byte	0x54
 4318 0078 00000000 		.4byte	0
 4319 007c 00000000 		.4byte	0
 4320              	.LLST3:
 4321 0080 1E000000 		.4byte	.LVL8
 4322 0084 58000000 		.4byte	.LVL14
 4323 0088 0100     		.2byte	0x1
 4324 008a 56       		.byte	0x56
ARM GAS  /tmp/cc01KxiS.s 			page 77


 4325 008b 00000000 		.4byte	0
 4326 008f 00000000 		.4byte	0
 4327              	.LLST4:
 4328 0093 1E000000 		.4byte	.LVL8
 4329 0097 28000000 		.4byte	.LVL9
 4330 009b 0200     		.2byte	0x2
 4331 009d 30       		.byte	0x30
 4332 009e 9F       		.byte	0x9f
 4333 009f 28000000 		.4byte	.LVL9
 4334 00a3 44000000 		.4byte	.LVL12
 4335 00a7 0100     		.2byte	0x1
 4336 00a9 52       		.byte	0x52
 4337 00aa 00000000 		.4byte	0
 4338 00ae 00000000 		.4byte	0
 4339              	.LLST5:
 4340 00b2 7E000000 		.4byte	.LVL17
 4341 00b6 84000000 		.4byte	.LVL18
 4342 00ba 0100     		.2byte	0x1
 4343 00bc 50       		.byte	0x50
 4344 00bd 8C000000 		.4byte	.LVL19
 4345 00c1 90000000 		.4byte	.LVL20
 4346 00c5 0100     		.2byte	0x1
 4347 00c7 50       		.byte	0x50
 4348 00c8 00000000 		.4byte	0
 4349 00cc 00000000 		.4byte	0
 4350              	.LLST6:
 4351 00d0 00000000 		.4byte	.LVL28
 4352 00d4 12000000 		.4byte	.LVL30
 4353 00d8 0100     		.2byte	0x1
 4354 00da 50       		.byte	0x50
 4355 00db 12000000 		.4byte	.LVL30
 4356 00df 14000000 		.4byte	.LVL31
 4357 00e3 0100     		.2byte	0x1
 4358 00e5 54       		.byte	0x54
 4359 00e6 14000000 		.4byte	.LVL31
 4360 00ea 40000000 		.4byte	.LVL36
 4361 00ee 0400     		.2byte	0x4
 4362 00f0 F3       		.byte	0xf3
 4363 00f1 01       		.uleb128 0x1
 4364 00f2 50       		.byte	0x50
 4365 00f3 9F       		.byte	0x9f
 4366 00f4 40000000 		.4byte	.LVL36
 4367 00f8 50000000 		.4byte	.LVL37
 4368 00fc 0100     		.2byte	0x1
 4369 00fe 50       		.byte	0x50
 4370 00ff 50000000 		.4byte	.LVL37
 4371 0103 6A000000 		.4byte	.LVL39
 4372 0107 0100     		.2byte	0x1
 4373 0109 54       		.byte	0x54
 4374 010a 6A000000 		.4byte	.LVL39
 4375 010e 6E000000 		.4byte	.LVL40
 4376 0112 0100     		.2byte	0x1
 4377 0114 50       		.byte	0x50
 4378 0115 6E000000 		.4byte	.LVL40
 4379 0119 A4000000 		.4byte	.LFE45
 4380 011d 0100     		.2byte	0x1
 4381 011f 54       		.byte	0x54
ARM GAS  /tmp/cc01KxiS.s 			page 78


 4382 0120 00000000 		.4byte	0
 4383 0124 00000000 		.4byte	0
 4384              	.LLST7:
 4385 0128 00000000 		.4byte	.LVL28
 4386 012c 0E000000 		.4byte	.LVL29
 4387 0130 0100     		.2byte	0x1
 4388 0132 51       		.byte	0x51
 4389 0133 0E000000 		.4byte	.LVL29
 4390 0137 2E000000 		.4byte	.LVL34
 4391 013b 0100     		.2byte	0x1
 4392 013d 55       		.byte	0x55
 4393 013e 2E000000 		.4byte	.LVL34
 4394 0142 40000000 		.4byte	.LVL36
 4395 0146 1300     		.2byte	0x13
 4396 0148 F3       		.byte	0xf3
 4397 0149 01       		.uleb128 0x1
 4398 014a 51       		.byte	0x51
 4399 014b 03       		.byte	0x3
 4400 014c 00000000 		.4byte	.LANCHOR2
 4401 0150 F3       		.byte	0xf3
 4402 0151 01       		.uleb128 0x1
 4403 0152 51       		.byte	0x51
 4404 0153 30       		.byte	0x30
 4405 0154 2E       		.byte	0x2e
 4406 0155 28       		.byte	0x28
 4407 0156 0100     		.2byte	0x1
 4408 0158 16       		.byte	0x16
 4409 0159 13       		.byte	0x13
 4410 015a 9F       		.byte	0x9f
 4411 015b 40000000 		.4byte	.LVL36
 4412 015f A4000000 		.4byte	.LFE45
 4413 0163 0100     		.2byte	0x1
 4414 0165 55       		.byte	0x55
 4415 0166 00000000 		.4byte	0
 4416 016a 00000000 		.4byte	0
 4417              	.LLST8:
 4418 016e 14000000 		.4byte	.LVL31
 4419 0172 40000000 		.4byte	.LVL36
 4420 0176 0400     		.2byte	0x4
 4421 0178 F3       		.byte	0xf3
 4422 0179 01       		.uleb128 0x1
 4423 017a 50       		.byte	0x50
 4424 017b 9F       		.byte	0x9f
 4425 017c 00000000 		.4byte	0
 4426 0180 00000000 		.4byte	0
 4427              	.LLST9:
 4428 0184 14000000 		.4byte	.LVL31
 4429 0188 2E000000 		.4byte	.LVL34
 4430 018c 0100     		.2byte	0x1
 4431 018e 55       		.byte	0x55
 4432 018f 2E000000 		.4byte	.LVL34
 4433 0193 40000000 		.4byte	.LVL36
 4434 0197 1300     		.2byte	0x13
 4435 0199 F3       		.byte	0xf3
 4436 019a 01       		.uleb128 0x1
 4437 019b 51       		.byte	0x51
 4438 019c 03       		.byte	0x3
ARM GAS  /tmp/cc01KxiS.s 			page 79


 4439 019d 00000000 		.4byte	.LANCHOR2
 4440 01a1 F3       		.byte	0xf3
 4441 01a2 01       		.uleb128 0x1
 4442 01a3 51       		.byte	0x51
 4443 01a4 30       		.byte	0x30
 4444 01a5 2E       		.byte	0x2e
 4445 01a6 28       		.byte	0x28
 4446 01a7 0100     		.2byte	0x1
 4447 01a9 16       		.byte	0x16
 4448 01aa 13       		.byte	0x13
 4449 01ab 9F       		.byte	0x9f
 4450 01ac 00000000 		.4byte	0
 4451 01b0 00000000 		.4byte	0
 4452              	.LLST10:
 4453 01b4 14000000 		.4byte	.LVL31
 4454 01b8 40000000 		.4byte	.LVL36
 4455 01bc 0100     		.2byte	0x1
 4456 01be 54       		.byte	0x54
 4457 01bf 00000000 		.4byte	0
 4458 01c3 00000000 		.4byte	0
 4459              	.LLST11:
 4460 01c7 1E000000 		.4byte	.LVL33
 4461 01cb 32000000 		.4byte	.LVL35
 4462 01cf 0100     		.2byte	0x1
 4463 01d1 52       		.byte	0x52
 4464 01d2 00000000 		.4byte	0
 4465 01d6 00000000 		.4byte	0
 4466              	.LLST12:
 4467 01da 00000000 		.4byte	.LVL42
 4468 01de 36000000 		.4byte	.LVL46
 4469 01e2 0100     		.2byte	0x1
 4470 01e4 50       		.byte	0x50
 4471 01e5 36000000 		.4byte	.LVL46
 4472 01e9 4E000000 		.4byte	.LVL47
 4473 01ed 0400     		.2byte	0x4
 4474 01ef F3       		.byte	0xf3
 4475 01f0 01       		.uleb128 0x1
 4476 01f1 50       		.byte	0x50
 4477 01f2 9F       		.byte	0x9f
 4478 01f3 4E000000 		.4byte	.LVL47
 4479 01f7 52000000 		.4byte	.LVL49
 4480 01fb 0100     		.2byte	0x1
 4481 01fd 50       		.byte	0x50
 4482 01fe 52000000 		.4byte	.LVL49
 4483 0202 80000000 		.4byte	.LFE46
 4484 0206 0400     		.2byte	0x4
 4485 0208 F3       		.byte	0xf3
 4486 0209 01       		.uleb128 0x1
 4487 020a 50       		.byte	0x50
 4488 020b 9F       		.byte	0x9f
 4489 020c 00000000 		.4byte	0
 4490 0210 00000000 		.4byte	0
 4491              	.LLST13:
 4492 0214 0E000000 		.4byte	.LVL43
 4493 0218 34000000 		.4byte	.LVL45
 4494 021c 0100     		.2byte	0x1
 4495 021e 53       		.byte	0x53
ARM GAS  /tmp/cc01KxiS.s 			page 80


 4496 021f 34000000 		.4byte	.LVL45
 4497 0223 36000000 		.4byte	.LVL46
 4498 0227 0300     		.2byte	0x3
 4499 0229 70       		.byte	0x70
 4500 022a F000     		.sleb128 112
 4501 022c 36000000 		.4byte	.LVL46
 4502 0230 4D000000 		.4byte	.LVL47-1
 4503 0234 0500     		.2byte	0x5
 4504 0236 F3       		.byte	0xf3
 4505 0237 01       		.uleb128 0x1
 4506 0238 50       		.byte	0x50
 4507 0239 23       		.byte	0x23
 4508 023a 70       		.uleb128 0x70
 4509 023b 4E000000 		.4byte	.LVL47
 4510 023f 50000000 		.4byte	.LVL48
 4511 0243 0100     		.2byte	0x1
 4512 0245 53       		.byte	0x53
 4513 0246 50000000 		.4byte	.LVL48
 4514 024a 52000000 		.4byte	.LVL49
 4515 024e 0300     		.2byte	0x3
 4516 0250 70       		.byte	0x70
 4517 0251 F000     		.sleb128 112
 4518 0253 52000000 		.4byte	.LVL49
 4519 0257 69000000 		.4byte	.LVL50-1
 4520 025b 0500     		.2byte	0x5
 4521 025d F3       		.byte	0xf3
 4522 025e 01       		.uleb128 0x1
 4523 025f 50       		.byte	0x50
 4524 0260 23       		.byte	0x23
 4525 0261 70       		.uleb128 0x70
 4526 0262 00000000 		.4byte	0
 4527 0266 00000000 		.4byte	0
 4528              	.LLST14:
 4529 026a 22000000 		.4byte	.LVL44
 4530 026e 34000000 		.4byte	.LVL45
 4531 0272 0100     		.2byte	0x1
 4532 0274 53       		.byte	0x53
 4533 0275 34000000 		.4byte	.LVL45
 4534 0279 36000000 		.4byte	.LVL46
 4535 027d 0300     		.2byte	0x3
 4536 027f 70       		.byte	0x70
 4537 0280 F000     		.sleb128 112
 4538 0282 36000000 		.4byte	.LVL46
 4539 0286 4D000000 		.4byte	.LVL47-1
 4540 028a 0500     		.2byte	0x5
 4541 028c F3       		.byte	0xf3
 4542 028d 01       		.uleb128 0x1
 4543 028e 50       		.byte	0x50
 4544 028f 23       		.byte	0x23
 4545 0290 70       		.uleb128 0x70
 4546 0291 00000000 		.4byte	0
 4547 0295 00000000 		.4byte	0
 4548              		.section	.debug_aranges,"",%progbits
 4549 0000 54000000 		.4byte	0x54
 4550 0004 0200     		.2byte	0x2
 4551 0006 00000000 		.4byte	.Ldebug_info0
 4552 000a 04       		.byte	0x4
ARM GAS  /tmp/cc01KxiS.s 			page 81


 4553 000b 00       		.byte	0
 4554 000c 0000     		.2byte	0
 4555 000e 0000     		.2byte	0
 4556 0010 00000000 		.4byte	.LFB40
 4557 0014 0C000000 		.4byte	.LFE40-.LFB40
 4558 0018 00000000 		.4byte	.LFB41
 4559 001c 0C000000 		.4byte	.LFE41-.LFB41
 4560 0020 00000000 		.4byte	.LFB39
 4561 0024 A2000000 		.4byte	.LFE39-.LFB39
 4562 0028 00000000 		.4byte	.LFB42
 4563 002c 14000000 		.4byte	.LFE42-.LFB42
 4564 0030 00000000 		.4byte	.LFB43
 4565 0034 14000000 		.4byte	.LFE43-.LFB43
 4566 0038 00000000 		.4byte	.LFB44
 4567 003c 58000000 		.4byte	.LFE44-.LFB44
 4568 0040 00000000 		.4byte	.LFB45
 4569 0044 A4000000 		.4byte	.LFE45-.LFB45
 4570 0048 00000000 		.4byte	.LFB46
 4571 004c 80000000 		.4byte	.LFE46-.LFB46
 4572 0050 00000000 		.4byte	0
 4573 0054 00000000 		.4byte	0
 4574              		.section	.debug_ranges,"",%progbits
 4575              	.Ldebug_ranges0:
 4576 0000 0E000000 		.4byte	.LBB28
 4577 0004 18000000 		.4byte	.LBE28
 4578 0008 1A000000 		.4byte	.LBB31
 4579 000c 20000000 		.4byte	.LBE31
 4580 0010 00000000 		.4byte	0
 4581 0014 00000000 		.4byte	0
 4582 0018 24000000 		.4byte	.LBB32
 4583 001c 26000000 		.4byte	.LBE32
 4584 0020 28000000 		.4byte	.LBB35
 4585 0024 2C000000 		.4byte	.LBE35
 4586 0028 00000000 		.4byte	0
 4587 002c 00000000 		.4byte	0
 4588 0030 00000000 		.4byte	.LFB40
 4589 0034 0C000000 		.4byte	.LFE40
 4590 0038 00000000 		.4byte	.LFB41
 4591 003c 0C000000 		.4byte	.LFE41
 4592 0040 00000000 		.4byte	.LFB39
 4593 0044 A2000000 		.4byte	.LFE39
 4594 0048 00000000 		.4byte	.LFB42
 4595 004c 14000000 		.4byte	.LFE42
 4596 0050 00000000 		.4byte	.LFB43
 4597 0054 14000000 		.4byte	.LFE43
 4598 0058 00000000 		.4byte	.LFB44
 4599 005c 58000000 		.4byte	.LFE44
 4600 0060 00000000 		.4byte	.LFB45
 4601 0064 A4000000 		.4byte	.LFE45
 4602 0068 00000000 		.4byte	.LFB46
 4603 006c 80000000 		.4byte	.LFE46
 4604 0070 00000000 		.4byte	0
 4605 0074 00000000 		.4byte	0
 4606              		.section	.debug_line,"",%progbits
 4607              	.Ldebug_line0:
 4608 0000 98030000 		.section	.debug_str,"MS",%progbits,1
 4608      02004902 
ARM GAS  /tmp/cc01KxiS.s 			page 82


 4608      00000201 
 4608      FB0E0D00 
 4608      01010101 
 4609              	.LASF154:
 4610 0000 50494F5F 		.ascii	"PIO_IFSCSR\000"
 4610      49465343 
 4610      535200
 4611              	.LASF209:
 4612 000b 504D435F 		.ascii	"PMC_USB\000"
 4612      55534200 
 4613              	.LASF112:
 4614 0013 5443325F 		.ascii	"TC2_IRQn\000"
 4614      4952516E 
 4614      00
 4615              	.LASF216:
 4616 001c 504D435F 		.ascii	"PMC_FSPR\000"
 4616      46535052 
 4616      00
 4617              	.LASF2:
 4618 0025 73697A65 		.ascii	"size_t\000"
 4618      5F7400
 4619              	.LASF51:
 4620 002c 73697A65 		.ascii	"sizetype\000"
 4620      74797065 
 4620      00
 4621              	.LASF269:
 4622 0035 75617274 		.ascii	"uart_deinit\000"
 4622      5F646569 
 4622      6E697400 
 4623              	.LASF26:
 4624 0041 73797374 		.ascii	"systime_t\000"
 4624      696D655F 
 4624      7400
 4625              	.LASF31:
 4626 004b 705F6374 		.ascii	"p_ctx\000"
 4626      7800
 4627              	.LASF23:
 4628 0051 74707269 		.ascii	"tprio_t\000"
 4628      6F5F7400 
 4629              	.LASF207:
 4630 0059 434B4752 		.ascii	"CKGR_PLLBR\000"
 4630      5F504C4C 
 4630      425200
 4631              	.LASF40:
 4632 0064 705F6D73 		.ascii	"p_msgqueue\000"
 4632      67717565 
 4632      756500
 4633              	.LASF16:
 4634 006f 696E7433 		.ascii	"int32_t\000"
 4634      325F7400 
 4635              	.LASF257:
 4636 0077 53657269 		.ascii	"SerialConfig\000"
 4636      616C436F 
 4636      6E666967 
 4636      00
 4637              	.LASF263:
 4638 0084 77726974 		.ascii	"writet\000"
ARM GAS  /tmp/cc01KxiS.s 			page 83


 4638      657400
 4639              	.LASF166:
 4640 008b 50494F5F 		.ascii	"PIO_AIMMR\000"
 4640      41494D4D 
 4640      5200
 4641              	.LASF227:
 4642 0095 55415254 		.ascii	"UART_IDR\000"
 4642      5F494452 
 4642      00
 4643              	.LASF80:
 4644 009e 576F5265 		.ascii	"WoReg\000"
 4644      6700
 4645              	.LASF177:
 4646 00a4 50494F5F 		.ascii	"PIO_WPMR\000"
 4646      57504D52 
 4646      00
 4647              	.LASF259:
 4648 00ad 77726974 		.ascii	"write\000"
 4648      6500
 4649              	.LASF256:
 4650 00b3 73635F6D 		.ascii	"sc_mr\000"
 4650      7200
 4651              	.LASF266:
 4652 00b9 636F6E66 		.ascii	"config\000"
 4652      696700
 4653              	.LASF229:
 4654 00c0 55415254 		.ascii	"UART_SR\000"
 4654      5F535200 
 4655              	.LASF186:
 4656 00c8 50494F5F 		.ascii	"PIO_PCISR\000"
 4656      50434953 
 4656      5200
 4657              	.LASF226:
 4658 00d2 55415254 		.ascii	"UART_IER\000"
 4658      5F494552 
 4658      00
 4659              	.LASF159:
 4660 00db 52657365 		.ascii	"Reserved7\000"
 4660      72766564 
 4660      3700
 4661              	.LASF163:
 4662 00e5 52657365 		.ascii	"Reserved8\000"
 4662      72766564 
 4662      3800
 4663              	.LASF219:
 4664 00ef 504D435F 		.ascii	"PMC_WPSR\000"
 4664      57505352 
 4664      00
 4665              	.LASF91:
 4666 00f8 52535443 		.ascii	"RSTC_IRQn\000"
 4666      5F495251 
 4666      6E00
 4667              	.LASF273:
 4668 0102 73657276 		.ascii	"serve_interrupt\000"
 4668      655F696E 
 4668      74657272 
 4668      75707400 
ARM GAS  /tmp/cc01KxiS.s 			page 84


 4669              	.LASF205:
 4670 0112 434B4752 		.ascii	"CKGR_MCFR\000"
 4670      5F4D4346 
 4670      5200
 4671              	.LASF190:
 4672 011c 50494F5F 		.ascii	"PIO_TPR\000"
 4672      54505200 
 4673              	.LASF241:
 4674 0124 55415254 		.ascii	"UART_PTCR\000"
 4674      5F505443 
 4674      5200
 4675              	.LASF272:
 4676 012e 7365745F 		.ascii	"set_error\000"
 4676      6572726F 
 4676      7200
 4677              	.LASF54:
 4678 0138 6D5F6F77 		.ascii	"m_owner\000"
 4678      6E657200 
 4679              	.LASF63:
 4680 0140 65786974 		.ascii	"exitcode\000"
 4680      636F6465 
 4680      00
 4681              	.LASF3:
 4682 0149 5F5F7569 		.ascii	"__uint8_t\000"
 4682      6E74385F 
 4682      7400
 4683              	.LASF71:
 4684 0153 715F746F 		.ascii	"q_top\000"
 4684      7000
 4685              	.LASF161:
 4686 0159 50494F5F 		.ascii	"PIO_OWDR\000"
 4686      4F574452 
 4686      00
 4687              	.LASF264:
 4688 0162 72656164 		.ascii	"readt\000"
 4688      7400
 4689              	.LASF277:
 4690 0168 73645F6C 		.ascii	"sd_lld_start\000"
 4690      6C645F73 
 4690      74617274 
 4690      00
 4691              	.LASF70:
 4692 0175 715F6275 		.ascii	"q_buffer\000"
 4692      66666572 
 4692      00
 4693              	.LASF212:
 4694 017e 504D435F 		.ascii	"PMC_IDR\000"
 4694      49445200 
 4695              	.LASF74:
 4696 0186 715F6E6F 		.ascii	"q_notify\000"
 4696      74696679 
 4696      00
 4697              	.LASF284:
 4698 018f 73644F62 		.ascii	"sdObjectInit\000"
 4698      6A656374 
 4698      496E6974 
 4698      00
ARM GAS  /tmp/cc01KxiS.s 			page 85


 4699              	.LASF156:
 4700 019c 50494F5F 		.ascii	"PIO_PPDDR\000"
 4700      50504444 
 4700      5200
 4701              	.LASF32:
 4702 01a6 705F6E65 		.ascii	"p_newer\000"
 4702      77657200 
 4703              	.LASF9:
 4704 01ae 6C6F6E67 		.ascii	"long int\000"
 4704      20696E74 
 4704      00
 4705              	.LASF28:
 4706 01b7 705F6E65 		.ascii	"p_next\000"
 4706      787400
 4707              	.LASF73:
 4708 01be 715F7264 		.ascii	"q_rdptr\000"
 4708      70747200 
 4709              	.LASF208:
 4710 01c6 504D435F 		.ascii	"PMC_MCKR\000"
 4710      4D434B52 
 4710      00
 4711              	.LASF29:
 4712 01cf 705F7072 		.ascii	"p_prev\000"
 4712      657600
 4713              	.LASF279:
 4714 01d6 64656661 		.ascii	"default_config\000"
 4714      756C745F 
 4714      636F6E66 
 4714      696700
 4715              	.LASF268:
 4716 01e5 75617274 		.ascii	"uart_init\000"
 4716      5F696E69 
 4716      7400
 4717              	.LASF160:
 4718 01ef 50494F5F 		.ascii	"PIO_OWER\000"
 4718      4F574552 
 4718      00
 4719              	.LASF132:
 4720 01f8 50494F5F 		.ascii	"PIO_IFSR\000"
 4720      49465352 
 4720      00
 4721              	.LASF150:
 4722 0201 50494F5F 		.ascii	"PIO_ABCDSR\000"
 4722      41424344 
 4722      535200
 4723              	.LASF21:
 4724 020c 74737461 		.ascii	"tstate_t\000"
 4724      74655F74 
 4724      00
 4725              	.LASF201:
 4726 0215 504D435F 		.ascii	"PMC_PCER0\000"
 4726      50434552 
 4726      3000
 4727              	.LASF220:
 4728 021f 504D435F 		.ascii	"PMC_PCER1\000"
 4728      50434552 
 4728      3100
ARM GAS  /tmp/cc01KxiS.s 			page 86


 4729              	.LASF43:
 4730 0229 705F6D74 		.ascii	"p_mtxlist\000"
 4730      786C6973 
 4730      7400
 4731              	.LASF253:
 4732 0233 6F717565 		.ascii	"oqueue\000"
 4732      756500
 4733              	.LASF48:
 4734 023a 72656761 		.ascii	"regarm_t\000"
 4734      726D5F74 
 4734      00
 4735              	.LASF157:
 4736 0243 50494F5F 		.ascii	"PIO_PPDER\000"
 4736      50504445 
 4736      5200
 4737              	.LASF168:
 4738 024d 50494F5F 		.ascii	"PIO_ESR\000"
 4738      45535200 
 4739              	.LASF115:
 4740 0255 5443355F 		.ascii	"TC5_IRQn\000"
 4740      4952516E 
 4740      00
 4741              	.LASF204:
 4742 025e 434B4752 		.ascii	"CKGR_MOR\000"
 4742      5F4D4F52 
 4742      00
 4743              	.LASF287:
 4744 0267 6E766963 		.ascii	"nvicEnableVector\000"
 4744      456E6162 
 4744      6C655665 
 4744      63746F72 
 4744      00
 4745              	.LASF128:
 4746 0278 50494F5F 		.ascii	"PIO_OSR\000"
 4746      4F535200 
 4747              	.LASF89:
 4748 0280 53797354 		.ascii	"SysTick_IRQn\000"
 4748      69636B5F 
 4748      4952516E 
 4748      00
 4749              	.LASF1:
 4750 028d 7369676E 		.ascii	"signed char\000"
 4750      65642063 
 4750      68617200 
 4751              	.LASF65:
 4752 0299 65776D61 		.ascii	"ewmask\000"
 4752      736B00
 4753              	.LASF14:
 4754 02a0 75696E74 		.ascii	"uint8_t\000"
 4754      385F7400 
 4755              	.LASF25:
 4756 02a8 6576656E 		.ascii	"eventmask_t\000"
 4756      746D6173 
 4756      6B5F7400 
 4757              	.LASF50:
 4758 02b4 636F6E74 		.ascii	"context\000"
 4758      65787400 
ARM GAS  /tmp/cc01KxiS.s 			page 87


 4759              	.LASF192:
 4760 02bc 50494F5F 		.ascii	"PIO_RNPR\000"
 4760      524E5052 
 4760      00
 4761              	.LASF4:
 4762 02c5 756E7369 		.ascii	"unsigned char\000"
 4762      676E6564 
 4762      20636861 
 4762      7200
 4763              	.LASF146:
 4764 02d3 50494F5F 		.ascii	"PIO_PUDR\000"
 4764      50554452 
 4764      00
 4765              	.LASF236:
 4766 02dc 55415254 		.ascii	"UART_TCR\000"
 4766      5F544352 
 4766      00
 4767              	.LASF194:
 4768 02e5 50494F5F 		.ascii	"PIO_TNPR\000"
 4768      544E5052 
 4768      00
 4769              	.LASF244:
 4770 02ee 53445F55 		.ascii	"SD_UNINIT\000"
 4770      4E494E49 
 4770      5400
 4771              	.LASF178:
 4772 02f8 50494F5F 		.ascii	"PIO_WPSR\000"
 4772      57505352 
 4772      00
 4773              	.LASF233:
 4774 0301 55415254 		.ascii	"UART_RPR\000"
 4774      5F525052 
 4774      00
 4775              	.LASF224:
 4776 030a 55415254 		.ascii	"UART_CR\000"
 4776      5F435200 
 4777              	.LASF85:
 4778 0312 55736167 		.ascii	"UsageFault_IRQn\000"
 4778      65466175 
 4778      6C745F49 
 4778      52516E00 
 4779              	.LASF66:
 4780 0322 63686172 		.ascii	"char\000"
 4780      00
 4781              	.LASF189:
 4782 0327 50494F5F 		.ascii	"PIO_RCR\000"
 4782      52435200 
 4783              	.LASF99:
 4784 032f 534D435F 		.ascii	"SMC_IRQn\000"
 4784      4952516E 
 4784      00
 4785              	.LASF171:
 4786 0338 52657365 		.ascii	"Reserved10\000"
 4786      72766564 
 4786      313000
 4787              	.LASF175:
 4788 0343 52657365 		.ascii	"Reserved11\000"
ARM GAS  /tmp/cc01KxiS.s 			page 88


 4788      72766564 
 4788      313100
 4789              	.LASF179:
 4790 034e 52657365 		.ascii	"Reserved12\000"
 4790      72766564 
 4790      313200
 4791              	.LASF181:
 4792 0359 52657365 		.ascii	"Reserved13\000"
 4792      72766564 
 4792      313300
 4793              	.LASF30:
 4794 0364 705F7072 		.ascii	"p_prio\000"
 4794      696F00
 4795              	.LASF6:
 4796 036b 5F5F7569 		.ascii	"__uint16_t\000"
 4796      6E743136 
 4796      5F7400
 4797              	.LASF67:
 4798 0376 47656E65 		.ascii	"GenericQueue\000"
 4798      72696351 
 4798      75657565 
 4798      00
 4799              	.LASF143:
 4800 0383 50494F5F 		.ascii	"PIO_MDDR\000"
 4800      4D444452 
 4800      00
 4801              	.LASF64:
 4802 038c 77746F62 		.ascii	"wtobjp\000"
 4802      6A7000
 4803              	.LASF137:
 4804 0393 50494F5F 		.ascii	"PIO_PDSR\000"
 4804      50445352 
 4804      00
 4805              	.LASF250:
 4806 039c 666C6167 		.ascii	"flags\000"
 4806      7300
 4807              	.LASF176:
 4808 03a2 50494F5F 		.ascii	"PIO_LOCKSR\000"
 4808      4C4F434B 
 4808      535200
 4809              	.LASF77:
 4810 03ad 4F757470 		.ascii	"OutputQueue\000"
 4810      75745175 
 4810      65756500 
 4811              	.LASF172:
 4812 03b9 50494F5F 		.ascii	"PIO_FELLSR\000"
 4812      46454C4C 
 4812      535200
 4813              	.LASF223:
 4814 03c4 504D435F 		.ascii	"PMC_OCR\000"
 4814      4F435200 
 4815              	.LASF118:
 4816 03cc 50574D5F 		.ascii	"PWM_IRQn\000"
 4816      4952516E 
 4816      00
 4817              	.LASF142:
 4818 03d5 50494F5F 		.ascii	"PIO_MDER\000"
ARM GAS  /tmp/cc01KxiS.s 			page 89


 4818      4D444552 
 4818      00
 4819              	.LASF123:
 4820 03de 50494F5F 		.ascii	"PIO_PDR\000"
 4820      50445200 
 4821              	.LASF261:
 4822 03e6 70757477 		.ascii	"putwouldblock\000"
 4822      6F756C64 
 4822      626C6F63 
 4822      6B00
 4823              	.LASF237:
 4824 03f4 55415254 		.ascii	"UART_RNPR\000"
 4824      5F524E50 
 4824      5200
 4825              	.LASF228:
 4826 03fe 55415254 		.ascii	"UART_IMR\000"
 4826      5F494D52 
 4826      00
 4827              	.LASF243:
 4828 0407 55617274 		.ascii	"Uart\000"
 4828      00
 4829              	.LASF239:
 4830 040c 55415254 		.ascii	"UART_TNPR\000"
 4830      5F544E50 
 4830      5200
 4831              	.LASF170:
 4832 0416 50494F5F 		.ascii	"PIO_ELSR\000"
 4832      454C5352 
 4832      00
 4833              	.LASF120:
 4834 041f 4143435F 		.ascii	"ACC_IRQn\000"
 4834      4952516E 
 4834      00
 4835              	.LASF49:
 4836 0428 696E7463 		.ascii	"intctx\000"
 4836      747800
 4837              	.LASF42:
 4838 042f 705F6570 		.ascii	"p_epending\000"
 4838      656E6469 
 4838      6E6700
 4839              	.LASF98:
 4840 043a 55415254 		.ascii	"UART1_IRQn\000"
 4840      315F4952 
 4840      516E00
 4841              	.LASF95:
 4842 0445 504D435F 		.ascii	"PMC_IRQn\000"
 4842      4952516E 
 4842      00
 4843              	.LASF96:
 4844 044e 4546435F 		.ascii	"EFC_IRQn\000"
 4844      4952516E 
 4844      00
 4845              	.LASF119:
 4846 0457 43524343 		.ascii	"CRCCU_IRQn\000"
 4846      555F4952 
 4846      516E00
 4847              	.LASF90:
ARM GAS  /tmp/cc01KxiS.s 			page 90


 4848 0462 53555043 		.ascii	"SUPC_IRQn\000"
 4848      5F495251 
 4848      6E00
 4849              	.LASF111:
 4850 046c 5443315F 		.ascii	"TC1_IRQn\000"
 4850      4952516E 
 4850      00
 4851              	.LASF102:
 4852 0475 50494F43 		.ascii	"PIOC_IRQn\000"
 4852      5F495251 
 4852      6E00
 4853              	.LASF124:
 4854 047f 50494F5F 		.ascii	"PIO_PSR\000"
 4854      50535200 
 4855              	.LASF231:
 4856 0487 55415254 		.ascii	"UART_THR\000"
 4856      5F544852 
 4856      00
 4857              	.LASF61:
 4858 0490 65735F6E 		.ascii	"es_next\000"
 4858      65787400 
 4859              	.LASF69:
 4860 0498 715F636F 		.ascii	"q_counter\000"
 4860      756E7465 
 4860      7200
 4861              	.LASF93:
 4862 04a2 5254545F 		.ascii	"RTT_IRQn\000"
 4862      4952516E 
 4862      00
 4863              	.LASF147:
 4864 04ab 50494F5F 		.ascii	"PIO_PUER\000"
 4864      50554552 
 4864      00
 4865              	.LASF121:
 4866 04b4 5544505F 		.ascii	"UDP_IRQn\000"
 4866      4952516E 
 4866      00
 4867              	.LASF117:
 4868 04bd 44414343 		.ascii	"DACC_IRQn\000"
 4868      5F495251 
 4868      6E00
 4869              	.LASF82:
 4870 04c7 4E6F6E4D 		.ascii	"NonMaskableInt_IRQn\000"
 4870      61736B61 
 4870      626C6549 
 4870      6E745F49 
 4870      52516E00 
 4871              	.LASF60:
 4872 04db 4576656E 		.ascii	"EventSource\000"
 4872      74536F75 
 4872      72636500 
 4873              	.LASF11:
 4874 04e7 6C6F6E67 		.ascii	"long unsigned int\000"
 4874      20756E73 
 4874      69676E65 
 4874      6420696E 
 4874      7400
ARM GAS  /tmp/cc01KxiS.s 			page 91


 4875              	.LASF83:
 4876 04f9 4D656D6F 		.ascii	"MemoryManagement_IRQn\000"
 4876      72794D61 
 4876      6E616765 
 4876      6D656E74 
 4876      5F495251 
 4877              	.LASF281:
 4878 050f 53797374 		.ascii	"SystemCoreClock\000"
 4878      656D436F 
 4878      7265436C 
 4878      6F636B00 
 4879              	.LASF214:
 4880 051f 504D435F 		.ascii	"PMC_IMR\000"
 4880      494D5200 
 4881              	.LASF57:
 4882 0527 656C5F6E 		.ascii	"el_next\000"
 4882      65787400 
 4883              	.LASF274:
 4884 052f 56656374 		.ascii	"Vector60\000"
 4884      6F723630 
 4884      00
 4885              	.LASF275:
 4886 0538 56656374 		.ascii	"Vector64\000"
 4886      6F723634 
 4886      00
 4887              	.LASF72:
 4888 0541 715F7772 		.ascii	"q_wrptr\000"
 4888      70747200 
 4889              	.LASF200:
 4890 0549 504D435F 		.ascii	"PMC_SCSR\000"
 4890      53435352 
 4890      00
 4891              	.LASF258:
 4892 0552 53657269 		.ascii	"SerialDriverVMT\000"
 4892      616C4472 
 4892      69766572 
 4892      564D5400 
 4893              	.LASF135:
 4894 0562 50494F5F 		.ascii	"PIO_CODR\000"
 4894      434F4452 
 4894      00
 4895              	.LASF289:
 4896 056b 43686962 		.ascii	"ChibiOS//os/hal/platforms/AT91SAM3S/serial_lld.c\000"
 4896      694F532F 
 4896      2F6F732F 
 4896      68616C2F 
 4896      706C6174 
 4897              	.LASF94:
 4898 059c 5744545F 		.ascii	"WDT_IRQn\000"
 4898      4952516E 
 4898      00
 4899              	.LASF84:
 4900 05a5 42757346 		.ascii	"BusFault_IRQn\000"
 4900      61756C74 
 4900      5F495251 
 4900      6E00
 4901              	.LASF276:
ARM GAS  /tmp/cc01KxiS.s 			page 92


 4902 05b3 73645F6C 		.ascii	"sd_lld_init\000"
 4902      6C645F69 
 4902      6E697400 
 4903              	.LASF10:
 4904 05bf 5F5F7569 		.ascii	"__uint32_t\000"
 4904      6E743332 
 4904      5F7400
 4905              	.LASF139:
 4906 05ca 50494F5F 		.ascii	"PIO_IDR\000"
 4906      49445200 
 4907              	.LASF52:
 4908 05d2 4D757465 		.ascii	"Mutex\000"
 4908      7800
 4909              	.LASF283:
 4910 05d8 7364496E 		.ascii	"sdIncomingDataI\000"
 4910      636F6D69 
 4910      6E674461 
 4910      74614900 
 4911              	.LASF12:
 4912 05e8 6C6F6E67 		.ascii	"long long int\000"
 4912      206C6F6E 
 4912      6720696E 
 4912      7400
 4913              	.LASF203:
 4914 05f6 504D435F 		.ascii	"PMC_PCSR0\000"
 4914      50435352 
 4914      3000
 4915              	.LASF53:
 4916 0600 6D5F7175 		.ascii	"m_queue\000"
 4916      65756500 
 4917              	.LASF155:
 4918 0608 50494F5F 		.ascii	"PIO_SCDR\000"
 4918      53434452 
 4918      00
 4919              	.LASF107:
 4920 0611 54574931 		.ascii	"TWI1_IRQn\000"
 4920      5F495251 
 4920      6E00
 4921              	.LASF210:
 4922 061b 504D435F 		.ascii	"PMC_PCK\000"
 4922      50434B00 
 4923              	.LASF86:
 4924 0623 53564361 		.ascii	"SVCall_IRQn\000"
 4924      6C6C5F49 
 4924      52516E00 
 4925              	.LASF197:
 4926 062f 50494F5F 		.ascii	"PIO_PTSR\000"
 4926      50545352 
 4926      00
 4927              	.LASF138:
 4928 0638 50494F5F 		.ascii	"PIO_IER\000"
 4928      49455200 
 4929              	.LASF187:
 4930 0640 50494F5F 		.ascii	"PIO_PCRHR\000"
 4930      50435248 
 4930      5200
 4931              	.LASF280:
ARM GAS  /tmp/cc01KxiS.s 			page 93


 4932 064a 49544D5F 		.ascii	"ITM_RxBuffer\000"
 4932      52784275 
 4932      66666572 
 4932      00
 4933              	.LASF134:
 4934 0657 50494F5F 		.ascii	"PIO_SODR\000"
 4934      534F4452 
 4934      00
 4935              	.LASF153:
 4936 0660 50494F5F 		.ascii	"PIO_IFSCER\000"
 4936      49465343 
 4936      455200
 4937              	.LASF75:
 4938 066b 716E6F74 		.ascii	"qnotify_t\000"
 4938      6966795F 
 4938      7400
 4939              	.LASF39:
 4940 0675 705F7761 		.ascii	"p_waiting\000"
 4940      6974696E 
 4940      6700
 4941              	.LASF249:
 4942 067f 6576656E 		.ascii	"event\000"
 4942      7400
 4943              	.LASF36:
 4944 0685 705F666C 		.ascii	"p_flags\000"
 4944      61677300 
 4945              	.LASF217:
 4946 068d 504D435F 		.ascii	"PMC_FOCR\000"
 4946      464F4352 
 4946      00
 4947              	.LASF260:
 4948 0696 72656164 		.ascii	"read\000"
 4948      00
 4949              	.LASF0:
 4950 069b 756E7369 		.ascii	"unsigned int\000"
 4950      676E6564 
 4950      20696E74 
 4950      00
 4951              	.LASF230:
 4952 06a8 55415254 		.ascii	"UART_RHR\000"
 4952      5F524852 
 4952      00
 4953              	.LASF114:
 4954 06b1 5443345F 		.ascii	"TC4_IRQn\000"
 4954      4952516E 
 4954      00
 4955              	.LASF45:
 4956 06ba 705F6D70 		.ascii	"p_mpool\000"
 4956      6F6F6C00 
 4957              	.LASF106:
 4958 06c2 54574930 		.ascii	"TWI0_IRQn\000"
 4958      5F495251 
 4958      6E00
 4959              	.LASF37:
 4960 06cc 705F7265 		.ascii	"p_refs\000"
 4960      667300
 4961              	.LASF292:
ARM GAS  /tmp/cc01KxiS.s 			page 94


 4962 06d3 63684F51 		.ascii	"chOQGetI\000"
 4962      47657449 
 4962      00
 4963              	.LASF184:
 4964 06dc 50494F5F 		.ascii	"PIO_PCIDR\000"
 4964      50434944 
 4964      5200
 4965              	.LASF169:
 4966 06e6 50494F5F 		.ascii	"PIO_LSR\000"
 4966      4C535200 
 4967              	.LASF255:
 4968 06ee 73635F73 		.ascii	"sc_speed\000"
 4968      70656564 
 4968      00
 4969              	.LASF285:
 4970 06f7 5F706F72 		.ascii	"_port_irq_epilogue\000"
 4970      745F6972 
 4970      715F6570 
 4970      696C6F67 
 4970      756500
 4971              	.LASF47:
 4972 070a 54687265 		.ascii	"ThreadsList\000"
 4972      6164734C 
 4972      69737400 
 4973              	.LASF78:
 4974 0716 696F666C 		.ascii	"ioflags_t\000"
 4974      6167735F 
 4974      7400
 4975              	.LASF290:
 4976 0720 2F686F6D 		.ascii	"/home/raparram/Escritorio/blinkSAM\000"
 4976      652F7261 
 4976      70617272 
 4976      616D2F45 
 4976      73637269 
 4977              	.LASF38:
 4978 0743 705F7469 		.ascii	"p_time\000"
 4978      6D6500
 4979              	.LASF162:
 4980 074a 50494F5F 		.ascii	"PIO_OWSR\000"
 4980      4F575352 
 4980      00
 4981              	.LASF291:
 4982 0753 4952516E 		.ascii	"IRQn\000"
 4982      00
 4983              	.LASF267:
 4984 0758 43505546 		.ascii	"CPUFrequency\000"
 4984      72657175 
 4984      656E6379 
 4984      00
 4985              	.LASF242:
 4986 0765 55415254 		.ascii	"UART_PTSR\000"
 4986      5F505453 
 4986      5200
 4987              	.LASF158:
 4988 076f 50494F5F 		.ascii	"PIO_PPDSR\000"
 4988      50504453 
 4988      5200
ARM GAS  /tmp/cc01KxiS.s 			page 95


 4989              	.LASF282:
 4990 0779 63684576 		.ascii	"chEvtBroadcastFlagsI\000"
 4990      7442726F 
 4990      61646361 
 4990      7374466C 
 4990      61677349 
 4991              	.LASF293:
 4992 078e 6E766963 		.ascii	"nvicDisableVector\000"
 4992      44697361 
 4992      626C6556 
 4992      6563746F 
 4992      7200
 4993              	.LASF44:
 4994 07a0 705F7265 		.ascii	"p_realprio\000"
 4994      616C7072 
 4994      696F00
 4995              	.LASF262:
 4996 07ab 67657477 		.ascii	"getwouldblock\000"
 4996      6F756C64 
 4996      626C6F63 
 4996      6B00
 4997              	.LASF235:
 4998 07b9 55415254 		.ascii	"UART_TPR\000"
 4998      5F545052 
 4998      00
 4999              	.LASF131:
 5000 07c2 50494F5F 		.ascii	"PIO_IFDR\000"
 5000      49464452 
 5000      00
 5001              	.LASF252:
 5002 07cb 69717565 		.ascii	"iqueue\000"
 5002      756500
 5003              	.LASF191:
 5004 07d2 50494F5F 		.ascii	"PIO_TCR\000"
 5004      54435200 
 5005              	.LASF13:
 5006 07da 6C6F6E67 		.ascii	"long long unsigned int\000"
 5006      206C6F6E 
 5006      6720756E 
 5006      7369676E 
 5006      65642069 
 5007              	.LASF33:
 5008 07f1 705F6F6C 		.ascii	"p_older\000"
 5008      64657200 
 5009              	.LASF15:
 5010 07f9 75696E74 		.ascii	"uint16_t\000"
 5010      31365F74 
 5010      00
 5011              	.LASF288:
 5012 0802 474E5520 		.ascii	"GNU C 4.9.3 20150529 (prerelease) -mcpu=cortex-m3 -"
 5012      4320342E 
 5012      392E3320 
 5012      32303135 
 5012      30353239 
 5013 0835 6D6E6F2D 		.ascii	"mno-thumb-interwork -mthumb -ggdb -O2 -std=gnu99 -f"
 5013      7468756D 
 5013      622D696E 
ARM GAS  /tmp/cc01KxiS.s 			page 96


 5013      74657277 
 5013      6F726B20 
 5014 0868 6F6D6974 		.ascii	"omit-frame-pointer -falign-functions=16 -ffunction-"
 5014      2D667261 
 5014      6D652D70 
 5014      6F696E74 
 5014      6572202D 
 5015 089b 73656374 		.ascii	"sections -fdata-sections -fno-common\000"
 5015      696F6E73 
 5015      202D6664 
 5015      6174612D 
 5015      73656374 
 5016              	.LASF127:
 5017 08c0 50494F5F 		.ascii	"PIO_ODR\000"
 5017      4F445200 
 5018              	.LASF24:
 5019 08c8 6D73675F 		.ascii	"msg_t\000"
 5019      7400
 5020              	.LASF130:
 5021 08ce 50494F5F 		.ascii	"PIO_IFER\000"
 5021      49464552 
 5021      00
 5022              	.LASF105:
 5023 08d7 48534D43 		.ascii	"HSMCI_IRQn\000"
 5023      495F4952 
 5023      516E00
 5024              	.LASF104:
 5025 08e2 55534152 		.ascii	"USART1_IRQn\000"
 5025      54315F49 
 5025      52516E00 
 5026              	.LASF152:
 5027 08ee 50494F5F 		.ascii	"PIO_IFSCDR\000"
 5027      49465343 
 5027      445200
 5028              	.LASF148:
 5029 08f9 50494F5F 		.ascii	"PIO_PUSR\000"
 5029      50555352 
 5029      00
 5030              	.LASF116:
 5031 0902 4144435F 		.ascii	"ADC_IRQn\000"
 5031      4952516E 
 5031      00
 5032              	.LASF126:
 5033 090b 50494F5F 		.ascii	"PIO_OER\000"
 5033      4F455200 
 5034              	.LASF165:
 5035 0913 50494F5F 		.ascii	"PIO_AIMDR\000"
 5035      41494D44 
 5035      5200
 5036              	.LASF97:
 5037 091d 55415254 		.ascii	"UART0_IRQn\000"
 5037      305F4952 
 5037      516E00
 5038              	.LASF211:
 5039 0928 504D435F 		.ascii	"PMC_IER\000"
 5039      49455200 
 5040              	.LASF248:
ARM GAS  /tmp/cc01KxiS.s 			page 97


 5041 0930 53657269 		.ascii	"SerialDriver\000"
 5041      616C4472 
 5041      69766572 
 5041      00
 5042              	.LASF174:
 5043 093d 50494F5F 		.ascii	"PIO_FRLHSR\000"
 5043      46524C48 
 5043      535200
 5044              	.LASF232:
 5045 0948 55415254 		.ascii	"UART_BRGR\000"
 5045      5F425247 
 5045      5200
 5046              	.LASF68:
 5047 0952 715F7761 		.ascii	"q_waiting\000"
 5047      6974696E 
 5047      6700
 5048              	.LASF108:
 5049 095c 5350495F 		.ascii	"SPI_IRQn\000"
 5049      4952516E 
 5049      00
 5050              	.LASF103:
 5051 0965 55534152 		.ascii	"USART0_IRQn\000"
 5051      54305F49 
 5051      52516E00 
 5052              	.LASF125:
 5053 0971 52657365 		.ascii	"Reserved1\000"
 5053      72766564 
 5053      3100
 5054              	.LASF129:
 5055 097b 52657365 		.ascii	"Reserved2\000"
 5055      72766564 
 5055      3200
 5056              	.LASF133:
 5057 0985 52657365 		.ascii	"Reserved3\000"
 5057      72766564 
 5057      3300
 5058              	.LASF145:
 5059 098f 52657365 		.ascii	"Reserved4\000"
 5059      72766564 
 5059      3400
 5060              	.LASF149:
 5061 0999 52657365 		.ascii	"Reserved5\000"
 5061      72766564 
 5061      3500
 5062              	.LASF151:
 5063 09a3 52657365 		.ascii	"Reserved6\000"
 5063      72766564 
 5063      3600
 5064              	.LASF110:
 5065 09ad 5443305F 		.ascii	"TC0_IRQn\000"
 5065      4952516E 
 5065      00
 5066              	.LASF20:
 5067 09b6 746D6F64 		.ascii	"tmode_t\000"
 5067      655F7400 
 5068              	.LASF167:
 5069 09be 52657365 		.ascii	"Reserved9\000"
ARM GAS  /tmp/cc01KxiS.s 			page 98


 5069      72766564 
 5069      3900
 5070              	.LASF101:
 5071 09c8 50494F42 		.ascii	"PIOB_IRQn\000"
 5071      5F495251 
 5071      6E00
 5072              	.LASF164:
 5073 09d2 50494F5F 		.ascii	"PIO_AIMER\000"
 5073      41494D45 
 5073      5200
 5074              	.LASF247:
 5075 09dc 73647374 		.ascii	"sdstate_t\000"
 5075      6174655F 
 5075      7400
 5076              	.LASF144:
 5077 09e6 50494F5F 		.ascii	"PIO_MDSR\000"
 5077      4D445352 
 5077      00
 5078              	.LASF140:
 5079 09ef 50494F5F 		.ascii	"PIO_IMR\000"
 5079      494D5200 
 5080              	.LASF87:
 5081 09f7 44656275 		.ascii	"DebugMonitor_IRQn\000"
 5081      674D6F6E 
 5081      69746F72 
 5081      5F495251 
 5081      6E00
 5082              	.LASF246:
 5083 0a09 53445F52 		.ascii	"SD_READY\000"
 5083      45414459 
 5083      00
 5084              	.LASF136:
 5085 0a12 50494F5F 		.ascii	"PIO_ODSR\000"
 5085      4F445352 
 5085      00
 5086              	.LASF193:
 5087 0a1b 50494F5F 		.ascii	"PIO_RNCR\000"
 5087      524E4352 
 5087      00
 5088              	.LASF270:
 5089 0a24 6E6F7469 		.ascii	"notify1\000"
 5089      66793100 
 5090              	.LASF271:
 5091 0a2c 6E6F7469 		.ascii	"notify2\000"
 5091      66793200 
 5092              	.LASF195:
 5093 0a34 50494F5F 		.ascii	"PIO_TNCR\000"
 5093      544E4352 
 5093      00
 5094              	.LASF180:
 5095 0a3d 50494F5F 		.ascii	"PIO_SCHMITT\000"
 5095      5343484D 
 5095      49545400 
 5096              	.LASF5:
 5097 0a49 73686F72 		.ascii	"short int\000"
 5097      7420696E 
 5097      7400
ARM GAS  /tmp/cc01KxiS.s 			page 99


 5098              	.LASF79:
 5099 0a53 526F5265 		.ascii	"RoReg\000"
 5099      6700
 5100              	.LASF234:
 5101 0a59 55415254 		.ascii	"UART_RCR\000"
 5101      5F524352 
 5101      00
 5102              	.LASF254:
 5103 0a62 75617274 		.ascii	"uart\000"
 5103      00
 5104              	.LASF251:
 5105 0a67 73746174 		.ascii	"state\000"
 5105      6500
 5106              	.LASF213:
 5107 0a6d 504D435F 		.ascii	"PMC_SR\000"
 5107      535200
 5108              	.LASF100:
 5109 0a74 50494F41 		.ascii	"PIOA_IRQn\000"
 5109      5F495251 
 5109      6E00
 5110              	.LASF19:
 5111 0a7e 626F6F6C 		.ascii	"bool_t\000"
 5111      5F7400
 5112              	.LASF27:
 5113 0a85 54687265 		.ascii	"Thread\000"
 5113      616400
 5114              	.LASF81:
 5115 0a8c 52775265 		.ascii	"RwReg\000"
 5115      6700
 5116              	.LASF265:
 5117 0a92 67657466 		.ascii	"getflags\000"
 5117      6C616773 
 5117      00
 5118              	.LASF225:
 5119 0a9b 55415254 		.ascii	"UART_MR\000"
 5119      5F4D5200 
 5120              	.LASF185:
 5121 0aa3 50494F5F 		.ascii	"PIO_PCIMR\000"
 5121      5043494D 
 5121      5200
 5122              	.LASF22:
 5123 0aad 74726566 		.ascii	"trefs_t\000"
 5123      735F7400 
 5124              	.LASF56:
 5125 0ab5 4576656E 		.ascii	"EventListener\000"
 5125      744C6973 
 5125      74656E65 
 5125      7200
 5126              	.LASF218:
 5127 0ac3 504D435F 		.ascii	"PMC_WPMR\000"
 5127      57504D52 
 5127      00
 5128              	.LASF286:
 5129 0acc 53797374 		.ascii	"SystemCoreClockUpdate\000"
 5129      656D436F 
 5129      7265436C 
 5129      6F636B55 
ARM GAS  /tmp/cc01KxiS.s 			page 100


 5129      70646174 
 5130              	.LASF182:
 5131 0ae2 50494F5F 		.ascii	"PIO_PCMR\000"
 5131      50434D52 
 5131      00
 5132              	.LASF109:
 5133 0aeb 5353435F 		.ascii	"SSC_IRQn\000"
 5133      4952516E 
 5133      00
 5134              	.LASF17:
 5135 0af4 75696E74 		.ascii	"uint32_t\000"
 5135      33325F74 
 5135      00
 5136              	.LASF238:
 5137 0afd 55415254 		.ascii	"UART_RNCR\000"
 5137      5F524E43 
 5137      5200
 5138              	.LASF46:
 5139 0b07 54687265 		.ascii	"ThreadsQueue\000"
 5139      61647351 
 5139      75657565 
 5139      00
 5140              	.LASF215:
 5141 0b14 504D435F 		.ascii	"PMC_FSMR\000"
 5141      46534D52 
 5141      00
 5142              	.LASF18:
 5143 0b1d 75696E74 		.ascii	"uint_fast16_t\000"
 5143      5F666173 
 5143      7431365F 
 5143      7400
 5144              	.LASF240:
 5145 0b2b 55415254 		.ascii	"UART_TNCR\000"
 5145      5F544E43 
 5145      5200
 5146              	.LASF173:
 5147 0b35 50494F5F 		.ascii	"PIO_REHLSR\000"
 5147      5245484C 
 5147      535200
 5148              	.LASF62:
 5149 0b40 7264796D 		.ascii	"rdymsg\000"
 5149      736700
 5150              	.LASF188:
 5151 0b47 50494F5F 		.ascii	"PIO_RPR\000"
 5151      52505200 
 5152              	.LASF7:
 5153 0b4f 73686F72 		.ascii	"short unsigned int\000"
 5153      7420756E 
 5153      7369676E 
 5153      65642069 
 5153      6E7400
 5154              	.LASF278:
 5155 0b62 73645F6C 		.ascii	"sd_lld_stop\000"
 5155      6C645F73 
 5155      746F7000 
 5156              	.LASF122:
 5157 0b6e 50494F5F 		.ascii	"PIO_PER\000"
ARM GAS  /tmp/cc01KxiS.s 			page 101


 5157      50455200 
 5158              	.LASF76:
 5159 0b76 496E7075 		.ascii	"InputQueue\000"
 5159      74517565 
 5159      756500
 5160              	.LASF88:
 5161 0b81 50656E64 		.ascii	"PendSV_IRQn\000"
 5161      53565F49 
 5161      52516E00 
 5162              	.LASF113:
 5163 0b8d 5443335F 		.ascii	"TC3_IRQn\000"
 5163      4952516E 
 5163      00
 5164              	.LASF8:
 5165 0b96 5F5F696E 		.ascii	"__int32_t\000"
 5165      7433325F 
 5165      7400
 5166              	.LASF245:
 5167 0ba0 53445F53 		.ascii	"SD_STOP\000"
 5167      544F5000 
 5168              	.LASF199:
 5169 0ba8 504D435F 		.ascii	"PMC_SCDR\000"
 5169      53434452 
 5169      00
 5170              	.LASF59:
 5171 0bb1 656C5F6D 		.ascii	"el_mask\000"
 5171      61736B00 
 5172              	.LASF202:
 5173 0bb9 504D435F 		.ascii	"PMC_PCDR0\000"
 5173      50434452 
 5173      3000
 5174              	.LASF221:
 5175 0bc3 504D435F 		.ascii	"PMC_PCDR1\000"
 5175      50434452 
 5175      3100
 5176              	.LASF34:
 5177 0bcd 705F6E61 		.ascii	"p_name\000"
 5177      6D6500
 5178              	.LASF55:
 5179 0bd4 6D5F6E65 		.ascii	"m_next\000"
 5179      787400
 5180              	.LASF141:
 5181 0bdb 50494F5F 		.ascii	"PIO_ISR\000"
 5181      49535200 
 5182              	.LASF198:
 5183 0be3 504D435F 		.ascii	"PMC_SCER\000"
 5183      53434552 
 5183      00
 5184              	.LASF222:
 5185 0bec 504D435F 		.ascii	"PMC_PCSR1\000"
 5185      50435352 
 5185      3100
 5186              	.LASF92:
 5187 0bf6 5254435F 		.ascii	"RTC_IRQn\000"
 5187      4952516E 
 5187      00
 5188              	.LASF206:
ARM GAS  /tmp/cc01KxiS.s 			page 102


 5189 0bff 434B4752 		.ascii	"CKGR_PLLAR\000"
 5189      5F504C4C 
 5189      415200
 5190              	.LASF41:
 5191 0c0a 705F6D73 		.ascii	"p_msg\000"
 5191      6700
 5192              	.LASF58:
 5193 0c10 656C5F6C 		.ascii	"el_listener\000"
 5193      69737465 
 5193      6E657200 
 5194              	.LASF196:
 5195 0c1c 50494F5F 		.ascii	"PIO_PTCR\000"
 5195      50544352 
 5195      00
 5196              	.LASF183:
 5197 0c25 50494F5F 		.ascii	"PIO_PCIER\000"
 5197      50434945 
 5197      5200
 5198              	.LASF35:
 5199 0c2f 705F7374 		.ascii	"p_state\000"
 5199      61746500 
 5200              		.ident	"GCC: (15:4.9.3+svn231177-1) 4.9.3 20150529 (prerelease)"
ARM GAS  /tmp/cc01KxiS.s 			page 103


DEFINED SYMBOLS
                            *ABS*:0000000000000000 serial_lld.c
     /tmp/cc01KxiS.s:19     .text.notify1:0000000000000000 $t
     /tmp/cc01KxiS.s:24     .text.notify1:0000000000000000 notify1
     /tmp/cc01KxiS.s:41     .text.notify1:0000000000000008 $d
     /tmp/cc01KxiS.s:46     .text.notify2:0000000000000000 $t
     /tmp/cc01KxiS.s:51     .text.notify2:0000000000000000 notify2
     /tmp/cc01KxiS.s:67     .text.notify2:0000000000000008 $d
     /tmp/cc01KxiS.s:72     .text.serve_interrupt:0000000000000000 $t
     /tmp/cc01KxiS.s:77     .text.serve_interrupt:0000000000000000 serve_interrupt
     /tmp/cc01KxiS.s:246    .text.Vector60:0000000000000000 $t
     /tmp/cc01KxiS.s:252    .text.Vector60:0000000000000000 Vector60
     /tmp/cc01KxiS.s:277    .text.Vector60:0000000000000010 $d
     /tmp/cc01KxiS.s:282    .text.Vector64:0000000000000000 $t
     /tmp/cc01KxiS.s:288    .text.Vector64:0000000000000000 Vector64
     /tmp/cc01KxiS.s:313    .text.Vector64:0000000000000010 $d
     /tmp/cc01KxiS.s:318    .text.sd_lld_init:0000000000000000 $t
     /tmp/cc01KxiS.s:324    .text.sd_lld_init:0000000000000000 sd_lld_init
     /tmp/cc01KxiS.s:380    .text.sd_lld_init:0000000000000038 $d
     /tmp/cc01KxiS.s:392    .text.sd_lld_start:0000000000000000 $t
     /tmp/cc01KxiS.s:398    .text.sd_lld_start:0000000000000000 sd_lld_start
     /tmp/cc01KxiS.s:528    .text.sd_lld_start:0000000000000088 $d
     /tmp/cc01KxiS.s:539    .text.sd_lld_stop:0000000000000000 $t
     /tmp/cc01KxiS.s:545    .text.sd_lld_stop:0000000000000000 sd_lld_stop
     /tmp/cc01KxiS.s:680    .text.sd_lld_stop:000000000000006c $d
     /tmp/cc01KxiS.s:710    .bss.SD2:0000000000000000 SD2
     /tmp/cc01KxiS.s:703    .bss.SD1:0000000000000000 SD1
     /tmp/cc01KxiS.s:691    .rodata.default_config:0000000000000000 $d
     /tmp/cc01KxiS.s:695    .rodata.default_config:0000000000000000 default_config
     /tmp/cc01KxiS.s:699    .bss.SD1:0000000000000000 $d
     /tmp/cc01KxiS.s:706    .bss.SD2:0000000000000000 $d
                     .debug_frame:0000000000000010 $d

UNDEFINED SYMBOLS
chEvtBroadcastFlagsI
sdIncomingDataI
chOQGetI
_port_irq_epilogue
sdObjectInit
SystemCoreClockUpdate
nvicEnableVector
SystemCoreClock
nvicDisableVector
