ARM GAS  /tmp/cczRsJqi.s 			page 1


   1              		.syntax unified
   2              		.cpu cortex-m3
   3              		.fpu softvfp
   4              		.eabi_attribute 20, 1
   5              		.eabi_attribute 21, 1
   6              		.eabi_attribute 23, 3
   7              		.eabi_attribute 24, 1
   8              		.eabi_attribute 25, 1
   9              		.eabi_attribute 26, 1
  10              		.eabi_attribute 30, 2
  11              		.eabi_attribute 34, 1
  12              		.eabi_attribute 18, 4
  13              		.thumb
  14              		.file	"serial_lld.c"
  15              		.text
  16              	.Ltext0:
  17              		.cfi_sections	.debug_frame
  18              		.section	.text.notify1,"ax",%progbits
  19              		.align	2
  20              		.p2align 4,,15
  21              		.thumb
  22              		.thumb_func
  23              		.type	notify1, %function
  24              	notify1:
  25              	.LFB40:
  26              		.file 1 "../../os/hal/platforms/AT91SAM3S/serial_lld.c"
  27              		.loc 1 174 0
  28              		.cfi_startproc
  29              		@ args = 0, pretend = 0, frame = 0
  30              		@ frame_needed = 0, uses_anonymous_args = 0
  31              		@ link register save eliminated.
  32              	.LVL0:
  33              		.loc 1 177 0
  34 0000 014B     		ldr	r3, .L2
  35 0002 0222     		movs	r2, #2
  36 0004 9A60     		str	r2, [r3, #8]
  37 0006 7047     		bx	lr
  38              	.L3:
  39              		.align	2
  40              	.L2:
  41 0008 00060E40 		.word	1074660864
  42              		.cfi_endproc
  43              	.LFE40:
  44              		.size	notify1, .-notify1
  45 000c AFF30080 		.section	.text.notify2,"ax",%progbits
  46              		.align	2
  47              		.p2align 4,,15
  48              		.thumb
  49              		.thumb_func
  50              		.type	notify2, %function
  51              	notify2:
  52              	.LFB41:
  53              		.loc 1 183 0
  54              		.cfi_startproc
  55              		@ args = 0, pretend = 0, frame = 0
  56              		@ frame_needed = 0, uses_anonymous_args = 0
  57              		@ link register save eliminated.
ARM GAS  /tmp/cczRsJqi.s 			page 2


  58              	.LVL1:
  59              		.loc 1 186 0
  60 0000 014B     		ldr	r3, .L5
  61 0002 0222     		movs	r2, #2
  62 0004 9A60     		str	r2, [r3, #8]
  63 0006 7047     		bx	lr
  64              	.L6:
  65              		.align	2
  66              	.L5:
  67 0008 00080E40 		.word	1074661376
  68              		.cfi_endproc
  69              	.LFE41:
  70              		.size	notify2, .-notify2
  71 000c AFF30080 		.section	.text.serve_interrupt,"ax",%progbits
  72              		.align	2
  73              		.p2align 4,,15
  74              		.thumb
  75              		.thumb_func
  76              		.type	serve_interrupt, %function
  77              	serve_interrupt:
  78              	.LFB39:
  79              		.loc 1 136 0
  80              		.cfi_startproc
  81              		@ args = 0, pretend = 0, frame = 0
  82              		@ frame_needed = 0, uses_anonymous_args = 0
  83              	.LVL2:
  84 0000 70B5     		push	{r4, r5, r6, lr}
  85              		.cfi_def_cfa_offset 16
  86              		.cfi_offset 4, -16
  87              		.cfi_offset 5, -12
  88              		.cfi_offset 6, -8
  89              		.cfi_offset 14, -4
  90              		.loc 1 138 0
  91 0002 056F     		ldr	r5, [r0, #112]
  92              	.LVL3:
  93              		.loc 1 136 0
  94 0004 0646     		mov	r6, r0
  95              		.loc 1 141 0
  96 0006 6C69     		ldr	r4, [r5, #20]
  97              	.LVL4:
  98              		.loc 1 144 0
  99 0008 E207     		lsls	r2, r4, #31
 100 000a 26D4     		bmi	.L36
 101              	.LVL5:
 102              	.L8:
 103              		.loc 1 151 0
 104 000c 2B69     		ldr	r3, [r5, #16]
 105 000e 9B07     		lsls	r3, r3, #30
 106 0010 01D5     		bpl	.L9
 107              		.loc 1 151 0 is_stmt 0 discriminator 1
 108 0012 A007     		lsls	r0, r4, #30
 109 0014 2CD4     		bmi	.L37
 110              	.L9:
 111              	.LVL6:
 112              		.loc 1 167 0 is_stmt 1
 113 0016 14F0E004 		ands	r4, r4, #224
 114              	.LVL7:
ARM GAS  /tmp/cczRsJqi.s 			page 3


 115 001a 1DD0     		beq	.L7
 116              		.loc 1 168 0
 117 001c A4B2     		uxth	r4, r4
 118              	.LVL8:
 119              	.LBB17:
 120              	.LBB18:
 121              		.loc 1 118 0
 122 001e 14F0200F 		tst	r4, #32
 123 0022 14BF     		ite	ne
 124 0024 8022     		movne	r2, #128
 125 0026 0022     		moveq	r2, #0
 126              	.LVL9:
 127              		.loc 1 122 0
 128 0028 2106     		lsls	r1, r4, #24
 129              		.loc 1 123 0
 130 002a 48BF     		it	mi
 131 002c 42F02002 		orrmi	r2, r2, #32
 132              	.LVL10:
 133              		.loc 1 124 0
 134 0030 6306     		lsls	r3, r4, #25
 135              		.loc 1 125 0
 136 0032 48BF     		it	mi
 137 0034 42F04002 		orrmi	r2, r2, #64
 138              	.LVL11:
 139              	.LBB19:
 140              		.loc 1 126 0
 141 0038 2023     		movs	r3, #32
 142              	@ 126 "../../os/hal/platforms/AT91SAM3S/serial_lld.c" 1
 143 003a 83F31188 		msr     BASEPRI, r3
 144              	@ 0 "" 2
 145              		.thumb
 146              	.LBE19:
 147              		.loc 1 127 0
 148 003e B368     		ldr	r3, [r6, #8]
 149 0040 301D     		adds	r0, r6, #4
 150 0042 1A43     		orrs	r2, r2, r3
 151              	.LVL12:
 152 0044 B260     		str	r2, [r6, #8]
 153 0046 0021     		movs	r1, #0
 154 0048 FFF7FEFF 		bl	chEvtBroadcastFlagsI
 155              	.LVL13:
 156              	.LBB20:
 157              		.loc 1 128 0
 158 004c 0023     		movs	r3, #0
 159              	@ 128 "../../os/hal/platforms/AT91SAM3S/serial_lld.c" 1
 160 004e 83F31188 		msr     BASEPRI, r3
 161              	@ 0 "" 2
 162              		.thumb
 163              	.LBE20:
 164              	.LBE18:
 165              	.LBE17:
 166              		.loc 1 169 0
 167 0052 4FF48073 		mov	r3, #256
 168 0056 2B60     		str	r3, [r5]
 169              	.LVL14:
 170              	.L7:
 171 0058 70BD     		pop	{r4, r5, r6, pc}
ARM GAS  /tmp/cczRsJqi.s 			page 4


 172              	.LVL15:
 173              	.L36:
 174              	.LBB21:
 175              		.loc 1 145 0
 176 005a 2023     		movs	r3, #32
 177              	@ 145 "../../os/hal/platforms/AT91SAM3S/serial_lld.c" 1
 178 005c 83F31188 		msr     BASEPRI, r3
 179              	@ 0 "" 2
 180              		.thumb
 181              	.LBE21:
 182              		.loc 1 146 0
 183 0060 A969     		ldr	r1, [r5, #24]
 184 0062 C9B2     		uxtb	r1, r1
 185 0064 FFF7FEFF 		bl	sdIncomingDataI
 186              	.LVL16:
 187              	.LBB22:
 188              		.loc 1 147 0
 189 0068 0023     		movs	r3, #0
 190              	@ 147 "../../os/hal/platforms/AT91SAM3S/serial_lld.c" 1
 191 006a 83F31188 		msr     BASEPRI, r3
 192              	@ 0 "" 2
 193              		.thumb
 194 006e CDE7     		b	.L8
 195              	.L37:
 196              	.LBE22:
 197              	.LBB23:
 198              	.LBB24:
 199              		.loc 1 154 0
 200 0070 2023     		movs	r3, #32
 201              	@ 154 "../../os/hal/platforms/AT91SAM3S/serial_lld.c" 1
 202 0072 83F31188 		msr     BASEPRI, r3
 203              	@ 0 "" 2
 204              		.thumb
 205              	.LBE24:
 206              		.loc 1 155 0
 207 0076 06F13000 		add	r0, r6, #48
 208 007a FFF7FEFF 		bl	chOQGetI
 209              	.LVL17:
 210              		.loc 1 156 0
 211 007e 0028     		cmp	r0, #0
 212 0080 04DB     		blt	.L38
 213              		.loc 1 161 0
 214 0082 E861     		str	r0, [r5, #28]
 215              	.LVL18:
 216              	.L11:
 217              	.LBB25:
 218              		.loc 1 162 0
 219 0084 0023     		movs	r3, #0
 220              	@ 162 "../../os/hal/platforms/AT91SAM3S/serial_lld.c" 1
 221 0086 83F31188 		msr     BASEPRI, r3
 222              	@ 0 "" 2
 223              		.thumb
 224 008a C4E7     		b	.L9
 225              	.LVL19:
 226              	.L38:
 227              	.LBE25:
 228              		.loc 1 157 0
ARM GAS  /tmp/cczRsJqi.s 			page 5


 229 008c B368     		ldr	r3, [r6, #8]
 230 008e 301D     		adds	r0, r6, #4
 231              	.LVL20:
 232 0090 43F00803 		orr	r3, r3, #8
 233 0094 B360     		str	r3, [r6, #8]
 234 0096 0021     		movs	r1, #0
 235 0098 FFF7FEFF 		bl	chEvtBroadcastFlagsI
 236              	.LVL21:
 237              		.loc 1 158 0
 238 009c 0223     		movs	r3, #2
 239 009e EB60     		str	r3, [r5, #12]
 240 00a0 F0E7     		b	.L11
 241              	.LBE23:
 242              		.cfi_endproc
 243              	.LFE39:
 244              		.size	serve_interrupt, .-serve_interrupt
 245 00a2 00BFAFF3 		.section	.text.Vector60,"ax",%progbits
 245      0080AFF3 
 245      0080AFF3 
 245      0080
 246              		.align	2
 247              		.p2align 4,,15
 248              		.global	Vector60
 249              		.thumb
 250              		.thumb_func
 251              		.type	Vector60, %function
 252              	Vector60:
 253              	.LFB42:
 254              		.loc 1 201 0
 255              		.cfi_startproc
 256              		@ args = 0, pretend = 0, frame = 0
 257              		@ frame_needed = 0, uses_anonymous_args = 0
 258 0000 08B5     		push	{r3, lr}
 259              		.cfi_def_cfa_offset 8
 260              		.cfi_offset 3, -8
 261              		.cfi_offset 14, -4
 262              		.loc 1 205 0
 263 0002 0348     		ldr	r0, .L40
 264 0004 FFF7FEFF 		bl	serve_interrupt
 265              	.LVL22:
 266              		.loc 1 208 0
 267 0008 BDE80840 		pop	{r3, lr}
 268              		.loc 1 207 0
 269 000c FFF7FEBF 		b	_port_irq_epilogue
 270              	.LVL23:
 271              	.L41:
 272              		.align	2
 273              	.L40:
 274 0010 00000000 		.word	.LANCHOR0
 275              		.cfi_endproc
 276              	.LFE42:
 277              		.size	Vector60, .-Vector60
 278 0014 AFF30080 		.section	.text.Vector64,"ax",%progbits
 278      AFF30080 
 278      AFF30080 
 279              		.align	2
 280              		.p2align 4,,15
ARM GAS  /tmp/cczRsJqi.s 			page 6


 281              		.global	Vector64
 282              		.thumb
 283              		.thumb_func
 284              		.type	Vector64, %function
 285              	Vector64:
 286              	.LFB43:
 287              		.loc 1 218 0
 288              		.cfi_startproc
 289              		@ args = 0, pretend = 0, frame = 0
 290              		@ frame_needed = 0, uses_anonymous_args = 0
 291 0000 08B5     		push	{r3, lr}
 292              		.cfi_def_cfa_offset 8
 293              		.cfi_offset 3, -8
 294              		.cfi_offset 14, -4
 295              		.loc 1 222 0
 296 0002 0348     		ldr	r0, .L43
 297 0004 FFF7FEFF 		bl	serve_interrupt
 298              	.LVL24:
 299              		.loc 1 225 0
 300 0008 BDE80840 		pop	{r3, lr}
 301              		.loc 1 224 0
 302 000c FFF7FEBF 		b	_port_irq_epilogue
 303              	.LVL25:
 304              	.L44:
 305              		.align	2
 306              	.L43:
 307 0010 00000000 		.word	.LANCHOR1
 308              		.cfi_endproc
 309              	.LFE43:
 310              		.size	Vector64, .-Vector64
 311 0014 AFF30080 		.section	.text.sd_lld_init,"ax",%progbits
 311      AFF30080 
 311      AFF30080 
 312              		.align	2
 313              		.p2align 4,,15
 314              		.global	sd_lld_init
 315              		.thumb
 316              		.thumb_func
 317              		.type	sd_lld_init, %function
 318              	sd_lld_init:
 319              	.LFB44:
 320              		.loc 1 238 0
 321              		.cfi_startproc
 322              		@ args = 0, pretend = 0, frame = 0
 323              		@ frame_needed = 0, uses_anonymous_args = 0
 324 0000 70B5     		push	{r4, r5, r6, lr}
 325              		.cfi_def_cfa_offset 16
 326              		.cfi_offset 4, -16
 327              		.cfi_offset 5, -12
 328              		.cfi_offset 6, -8
 329              		.cfi_offset 14, -4
 330              		.loc 1 241 0
 331 0002 0D4D     		ldr	r5, .L46
 332 0004 0021     		movs	r1, #0
 333 0006 2846     		mov	r0, r5
 334 0008 0C4A     		ldr	r2, .L46+4
 335 000a FFF7FEFF 		bl	sdObjectInit
ARM GAS  /tmp/cczRsJqi.s 			page 7


 336              	.LVL26:
 337              		.loc 1 248 0
 338 000e 0C4C     		ldr	r4, .L46+8
 339              		.loc 1 243 0
 340 0010 0C4B     		ldr	r3, .L46+12
 341 0012 4FF4C062 		mov	r2, #1536
 342              		.loc 1 242 0
 343 0016 0C4E     		ldr	r6, .L46+16
 344              		.loc 1 243 0
 345 0018 5A60     		str	r2, [r3, #4]
 346              		.loc 1 248 0
 347 001a 0021     		movs	r1, #0
 348              		.loc 1 244 0
 349 001c 1A66     		str	r2, [r3, #96]
 350              		.loc 1 248 0
 351 001e 2046     		mov	r0, r4
 352 0020 0A4A     		ldr	r2, .L46+20
 353              		.loc 1 242 0
 354 0022 2E67     		str	r6, [r5, #112]
 355              		.loc 1 248 0
 356 0024 FFF7FEFF 		bl	sdObjectInit
 357              	.LVL27:
 358              		.loc 1 250 0
 359 0028 094B     		ldr	r3, .L46+24
 360              		.loc 1 249 0
 361 002a 0A49     		ldr	r1, .L46+28
 362              		.loc 1 250 0
 363 002c 0C22     		movs	r2, #12
 364              		.loc 1 249 0
 365 002e 2167     		str	r1, [r4, #112]
 366              		.loc 1 250 0
 367 0030 5A60     		str	r2, [r3, #4]
 368              		.loc 1 251 0
 369 0032 1A66     		str	r2, [r3, #96]
 370 0034 70BD     		pop	{r4, r5, r6, pc}
 371              	.L47:
 372 0036 00BF     		.align	2
 373              	.L46:
 374 0038 00000000 		.word	.LANCHOR0
 375 003c 00000000 		.word	notify1
 376 0040 00000000 		.word	.LANCHOR1
 377 0044 000E0E40 		.word	1074662912
 378 0048 00060E40 		.word	1074660864
 379 004c 00000000 		.word	notify2
 380 0050 00100E40 		.word	1074663424
 381 0054 00080E40 		.word	1074661376
 382              		.cfi_endproc
 383              	.LFE44:
 384              		.size	sd_lld_init, .-sd_lld_init
 385 0058 AFF30080 		.section	.text.sd_lld_start,"ax",%progbits
 385      AFF30080 
 386              		.align	2
 387              		.p2align 4,,15
 388              		.global	sd_lld_start
 389              		.thumb
 390              		.thumb_func
 391              		.type	sd_lld_start, %function
ARM GAS  /tmp/cczRsJqi.s 			page 8


 392              	sd_lld_start:
 393              	.LFB45:
 394              		.loc 1 266 0
 395              		.cfi_startproc
 396              		@ args = 0, pretend = 0, frame = 0
 397              		@ frame_needed = 0, uses_anonymous_args = 0
 398              	.LVL28:
 399 0000 70B5     		push	{r4, r5, r6, lr}
 400              		.cfi_def_cfa_offset 16
 401              		.cfi_offset 4, -16
 402              		.cfi_offset 5, -12
 403              		.cfi_offset 6, -8
 404              		.cfi_offset 14, -4
 405              		.loc 1 271 0
 406 0002 037B     		ldrb	r3, [r0, #12]	@ zero_extendqisi2
 407              		.loc 1 269 0
 408 0004 204D     		ldr	r5, .L55
 409              		.loc 1 266 0
 410 0006 0446     		mov	r4, r0
 411              		.loc 1 269 0
 412 0008 0029     		cmp	r1, #0
 413 000a 18BF     		it	ne
 414 000c 0D46     		movne	r5, r1
 415              	.LVL29:
 416              		.loc 1 271 0
 417 000e 012B     		cmp	r3, #1
 418 0010 16D0     		beq	.L53
 419              	.LVL30:
 420              	.L50:
 421              		.loc 1 266 0
 422 0012 246F     		ldr	r4, [r4, #112]
 423              	.LVL31:
 424              	.LBB26:
 425              	.LBB27:
 426              		.loc 1 81 0
 427 0014 FFF7FEFF 		bl	SystemCoreClockUpdate
 428              	.LVL32:
 429              		.loc 1 82 0
 430 0018 1C4A     		ldr	r2, .L55+4
 431              		.loc 1 89 0
 432 001a 2B68     		ldr	r3, [r5]
 433              		.loc 1 82 0
 434 001c 1268     		ldr	r2, [r2]
 435              	.LVL33:
 436              		.loc 1 90 0
 437 001e 6868     		ldr	r0, [r5, #4]
 438              		.loc 1 89 0
 439 0020 1B01     		lsls	r3, r3, #4
 440 0022 B2FBF3F3 		udiv	r3, r2, r3
 441              		.loc 1 85 0
 442 0026 4FF0FF36 		mov	r6, #-1
 443              		.loc 1 86 0
 444 002a 4FF48675 		mov	r5, #268
 445              	.LVL34:
 446              		.loc 1 93 0
 447 002e 5021     		movs	r1, #80
 448              		.loc 1 94 0
ARM GAS  /tmp/cczRsJqi.s 			page 9


 449 0030 E322     		movs	r2, #227
 450              	.LVL35:
 451              		.loc 1 85 0
 452 0032 E660     		str	r6, [r4, #12]
 453              		.loc 1 86 0
 454 0034 2560     		str	r5, [r4]
 455              		.loc 1 89 0
 456 0036 2362     		str	r3, [r4, #32]
 457              		.loc 1 90 0
 458 0038 6060     		str	r0, [r4, #4]
 459              		.loc 1 93 0
 460 003a 2160     		str	r1, [r4]
 461              		.loc 1 94 0
 462 003c A260     		str	r2, [r4, #8]
 463 003e 70BD     		pop	{r4, r5, r6, pc}
 464              	.LVL36:
 465              	.L53:
 466              	.LBE27:
 467              	.LBE26:
 468              		.loc 1 273 0
 469 0040 134B     		ldr	r3, .L55+8
 470 0042 9842     		cmp	r0, r3
 471 0044 11D0     		beq	.L54
 472              		.loc 1 289 0
 473 0046 134B     		ldr	r3, .L55+12
 474 0048 9842     		cmp	r0, r3
 475 004a E2D1     		bne	.L50
 476              		.loc 1 294 0
 477 004c 124B     		ldr	r3, .L55+16
 478 004e 1348     		ldr	r0, .L55+20
 479              	.LVL37:
 480              		.loc 1 296 0
 481 0050 134A     		ldr	r2, .L55+24
 482              		.loc 1 295 0
 483 0052 4FF40071 		mov	r1, #512
 484              		.loc 1 294 0
 485 0056 C3F8E400 		str	r0, [r3, #228]
 486              		.loc 1 295 0
 487 005a 1961     		str	r1, [r3, #16]
 488              		.loc 1 300 0
 489 005c 0920     		movs	r0, #9
 490 005e C021     		movs	r1, #192
 491              		.loc 1 296 0
 492 0060 C3F8E420 		str	r2, [r3, #228]
 493              		.loc 1 300 0
 494 0064 FFF7FEFF 		bl	nvicEnableVector
 495              	.LVL38:
 496 0068 D3E7     		b	.L50
 497              	.LVL39:
 498              	.L54:
 499              		.loc 1 278 0
 500 006a 0B4B     		ldr	r3, .L55+16
 501 006c 0B48     		ldr	r0, .L55+20
 502              	.LVL40:
 503              		.loc 1 280 0
 504 006e 0C4A     		ldr	r2, .L55+24
 505              		.loc 1 279 0
ARM GAS  /tmp/cczRsJqi.s 			page 10


 506 0070 4FF48071 		mov	r1, #256
 507              		.loc 1 278 0
 508 0074 C3F8E400 		str	r0, [r3, #228]
 509              		.loc 1 279 0
 510 0078 1961     		str	r1, [r3, #16]
 511              		.loc 1 284 0
 512 007a 0820     		movs	r0, #8
 513 007c C021     		movs	r1, #192
 514              		.loc 1 280 0
 515 007e C3F8E420 		str	r2, [r3, #228]
 516              		.loc 1 284 0
 517 0082 FFF7FEFF 		bl	nvicEnableVector
 518              	.LVL41:
 519 0086 C4E7     		b	.L50
 520              	.L56:
 521              		.align	2
 522              	.L55:
 523 0088 00000000 		.word	.LANCHOR2
 524 008c 00000000 		.word	SystemCoreClock
 525 0090 00000000 		.word	.LANCHOR0
 526 0094 00000000 		.word	.LANCHOR1
 527 0098 00040E40 		.word	1074660352
 528 009c 00434D50 		.word	1347240704
 529 00a0 01434D50 		.word	1347240705
 530              		.cfi_endproc
 531              	.LFE45:
 532              		.size	sd_lld_start, .-sd_lld_start
 533 00a4 AFF30080 		.section	.text.sd_lld_stop,"ax",%progbits
 533      AFF30080 
 533      AFF30080 
 534              		.align	2
 535              		.p2align 4,,15
 536              		.global	sd_lld_stop
 537              		.thumb
 538              		.thumb_func
 539              		.type	sd_lld_stop, %function
 540              	sd_lld_stop:
 541              	.LFB46:
 542              		.loc 1 317 0
 543              		.cfi_startproc
 544              		@ args = 0, pretend = 0, frame = 0
 545              		@ frame_needed = 0, uses_anonymous_args = 0
 546              		@ link register save eliminated.
 547              	.LVL42:
 548              		.loc 1 319 0
 549 0000 037B     		ldrb	r3, [r0, #12]	@ zero_extendqisi2
 550              		.loc 1 317 0
 551 0002 30B4     		push	{r4, r5}
 552              		.cfi_def_cfa_offset 8
 553              		.cfi_offset 4, -8
 554              		.cfi_offset 5, -4
 555              		.loc 1 319 0
 556 0004 022B     		cmp	r3, #2
 557 0006 01D0     		beq	.L63
 558              	.L57:
 559              		.loc 1 355 0
 560 0008 30BC     		pop	{r4, r5}
ARM GAS  /tmp/cczRsJqi.s 			page 11


 561 000a 7047     		bx	lr
 562              	.L63:
 563              		.loc 1 322 0
 564 000c 164D     		ldr	r5, .L65
 565              		.loc 1 320 0
 566 000e 036F     		ldr	r3, [r0, #112]
 567              	.LVL43:
 568              	.LBB28:
 569              	.LBB29:
 570              		.loc 1 106 0
 571 0010 4FF0FF34 		mov	r4, #-1
 572              		.loc 1 107 0
 573 0014 4FF48671 		mov	r1, #268
 574              		.loc 1 108 0
 575 0018 0022     		movs	r2, #0
 576              	.LBE29:
 577              	.LBE28:
 578              		.loc 1 322 0
 579 001a A842     		cmp	r0, r5
 580              	.LBB31:
 581              	.LBB30:
 582              		.loc 1 106 0
 583 001c DC60     		str	r4, [r3, #12]
 584              		.loc 1 107 0
 585 001e 1960     		str	r1, [r3]
 586              		.loc 1 108 0
 587 0020 5A60     		str	r2, [r3, #4]
 588              	.LBE30:
 589              	.LBE31:
 590              		.loc 1 322 0
 591 0022 13D0     		beq	.L64
 592              	.LVL44:
 593              		.loc 1 340 0
 594 0024 114D     		ldr	r5, .L65+4
 595              	.LBB32:
 596              	.LBB33:
 597              		.loc 1 106 0
 598 0026 DC60     		str	r4, [r3, #12]
 599              	.LBE33:
 600              	.LBE32:
 601              		.loc 1 340 0
 602 0028 A842     		cmp	r0, r5
 603              	.LBB35:
 604              	.LBB34:
 605              		.loc 1 107 0
 606 002a 1960     		str	r1, [r3]
 607              		.loc 1 108 0
 608 002c 5A60     		str	r2, [r3, #4]
 609              	.LBE34:
 610              	.LBE35:
 611              		.loc 1 340 0
 612 002e EBD1     		bne	.L57
 613              		.loc 1 355 0
 614 0030 30BC     		pop	{r4, r5}
 615              		.loc 1 345 0
 616 0032 0F4B     		ldr	r3, .L65+8
 617              	.LVL45:
ARM GAS  /tmp/cczRsJqi.s 			page 12


 618 0034 0F48     		ldr	r0, .L65+12
 619              	.LVL46:
 620              		.loc 1 347 0
 621 0036 104A     		ldr	r2, .L65+16
 622              		.loc 1 346 0
 623 0038 4FF40071 		mov	r1, #512
 624              		.loc 1 345 0
 625 003c C3F8E400 		str	r0, [r3, #228]
 626              		.loc 1 346 0
 627 0040 5961     		str	r1, [r3, #20]
 628              		.loc 1 349 0
 629 0042 0920     		movs	r0, #9
 630              		.loc 1 347 0
 631 0044 C3F8E420 		str	r2, [r3, #228]
 632              		.loc 1 349 0
 633 0048 FFF7FEBF 		b	nvicDisableVector
 634              	.LVL47:
 635              	.L64:
 636              		.loc 1 327 0
 637 004c 084B     		ldr	r3, .L65+8
 638              	.LVL48:
 639 004e 0948     		ldr	r0, .L65+12
 640              	.LVL49:
 641              		.loc 1 329 0
 642 0050 094A     		ldr	r2, .L65+16
 643              		.loc 1 328 0
 644 0052 4FF48071 		mov	r1, #256
 645              		.loc 1 327 0
 646 0056 C3F8E400 		str	r0, [r3, #228]
 647              		.loc 1 355 0
 648 005a 30BC     		pop	{r4, r5}
 649              		.loc 1 328 0
 650 005c 5961     		str	r1, [r3, #20]
 651              		.loc 1 331 0
 652 005e 0820     		movs	r0, #8
 653              		.loc 1 329 0
 654 0060 C3F8E420 		str	r2, [r3, #228]
 655              		.loc 1 331 0
 656 0064 FFF7FEBF 		b	nvicDisableVector
 657              	.LVL50:
 658              	.L66:
 659              		.align	2
 660              	.L65:
 661 0068 00000000 		.word	.LANCHOR0
 662 006c 00000000 		.word	.LANCHOR1
 663 0070 00040E40 		.word	1074660352
 664 0074 00434D50 		.word	1347240704
 665 0078 01434D50 		.word	1347240705
 666              		.cfi_endproc
 667              	.LFE46:
 668              		.size	sd_lld_stop, .-sd_lld_stop
 669              		.global	SD2
 670              		.global	SD1
 671 007c AFF30080 		.section	.rodata.default_config,"a",%progbits
 672              		.align	2
 673              		.set	.LANCHOR2,. + 0
 674              		.type	default_config, %object
ARM GAS  /tmp/cczRsJqi.s 			page 13


 675              		.size	default_config, 8
 676              	default_config:
 677 0000 00C20100 		.word	115200
 678 0004 00280000 		.word	10240
 679              		.section	.bss.SD1,"aw",%nobits
 680              		.align	2
 681              		.set	.LANCHOR0,. + 0
 682              		.type	SD1, %object
 683              		.size	SD1, 116
 684              	SD1:
 685 0000 00000000 		.space	116
 685      00000000 
 685      00000000 
 685      00000000 
 685      00000000 
 686              		.section	.bss.SD2,"aw",%nobits
 687              		.align	2
 688              		.set	.LANCHOR1,. + 0
 689              		.type	SD2, %object
 690              		.size	SD2, 116
 691              	SD2:
 692 0000 00000000 		.space	116
 692      00000000 
 692      00000000 
 692      00000000 
 692      00000000 
 693              		.text
 694              	.Letext0:
 695              		.file 2 "/usr/local/gcc-arm-none-eabi-4_8-2014q2/lib/gcc/arm-none-eabi/4.8.4/include/stddef.h"
 696              		.file 3 "/usr/local/gcc-arm-none-eabi-4_8-2014q2/arm-none-eabi/include/machine/_default_types.h"
 697              		.file 4 "/usr/local/gcc-arm-none-eabi-4_8-2014q2/arm-none-eabi/include/stdint.h"
 698              		.file 5 "../../os/ports/GCC/ARMCMx/chtypes.h"
 699              		.file 6 "../../os/kernel/include/chlists.h"
 700              		.file 7 "../../os/kernel/include/chthreads.h"
 701              		.file 8 "../../os/ports/GCC/ARMCMx/chcore_v7m.h"
 702              		.file 9 "../../os/kernel/include/chmtx.h"
 703              		.file 10 "../../os/kernel/include/chevents.h"
 704              		.file 11 "../../os/kernel/include/chqueues.h"
 705              		.file 12 "../../os/kernel/include/chioch.h"
 706              		.file 13 "../../os/hal/platforms/AT91SAM3S/at91lib/SAM3S.h"
 707              		.file 14 "../../os/hal/include/serial.h"
 708              		.file 15 "../../os/hal/platforms/AT91SAM3S/serial_lld.h"
 709              		.file 16 "../../os/hal/platforms/AT91SAM3S/core_cm3.h"
 710              		.file 17 "../../os/hal/platforms/AT91SAM3S/system_SAM3.h"
 711              		.file 18 "../../os/ports/common/ARMCMx/nvic.h"