ARM GAS  /tmp/ccj1nsiG.s 			page 1


   1              		.syntax unified
   2              		.cpu cortex-m3
   3              		.fpu softvfp
   4              		.eabi_attribute 20, 1
   5              		.eabi_attribute 21, 1
   6              		.eabi_attribute 23, 3
   7              		.eabi_attribute 24, 1
   8              		.eabi_attribute 25, 1
   9              		.eabi_attribute 26, 1
  10              		.eabi_attribute 30, 2
  11              		.eabi_attribute 34, 1
  12              		.eabi_attribute 18, 4
  13              		.thumb
  14              		.file	"system_SAM3.c"
  15              		.text
  16              	.Ltext0:
  17              		.cfi_sections	.debug_frame
  18              		.section	.text.SystemCoreClockUpdate,"ax",%progbits
  19              		.align	2
  20              		.p2align 4,,15
  21              		.global	SystemCoreClockUpdate
  22              		.thumb
  23              		.thumb_func
  24              		.type	SystemCoreClockUpdate, %function
  25              	SystemCoreClockUpdate:
  26              	.LFB29:
  27              		.file 1 "ChibiOS//os/hal/platforms/AT91SAM3S/system_SAM3.c"
  28              		.loc 1 360 0
  29              		.cfi_startproc
  30              		@ args = 0, pretend = 0, frame = 0
  31              		@ frame_needed = 0, uses_anonymous_args = 0
  32              		@ link register save eliminated.
  33              		.loc 1 362 0
  34 0000 3549     		ldr	r1, .L26
  35              		.loc 1 360 0
  36 0002 10B4     		push	{r4}
  37              		.cfi_def_cfa_offset 4
  38              		.cfi_offset 4, -4
  39              		.loc 1 362 0
  40 0004 0B6B     		ldr	r3, [r1, #48]
  41 0006 03F00303 		and	r3, r3, #3
  42 000a 022B     		cmp	r3, #2
  43 000c 3ED0     		beq	.L3
  44 000e 032B     		cmp	r3, #3
  45 0010 2BD0     		beq	.L4
  46 0012 012B     		cmp	r3, #1
  47 0014 17D0     		beq	.L5
  48              		.loc 1 364 0
  49 0016 314B     		ldr	r3, .L26+4
  50              		.loc 1 365 0
  51 0018 3148     		ldr	r0, .L26+8
  52              		.loc 1 364 0
  53 001a 5B69     		ldr	r3, [r3, #20]
  54 001c 1A06     		lsls	r2, r3, #24
  55              		.loc 1 365 0
  56 001e 4CBF     		ite	mi
  57 0020 4FF40043 		movmi	r3, #32768
ARM GAS  /tmp/ccj1nsiG.s 			page 2


  58              		.loc 1 367 0
  59 0024 4FF4FA43 		movpl	r3, #32000
  60 0028 0360     		str	r3, [r0]
  61              	.L7:
  62              		.loc 1 415 0
  63 002a 2B49     		ldr	r1, .L26
  64 002c 0A6B     		ldr	r2, [r1, #48]
  65 002e C2F30212 		ubfx	r2, r2, #4, #3
  66 0032 072A     		cmp	r2, #7
  67 0034 22D0     		beq	.L24
  68              	.L15:
  69              		.loc 1 418 0
  70 0036 0A6B     		ldr	r2, [r1, #48]
  71              		.loc 1 420 0
  72 0038 5DF8044B 		ldr	r4, [sp], #4
  73              		.cfi_remember_state
  74              		.cfi_restore 4
  75              		.cfi_def_cfa_offset 0
  76              		.loc 1 418 0
  77 003c C2F30212 		ubfx	r2, r2, #4, #3
  78 0040 D340     		lsrs	r3, r3, r2
  79 0042 0360     		str	r3, [r0]
  80              		.loc 1 420 0
  81 0044 7047     		bx	lr
  82              	.L5:
  83              		.cfi_restore_state
  84              		.loc 1 370 0
  85 0046 0B6A     		ldr	r3, [r1, #32]
  86              		.loc 1 371 0
  87 0048 2548     		ldr	r0, .L26+8
  88              		.loc 1 370 0
  89 004a 13F08073 		ands	r3, r3, #16777216
  90 004e 38D1     		bne	.L9
  91              		.loc 1 373 0
  92 0050 244C     		ldr	r4, .L26+12
  93 0052 0460     		str	r4, [r0]
  94              		.loc 1 374 0
  95 0054 0A6A     		ldr	r2, [r1, #32]
  96 0056 C2F30112 		ubfx	r2, r2, #4, #2
  97 005a 022A     		cmp	r2, #2
  98 005c 31D0     		beq	.L9
  99 005e 032A     		cmp	r2, #3
 100 0060 2DD0     		beq	.L22
 101 0062 012A     		cmp	r2, #1
 102 0064 33D0     		beq	.L25
 103 0066 2346     		mov	r3, r4
 104 0068 DFE7     		b	.L7
 105              	.L4:
 106              		.loc 1 411 0
 107 006a 1D48     		ldr	r0, .L26+8
 108 006c 0023     		movs	r3, #0
 109              		.loc 1 415 0
 110 006e 1A49     		ldr	r1, .L26
 111              		.loc 1 411 0
 112 0070 0360     		str	r3, [r0]
 113              		.loc 1 415 0
 114 0072 0A6B     		ldr	r2, [r1, #48]
ARM GAS  /tmp/ccj1nsiG.s 			page 3


 115 0074 C2F30212 		ubfx	r2, r2, #4, #3
 116 0078 072A     		cmp	r2, #7
 117 007a DCD1     		bne	.L15
 118              	.L24:
 119              		.loc 1 416 0
 120 007c 1A4A     		ldr	r2, .L26+16
 121              		.loc 1 420 0
 122 007e 5DF8044B 		ldr	r4, [sp], #4
 123              		.cfi_remember_state
 124              		.cfi_restore 4
 125              		.cfi_def_cfa_offset 0
 126              		.loc 1 416 0
 127 0082 A2FB0323 		umull	r2, r3, r2, r3
 128 0086 5B08     		lsrs	r3, r3, #1
 129 0088 0360     		str	r3, [r0]
 130              		.loc 1 420 0
 131 008a 7047     		bx	lr
 132              	.L3:
 133              		.cfi_restore_state
 134              		.loc 1 390 0
 135 008c 0B6A     		ldr	r3, [r1, #32]
 136 008e DB01     		lsls	r3, r3, #7
 137 0090 1AD4     		bmi	.L18
 138              		.loc 1 393 0
 139 0092 1348     		ldr	r0, .L26+8
 140 0094 134A     		ldr	r2, .L26+12
 141 0096 0260     		str	r2, [r0]
 142              		.loc 1 394 0
 143 0098 0B6A     		ldr	r3, [r1, #32]
 144 009a C3F30113 		ubfx	r3, r3, #4, #2
 145 009e 012B     		cmp	r3, #1
 146 00a0 18D0     		beq	.L19
 147 00a2 1249     		ldr	r1, .L26+20
 148 00a4 022B     		cmp	r3, #2
 149 00a6 08BF     		it	eq
 150 00a8 0A46     		moveq	r2, r1
 151              	.L12:
 152              		.loc 1 407 0
 153 00aa 0B4B     		ldr	r3, .L26
 154 00ac 996A     		ldr	r1, [r3, #40]
 155              		.loc 1 408 0
 156 00ae 9B6A     		ldr	r3, [r3, #40]
 157              		.loc 1 407 0
 158 00b0 C1F30A41 		ubfx	r1, r1, #16, #11
 159 00b4 01FB0222 		mla	r2, r1, r2, r2
 160              		.loc 1 408 0
 161 00b8 DBB2     		uxtb	r3, r3
 162 00ba B2FBF3F3 		udiv	r3, r2, r3
 163              	.L22:
 164 00be 0360     		str	r3, [r0]
 165              		.loc 1 409 0
 166 00c0 B3E7     		b	.L7
 167              	.L9:
 168              		.loc 1 381 0
 169 00c2 0A4B     		ldr	r3, .L26+20
 170 00c4 0360     		str	r3, [r0]
 171              		.loc 1 382 0
ARM GAS  /tmp/ccj1nsiG.s 			page 4


 172 00c6 B0E7     		b	.L7
 173              	.L18:
 174 00c8 084A     		ldr	r2, .L26+20
 175 00ca 0548     		ldr	r0, .L26+8
 176 00cc EDE7     		b	.L12
 177              	.L25:
 178              		.loc 1 378 0
 179 00ce 084B     		ldr	r3, .L26+24
 180 00d0 0360     		str	r3, [r0]
 181              		.loc 1 379 0
 182 00d2 AAE7     		b	.L7
 183              	.L19:
 184              		.loc 1 394 0
 185 00d4 064A     		ldr	r2, .L26+24
 186 00d6 E8E7     		b	.L12
 187              	.L27:
 188              		.align	2
 189              	.L26:
 190 00d8 00040E40 		.word	1074660352
 191 00dc 10140E40 		.word	1074664464
 192 00e0 00000000 		.word	.LANCHOR0
 193 00e4 00093D00 		.word	4000000
 194 00e8 ABAAAAAA 		.word	-1431655765
 195 00ec 001BB700 		.word	12000000
 196 00f0 00127A00 		.word	8000000
 197              		.cfi_endproc
 198              	.LFE29:
 199              		.size	SystemCoreClockUpdate, .-SystemCoreClockUpdate
 200              		.section	.text.SystemInit,"ax",%progbits
 201              		.align	2
 202              		.p2align 4,,15
 203              		.global	SystemInit
 204              		.thumb
 205              		.thumb_func
 206              		.type	SystemInit, %function
 207              	SystemInit:
 208              	.LFB30:
 209              		.loc 1 432 0
 210              		.cfi_startproc
 211              		@ args = 0, pretend = 0, frame = 0
 212              		@ frame_needed = 0, uses_anonymous_args = 0
 213              		@ link register save eliminated.
 214              		.loc 1 438 0
 215 0000 1D4B     		ldr	r3, .L46
 216              		.loc 1 432 0
 217 0002 30B4     		push	{r4, r5}
 218              		.cfi_def_cfa_offset 8
 219              		.cfi_offset 4, -8
 220              		.cfi_offset 5, -4
 221              		.loc 1 446 0
 222 0004 1A46     		mov	r2, r3
 223              		.loc 1 434 0
 224 0006 1D4C     		ldr	r4, .L46+4
 225              		.loc 1 438 0
 226 0008 1D48     		ldr	r0, .L46+8
 227              		.loc 1 444 0
 228 000a 1E49     		ldr	r1, .L46+12
ARM GAS  /tmp/ccj1nsiG.s 			page 5


 229              		.loc 1 434 0
 230 000c 4FF40075 		mov	r5, #512
 231 0010 2560     		str	r5, [r4]
 232              		.loc 1 438 0
 233 0012 C3F8E400 		str	r0, [r3, #228]
 234              		.loc 1 444 0
 235 0016 1962     		str	r1, [r3, #32]
 236              	.L29:
 237              		.loc 1 446 0 discriminator 1
 238 0018 936E     		ldr	r3, [r2, #104]
 239 001a 9B03     		lsls	r3, r3, #14
 240 001c FCD5     		bpl	.L29
 241              		.loc 1 449 0 discriminator 1
 242 001e 1649     		ldr	r1, .L46
 243              	.L39:
 244 0020 8B6E     		ldr	r3, [r1, #104]
 245 0022 154A     		ldr	r2, .L46
 246 0024 DD07     		lsls	r5, r3, #31
 247 0026 FBD5     		bpl	.L39
 248              		.loc 1 455 0
 249 0028 1146     		mov	r1, r2
 250              		.loc 1 454 0
 251 002a 174B     		ldr	r3, .L46+16
 252 002c 9362     		str	r3, [r2, #40]
 253              	.L31:
 254              		.loc 1 455 0 discriminator 1
 255 002e 8B6E     		ldr	r3, [r1, #104]
 256 0030 114A     		ldr	r2, .L46
 257 0032 9C07     		lsls	r4, r3, #30
 258 0034 FBD5     		bpl	.L31
 259              		.loc 1 465 0
 260 0036 1146     		mov	r1, r2
 261              		.loc 1 460 0
 262 0038 136B     		ldr	r3, [r2, #48]
 263 003a 23F07003 		bic	r3, r3, #112
 264 003e 43F01003 		orr	r3, r3, #16
 265 0042 1363     		str	r3, [r2, #48]
 266              	.L32:
 267              		.loc 1 465 0 discriminator 1
 268 0044 8B6E     		ldr	r3, [r1, #104]
 269 0046 0C4A     		ldr	r2, .L46
 270 0048 1807     		lsls	r0, r3, #28
 271 004a FBD5     		bpl	.L32
 272              		.loc 1 467 0
 273 004c 1146     		mov	r1, r2
 274              		.loc 1 466 0
 275 004e 1223     		movs	r3, #18
 276 0050 1363     		str	r3, [r2, #48]
 277              	.L33:
 278              		.loc 1 467 0 discriminator 1
 279 0052 8B6E     		ldr	r3, [r1, #104]
 280 0054 084A     		ldr	r2, .L46
 281 0056 1B07     		lsls	r3, r3, #28
 282 0058 FBD5     		bpl	.L33
 283              		.loc 1 487 0
 284 005a 0C48     		ldr	r0, .L46+20
 285              		.loc 1 491 0
ARM GAS  /tmp/ccj1nsiG.s 			page 6


 286 005c 0C4B     		ldr	r3, .L46+24
 287              		.loc 1 482 0
 288 005e 0025     		movs	r5, #0
 289              		.loc 1 483 0
 290 0060 4FF4E054 		mov	r4, #7168
 291              		.loc 1 491 0
 292 0064 4FF40041 		mov	r1, #32768
 293              		.loc 1 482 0
 294 0068 1560     		str	r5, [r2]
 295              		.loc 1 483 0
 296 006a 1461     		str	r4, [r2, #16]
 297              		.loc 1 487 0
 298 006c C2F8E400 		str	r0, [r2, #228]
 299              		.loc 1 499 0
 300 0070 30BC     		pop	{r4, r5}
 301              		.cfi_restore 5
 302              		.cfi_restore 4
 303              		.cfi_def_cfa_offset 0
 304              		.loc 1 491 0
 305 0072 5960     		str	r1, [r3, #4]
 306              		.loc 1 499 0
 307 0074 7047     		bx	lr
 308              	.L47:
 309 0076 00BF     		.align	2
 310              	.L46:
 311 0078 00040E40 		.word	1074660352
 312 007c 000A0E40 		.word	1074661888
 313 0080 00434D50 		.word	1347240704
 314 0084 09083701 		.word	20383753
 315 0088 03002020 		.word	538968067
 316 008c 01434D50 		.word	1347240705
 317 0090 50140E40 		.word	1074664528
 318              		.cfi_endproc
 319              	.LFE30:
 320              		.size	SystemInit, .-SystemInit
 321              		.global	SystemCoreClock
 322              		.section	.data.SystemCoreClock,"aw",%progbits
 323              		.align	2
 324              		.set	.LANCHOR0,. + 0
 325              		.type	SystemCoreClock, %object
 326              		.size	SystemCoreClock, 4
 327              	SystemCoreClock:
 328 0000 8014EF03 		.word	66000000
 329              		.text
 330              	.Letext0:
 331              		.file 2 "/usr/include/newlib/machine/_default_types.h"
 332              		.file 3 "/usr/include/newlib/sys/_stdint.h"
 333              		.file 4 "ChibiOS//os/hal/platforms/AT91SAM3S/at91lib/SAM3S.h"
 334              		.file 5 "ChibiOS//os/hal/platforms/AT91SAM3S/core_cm3.h"