ARM GAS  /tmp/cceLgTZh.s 			page 1


   1              		.syntax unified
   2              		.cpu cortex-m3
   3              		.fpu softvfp
   4              		.eabi_attribute 20, 1
   5              		.eabi_attribute 21, 1
   6              		.eabi_attribute 23, 3
   7              		.eabi_attribute 24, 1
   8              		.eabi_attribute 25, 1
   9              		.eabi_attribute 26, 1
  10              		.eabi_attribute 30, 2
  11              		.eabi_attribute 34, 1
  12              		.eabi_attribute 18, 4
  13              		.thumb
  14              		.file	"testmbox.c"
  15              		.text
  16              	.Ltext0:
  17              		.cfi_sections	.debug_frame
  18              		.section	.text.mbox1_execute,"ax",%progbits
  19              		.align	2
  20              		.p2align 4,,15
  21              		.thumb
  22              		.thumb_func
  23              		.type	mbox1_execute, %function
  24              	mbox1_execute:
  25              	.LFB8:
  26              		.file 1 "../../test/testmbox.c"
  27              		.loc 1 87 0
  28              		.cfi_startproc
  29              		@ args = 0, pretend = 0, frame = 8
  30              		@ frame_needed = 0, uses_anonymous_args = 0
  31 0000 F0B5     		push	{r4, r5, r6, r7, lr}
  32              		.cfi_def_cfa_offset 20
  33              		.cfi_offset 4, -20
  34              		.cfi_offset 5, -16
  35              		.cfi_offset 6, -12
  36              		.cfi_offset 7, -8
  37              		.cfi_offset 14, -4
  38              		.loc 1 94 0
  39 0002 B34E     		ldr	r6, .L32
  40              		.loc 1 87 0
  41 0004 83B0     		sub	sp, sp, #12
  42              		.cfi_def_cfa_offset 32
  43              		.loc 1 94 0
  44 0006 716A     		ldr	r1, [r6, #36]
  45 0008 0120     		movs	r0, #1
  46 000a B1F1050E 		subs	lr, r1, #5
  47 000e DEF10001 		rsbs	r1, lr, #0
  48 0012 51EB0E01 		adcs	r1, r1, lr
  49 0016 FFF7FEFF 		bl	_test_assert
  50              	.LVL0:
  51 001a 00BB     		cbnz	r0, .L1
  52 001c 4224     		movs	r4, #66
  53              	.L4:
  54              	.LVL1:
  55              		.loc 1 100 0
  56 001e AC4D     		ldr	r5, .L32
  57 0020 2146     		mov	r1, r4
ARM GAS  /tmp/cceLgTZh.s 			page 2


  58 0022 2846     		mov	r0, r5
  59 0024 4FF0FF32 		mov	r2, #-1
  60 0028 FFF7FEFF 		bl	chMBPost
  61              	.LVL2:
  62              		.loc 1 101 0
  63 002c D0F10101 		rsbs	r1, r0, #1
  64 0030 38BF     		it	cc
  65 0032 0021     		movcc	r1, #0
  66 0034 0220     		movs	r0, #2
  67              	.LVL3:
  68 0036 0134     		adds	r4, r4, #1
  69              	.LVL4:
  70 0038 FFF7FEFF 		bl	_test_assert
  71              	.LVL5:
  72 003c 78B9     		cbnz	r0, .L1
  73              		.loc 1 99 0
  74 003e 462C     		cmp	r4, #70
  75 0040 EDD1     		bne	.L4
  76              		.loc 1 103 0
  77 0042 4121     		movs	r1, #65
  78 0044 2846     		mov	r0, r5
  79 0046 4FF0FF32 		mov	r2, #-1
  80 004a FFF7FEFF 		bl	chMBPostAhead
  81              	.LVL6:
  82              		.loc 1 104 0
  83 004e D0F10101 		rsbs	r1, r0, #1
  84 0052 38BF     		it	cc
  85 0054 0021     		movcc	r1, #0
  86 0056 0320     		movs	r0, #3
  87              	.LVL7:
  88 0058 FFF7FEFF 		bl	_test_assert
  89              	.LVL8:
  90 005c 08B1     		cbz	r0, .L29
  91              	.L1:
  92              		.loc 1 231 0
  93 005e 03B0     		add	sp, sp, #12
  94              		@ sp needed
  95 0060 F0BD     		pop	{r4, r5, r6, r7, pc}
  96              	.L29:
  97              		.loc 1 109 0
  98 0062 5821     		movs	r1, #88
  99 0064 0122     		movs	r2, #1
 100 0066 2846     		mov	r0, r5
 101 0068 FFF7FEFF 		bl	chMBPost
 102              	.LVL9:
 103              		.loc 1 110 0
 104 006c B0F1FF37 		subs	r7, r0, #-1
 105 0070 7942     		rsbs	r1, r7, #0
 106 0072 7941     		adcs	r1, r1, r7
 107 0074 0420     		movs	r0, #4
 108              	.LVL10:
 109 0076 FFF7FEFF 		bl	_test_assert
 110              	.LVL11:
 111 007a 0446     		mov	r4, r0
 112 007c 0028     		cmp	r0, #0
 113 007e EED1     		bne	.L1
 114              	.LBB2:
ARM GAS  /tmp/cceLgTZh.s 			page 3


 115              		.loc 1 111 0
 116 0080 2023     		movs	r3, #32
 117              	@ 111 "../../test/testmbox.c" 1
 118 0082 83F31188 		msr     BASEPRI, r3
 119              	@ 0 "" 2
 120              		.thumb
 121              	.LBE2:
 122              		.loc 1 112 0
 123 0086 5821     		movs	r1, #88
 124 0088 2846     		mov	r0, r5
 125 008a FFF7FEFF 		bl	chMBPostI
 126              	.LVL12:
 127              	.LBB3:
 128              		.loc 1 113 0
 129 008e 2346     		mov	r3, r4
 130              	.LBE3:
 131              		.loc 1 112 0
 132 0090 0146     		mov	r1, r0
 133              	.LVL13:
 134              	.LBB4:
 135              		.loc 1 113 0
 136              	@ 113 "../../test/testmbox.c" 1
 137 0092 83F31188 		msr     BASEPRI, r3
 138              	@ 0 "" 2
 139              		.thumb
 140              	.LBE4:
 141              		.loc 1 114 0
 142 0096 B1F1FF34 		subs	r4, r1, #-1
 143 009a 6142     		rsbs	r1, r4, #0
 144 009c 6141     		adcs	r1, r1, r4
 145 009e 0520     		movs	r0, #5
 146              	.LVL14:
 147 00a0 FFF7FEFF 		bl	_test_assert
 148              	.LVL15:
 149 00a4 0028     		cmp	r0, #0
 150 00a6 DAD1     		bne	.L1
 151              		.loc 1 115 0
 152 00a8 5821     		movs	r1, #88
 153 00aa 0122     		movs	r2, #1
 154 00ac 2846     		mov	r0, r5
 155 00ae FFF7FEFF 		bl	chMBPostAhead
 156              	.LVL16:
 157              		.loc 1 116 0
 158 00b2 B0F1FF30 		subs	r0, r0, #-1
 159              	.LVL17:
 160 00b6 4142     		rsbs	r1, r0, #0
 161 00b8 4141     		adcs	r1, r1, r0
 162 00ba 0620     		movs	r0, #6
 163              	.LVL18:
 164 00bc FFF7FEFF 		bl	_test_assert
 165              	.LVL19:
 166 00c0 0446     		mov	r4, r0
 167 00c2 0028     		cmp	r0, #0
 168 00c4 CBD1     		bne	.L1
 169              	.LBB5:
 170              		.loc 1 117 0
 171 00c6 2023     		movs	r3, #32
ARM GAS  /tmp/cceLgTZh.s 			page 4


 172              	@ 117 "../../test/testmbox.c" 1
 173 00c8 83F31188 		msr     BASEPRI, r3
 174              	@ 0 "" 2
 175              		.thumb
 176              	.LBE5:
 177              		.loc 1 118 0
 178 00cc 5821     		movs	r1, #88
 179 00ce 2846     		mov	r0, r5
 180 00d0 FFF7FEFF 		bl	chMBPostAheadI
 181              	.LVL20:
 182              	.LBB6:
 183              		.loc 1 119 0
 184 00d4 2346     		mov	r3, r4
 185              	.LBE6:
 186              		.loc 1 118 0
 187 00d6 0146     		mov	r1, r0
 188              	.LVL21:
 189              	.LBB7:
 190              		.loc 1 119 0
 191              	@ 119 "../../test/testmbox.c" 1
 192 00d8 83F31188 		msr     BASEPRI, r3
 193              	@ 0 "" 2
 194              		.thumb
 195              	.LBE7:
 196              		.loc 1 120 0
 197 00dc B1F1FF32 		subs	r2, r1, #-1
 198 00e0 5142     		rsbs	r1, r2, #0
 199 00e2 4FF00700 		mov	r0, #7
 200              	.LVL22:
 201 00e6 5141     		adcs	r1, r1, r2
 202 00e8 FFF7FEFF 		bl	_test_assert
 203              	.LVL23:
 204 00ec 0746     		mov	r7, r0
 205 00ee 0028     		cmp	r0, #0
 206 00f0 B5D1     		bne	.L1
 207              	.LBB8:
 208              		.loc 1 125 0
 209 00f2 2023     		movs	r3, #32
 210              	@ 125 "../../test/testmbox.c" 1
 211 00f4 83F31188 		msr     BASEPRI, r3
 212              	@ 0 "" 2
 213              		.thumb
 214              	.LBE8:
 215 00f8 696A     		ldr	r1, [r5, #36]
 216 00fa 0820     		movs	r0, #8
 217 00fc D1F10101 		rsbs	r1, r1, #1
 218 0100 38BF     		it	cc
 219 0102 0021     		movcc	r1, #0
 220 0104 FFF7FEFF 		bl	_test_assert
 221              	.LVL24:
 222 0108 0446     		mov	r4, r0
 223 010a 18B1     		cbz	r0, .L5
 224              	.LBB9:
 225              		.loc 1 125 0 is_stmt 0 discriminator 1
 226 010c 3B46     		mov	r3, r7
 227              	@ 125 "../../test/testmbox.c" 1
 228 010e 83F31188 		msr     BASEPRI, r3
ARM GAS  /tmp/cceLgTZh.s 			page 5


 229              	@ 0 "" 2
 230              		.thumb
 231              	.LBE9:
 232 0112 A4E7     		b	.L1
 233              	.L5:
 234              	.LBB10:
 235              		.loc 1 125 0 discriminator 2
 236 0114 0346     		mov	r3, r0
 237              	@ 125 "../../test/testmbox.c" 1
 238 0116 83F31188 		msr     BASEPRI, r3
 239              	@ 0 "" 2
 240              		.thumb
 241              	.LBE10:
 242              	.LBB11:
 243              		.loc 1 126 0 is_stmt 1 discriminator 2
 244 011a 2023     		movs	r3, #32
 245              	@ 126 "../../test/testmbox.c" 1
 246 011c 83F31188 		msr     BASEPRI, r3
 247              	@ 0 "" 2
 248              		.thumb
 249              	.LBE11:
 250 0120 A969     		ldr	r1, [r5, #24]
 251 0122 0920     		movs	r0, #9
 252 0124 4B1F     		subs	r3, r1, #5
 253 0126 5942     		rsbs	r1, r3, #0
 254 0128 5941     		adcs	r1, r1, r3
 255 012a FFF7FEFF 		bl	_test_assert
 256              	.LVL25:
 257 012e 0346     		mov	r3, r0
 258 0130 18B1     		cbz	r0, .L7
 259              	.LBB12:
 260              		.loc 1 126 0 is_stmt 0 discriminator 1
 261 0132 2346     		mov	r3, r4
 262              	@ 126 "../../test/testmbox.c" 1
 263 0134 83F31188 		msr     BASEPRI, r3
 264              	@ 0 "" 2
 265              		.thumb
 266              	.LBE12:
 267 0138 91E7     		b	.L1
 268              	.L7:
 269              	.LBB13:
 270              		.loc 1 126 0 discriminator 2
 271              	@ 126 "../../test/testmbox.c" 1
 272 013a 83F31188 		msr     BASEPRI, r3
 273              	@ 0 "" 2
 274              		.thumb
 275              	.LBE13:
 276              	.LBB14:
 277              		.loc 1 127 0 is_stmt 1 discriminator 2
 278 013e 2023     		movs	r3, #32
 279              	@ 127 "../../test/testmbox.c" 1
 280 0140 83F31188 		msr     BASEPRI, r3
 281              	@ 0 "" 2
 282              		.thumb
 283              	.LBE14:
 284 0144 E968     		ldr	r1, [r5, #12]
 285 0146 AB68     		ldr	r3, [r5, #8]
ARM GAS  /tmp/cceLgTZh.s 			page 6


 286 0148 0A20     		movs	r0, #10
 287 014a B1EB030C 		subs	ip, r1, r3
 288 014e DCF10001 		rsbs	r1, ip, #0
 289 0152 51EB0C01 		adcs	r1, r1, ip
 290 0156 FFF7FEFF 		bl	_test_assert
 291              	.LVL26:
 292              	.LBB15:
 293 015a 0023     		movs	r3, #0
 294              	.LBE15:
 295 015c 0028     		cmp	r0, #0
 296 015e 40F09C80 		bne	.L25
 297              	.LBB16:
 298              	@ 127 "../../test/testmbox.c" 1
 299 0162 83F31188 		msr     BASEPRI, r3
 300              	@ 0 "" 2
 301              	.LVL27:
 302              		.thumb
 303 0166 0525     		movs	r5, #5
 304 0168 05E0     		b	.L10
 305              	.LVL28:
 306              	.L31:
 307              	.LBE16:
 308              		.loc 1 135 0
 309 016a 9DF80400 		ldrb	r0, [sp, #4]	@ zero_extendqisi2
 310 016e FFF7FEFF 		bl	test_emit_token
 311              	.LVL29:
 312              		.loc 1 132 0
 313 0172 013D     		subs	r5, r5, #1
 314              	.LVL30:
 315 0174 10D0     		beq	.L30
 316              	.LVL31:
 317              	.L10:
 318              		.loc 1 133 0
 319 0176 564C     		ldr	r4, .L32
 320 0178 01A9     		add	r1, sp, #4
 321 017a 2046     		mov	r0, r4
 322 017c 4FF0FF32 		mov	r2, #-1
 323 0180 FFF7FEFF 		bl	chMBFetch
 324              	.LVL32:
 325              		.loc 1 134 0
 326 0184 D0F10101 		rsbs	r1, r0, #1
 327 0188 38BF     		it	cc
 328 018a 0021     		movcc	r1, #0
 329 018c 0B20     		movs	r0, #11
 330              	.LVL33:
 331 018e FFF7FEFF 		bl	_test_assert
 332              	.LVL34:
 333 0192 0028     		cmp	r0, #0
 334 0194 E9D0     		beq	.L31
 335 0196 62E7     		b	.L1
 336              	.L30:
 337              		.loc 1 137 0
 338 0198 0C20     		movs	r0, #12
 339 019a 4E49     		ldr	r1, .L32+4
 340 019c FFF7FEFF 		bl	_test_assert_sequence
 341              	.LVL35:
 342 01a0 0028     		cmp	r0, #0
ARM GAS  /tmp/cceLgTZh.s 			page 7


 343 01a2 7FF45CAF 		bne	.L1
 344              		.loc 1 142 0
 345 01a6 4721     		movs	r1, #71
 346 01a8 2046     		mov	r0, r4
 347 01aa 4FF0FF32 		mov	r2, #-1
 348 01ae FFF7FEFF 		bl	chMBPost
 349              	.LVL36:
 350              		.loc 1 143 0
 351 01b2 D0F10101 		rsbs	r1, r0, #1
 352 01b6 38BF     		it	cc
 353 01b8 0021     		movcc	r1, #0
 354 01ba 0D20     		movs	r0, #13
 355              	.LVL37:
 356 01bc FFF7FEFF 		bl	_test_assert
 357              	.LVL38:
 358 01c0 0028     		cmp	r0, #0
 359 01c2 7FF44CAF 		bne	.L1
 360              		.loc 1 144 0
 361 01c6 01A9     		add	r1, sp, #4
 362 01c8 2046     		mov	r0, r4
 363 01ca 4FF0FF32 		mov	r2, #-1
 364 01ce FFF7FEFF 		bl	chMBFetch
 365              	.LVL39:
 366              		.loc 1 145 0
 367 01d2 D0F10101 		rsbs	r1, r0, #1
 368 01d6 38BF     		it	cc
 369 01d8 0021     		movcc	r1, #0
 370 01da 0E20     		movs	r0, #14
 371              	.LVL40:
 372 01dc FFF7FEFF 		bl	_test_assert
 373              	.LVL41:
 374 01e0 0028     		cmp	r0, #0
 375 01e2 7FF43CAF 		bne	.L1
 376              		.loc 1 146 0
 377 01e6 2168     		ldr	r1, [r4]
 378 01e8 A368     		ldr	r3, [r4, #8]
 379 01ea 0F20     		movs	r0, #15
 380 01ec B1EB030E 		subs	lr, r1, r3
 381 01f0 DEF10001 		rsbs	r1, lr, #0
 382 01f4 51EB0E01 		adcs	r1, r1, lr
 383 01f8 FFF7FEFF 		bl	_test_assert
 384              	.LVL42:
 385 01fc 0028     		cmp	r0, #0
 386 01fe 7FF42EAF 		bne	.L1
 387              		.loc 1 147 0
 388 0202 2168     		ldr	r1, [r4]
 389 0204 E368     		ldr	r3, [r4, #12]
 390 0206 1020     		movs	r0, #16
 391 0208 CF1A     		subs	r7, r1, r3
 392 020a 7942     		rsbs	r1, r7, #0
 393 020c 7941     		adcs	r1, r1, r7
 394 020e FFF7FEFF 		bl	_test_assert
 395              	.LVL43:
 396 0212 0028     		cmp	r0, #0
 397 0214 7FF423AF 		bne	.L1
 398              		.loc 1 152 0
 399 0218 01A9     		add	r1, sp, #4
ARM GAS  /tmp/cceLgTZh.s 			page 8


 400 021a 2046     		mov	r0, r4
 401 021c 0122     		movs	r2, #1
 402 021e FFF7FEFF 		bl	chMBFetch
 403              	.LVL44:
 404              		.loc 1 153 0
 405 0222 B0F1FF30 		subs	r0, r0, #-1
 406              	.LVL45:
 407 0226 4142     		rsbs	r1, r0, #0
 408 0228 4141     		adcs	r1, r1, r0
 409 022a 1120     		movs	r0, #17
 410              	.LVL46:
 411 022c FFF7FEFF 		bl	_test_assert
 412              	.LVL47:
 413 0230 0028     		cmp	r0, #0
 414 0232 7FF414AF 		bne	.L1
 415              	.LBB17:
 416              		.loc 1 154 0
 417 0236 2023     		movs	r3, #32
 418              	@ 154 "../../test/testmbox.c" 1
 419 0238 83F31188 		msr     BASEPRI, r3
 420              	@ 0 "" 2
 421              		.thumb
 422              	.LBE17:
 423              		.loc 1 155 0
 424 023c 01A9     		add	r1, sp, #4
 425 023e 2046     		mov	r0, r4
 426 0240 FFF7FEFF 		bl	chMBFetchI
 427              	.LVL48:
 428              	.LBB18:
 429              		.loc 1 156 0
 430 0244 2B46     		mov	r3, r5
 431              	.LBE18:
 432              		.loc 1 155 0
 433 0246 0146     		mov	r1, r0
 434              	.LVL49:
 435              	.LBB19:
 436              		.loc 1 156 0
 437              	@ 156 "../../test/testmbox.c" 1
 438 0248 83F31188 		msr     BASEPRI, r3
 439              	@ 0 "" 2
 440              		.thumb
 441              	.LBE19:
 442              		.loc 1 157 0
 443 024c B1F1FF32 		subs	r2, r1, #-1
 444 0250 5142     		rsbs	r1, r2, #0
 445 0252 5141     		adcs	r1, r1, r2
 446 0254 1220     		movs	r0, #18
 447              	.LVL50:
 448 0256 FFF7FEFF 		bl	_test_assert
 449              	.LVL51:
 450 025a 0028     		cmp	r0, #0
 451 025c 7FF4FFAE 		bne	.L1
 452              	.LBB20:
 453              		.loc 1 162 0
 454 0260 2023     		movs	r3, #32
 455              	@ 162 "../../test/testmbox.c" 1
 456 0262 83F31188 		msr     BASEPRI, r3
ARM GAS  /tmp/cceLgTZh.s 			page 9


 457              	@ 0 "" 2
 458              		.thumb
 459              	.LBE20:
 460 0266 616A     		ldr	r1, [r4, #36]
 461 0268 1320     		movs	r0, #19
 462 026a 4B1F     		subs	r3, r1, #5
 463 026c 5942     		rsbs	r1, r3, #0
 464 026e 5941     		adcs	r1, r1, r3
 465 0270 FFF7FEFF 		bl	_test_assert
 466              	.LVL52:
 467              	.LBB21:
 468 0274 0023     		movs	r3, #0
 469              	.LBE21:
 470 0276 80B9     		cbnz	r0, .L25
 471              	.LBB22:
 472              		.loc 1 162 0 is_stmt 0 discriminator 2
 473              	@ 162 "../../test/testmbox.c" 1
 474 0278 83F31188 		msr     BASEPRI, r3
 475              	@ 0 "" 2
 476              		.thumb
 477              	.LBE22:
 478              	.LBB23:
 479              		.loc 1 163 0 is_stmt 1 discriminator 2
 480 027c 2023     		movs	r3, #32
 481              	@ 163 "../../test/testmbox.c" 1
 482 027e 83F31188 		msr     BASEPRI, r3
 483              	@ 0 "" 2
 484              		.thumb
 485              	.LBE23:
 486 0282 B169     		ldr	r1, [r6, #24]
 487 0284 1420     		movs	r0, #20
 488 0286 D1F10101 		rsbs	r1, r1, #1
 489 028a 38BF     		it	cc
 490 028c 0021     		movcc	r1, #0
 491 028e FFF7FEFF 		bl	_test_assert
 492              	.LVL53:
 493 0292 0F4C     		ldr	r4, .L32
 494 0294 0546     		mov	r5, r0
 495              	.LVL54:
 496 0296 18B1     		cbz	r0, .L12
 497              	.L27:
 498              	.LBB24:
 499              		.loc 1 230 0 discriminator 2
 500 0298 0023     		movs	r3, #0
 501              	.L25:
 502              	.LBE24:
 503              	.LBB25:
 504              	@ 230 "../../test/testmbox.c" 1
 505 029a 83F31188 		msr     BASEPRI, r3
 506              	@ 0 "" 2
 507              		.thumb
 508              	.LBE25:
 509 029e DEE6     		b	.L1
 510              	.L12:
 511              	.LBB26:
 512              		.loc 1 163 0 discriminator 2
 513 02a0 0346     		mov	r3, r0
ARM GAS  /tmp/cceLgTZh.s 			page 10


 514              	@ 163 "../../test/testmbox.c" 1
 515 02a2 83F31188 		msr     BASEPRI, r3
 516              	@ 0 "" 2
 517              		.thumb
 518              	.LBE26:
 519              	.LBB27:
 520              		.loc 1 164 0 discriminator 2
 521 02a6 2023     		movs	r3, #32
 522              	@ 164 "../../test/testmbox.c" 1
 523 02a8 83F31188 		msr     BASEPRI, r3
 524              	@ 0 "" 2
 525              		.thumb
 526              	.LBE27:
 527 02ac E168     		ldr	r1, [r4, #12]
 528 02ae A368     		ldr	r3, [r4, #8]
 529 02b0 1520     		movs	r0, #21
 530 02b2 B1EB030C 		subs	ip, r1, r3
 531 02b6 DCF10001 		rsbs	r1, ip, #0
 532 02ba 51EB0C01 		adcs	r1, r1, ip
 533 02be FFF7FEFF 		bl	_test_assert
 534              	.LVL55:
 535 02c2 0346     		mov	r3, r0
 536 02c4 40B1     		cbz	r0, .L13
 537              	.LBB28:
 538              		.loc 1 164 0 is_stmt 0 discriminator 1
 539 02c6 2B46     		mov	r3, r5
 540              	@ 164 "../../test/testmbox.c" 1
 541 02c8 83F31188 		msr     BASEPRI, r3
 542              	@ 0 "" 2
 543              		.thumb
 544              	.LBE28:
 545 02cc C7E6     		b	.L1
 546              	.L33:
 547 02ce 00BF     		.align	2
 548              	.L32:
 549 02d0 00000000 		.word	.LANCHOR0
 550 02d4 00000000 		.word	.LC0
 551              	.L13:
 552              	.LBB29:
 553              		.loc 1 164 0 discriminator 2
 554              	@ 164 "../../test/testmbox.c" 1
 555 02d8 83F31188 		msr     BASEPRI, r3
 556              	@ 0 "" 2
 557              		.thumb
 558              	.LBE29:
 559              	.LBB30:
 560              		.loc 1 169 0 is_stmt 1 discriminator 2
 561 02dc 2023     		movs	r3, #32
 562              	@ 169 "../../test/testmbox.c" 1
 563 02de 83F31188 		msr     BASEPRI, r3
 564              	@ 0 "" 2
 565              		.thumb
 566              	.LBE30:
 567              		.loc 1 170 0 discriminator 2
 568 02e2 4121     		movs	r1, #65
 569 02e4 2046     		mov	r0, r4
 570 02e6 FFF7FEFF 		bl	chMBPostI
ARM GAS  /tmp/cceLgTZh.s 			page 11


 571              	.LVL56:
 572              		.loc 1 171 0 discriminator 2
 573 02ea D0F10101 		rsbs	r1, r0, #1
 574 02ee 38BF     		it	cc
 575 02f0 0021     		movcc	r1, #0
 576 02f2 1620     		movs	r0, #22
 577              	.LVL57:
 578 02f4 FFF7FEFF 		bl	_test_assert
 579              	.LVL58:
 580 02f8 0028     		cmp	r0, #0
 581 02fa 7FF4B0AE 		bne	.L1
 582              		.loc 1 172 0
 583 02fe 4221     		movs	r1, #66
 584 0300 2046     		mov	r0, r4
 585 0302 FFF7FEFF 		bl	chMBPostI
 586              	.LVL59:
 587              		.loc 1 173 0
 588 0306 D0F10101 		rsbs	r1, r0, #1
 589 030a 38BF     		it	cc
 590 030c 0021     		movcc	r1, #0
 591 030e 1720     		movs	r0, #23
 592              	.LVL60:
 593 0310 FFF7FEFF 		bl	_test_assert
 594              	.LVL61:
 595 0314 0028     		cmp	r0, #0
 596 0316 7FF4A2AE 		bne	.L1
 597              		.loc 1 174 0
 598 031a 4321     		movs	r1, #67
 599 031c 2046     		mov	r0, r4
 600 031e FFF7FEFF 		bl	chMBPostI
 601              	.LVL62:
 602              		.loc 1 175 0
 603 0322 D0F10101 		rsbs	r1, r0, #1
 604 0326 38BF     		it	cc
 605 0328 0021     		movcc	r1, #0
 606 032a 1820     		movs	r0, #24
 607              	.LVL63:
 608 032c FFF7FEFF 		bl	_test_assert
 609              	.LVL64:
 610 0330 0028     		cmp	r0, #0
 611 0332 7FF494AE 		bne	.L1
 612              		.loc 1 176 0
 613 0336 4421     		movs	r1, #68
 614 0338 2046     		mov	r0, r4
 615 033a FFF7FEFF 		bl	chMBPostI
 616              	.LVL65:
 617              		.loc 1 177 0
 618 033e D0F10101 		rsbs	r1, r0, #1
 619 0342 38BF     		it	cc
 620 0344 0021     		movcc	r1, #0
 621 0346 1920     		movs	r0, #25
 622              	.LVL66:
 623 0348 FFF7FEFF 		bl	_test_assert
 624              	.LVL67:
 625 034c 0546     		mov	r5, r0
 626 034e 0028     		cmp	r0, #0
 627 0350 7FF485AE 		bne	.L1
ARM GAS  /tmp/cceLgTZh.s 			page 12


 628              		.loc 1 178 0
 629 0354 2046     		mov	r0, r4
 630 0356 4521     		movs	r1, #69
 631 0358 FFF7FEFF 		bl	chMBPostI
 632              	.LVL68:
 633              	.LBB31:
 634              		.loc 1 179 0
 635 035c 2B46     		mov	r3, r5
 636              	.LBE31:
 637              		.loc 1 178 0
 638 035e 0146     		mov	r1, r0
 639              	.LVL69:
 640              	.LBB32:
 641              		.loc 1 179 0
 642              	@ 179 "../../test/testmbox.c" 1
 643 0360 83F31188 		msr     BASEPRI, r3
 644              	@ 0 "" 2
 645              		.thumb
 646              	.LBE32:
 647              		.loc 1 180 0
 648 0364 D1F10101 		rsbs	r1, r1, #1
 649 0368 38BF     		it	cc
 650 036a 0021     		movcc	r1, #0
 651 036c 1A20     		movs	r0, #26
 652              	.LVL70:
 653 036e FFF7FEFF 		bl	_test_assert
 654              	.LVL71:
 655 0372 0028     		cmp	r0, #0
 656 0374 7FF473AE 		bne	.L1
 657              		.loc 1 181 0
 658 0378 E168     		ldr	r1, [r4, #12]
 659 037a A368     		ldr	r3, [r4, #8]
 660 037c 1B20     		movs	r0, #27
 661 037e B1EB030E 		subs	lr, r1, r3
 662 0382 DEF10001 		rsbs	r1, lr, #0
 663 0386 51EB0E01 		adcs	r1, r1, lr
 664 038a FFF7FEFF 		bl	_test_assert
 665              	.LVL72:
 666 038e 0028     		cmp	r0, #0
 667 0390 7FF465AE 		bne	.L1
 668 0394 0525     		movs	r5, #5
 669              	.L15:
 670              	.LVL73:
 671              	.LBB33:
 672              		.loc 1 183 0
 673 0396 2023     		movs	r3, #32
 674              	@ 183 "../../test/testmbox.c" 1
 675 0398 83F31188 		msr     BASEPRI, r3
 676              	@ 0 "" 2
 677              		.thumb
 678              	.LBE33:
 679              		.loc 1 184 0
 680 039c 9C4C     		ldr	r4, .L34
 681 039e 01A9     		add	r1, sp, #4
 682 03a0 2046     		mov	r0, r4
 683 03a2 FFF7FEFF 		bl	chMBFetchI
 684              	.LVL74:
ARM GAS  /tmp/cceLgTZh.s 			page 13


 685              	.LBB34:
 686              		.loc 1 185 0
 687 03a6 0023     		movs	r3, #0
 688              	.LBE34:
 689              		.loc 1 184 0
 690 03a8 0146     		mov	r1, r0
 691              	.LVL75:
 692              	.LBB35:
 693              		.loc 1 185 0
 694              	@ 185 "../../test/testmbox.c" 1
 695 03aa 83F31188 		msr     BASEPRI, r3
 696              	@ 0 "" 2
 697              		.thumb
 698              	.LBE35:
 699              		.loc 1 186 0
 700 03ae CF1A     		subs	r7, r1, r3
 701 03b0 7942     		rsbs	r1, r7, #0
 702 03b2 7941     		adcs	r1, r1, r7
 703 03b4 1C20     		movs	r0, #28
 704              	.LVL76:
 705 03b6 FFF7FEFF 		bl	_test_assert
 706              	.LVL77:
 707 03ba 0028     		cmp	r0, #0
 708 03bc 7FF44FAE 		bne	.L1
 709              		.loc 1 187 0
 710 03c0 9DF80400 		ldrb	r0, [sp, #4]	@ zero_extendqisi2
 711 03c4 FFF7FEFF 		bl	test_emit_token
 712              	.LVL78:
 713              		.loc 1 182 0
 714 03c8 013D     		subs	r5, r5, #1
 715              	.LVL79:
 716 03ca E4D1     		bne	.L15
 717              		.loc 1 189 0
 718 03cc 1D20     		movs	r0, #29
 719 03ce 9149     		ldr	r1, .L34+4
 720 03d0 FFF7FEFF 		bl	_test_assert_sequence
 721              	.LVL80:
 722 03d4 0028     		cmp	r0, #0
 723 03d6 7FF442AE 		bne	.L1
 724              	.LBB36:
 725              		.loc 1 190 0
 726 03da 2023     		movs	r3, #32
 727              	@ 190 "../../test/testmbox.c" 1
 728 03dc 83F31188 		msr     BASEPRI, r3
 729              	@ 0 "" 2
 730              		.thumb
 731              	.LBE36:
 732 03e0 616A     		ldr	r1, [r4, #36]
 733 03e2 1E20     		movs	r0, #30
 734 03e4 4E1F     		subs	r6, r1, #5
 735 03e6 7142     		rsbs	r1, r6, #0
 736 03e8 7141     		adcs	r1, r1, r6
 737 03ea FFF7FEFF 		bl	_test_assert
 738              	.LVL81:
 739              	.LBB37:
 740 03ee 2B46     		mov	r3, r5
 741              	.LBE37:
ARM GAS  /tmp/cceLgTZh.s 			page 14


 742 03f0 0028     		cmp	r0, #0
 743 03f2 7FF452AF 		bne	.L25
 744              	.LBB38:
 745              		.loc 1 190 0 is_stmt 0 discriminator 2
 746              	@ 190 "../../test/testmbox.c" 1
 747 03f6 83F31188 		msr     BASEPRI, r3
 748              	@ 0 "" 2
 749              		.thumb
 750              	.LBE38:
 751              	.LBB39:
 752              		.loc 1 191 0 is_stmt 1 discriminator 2
 753 03fa 2023     		movs	r3, #32
 754              	@ 191 "../../test/testmbox.c" 1
 755 03fc 83F31188 		msr     BASEPRI, r3
 756              	@ 0 "" 2
 757              		.thumb
 758              	.LBE39:
 759 0400 A169     		ldr	r1, [r4, #24]
 760 0402 1F20     		movs	r0, #31
 761 0404 D1F10101 		rsbs	r1, r1, #1
 762 0408 38BF     		it	cc
 763 040a 0021     		movcc	r1, #0
 764 040c FFF7FEFF 		bl	_test_assert
 765              	.LVL82:
 766              	.LBB40:
 767 0410 2B46     		mov	r3, r5
 768              	.LBE40:
 769 0412 0028     		cmp	r0, #0
 770 0414 7FF441AF 		bne	.L25
 771              	.LBB41:
 772              	@ 191 "../../test/testmbox.c" 1
 773 0418 83F31188 		msr     BASEPRI, r3
 774              	@ 0 "" 2
 775              		.thumb
 776              	.LBE41:
 777              		.loc 1 192 0 discriminator 2
 778 041c E168     		ldr	r1, [r4, #12]
 779 041e A368     		ldr	r3, [r4, #8]
 780 0420 2020     		movs	r0, #32
 781 0422 CD1A     		subs	r5, r1, r3
 782              	.LVL83:
 783 0424 6942     		rsbs	r1, r5, #0
 784 0426 6941     		adcs	r1, r1, r5
 785 0428 FFF7FEFF 		bl	_test_assert
 786              	.LVL84:
 787 042c 0028     		cmp	r0, #0
 788 042e 7FF416AE 		bne	.L1
 789              	.LBB42:
 790              		.loc 1 194 0
 791 0432 2023     		movs	r3, #32
 792              	@ 194 "../../test/testmbox.c" 1
 793 0434 83F31188 		msr     BASEPRI, r3
 794              	@ 0 "" 2
 795              		.thumb
 796              	.LBE42:
 797              		.loc 1 195 0
 798 0438 4521     		movs	r1, #69
ARM GAS  /tmp/cceLgTZh.s 			page 15


 799 043a 2046     		mov	r0, r4
 800 043c FFF7FEFF 		bl	chMBPostAheadI
 801              	.LVL85:
 802              		.loc 1 196 0
 803 0440 D0F10101 		rsbs	r1, r0, #1
 804 0444 38BF     		it	cc
 805 0446 0021     		movcc	r1, #0
 806 0448 2120     		movs	r0, #33
 807              	.LVL86:
 808 044a FFF7FEFF 		bl	_test_assert
 809              	.LVL87:
 810 044e 0028     		cmp	r0, #0
 811 0450 7FF405AE 		bne	.L1
 812              		.loc 1 197 0
 813 0454 4421     		movs	r1, #68
 814 0456 2046     		mov	r0, r4
 815 0458 FFF7FEFF 		bl	chMBPostAheadI
 816              	.LVL88:
 817              		.loc 1 198 0
 818 045c D0F10101 		rsbs	r1, r0, #1
 819 0460 38BF     		it	cc
 820 0462 0021     		movcc	r1, #0
 821 0464 2220     		movs	r0, #34
 822              	.LVL89:
 823 0466 FFF7FEFF 		bl	_test_assert
 824              	.LVL90:
 825 046a 0028     		cmp	r0, #0
 826 046c 7FF4F7AD 		bne	.L1
 827              		.loc 1 199 0
 828 0470 4321     		movs	r1, #67
 829 0472 2046     		mov	r0, r4
 830 0474 FFF7FEFF 		bl	chMBPostAheadI
 831              	.LVL91:
 832              		.loc 1 200 0
 833 0478 D0F10101 		rsbs	r1, r0, #1
 834 047c 38BF     		it	cc
 835 047e 0021     		movcc	r1, #0
 836 0480 2320     		movs	r0, #35
 837              	.LVL92:
 838 0482 FFF7FEFF 		bl	_test_assert
 839              	.LVL93:
 840 0486 0028     		cmp	r0, #0
 841 0488 7FF4E9AD 		bne	.L1
 842              		.loc 1 201 0
 843 048c 4221     		movs	r1, #66
 844 048e 2046     		mov	r0, r4
 845 0490 FFF7FEFF 		bl	chMBPostAheadI
 846              	.LVL94:
 847              		.loc 1 202 0
 848 0494 D0F10101 		rsbs	r1, r0, #1
 849 0498 38BF     		it	cc
 850 049a 0021     		movcc	r1, #0
 851 049c 2420     		movs	r0, #36
 852              	.LVL95:
 853 049e FFF7FEFF 		bl	_test_assert
 854              	.LVL96:
 855 04a2 0028     		cmp	r0, #0
ARM GAS  /tmp/cceLgTZh.s 			page 16


 856 04a4 7FF4DBAD 		bne	.L1
 857              		.loc 1 203 0
 858 04a8 594C     		ldr	r4, .L34
 859 04aa 4121     		movs	r1, #65
 860 04ac 2046     		mov	r0, r4
 861 04ae FFF7FEFF 		bl	chMBPostAheadI
 862              	.LVL97:
 863              	.LBB43:
 864              		.loc 1 204 0
 865 04b2 0023     		movs	r3, #0
 866              	.LBE43:
 867              		.loc 1 203 0
 868 04b4 0146     		mov	r1, r0
 869              	.LVL98:
 870              	.LBB44:
 871              		.loc 1 204 0
 872              	@ 204 "../../test/testmbox.c" 1
 873 04b6 83F31188 		msr     BASEPRI, r3
 874              	@ 0 "" 2
 875              		.thumb
 876              	.LBE44:
 877              		.loc 1 205 0
 878 04ba CA1A     		subs	r2, r1, r3
 879 04bc 5142     		rsbs	r1, r2, #0
 880 04be 5141     		adcs	r1, r1, r2
 881 04c0 2520     		movs	r0, #37
 882              	.LVL99:
 883 04c2 FFF7FEFF 		bl	_test_assert
 884              	.LVL100:
 885 04c6 0028     		cmp	r0, #0
 886 04c8 7FF4C9AD 		bne	.L1
 887              		.loc 1 206 0
 888 04cc E168     		ldr	r1, [r4, #12]
 889 04ce A368     		ldr	r3, [r4, #8]
 890 04d0 2620     		movs	r0, #38
 891 04d2 CB1A     		subs	r3, r1, r3
 892 04d4 5942     		rsbs	r1, r3, #0
 893 04d6 5941     		adcs	r1, r1, r3
 894 04d8 FFF7FEFF 		bl	_test_assert
 895              	.LVL101:
 896 04dc 0028     		cmp	r0, #0
 897 04de 7FF4BEAD 		bne	.L1
 898 04e2 0524     		movs	r4, #5
 899              	.L19:
 900              	.LVL102:
 901              	.LBB45:
 902              		.loc 1 208 0
 903 04e4 2023     		movs	r3, #32
 904              	@ 208 "../../test/testmbox.c" 1
 905 04e6 83F31188 		msr     BASEPRI, r3
 906              	@ 0 "" 2
 907              		.thumb
 908              	.LBE45:
 909              		.loc 1 209 0
 910 04ea 494D     		ldr	r5, .L34
 911 04ec 01A9     		add	r1, sp, #4
 912 04ee 2846     		mov	r0, r5
ARM GAS  /tmp/cceLgTZh.s 			page 17


 913 04f0 FFF7FEFF 		bl	chMBFetchI
 914              	.LVL103:
 915              	.LBB46:
 916              		.loc 1 210 0
 917 04f4 0023     		movs	r3, #0
 918              	.LBE46:
 919              		.loc 1 209 0
 920 04f6 0146     		mov	r1, r0
 921              	.LVL104:
 922              	.LBB47:
 923              		.loc 1 210 0
 924              	@ 210 "../../test/testmbox.c" 1
 925 04f8 83F31188 		msr     BASEPRI, r3
 926              	@ 0 "" 2
 927              		.thumb
 928              	.LBE47:
 929              		.loc 1 211 0
 930 04fc B1EB030C 		subs	ip, r1, r3
 931 0500 DCF10001 		rsbs	r1, ip, #0
 932 0504 51EB0C01 		adcs	r1, r1, ip
 933 0508 2720     		movs	r0, #39
 934              	.LVL105:
 935 050a FFF7FEFF 		bl	_test_assert
 936              	.LVL106:
 937 050e 0028     		cmp	r0, #0
 938 0510 7FF4A5AD 		bne	.L1
 939              		.loc 1 212 0
 940 0514 9DF80400 		ldrb	r0, [sp, #4]	@ zero_extendqisi2
 941 0518 FFF7FEFF 		bl	test_emit_token
 942              	.LVL107:
 943              		.loc 1 207 0
 944 051c 013C     		subs	r4, r4, #1
 945              	.LVL108:
 946 051e E1D1     		bne	.L19
 947              		.loc 1 214 0
 948 0520 2820     		movs	r0, #40
 949 0522 3C49     		ldr	r1, .L34+4
 950 0524 FFF7FEFF 		bl	_test_assert_sequence
 951              	.LVL109:
 952 0528 0028     		cmp	r0, #0
 953 052a 7FF498AD 		bne	.L1
 954              	.LBB48:
 955              		.loc 1 215 0
 956 052e 2023     		movs	r3, #32
 957              	@ 215 "../../test/testmbox.c" 1
 958 0530 83F31188 		msr     BASEPRI, r3
 959              	@ 0 "" 2
 960              		.thumb
 961              	.LBE48:
 962 0534 696A     		ldr	r1, [r5, #36]
 963 0536 2920     		movs	r0, #41
 964 0538 B1F1050E 		subs	lr, r1, #5
 965 053c DEF10001 		rsbs	r1, lr, #0
 966 0540 51EB0E01 		adcs	r1, r1, lr
 967 0544 FFF7FEFF 		bl	_test_assert
 968              	.LVL110:
 969              	.LBB49:
ARM GAS  /tmp/cceLgTZh.s 			page 18


 970 0548 2346     		mov	r3, r4
 971              	.LBE49:
 972 054a 0028     		cmp	r0, #0
 973 054c 7FF4A5AE 		bne	.L25
 974              	.LBB50:
 975              		.loc 1 215 0 is_stmt 0 discriminator 2
 976              	@ 215 "../../test/testmbox.c" 1
 977 0550 83F31188 		msr     BASEPRI, r3
 978              	@ 0 "" 2
 979              		.thumb
 980              	.LBE50:
 981              	.LBB51:
 982              		.loc 1 216 0 is_stmt 1 discriminator 2
 983 0554 2023     		movs	r3, #32
 984              	@ 216 "../../test/testmbox.c" 1
 985 0556 83F31188 		msr     BASEPRI, r3
 986              	@ 0 "" 2
 987              		.thumb
 988              	.LBE51:
 989 055a A969     		ldr	r1, [r5, #24]
 990 055c 2A20     		movs	r0, #42
 991 055e D1F10101 		rsbs	r1, r1, #1
 992 0562 38BF     		it	cc
 993 0564 0021     		movcc	r1, #0
 994 0566 FFF7FEFF 		bl	_test_assert
 995              	.LVL111:
 996              	.LBB52:
 997 056a 2346     		mov	r3, r4
 998              	.LBE52:
 999 056c 0028     		cmp	r0, #0
 1000 056e 7FF494AE 		bne	.L25
 1001              	.LBB53:
 1002              	@ 216 "../../test/testmbox.c" 1
 1003 0572 83F31188 		msr     BASEPRI, r3
 1004              	@ 0 "" 2
 1005              		.thumb
 1006              	.LBE53:
 1007              		.loc 1 217 0 discriminator 2
 1008 0576 E968     		ldr	r1, [r5, #12]
 1009 0578 AB68     		ldr	r3, [r5, #8]
 1010 057a 2B20     		movs	r0, #43
 1011 057c CF1A     		subs	r7, r1, r3
 1012 057e 7942     		rsbs	r1, r7, #0
 1013 0580 7941     		adcs	r1, r1, r7
 1014 0582 FFF7FEFF 		bl	_test_assert
 1015              	.LVL112:
 1016 0586 0028     		cmp	r0, #0
 1017 0588 7FF469AD 		bne	.L1
 1018              		.loc 1 222 0
 1019 058c 2846     		mov	r0, r5
 1020 058e FFF7FEFF 		bl	chMBReset
 1021              	.LVL113:
 1022              	.LBB54:
 1023              		.loc 1 227 0
 1024 0592 2023     		movs	r3, #32
 1025              	@ 227 "../../test/testmbox.c" 1
 1026 0594 83F31188 		msr     BASEPRI, r3
ARM GAS  /tmp/cceLgTZh.s 			page 19


 1027              	@ 0 "" 2
 1028              		.thumb
 1029              	.LBE54:
 1030 0598 696A     		ldr	r1, [r5, #36]
 1031 059a 2C20     		movs	r0, #44
 1032 059c 4E1F     		subs	r6, r1, #5
 1033 059e 7142     		rsbs	r1, r6, #0
 1034 05a0 7141     		adcs	r1, r1, r6
 1035 05a2 FFF7FEFF 		bl	_test_assert
 1036              	.LVL114:
 1037              	.LBB55:
 1038 05a6 2346     		mov	r3, r4
 1039              	.LBE55:
 1040 05a8 0028     		cmp	r0, #0
 1041 05aa 7FF476AE 		bne	.L25
 1042              	.LBB56:
 1043              		.loc 1 227 0 is_stmt 0 discriminator 2
 1044              	@ 227 "../../test/testmbox.c" 1
 1045 05ae 83F31188 		msr     BASEPRI, r3
 1046              	@ 0 "" 2
 1047              		.thumb
 1048              	.LBE56:
 1049              	.LBB57:
 1050              		.loc 1 228 0 is_stmt 1 discriminator 2
 1051 05b2 2023     		movs	r3, #32
 1052              	@ 228 "../../test/testmbox.c" 1
 1053 05b4 83F31188 		msr     BASEPRI, r3
 1054              	@ 0 "" 2
 1055              		.thumb
 1056              	.LBE57:
 1057 05b8 A969     		ldr	r1, [r5, #24]
 1058 05ba 2D20     		movs	r0, #45
 1059 05bc D1F10101 		rsbs	r1, r1, #1
 1060 05c0 38BF     		it	cc
 1061 05c2 0021     		movcc	r1, #0
 1062 05c4 FFF7FEFF 		bl	_test_assert
 1063              	.LVL115:
 1064              	.LBB58:
 1065 05c8 2346     		mov	r3, r4
 1066              	.LBE58:
 1067 05ca 0028     		cmp	r0, #0
 1068 05cc 7FF465AE 		bne	.L25
 1069              	.LBB59:
 1070              	@ 228 "../../test/testmbox.c" 1
 1071 05d0 83F31188 		msr     BASEPRI, r3
 1072              	@ 0 "" 2
 1073              		.thumb
 1074              	.LBE59:
 1075              	.LBB60:
 1076              		.loc 1 229 0 discriminator 2
 1077 05d4 2023     		movs	r3, #32
 1078              	@ 229 "../../test/testmbox.c" 1
 1079 05d6 83F31188 		msr     BASEPRI, r3
 1080              	@ 0 "" 2
 1081              		.thumb
 1082              	.LBE60:
 1083 05da 2968     		ldr	r1, [r5]
ARM GAS  /tmp/cceLgTZh.s 			page 20


 1084 05dc AB68     		ldr	r3, [r5, #8]
 1085 05de 2E20     		movs	r0, #46
 1086 05e0 CA1A     		subs	r2, r1, r3
 1087 05e2 5142     		rsbs	r1, r2, #0
 1088 05e4 5141     		adcs	r1, r1, r2
 1089 05e6 FFF7FEFF 		bl	_test_assert
 1090              	.LVL116:
 1091              	.LBB61:
 1092 05ea 2346     		mov	r3, r4
 1093              	.LBE61:
 1094 05ec 0028     		cmp	r0, #0
 1095 05ee 7FF454AE 		bne	.L25
 1096              	.LBB62:
 1097              	@ 229 "../../test/testmbox.c" 1
 1098 05f2 83F31188 		msr     BASEPRI, r3
 1099              	@ 0 "" 2
 1100              		.thumb
 1101              	.LBE62:
 1102              	.LBB63:
 1103              		.loc 1 230 0 discriminator 2
 1104 05f6 2023     		movs	r3, #32
 1105              	@ 230 "../../test/testmbox.c" 1
 1106 05f8 83F31188 		msr     BASEPRI, r3
 1107              	@ 0 "" 2
 1108              		.thumb
 1109              	.LBE63:
 1110 05fc 2968     		ldr	r1, [r5]
 1111 05fe EB68     		ldr	r3, [r5, #12]
 1112 0600 2F20     		movs	r0, #47
 1113 0602 CB1A     		subs	r3, r1, r3
 1114 0604 5942     		rsbs	r1, r3, #0
 1115 0606 5941     		adcs	r1, r1, r3
 1116 0608 FFF7FEFF 		bl	_test_assert
 1117              	.LVL117:
 1118 060c 44E6     		b	.L27
 1119              	.L35:
 1120 060e 00BF     		.align	2
 1121              	.L34:
 1122 0610 00000000 		.word	.LANCHOR0
 1123 0614 00000000 		.word	.LC0
 1124              		.cfi_endproc
 1125              	.LFE8:
 1126              		.size	mbox1_execute, .-mbox1_execute
 1127 0618 AFF30080 		.section	.text.mbox1_setup,"ax",%progbits
 1127      AFF30080 
 1128              		.align	2
 1129              		.p2align 4,,15
 1130              		.thumb
 1131              		.thumb_func
 1132              		.type	mbox1_setup, %function
 1133              	mbox1_setup:
 1134              	.LFB7:
 1135              		.loc 1 82 0
 1136              		.cfi_startproc
 1137              		@ args = 0, pretend = 0, frame = 0
 1138              		@ frame_needed = 0, uses_anonymous_args = 0
 1139              		@ link register save eliminated.
ARM GAS  /tmp/cceLgTZh.s 			page 21


 1140              		.loc 1 84 0
 1141 0000 0248     		ldr	r0, .L37
 1142 0002 0349     		ldr	r1, .L37+4
 1143 0004 0522     		movs	r2, #5
 1144 0006 FFF7FEBF 		b	chMBInit
 1145              	.LVL118:
 1146              	.L38:
 1147 000a 00BF     		.align	2
 1148              	.L37:
 1149 000c 00000000 		.word	.LANCHOR0
 1150 0010 00000000 		.word	test
 1151              		.cfi_endproc
 1152              	.LFE7:
 1153              		.size	mbox1_setup, .-mbox1_setup
 1154              		.global	patternmbox
 1155              		.global	testmbox1
 1156 0014 AFF30080 		.section	.data.mb1,"aw",%progbits
 1156      AFF30080 
 1156      AFF30080 
 1157              		.align	2
 1158              		.set	.LANCHOR0,. + 0
 1159              		.type	mb1, %object
 1160              		.size	mb1, 40
 1161              	mb1:
 1162 0000 00000000 		.word	test
 1163 0004 14000000 		.word	test+20
 1164 0008 00000000 		.word	test
 1165 000c 00000000 		.word	test
 1166 0010 10000000 		.word	mb1+16
 1167 0014 10000000 		.word	mb1+16
 1168 0018 00000000 		.word	0
 1169 001c 1C000000 		.word	mb1+28
 1170 0020 1C000000 		.word	mb1+28
 1171 0024 05000000 		.word	5
 1172              		.section	.rodata.patternmbox,"a",%progbits
 1173              		.align	2
 1174              		.type	patternmbox, %object
 1175              		.size	patternmbox, 8
 1176              	patternmbox:
 1177 0000 00000000 		.word	testmbox1
 1178 0004 00000000 		.word	0
 1179              		.section	.rodata.str1.4,"aMS",%progbits,1
 1180              		.align	2
 1181              	.LC0:
 1182 0000 41424344 		.ascii	"ABCDE\000"
 1182      4500
 1183 0006 0000     		.space	2
 1184              	.LC1:
 1185 0008 4D61696C 		.ascii	"Mailboxes, queuing and timeouts\000"
 1185      626F7865 
 1185      732C2071 
 1185      75657569 
 1185      6E672061 
 1186              		.section	.rodata.testmbox1,"a",%progbits
 1187              		.align	2
 1188              		.type	testmbox1, %object
 1189              		.size	testmbox1, 16
ARM GAS  /tmp/cceLgTZh.s 			page 22


 1190              	testmbox1:
 1191 0000 08000000 		.word	.LC1
 1192 0004 00000000 		.word	mbox1_setup
 1193 0008 00000000 		.word	0
 1194 000c 00000000 		.word	mbox1_execute
 1195              		.text
 1196              	.Letext0:
 1197              		.file 2 "/usr/local/gcc-arm-none-eabi-4_8-2014q2/arm-none-eabi/include/machine/_default_types.h"
 1198              		.file 3 "/usr/local/gcc-arm-none-eabi-4_8-2014q2/arm-none-eabi/include/stdint.h"
 1199              		.file 4 "../../os/ports/GCC/ARMCMx/chtypes.h"
 1200              		.file 5 "../../os/kernel/include/chlists.h"
 1201              		.file 6 "../../os/kernel/include/chthreads.h"
 1202              		.file 7 "../../os/ports/GCC/ARMCMx/chcore_v7m.h"
 1203              		.file 8 "../../os/kernel/include/chsem.h"
 1204              		.file 9 "../../os/kernel/include/chmtx.h"
 1205              		.file 10 "../../os/kernel/include/chmboxes.h"
 1206              		.file 11 "../../test/test.h"