ARM GAS  /tmp/ccP0TEd1.s 			page 1


   1              		.syntax unified
   2              		.cpu cortex-m3
   3              		.fpu softvfp
   4              		.eabi_attribute 20, 1
   5              		.eabi_attribute 21, 1
   6              		.eabi_attribute 23, 3
   7              		.eabi_attribute 24, 1
   8              		.eabi_attribute 25, 1
   9              		.eabi_attribute 26, 1
  10              		.eabi_attribute 30, 2
  11              		.eabi_attribute 34, 1
  12              		.eabi_attribute 18, 4
  13              		.thumb
  14              		.file	"testqueues.c"
  15              		.text
  16              	.Ltext0:
  17              		.cfi_sections	.debug_frame
  18              		.section	.text.notify,"ax",%progbits
  19              		.align	2
  20              		.p2align 4,,15
  21              		.thumb
  22              		.thumb_func
  23              		.type	notify, %function
  24              	notify:
  25              	.LFB7:
  26              		.file 1 "../../test/testqueues.c"
  27              		.loc 1 68 0
  28              		.cfi_startproc
  29              		@ args = 0, pretend = 0, frame = 0
  30              		@ frame_needed = 0, uses_anonymous_args = 0
  31              		@ link register save eliminated.
  32              	.LVL0:
  33 0000 7047     		bx	lr
  34              		.cfi_endproc
  35              	.LFE7:
  36              		.size	notify, .-notify
  37 0002 00BFAFF3 		.section	.text.thread1,"ax",%progbits
  37      0080AFF3 
  37      0080AFF3 
  37      0080
  38              		.align	2
  39              		.p2align 4,,15
  40              		.thumb
  41              		.thumb_func
  42              		.type	thread1, %function
  43              	thread1:
  44              	.LFB9:
  45              		.loc 1 94 0
  46              		.cfi_startproc
  47              		@ args = 0, pretend = 0, frame = 0
  48              		@ frame_needed = 0, uses_anonymous_args = 0
  49              	.LVL1:
  50              		.loc 1 94 0
  51 0000 08B5     		push	{r3, lr}
  52              		.cfi_def_cfa_offset 8
  53              		.cfi_offset 3, -8
  54              		.cfi_offset 14, -4
ARM GAS  /tmp/ccP0TEd1.s 			page 2


  55              		.loc 1 97 0
  56 0002 C821     		movs	r1, #200
  57 0004 0248     		ldr	r0, .L3
  58              	.LVL2:
  59 0006 FFF7FEFF 		bl	chIQGetTimeout
  60              	.LVL3:
  61              		.loc 1 99 0
  62 000a 0020     		movs	r0, #0
  63 000c 08BD     		pop	{r3, pc}
  64              	.L4:
  65 000e 00BF     		.align	2
  66              	.L3:
  67 0010 00000000 		.word	.LANCHOR0
  68              		.cfi_endproc
  69              	.LFE9:
  70              		.size	thread1, .-thread1
  71 0014 AFF30080 		.section	.text.queues1_setup,"ax",%progbits
  71      AFF30080 
  71      AFF30080 
  72              		.align	2
  73              		.p2align 4,,15
  74              		.thumb
  75              		.thumb_func
  76              		.type	queues1_setup, %function
  77              	queues1_setup:
  78              	.LFB8:
  79              		.loc 1 89 0
  80              		.cfi_startproc
  81              		@ args = 0, pretend = 0, frame = 0
  82              		@ frame_needed = 0, uses_anonymous_args = 0
  83              		@ link register save eliminated.
  84              		.loc 1 91 0
  85 0000 034B     		ldr	r3, .L6
  86 0002 0448     		ldr	r0, .L6+4
  87 0004 1968     		ldr	r1, [r3]
  88 0006 0422     		movs	r2, #4
  89 0008 034B     		ldr	r3, .L6+8
  90 000a FFF7FEBF 		b	chIQInit
  91              	.LVL4:
  92              	.L7:
  93 000e 00BF     		.align	2
  94              	.L6:
  95 0010 00000000 		.word	wa
  96 0014 00000000 		.word	.LANCHOR0
  97 0018 00000000 		.word	notify
  98              		.cfi_endproc
  99              	.LFE8:
 100              		.size	queues1_setup, .-queues1_setup
 101 001c AFF30080 		.section	.text.thread2,"ax",%progbits
 102              		.align	2
 103              		.p2align 4,,15
 104              		.thumb
 105              		.thumb_func
 106              		.type	thread2, %function
 107              	thread2:
 108              	.LFB12:
 109              		.loc 1 181 0
ARM GAS  /tmp/ccP0TEd1.s 			page 3


 110              		.cfi_startproc
 111              		@ args = 0, pretend = 0, frame = 0
 112              		@ frame_needed = 0, uses_anonymous_args = 0
 113              	.LVL5:
 114 0000 08B5     		push	{r3, lr}
 115              		.cfi_def_cfa_offset 8
 116              		.cfi_offset 3, -8
 117              		.cfi_offset 14, -4
 118              		.loc 1 184 0
 119 0002 0021     		movs	r1, #0
 120 0004 C822     		movs	r2, #200
 121 0006 0248     		ldr	r0, .L9
 122              	.LVL6:
 123 0008 FFF7FEFF 		bl	chOQPutTimeout
 124              	.LVL7:
 125              		.loc 1 186 0
 126 000c 0020     		movs	r0, #0
 127 000e 08BD     		pop	{r3, pc}
 128              	.L10:
 129              		.align	2
 130              	.L9:
 131 0010 00000000 		.word	.LANCHOR1
 132              		.cfi_endproc
 133              	.LFE12:
 134              		.size	thread2, .-thread2
 135 0014 AFF30080 		.section	.text.queues2_setup,"ax",%progbits
 135      AFF30080 
 135      AFF30080 
 136              		.align	2
 137              		.p2align 4,,15
 138              		.thumb
 139              		.thumb_func
 140              		.type	queues2_setup, %function
 141              	queues2_setup:
 142              	.LFB11:
 143              		.loc 1 176 0
 144              		.cfi_startproc
 145              		@ args = 0, pretend = 0, frame = 0
 146              		@ frame_needed = 0, uses_anonymous_args = 0
 147              		@ link register save eliminated.
 148              		.loc 1 178 0
 149 0000 034B     		ldr	r3, .L12
 150 0002 0448     		ldr	r0, .L12+4
 151 0004 1968     		ldr	r1, [r3]
 152 0006 0422     		movs	r2, #4
 153 0008 034B     		ldr	r3, .L12+8
 154 000a FFF7FEBF 		b	chOQInit
 155              	.LVL8:
 156              	.L13:
 157 000e 00BF     		.align	2
 158              	.L12:
 159 0010 00000000 		.word	wa
 160 0014 00000000 		.word	.LANCHOR1
 161 0018 00000000 		.word	notify
 162              		.cfi_endproc
 163              	.LFE11:
 164              		.size	queues2_setup, .-queues2_setup
ARM GAS  /tmp/ccP0TEd1.s 			page 4


 165 001c AFF30080 		.section	.text.queues1_execute,"ax",%progbits
 166              		.align	2
 167              		.p2align 4,,15
 168              		.thumb
 169              		.thumb_func
 170              		.type	queues1_execute, %function
 171              	queues1_execute:
 172              	.LFB10:
 173              		.loc 1 101 0
 174              		.cfi_startproc
 175              		@ args = 0, pretend = 0, frame = 0
 176              		@ frame_needed = 0, uses_anonymous_args = 0
 177 0000 F0B5     		push	{r4, r5, r6, r7, lr}
 178              		.cfi_def_cfa_offset 20
 179              		.cfi_offset 4, -20
 180              		.cfi_offset 5, -16
 181              		.cfi_offset 6, -12
 182              		.cfi_offset 7, -8
 183              		.cfi_offset 14, -4
 184              	.LBB99:
 185              		.loc 1 106 0
 186 0002 2023     		movs	r3, #32
 187              	.LBE99:
 188              		.loc 1 101 0
 189 0004 83B0     		sub	sp, sp, #12
 190              		.cfi_def_cfa_offset 32
 191              	.LBB100:
 192              		.loc 1 106 0
 193              	@ 106 "../../test/testqueues.c" 1
 194 0006 83F31188 		msr     BASEPRI, r3
 195              	@ 0 "" 2
 196              		.thumb
 197              	.LBE100:
 198 000a 974B     		ldr	r3, .L42
 199 000c 0120     		movs	r0, #1
 200 000e 9968     		ldr	r1, [r3, #8]
 201 0010 D1F10101 		rsbs	r1, r1, #1
 202 0014 38BF     		it	cc
 203 0016 0021     		movcc	r1, #0
 204 0018 FFF7FEFF 		bl	_test_assert
 205              	.LVL9:
 206 001c F8B9     		cbnz	r0, .L37
 207              	.LBB101:
 208              	.LBB102:
 209              	.LBB103:
 210 001e 0346     		mov	r3, r0
 211              	@ 106 "../../test/testqueues.c" 1
 212 0020 83F31188 		msr     BASEPRI, r3
 213              	@ 0 "" 2
 214              		.thumb
 215              	.LBE103:
 216              	.LBB104:
 217              		.loc 1 109 0
 218 0024 2023     		movs	r3, #32
 219              	@ 109 "../../test/testqueues.c" 1
 220 0026 83F31188 		msr     BASEPRI, r3
 221              	@ 0 "" 2
ARM GAS  /tmp/ccP0TEd1.s 			page 5


 222              	.LVL10:
 223              		.thumb
 224 002a 4124     		movs	r4, #65
 225              	.LVL11:
 226              	.L18:
 227              	.LBE104:
 228              		.loc 1 111 0
 229 002c 8E4D     		ldr	r5, .L42
 230 002e 2146     		mov	r1, r4
 231 0030 0134     		adds	r4, r4, #1
 232 0032 2846     		mov	r0, r5
 233 0034 E4B2     		uxtb	r4, r4
 234 0036 FFF7FEFF 		bl	chIQPutI
 235              	.LVL12:
 236              		.loc 1 110 0
 237 003a 452C     		cmp	r4, #69
 238 003c F6D1     		bne	.L18
 239              	.LBB105:
 240              		.loc 1 112 0
 241 003e 0023     		movs	r3, #0
 242              	@ 112 "../../test/testqueues.c" 1
 243 0040 83F31188 		msr     BASEPRI, r3
 244              	@ 0 "" 2
 245              		.thumb
 246              	.LBE105:
 247              	.LBB106:
 248              		.loc 1 113 0
 249 0044 2023     		movs	r3, #32
 250              	@ 113 "../../test/testqueues.c" 1
 251 0046 83F31188 		msr     BASEPRI, r3
 252              	@ 0 "" 2
 253              		.thumb
 254              	.LBE106:
 255 004a 6A69     		ldr	r2, [r5, #20]
 256 004c AB69     		ldr	r3, [r5, #24]
 257 004e 9A42     		cmp	r2, r3
 258 0050 3ED0     		beq	.L41
 259 0052 0021     		movs	r1, #0
 260              	.L19:
 261 0054 0220     		movs	r0, #2
 262 0056 FFF7FEFF 		bl	_test_assert
 263              	.LVL13:
 264 005a 0446     		mov	r4, r0
 265 005c 20B1     		cbz	r0, .L20
 266              	.L37:
 267              	.LBB107:
 268 005e 0023     		movs	r3, #0
 269              	@ 113 "../../test/testqueues.c" 1
 270 0060 83F31188 		msr     BASEPRI, r3
 271              	@ 0 "" 2
 272              		.thumb
 273              	.L14:
 274              	.LBE107:
 275              	.LBE102:
 276              	.LBE101:
 277              		.loc 1 158 0
 278 0064 03B0     		add	sp, sp, #12
ARM GAS  /tmp/ccP0TEd1.s 			page 6


 279              		@ sp needed
 280 0066 F0BD     		pop	{r4, r5, r6, r7, pc}
 281              	.L20:
 282              	.LBB135:
 283              	.LBB132:
 284              	.LBB108:
 285              		.loc 1 113 0
 286 0068 0346     		mov	r3, r0
 287              	@ 113 "../../test/testqueues.c" 1
 288 006a 83F31188 		msr     BASEPRI, r3
 289              	@ 0 "" 2
 290              		.thumb
 291              	.LBE108:
 292              	.LBB109:
 293              		.loc 1 114 0
 294 006e 2023     		movs	r3, #32
 295              	@ 114 "../../test/testqueues.c" 1
 296 0070 83F31188 		msr     BASEPRI, r3
 297              	@ 0 "" 2
 298              		.thumb
 299              	.LBE109:
 300 0074 7C48     		ldr	r0, .L42
 301 0076 2146     		mov	r1, r4
 302 0078 FFF7FEFF 		bl	chIQPutI
 303              	.LVL14:
 304 007c 0430     		adds	r0, r0, #4
 305 007e 14BF     		ite	ne
 306 0080 0021     		movne	r1, #0
 307 0082 0121     		moveq	r1, #1
 308 0084 0320     		movs	r0, #3
 309 0086 FFF7FEFF 		bl	_test_assert
 310              	.LVL15:
 311 008a F8B9     		cbnz	r0, .L38
 312              	.LBB110:
 313 008c 0346     		mov	r3, r0
 314              	@ 114 "../../test/testqueues.c" 1
 315 008e 83F31188 		msr     BASEPRI, r3
 316              	@ 0 "" 2
 317              	.LVL16:
 318              		.thumb
 319 0092 0424     		movs	r4, #4
 320              	.LVL17:
 321              	.L23:
 322              	.LBE110:
 323              		.loc 1 118 0
 324 0094 744D     		ldr	r5, .L42
 325 0096 4FF0FF31 		mov	r1, #-1
 326 009a 2846     		mov	r0, r5
 327 009c FFF7FEFF 		bl	chIQGetTimeout
 328              	.LVL18:
 329 00a0 C0B2     		uxtb	r0, r0
 330 00a2 FFF7FEFF 		bl	test_emit_token
 331              	.LVL19:
 332              		.loc 1 117 0
 333 00a6 013C     		subs	r4, r4, #1
 334              	.LVL20:
 335 00a8 F4D1     		bne	.L23
ARM GAS  /tmp/ccP0TEd1.s 			page 7


 336              	.LBB111:
 337              		.loc 1 119 0
 338 00aa 2023     		movs	r3, #32
 339              	@ 119 "../../test/testqueues.c" 1
 340 00ac 83F31188 		msr     BASEPRI, r3
 341              	@ 0 "" 2
 342              		.thumb
 343              	.LBE111:
 344 00b0 A968     		ldr	r1, [r5, #8]
 345 00b2 0420     		movs	r0, #4
 346 00b4 D1F10101 		rsbs	r1, r1, #1
 347 00b8 38BF     		it	cc
 348 00ba 0021     		movcc	r1, #0
 349 00bc FFF7FEFF 		bl	_test_assert
 350              	.LVL21:
 351              	.LBB112:
 352 00c0 2346     		mov	r3, r4
 353              	.LBE112:
 354 00c2 50B1     		cbz	r0, .L24
 355              	.LVL22:
 356              	.L39:
 357              	.LBB113:
 358              		.loc 1 151 0
 359              	@ 151 "../../test/testqueues.c" 1
 360 00c4 83F31188 		msr     BASEPRI, r3
 361              	@ 0 "" 2
 362              		.thumb
 363              	.LBE113:
 364              	.LBE132:
 365              	.LBE135:
 366              		.loc 1 158 0
 367 00c8 03B0     		add	sp, sp, #12
 368              		@ sp needed
 369 00ca F0BD     		pop	{r4, r5, r6, r7, pc}
 370              	.L38:
 371              	.LBB136:
 372              	.LBB133:
 373              	.LBB114:
 374              		.loc 1 151 0
 375 00cc 2346     		mov	r3, r4
 376 00ce F9E7     		b	.L39
 377              	.L41:
 378              	.LBE114:
 379              		.loc 1 113 0
 380 00d0 A968     		ldr	r1, [r5, #8]
 381 00d2 0031     		adds	r1, r1, #0
 382 00d4 18BF     		it	ne
 383 00d6 0121     		movne	r1, #1
 384 00d8 BCE7     		b	.L19
 385              	.LVL23:
 386              	.L24:
 387              	.LBB115:
 388              		.loc 1 119 0
 389              	@ 119 "../../test/testqueues.c" 1
 390 00da 83F31188 		msr     BASEPRI, r3
 391              	@ 0 "" 2
 392              		.thumb
ARM GAS  /tmp/ccP0TEd1.s 			page 8


 393              	.LBE115:
 394              		.loc 1 120 0
 395 00de 0520     		movs	r0, #5
 396 00e0 6249     		ldr	r1, .L42+4
 397 00e2 FFF7FEFF 		bl	_test_assert_sequence
 398              	.LVL24:
 399 00e6 0028     		cmp	r0, #0
 400 00e8 BCD1     		bne	.L14
 401              	.LBB116:
 402              		.loc 1 123 0
 403 00ea 2023     		movs	r3, #32
 404              	@ 123 "../../test/testqueues.c" 1
 405 00ec 83F31188 		msr     BASEPRI, r3
 406              	@ 0 "" 2
 407              	.LVL25:
 408              		.thumb
 409 00f0 4124     		movs	r4, #65
 410              	.LVL26:
 411              	.L27:
 412              	.LBE116:
 413              		.loc 1 125 0
 414 00f2 5D4D     		ldr	r5, .L42
 415 00f4 2146     		mov	r1, r4
 416 00f6 0134     		adds	r4, r4, #1
 417 00f8 2846     		mov	r0, r5
 418 00fa E4B2     		uxtb	r4, r4
 419 00fc FFF7FEFF 		bl	chIQPutI
 420              	.LVL27:
 421              		.loc 1 124 0
 422 0100 452C     		cmp	r4, #69
 423 0102 F6D1     		bne	.L27
 424              	.LBB117:
 425              		.loc 1 126 0
 426 0104 0023     		movs	r3, #0
 427              	@ 126 "../../test/testqueues.c" 1
 428 0106 83F31188 		msr     BASEPRI, r3
 429              	@ 0 "" 2
 430              		.thumb
 431              	.LBE117:
 432              		.loc 1 129 0
 433 010a 594E     		ldr	r6, .L42+8
 434 010c 0822     		movs	r2, #8
 435 010e 7168     		ldr	r1, [r6, #4]
 436 0110 2846     		mov	r0, r5
 437 0112 FFF7FEFF 		bl	chIQReadTimeout
 438              	.LVL28:
 439              		.loc 1 130 0
 440 0116 041F     		subs	r4, r0, #4
 441 0118 6142     		rsbs	r1, r4, #0
 442 011a 6141     		adcs	r1, r1, r4
 443 011c 0620     		movs	r0, #6
 444              	.LVL29:
 445 011e FFF7FEFF 		bl	_test_assert
 446              	.LVL30:
 447 0122 0446     		mov	r4, r0
 448              	.LVL31:
 449 0124 0028     		cmp	r0, #0
ARM GAS  /tmp/ccP0TEd1.s 			page 9


 450 0126 9DD1     		bne	.L14
 451              	.LBB118:
 452              		.loc 1 131 0
 453 0128 2023     		movs	r3, #32
 454              	@ 131 "../../test/testqueues.c" 1
 455 012a 83F31188 		msr     BASEPRI, r3
 456              	@ 0 "" 2
 457              		.thumb
 458              	.LBE118:
 459 012e A968     		ldr	r1, [r5, #8]
 460 0130 0720     		movs	r0, #7
 461 0132 D1F10101 		rsbs	r1, r1, #1
 462 0136 38BF     		it	cc
 463 0138 0021     		movcc	r1, #0
 464 013a FFF7FEFF 		bl	_test_assert
 465              	.LVL32:
 466 013e 0028     		cmp	r0, #0
 467 0140 C4D1     		bne	.L38
 468              	.LBB119:
 469 0142 0346     		mov	r3, r0
 470              	@ 131 "../../test/testqueues.c" 1
 471 0144 83F31188 		msr     BASEPRI, r3
 472              	@ 0 "" 2
 473              		.thumb
 474              	.LBE119:
 475              	.LBB120:
 476              		.loc 1 134 0
 477 0148 2023     		movs	r3, #32
 478              	@ 134 "../../test/testqueues.c" 1
 479 014a 83F31188 		msr     BASEPRI, r3
 480              	@ 0 "" 2
 481              	.LVL33:
 482              		.thumb
 483 014e 4124     		movs	r4, #65
 484              	.LVL34:
 485              	.L31:
 486              	.LBE120:
 487              		.loc 1 136 0
 488 0150 454D     		ldr	r5, .L42
 489 0152 2146     		mov	r1, r4
 490 0154 0134     		adds	r4, r4, #1
 491 0156 2846     		mov	r0, r5
 492 0158 E4B2     		uxtb	r4, r4
 493 015a FFF7FEFF 		bl	chIQPutI
 494              	.LVL35:
 495              		.loc 1 135 0
 496 015e 452C     		cmp	r4, #69
 497 0160 F6D1     		bne	.L31
 498              	.LBB121:
 499              		.loc 1 137 0
 500 0162 0023     		movs	r3, #0
 501              	@ 137 "../../test/testqueues.c" 1
 502 0164 83F31188 		msr     BASEPRI, r3
 503              	@ 0 "" 2
 504              		.thumb
 505              	.LBE121:
 506              		.loc 1 140 0
ARM GAS  /tmp/ccP0TEd1.s 			page 10


 507 0168 7468     		ldr	r4, [r6, #4]
 508 016a 0222     		movs	r2, #2
 509 016c 2146     		mov	r1, r4
 510 016e 2846     		mov	r0, r5
 511 0170 FFF7FEFF 		bl	chIQReadTimeout
 512              	.LVL36:
 513              		.loc 1 141 0
 514 0174 0238     		subs	r0, r0, #2
 515              	.LVL37:
 516 0176 4142     		rsbs	r1, r0, #0
 517 0178 4141     		adcs	r1, r1, r0
 518 017a 0820     		movs	r0, #8
 519              	.LVL38:
 520 017c FFF7FEFF 		bl	_test_assert
 521              	.LVL39:
 522              		.loc 1 140 0
 523 0180 3B4F     		ldr	r7, .L42+8
 524              		.loc 1 141 0
 525 0182 0028     		cmp	r0, #0
 526 0184 7FF46EAF 		bne	.L14
 527              		.loc 1 142 0
 528 0188 0346     		mov	r3, r0
 529 018a 2146     		mov	r1, r4
 530 018c 0222     		movs	r2, #2
 531 018e 2846     		mov	r0, r5
 532 0190 FFF7FEFF 		bl	chIQReadTimeout
 533              	.LVL40:
 534              		.loc 1 143 0
 535 0194 821E     		subs	r2, r0, #2
 536 0196 5142     		rsbs	r1, r2, #0
 537 0198 5141     		adcs	r1, r1, r2
 538 019a 0920     		movs	r0, #9
 539              	.LVL41:
 540 019c FFF7FEFF 		bl	_test_assert
 541              	.LVL42:
 542 01a0 0646     		mov	r6, r0
 543 01a2 0028     		cmp	r0, #0
 544 01a4 7FF45EAF 		bne	.L14
 545              	.LBB122:
 546              		.loc 1 144 0
 547 01a8 2023     		movs	r3, #32
 548              	@ 144 "../../test/testqueues.c" 1
 549 01aa 83F31188 		msr     BASEPRI, r3
 550              	@ 0 "" 2
 551              		.thumb
 552              	.LBE122:
 553 01ae A968     		ldr	r1, [r5, #8]
 554 01b0 0A20     		movs	r0, #10
 555 01b2 D1F10101 		rsbs	r1, r1, #1
 556 01b6 38BF     		it	cc
 557 01b8 0021     		movcc	r1, #0
 558 01ba FFF7FEFF 		bl	_test_assert
 559              	.LVL43:
 560 01be 0446     		mov	r4, r0
 561 01c0 18B1     		cbz	r0, .L32
 562              	.L36:
 563              	.LBB123:
ARM GAS  /tmp/ccP0TEd1.s 			page 11


 564              		.loc 1 153 0
 565 01c2 3346     		mov	r3, r6
 566              	@ 153 "../../test/testqueues.c" 1
 567 01c4 83F31188 		msr     BASEPRI, r3
 568              	@ 0 "" 2
 569              		.thumb
 570 01c8 4CE7     		b	.L14
 571              	.L32:
 572              	.LBE123:
 573              	.LBB124:
 574              		.loc 1 144 0
 575 01ca 0346     		mov	r3, r0
 576              	@ 144 "../../test/testqueues.c" 1
 577 01cc 83F31188 		msr     BASEPRI, r3
 578              	@ 0 "" 2
 579              		.thumb
 580              	.LBE124:
 581              	.LBB125:
 582              		.loc 1 147 0
 583 01d0 2023     		movs	r3, #32
 584              	@ 147 "../../test/testqueues.c" 1
 585 01d2 83F31188 		msr     BASEPRI, r3
 586              	@ 0 "" 2
 587              		.thumb
 588              	.LBE125:
 589              		.loc 1 148 0
 590 01d6 2146     		mov	r1, r4
 591 01d8 2846     		mov	r0, r5
 592 01da FFF7FEFF 		bl	chIQPutI
 593              	.LVL44:
 594              		.loc 1 149 0
 595 01de 2846     		mov	r0, r5
 596 01e0 FFF7FEFF 		bl	chIQResetI
 597              	.LVL45:
 598              	.LBB126:
 599              		.loc 1 150 0
 600 01e4 2346     		mov	r3, r4
 601              	@ 150 "../../test/testqueues.c" 1
 602 01e6 83F31188 		msr     BASEPRI, r3
 603              	@ 0 "" 2
 604              		.thumb
 605              	.LBE126:
 606              	.LBB127:
 607              		.loc 1 151 0
 608 01ea 2023     		movs	r3, #32
 609              	@ 151 "../../test/testqueues.c" 1
 610 01ec 83F31188 		msr     BASEPRI, r3
 611              	@ 0 "" 2
 612              		.thumb
 613              	.LBE127:
 614 01f0 A968     		ldr	r1, [r5, #8]
 615 01f2 0B20     		movs	r0, #11
 616 01f4 D1F10101 		rsbs	r1, r1, #1
 617 01f8 38BF     		it	cc
 618 01fa 0021     		movcc	r1, #0
 619 01fc FFF7FEFF 		bl	_test_assert
 620              	.LVL46:
ARM GAS  /tmp/ccP0TEd1.s 			page 12


 621 0200 0646     		mov	r6, r0
 622 0202 0028     		cmp	r0, #0
 623 0204 7FF462AF 		bne	.L38
 624              	.LBB128:
 625 0208 0346     		mov	r3, r0
 626              	@ 151 "../../test/testqueues.c" 1
 627 020a 83F31188 		msr     BASEPRI, r3
 628              	@ 0 "" 2
 629              		.thumb
 630              	.LBE128:
 631              		.loc 1 152 0
 632 020e 194B     		ldr	r3, .L42+12
 633 0210 3868     		ldr	r0, [r7]
 634 0212 DB69     		ldr	r3, [r3, #28]
 635 0214 4FF49871 		mov	r1, #304
 636 0218 9A68     		ldr	r2, [r3, #8]
 637 021a 174B     		ldr	r3, .L42+16
 638 021c 0132     		adds	r2, r2, #1
 639 021e 0096     		str	r6, [sp]
 640 0220 FFF7FEFF 		bl	chThdCreateStatic
 641              	.LVL47:
 642 0224 154A     		ldr	r2, .L42+20
 643              	.LBB129:
 644              		.loc 1 153 0
 645 0226 2023     		movs	r3, #32
 646              	.LBE129:
 647              		.loc 1 152 0
 648 0228 1060     		str	r0, [r2]
 649              	.LBB130:
 650              		.loc 1 153 0
 651              	@ 153 "../../test/testqueues.c" 1
 652 022a 83F31188 		msr     BASEPRI, r3
 653              	@ 0 "" 2
 654              		.thumb
 655              	.LBE130:
 656 022e A968     		ldr	r1, [r5, #8]
 657 0230 0C20     		movs	r0, #12
 658 0232 D1F10101 		rsbs	r1, r1, #1
 659 0236 38BF     		it	cc
 660 0238 0021     		movcc	r1, #0
 661 023a FFF7FEFF 		bl	_test_assert
 662              	.LVL48:
 663 023e 0346     		mov	r3, r0
 664 0240 0028     		cmp	r0, #0
 665 0242 BED1     		bne	.L36
 666              	.LBB131:
 667              	@ 153 "../../test/testqueues.c" 1
 668 0244 83F31188 		msr     BASEPRI, r3
 669              	@ 0 "" 2
 670              		.thumb
 671              	.LBE131:
 672              		.loc 1 154 0
 673 0248 FFF7FEFF 		bl	test_wait_threads
 674              	.LVL49:
 675              		.loc 1 157 0
 676 024c 2846     		mov	r0, r5
 677 024e 0A21     		movs	r1, #10
ARM GAS  /tmp/ccP0TEd1.s 			page 13


 678 0250 FFF7FEFF 		bl	chIQGetTimeout
 679              	.LVL50:
 680 0254 B0F1FF33 		subs	r3, r0, #-1
 681 0258 5942     		rsbs	r1, r3, #0
 682 025a 5941     		adcs	r1, r1, r3
 683 025c 0D20     		movs	r0, #13
 684              	.LBE133:
 685              	.LBE136:
 686              		.loc 1 158 0
 687 025e 03B0     		add	sp, sp, #12
 688              		@ sp needed
 689 0260 BDE8F040 		pop	{r4, r5, r6, r7, lr}
 690              	.LBB137:
 691              	.LBB134:
 692              		.loc 1 157 0
 693 0264 FFF7FEBF 		b	_test_assert
 694              	.LVL51:
 695              	.L43:
 696              		.align	2
 697              	.L42:
 698 0268 00000000 		.word	.LANCHOR0
 699 026c 00000000 		.word	.LC0
 700 0270 00000000 		.word	wa
 701 0274 00000000 		.word	rlist
 702 0278 00000000 		.word	thread1
 703 027c 00000000 		.word	threads
 704              	.LBE134:
 705              	.LBE137:
 706              		.cfi_endproc
 707              	.LFE10:
 708              		.size	queues1_execute, .-queues1_execute
 709              		.section	.text.queues2_execute,"ax",%progbits
 710              		.align	2
 711              		.p2align 4,,15
 712              		.thumb
 713              		.thumb_func
 714              		.type	queues2_execute, %function
 715              	queues2_execute:
 716              	.LFB13:
 717              		.loc 1 188 0
 718              		.cfi_startproc
 719              		@ args = 0, pretend = 0, frame = 0
 720              		@ frame_needed = 0, uses_anonymous_args = 0
 721 0000 2DE9F041 		push	{r4, r5, r6, r7, r8, lr}
 722              		.cfi_def_cfa_offset 24
 723              		.cfi_offset 4, -24
 724              		.cfi_offset 5, -20
 725              		.cfi_offset 6, -16
 726              		.cfi_offset 7, -12
 727              		.cfi_offset 8, -8
 728              		.cfi_offset 14, -4
 729              	.LBB171:
 730              		.loc 1 193 0
 731 0004 2023     		movs	r3, #32
 732              	.LBE171:
 733              		.loc 1 188 0
 734 0006 82B0     		sub	sp, sp, #8
ARM GAS  /tmp/ccP0TEd1.s 			page 14


 735              		.cfi_def_cfa_offset 32
 736              	.LBB172:
 737              		.loc 1 193 0
 738              	@ 193 "../../test/testqueues.c" 1
 739 0008 83F31188 		msr     BASEPRI, r3
 740              	@ 0 "" 2
 741              		.thumb
 742              	.LBE172:
 743 000c 904B     		ldr	r3, .L68
 744 000e 5969     		ldr	r1, [r3, #20]
 745 0010 9A69     		ldr	r2, [r3, #24]
 746 0012 9142     		cmp	r1, r2
 747 0014 62D0     		beq	.L66
 748 0016 0021     		movs	r1, #0
 749              	.L45:
 750              		.loc 1 193 0 is_stmt 0 discriminator 3
 751 0018 0120     		movs	r0, #1
 752 001a FFF7FEFF 		bl	_test_assert
 753              	.LVL52:
 754 001e 0028     		cmp	r0, #0
 755 0020 39D1     		bne	.L65
 756              	.LBB173:
 757              	.LBB174:
 758              	.LBB175:
 759              		.loc 1 193 0
 760 0022 0346     		mov	r3, r0
 761              	@ 193 "../../test/testqueues.c" 1
 762 0024 83F31188 		msr     BASEPRI, r3
 763              	@ 0 "" 2
 764              	.LVL53:
 765              		.thumb
 766 0028 4124     		movs	r4, #65
 767              	.LVL54:
 768              	.L49:
 769              	.LBE175:
 770              		.loc 1 197 0 is_stmt 1
 771 002a 894D     		ldr	r5, .L68
 772 002c 2146     		mov	r1, r4
 773 002e 0134     		adds	r4, r4, #1
 774 0030 2846     		mov	r0, r5
 775 0032 4FF0FF32 		mov	r2, #-1
 776 0036 E4B2     		uxtb	r4, r4
 777 0038 FFF7FEFF 		bl	chOQPutTimeout
 778              	.LVL55:
 779              		.loc 1 196 0
 780 003c 452C     		cmp	r4, #69
 781 003e F4D1     		bne	.L49
 782              	.LBB176:
 783              		.loc 1 198 0
 784 0040 2023     		movs	r3, #32
 785              	@ 198 "../../test/testqueues.c" 1
 786 0042 83F31188 		msr     BASEPRI, r3
 787              	@ 0 "" 2
 788              		.thumb
 789              	.LBE176:
 790 0046 A968     		ldr	r1, [r5, #8]
 791 0048 0220     		movs	r0, #2
ARM GAS  /tmp/ccP0TEd1.s 			page 15


 792 004a D1F10101 		rsbs	r1, r1, #1
 793 004e 38BF     		it	cc
 794 0050 0021     		movcc	r1, #0
 795 0052 FFF7FEFF 		bl	_test_assert
 796              	.LVL56:
 797 0056 F0B9     		cbnz	r0, .L65
 798              	.LBB177:
 799 0058 0346     		mov	r3, r0
 800              	@ 198 "../../test/testqueues.c" 1
 801 005a 83F31188 		msr     BASEPRI, r3
 802              	@ 0 "" 2
 803              	.LVL57:
 804              		.thumb
 805 005e 0424     		movs	r4, #4
 806              	.LVL58:
 807              	.L52:
 808              	.LBE177:
 809              	.LBB178:
 810              	.LBB179:
 811              		.loc 1 204 0
 812 0060 2023     		movs	r3, #32
 813              	@ 204 "../../test/testqueues.c" 1
 814 0062 83F31188 		msr     BASEPRI, r3
 815              	@ 0 "" 2
 816              		.thumb
 817              	.LBE179:
 818              		.loc 1 205 0
 819 0066 7A4D     		ldr	r5, .L68
 820 0068 2846     		mov	r0, r5
 821 006a FFF7FEFF 		bl	chOQGetI
 822              	.LVL59:
 823              	.LBB180:
 824              		.loc 1 206 0
 825 006e 0023     		movs	r3, #0
 826              	@ 206 "../../test/testqueues.c" 1
 827 0070 83F31188 		msr     BASEPRI, r3
 828              	@ 0 "" 2
 829              		.thumb
 830              	.LBE180:
 831              		.loc 1 207 0
 832 0074 C0B2     		uxtb	r0, r0
 833              	.LVL60:
 834 0076 FFF7FEFF 		bl	test_emit_token
 835              	.LVL61:
 836              	.LBE178:
 837              		.loc 1 201 0
 838 007a 013C     		subs	r4, r4, #1
 839              	.LVL62:
 840 007c F0D1     		bne	.L52
 841              	.LBB181:
 842              		.loc 1 209 0
 843 007e 2023     		movs	r3, #32
 844              	@ 209 "../../test/testqueues.c" 1
 845 0080 83F31188 		msr     BASEPRI, r3
 846              	@ 0 "" 2
 847              		.thumb
 848              	.LBE181:
ARM GAS  /tmp/ccP0TEd1.s 			page 16


 849 0084 6A69     		ldr	r2, [r5, #20]
 850 0086 AB69     		ldr	r3, [r5, #24]
 851 0088 9A42     		cmp	r2, r3
 852 008a 2CD0     		beq	.L67
 853 008c 2146     		mov	r1, r4
 854              	.L53:
 855 008e 0320     		movs	r0, #3
 856 0090 FFF7FEFF 		bl	_test_assert
 857              	.LVL63:
 858 0094 28B1     		cbz	r0, .L54
 859              	.LVL64:
 860              	.L65:
 861              	.LBB182:
 862 0096 0023     		movs	r3, #0
 863              	@ 209 "../../test/testqueues.c" 1
 864 0098 83F31188 		msr     BASEPRI, r3
 865              	@ 0 "" 2
 866              		.thumb
 867              	.L44:
 868              	.LBE182:
 869              	.LBE174:
 870              	.LBE173:
 871              		.loc 1 236 0
 872 009c 02B0     		add	sp, sp, #8
 873              		@ sp needed
 874 009e BDE8F081 		pop	{r4, r5, r6, r7, r8, pc}
 875              	.LVL65:
 876              	.L54:
 877              	.LBB206:
 878              	.LBB203:
 879              	.LBB183:
 880              		.loc 1 209 0
 881 00a2 0346     		mov	r3, r0
 882              	@ 209 "../../test/testqueues.c" 1
 883 00a4 83F31188 		msr     BASEPRI, r3
 884              	@ 0 "" 2
 885              		.thumb
 886              	.LBE183:
 887              		.loc 1 210 0
 888 00a8 0420     		movs	r0, #4
 889 00aa 6A49     		ldr	r1, .L68+4
 890 00ac FFF7FEFF 		bl	_test_assert_sequence
 891              	.LVL66:
 892 00b0 0446     		mov	r4, r0
 893              	.LVL67:
 894 00b2 0028     		cmp	r0, #0
 895 00b4 F2D1     		bne	.L44
 896              	.LBB184:
 897              		.loc 1 211 0
 898 00b6 2023     		movs	r3, #32
 899              	@ 211 "../../test/testqueues.c" 1
 900 00b8 83F31188 		msr     BASEPRI, r3
 901              	@ 0 "" 2
 902              		.thumb
 903              	.LBE184:
 904 00bc 644D     		ldr	r5, .L68
 905 00be 2846     		mov	r0, r5
ARM GAS  /tmp/ccP0TEd1.s 			page 17


 906 00c0 FFF7FEFF 		bl	chOQGetI
 907              	.LVL68:
 908 00c4 0330     		adds	r0, r0, #3
 909 00c6 14BF     		ite	ne
 910 00c8 0021     		movne	r1, #0
 911 00ca 0121     		moveq	r1, #1
 912 00cc 0520     		movs	r0, #5
 913 00ce FFF7FEFF 		bl	_test_assert
 914              	.LVL69:
 915 00d2 68B1     		cbz	r0, .L56
 916              	.LBB185:
 917 00d4 2346     		mov	r3, r4
 918              	@ 211 "../../test/testqueues.c" 1
 919 00d6 83F31188 		msr     BASEPRI, r3
 920              	@ 0 "" 2
 921              		.thumb
 922 00da DFE7     		b	.L44
 923              	.L66:
 924              	.LBE185:
 925              	.LBE203:
 926              	.LBE206:
 927              		.loc 1 193 0 discriminator 1
 928 00dc 9968     		ldr	r1, [r3, #8]
 929 00de 0031     		adds	r1, r1, #0
 930 00e0 18BF     		it	ne
 931 00e2 0121     		movne	r1, #1
 932 00e4 98E7     		b	.L45
 933              	.LVL70:
 934              	.L67:
 935              	.LBB207:
 936              	.LBB204:
 937              		.loc 1 209 0
 938 00e6 A968     		ldr	r1, [r5, #8]
 939 00e8 0031     		adds	r1, r1, #0
 940 00ea 18BF     		it	ne
 941 00ec 0121     		movne	r1, #1
 942 00ee CEE7     		b	.L53
 943              	.LVL71:
 944              	.L56:
 945              	.LBB186:
 946              		.loc 1 211 0
 947 00f0 0346     		mov	r3, r0
 948              	@ 211 "../../test/testqueues.c" 1
 949 00f2 83F31188 		msr     BASEPRI, r3
 950              	@ 0 "" 2
 951              		.thumb
 952              	.LBE186:
 953              		.loc 1 214 0
 954 00f6 584E     		ldr	r6, .L68+8
 955 00f8 0822     		movs	r2, #8
 956 00fa 7468     		ldr	r4, [r6, #4]
 957 00fc 2846     		mov	r0, r5
 958 00fe 2146     		mov	r1, r4
 959 0100 FFF7FEFF 		bl	chOQWriteTimeout
 960              	.LVL72:
 961              		.loc 1 215 0
 962 0104 B0F1040C 		subs	ip, r0, #4
ARM GAS  /tmp/ccP0TEd1.s 			page 18


 963 0108 DCF10001 		rsbs	r1, ip, #0
 964 010c 51EB0C01 		adcs	r1, r1, ip
 965 0110 0620     		movs	r0, #6
 966              	.LVL73:
 967 0112 FFF7FEFF 		bl	_test_assert
 968              	.LVL74:
 969 0116 0746     		mov	r7, r0
 970 0118 0028     		cmp	r0, #0
 971 011a BFD1     		bne	.L44
 972              	.LBB187:
 973              		.loc 1 216 0
 974 011c 2023     		movs	r3, #32
 975              	@ 216 "../../test/testqueues.c" 1
 976 011e 83F31188 		msr     BASEPRI, r3
 977              	@ 0 "" 2
 978              		.thumb
 979              	.LBE187:
 980 0122 A968     		ldr	r1, [r5, #8]
 981 0124 0720     		movs	r0, #7
 982 0126 D1F10101 		rsbs	r1, r1, #1
 983 012a 38BF     		it	cc
 984 012c 0021     		movcc	r1, #0
 985 012e FFF7FEFF 		bl	_test_assert
 986              	.LVL75:
 987 0132 8046     		mov	r8, r0
 988 0134 18B1     		cbz	r0, .L58
 989              	.LBB188:
 990 0136 3B46     		mov	r3, r7
 991              	@ 216 "../../test/testqueues.c" 1
 992 0138 83F31188 		msr     BASEPRI, r3
 993              	@ 0 "" 2
 994              		.thumb
 995 013c AEE7     		b	.L44
 996              	.L58:
 997              	.LBE188:
 998              	.LBB189:
 999 013e 0346     		mov	r3, r0
 1000              	@ 216 "../../test/testqueues.c" 1
 1001 0140 83F31188 		msr     BASEPRI, r3
 1002              	@ 0 "" 2
 1003              		.thumb
 1004              	.LBE189:
 1005              		.loc 1 217 0
 1006 0144 454B     		ldr	r3, .L68+12
 1007 0146 3068     		ldr	r0, [r6]
 1008 0148 DB69     		ldr	r3, [r3, #28]
 1009 014a 4FF49871 		mov	r1, #304
 1010 014e 9A68     		ldr	r2, [r3, #8]
 1011 0150 CDF80080 		str	r8, [sp]
 1012 0154 0132     		adds	r2, r2, #1
 1013 0156 424B     		ldr	r3, .L68+16
 1014 0158 FFF7FEFF 		bl	chThdCreateStatic
 1015              	.LVL76:
 1016 015c 414A     		ldr	r2, .L68+20
 1017              	.LBB190:
 1018              		.loc 1 218 0
 1019 015e 2023     		movs	r3, #32
ARM GAS  /tmp/ccP0TEd1.s 			page 19


 1020              	.LBE190:
 1021              		.loc 1 217 0
 1022 0160 1060     		str	r0, [r2]
 1023              	.LBB191:
 1024              		.loc 1 218 0
 1025              	@ 218 "../../test/testqueues.c" 1
 1026 0162 83F31188 		msr     BASEPRI, r3
 1027              	@ 0 "" 2
 1028              		.thumb
 1029              	.LBE191:
 1030 0166 2969     		ldr	r1, [r5, #16]
 1031 0168 EA68     		ldr	r2, [r5, #12]
 1032 016a AB68     		ldr	r3, [r5, #8]
 1033 016c 8A1A     		subs	r2, r1, r2
 1034 016e D11A     		subs	r1, r2, r3
 1035 0170 B1F1040E 		subs	lr, r1, #4
 1036 0174 DEF10001 		rsbs	r1, lr, #0
 1037 0178 51EB0E01 		adcs	r1, r1, lr
 1038 017c 0820     		movs	r0, #8
 1039 017e FFF7FEFF 		bl	_test_assert
 1040              	.LVL77:
 1041 0182 0646     		mov	r6, r0
 1042 0184 18B1     		cbz	r0, .L59
 1043              	.LBB192:
 1044 0186 4346     		mov	r3, r8
 1045              	@ 218 "../../test/testqueues.c" 1
 1046 0188 83F31188 		msr     BASEPRI, r3
 1047              	@ 0 "" 2
 1048              		.thumb
 1049 018c 86E7     		b	.L44
 1050              	.L59:
 1051              	.LBE192:
 1052              	.LBB193:
 1053 018e 0346     		mov	r3, r0
 1054              	@ 218 "../../test/testqueues.c" 1
 1055 0190 83F31188 		msr     BASEPRI, r3
 1056              	@ 0 "" 2
 1057              		.thumb
 1058              	.LBE193:
 1059              		.loc 1 219 0
 1060 0194 FFF7FEFF 		bl	test_wait_threads
 1061              	.LVL78:
 1062              	.LBB194:
 1063              		.loc 1 222 0
 1064 0198 2023     		movs	r3, #32
 1065              	@ 222 "../../test/testqueues.c" 1
 1066 019a 83F31188 		msr     BASEPRI, r3
 1067              	@ 0 "" 2
 1068              		.thumb
 1069              	.LBE194:
 1070              		.loc 1 223 0
 1071 019e 2846     		mov	r0, r5
 1072 01a0 FFF7FEFF 		bl	chOQResetI
 1073              	.LVL79:
 1074              	.LBB195:
 1075              		.loc 1 224 0
 1076 01a4 3346     		mov	r3, r6
ARM GAS  /tmp/ccP0TEd1.s 			page 20


 1077              	@ 224 "../../test/testqueues.c" 1
 1078 01a6 83F31188 		msr     BASEPRI, r3
 1079              	@ 0 "" 2
 1080              		.thumb
 1081              	.LBE195:
 1082              	.LBB196:
 1083              		.loc 1 225 0
 1084 01aa 2023     		movs	r3, #32
 1085              	@ 225 "../../test/testqueues.c" 1
 1086 01ac 83F31188 		msr     BASEPRI, r3
 1087              	@ 0 "" 2
 1088              		.thumb
 1089              	.LBE196:
 1090 01b0 2969     		ldr	r1, [r5, #16]
 1091 01b2 EA68     		ldr	r2, [r5, #12]
 1092 01b4 AB68     		ldr	r3, [r5, #8]
 1093 01b6 891A     		subs	r1, r1, r2
 1094 01b8 CF1A     		subs	r7, r1, r3
 1095 01ba 7942     		rsbs	r1, r7, #0
 1096 01bc 7941     		adcs	r1, r1, r7
 1097 01be 0920     		movs	r0, #9
 1098 01c0 FFF7FEFF 		bl	_test_assert
 1099              	.LVL80:
 1100 01c4 0346     		mov	r3, r0
 1101 01c6 18B1     		cbz	r0, .L60
 1102              	.LBB197:
 1103 01c8 3346     		mov	r3, r6
 1104              	@ 225 "../../test/testqueues.c" 1
 1105 01ca 83F31188 		msr     BASEPRI, r3
 1106              	@ 0 "" 2
 1107              		.thumb
 1108 01ce 65E7     		b	.L44
 1109              	.L60:
 1110              	.LBE197:
 1111              	.LBB198:
 1112              	@ 225 "../../test/testqueues.c" 1
 1113 01d0 83F31188 		msr     BASEPRI, r3
 1114              	@ 0 "" 2
 1115              		.thumb
 1116              	.LBE198:
 1117              		.loc 1 228 0
 1118 01d4 0222     		movs	r2, #2
 1119 01d6 2146     		mov	r1, r4
 1120 01d8 2846     		mov	r0, r5
 1121 01da FFF7FEFF 		bl	chOQWriteTimeout
 1122              	.LVL81:
 1123              		.loc 1 229 0
 1124 01de 0238     		subs	r0, r0, #2
 1125              	.LVL82:
 1126 01e0 4142     		rsbs	r1, r0, #0
 1127 01e2 4141     		adcs	r1, r1, r0
 1128 01e4 0A20     		movs	r0, #10
 1129              	.LVL83:
 1130 01e6 FFF7FEFF 		bl	_test_assert
 1131              	.LVL84:
 1132 01ea 0346     		mov	r3, r0
 1133 01ec 0028     		cmp	r0, #0
ARM GAS  /tmp/ccP0TEd1.s 			page 21


 1134 01ee 7FF455AF 		bne	.L44
 1135              		.loc 1 230 0
 1136 01f2 2146     		mov	r1, r4
 1137 01f4 0222     		movs	r2, #2
 1138 01f6 2846     		mov	r0, r5
 1139 01f8 FFF7FEFF 		bl	chOQWriteTimeout
 1140              	.LVL85:
 1141              		.loc 1 231 0
 1142 01fc 821E     		subs	r2, r0, #2
 1143 01fe 5142     		rsbs	r1, r2, #0
 1144 0200 5141     		adcs	r1, r1, r2
 1145 0202 0B20     		movs	r0, #11
 1146              	.LVL86:
 1147 0204 FFF7FEFF 		bl	_test_assert
 1148              	.LVL87:
 1149 0208 0028     		cmp	r0, #0
 1150 020a 7FF447AF 		bne	.L44
 1151              	.LBB199:
 1152              		.loc 1 232 0
 1153 020e 2023     		movs	r3, #32
 1154              	@ 232 "../../test/testqueues.c" 1
 1155 0210 83F31188 		msr     BASEPRI, r3
 1156              	@ 0 "" 2
 1157              		.thumb
 1158              	.LBE199:
 1159 0214 A968     		ldr	r1, [r5, #8]
 1160 0216 0C20     		movs	r0, #12
 1161 0218 D1F10101 		rsbs	r1, r1, #1
 1162 021c 38BF     		it	cc
 1163 021e 0021     		movcc	r1, #0
 1164 0220 FFF7FEFF 		bl	_test_assert
 1165              	.LVL88:
 1166              	.LBB200:
 1167 0224 0023     		movs	r3, #0
 1168              	.LBE200:
 1169 0226 10B1     		cbz	r0, .L61
 1170              	.LBB201:
 1171              	@ 232 "../../test/testqueues.c" 1
 1172 0228 83F31188 		msr     BASEPRI, r3
 1173              	@ 0 "" 2
 1174              		.thumb
 1175 022c 36E7     		b	.L44
 1176              	.L61:
 1177              	.LBE201:
 1178              	.LBB202:
 1179              	@ 232 "../../test/testqueues.c" 1
 1180 022e 83F31188 		msr     BASEPRI, r3
 1181              	@ 0 "" 2
 1182              		.thumb
 1183              	.LBE202:
 1184              		.loc 1 235 0
 1185 0232 0A22     		movs	r2, #10
 1186 0234 1946     		mov	r1, r3
 1187 0236 0648     		ldr	r0, .L68
 1188 0238 FFF7FEFF 		bl	chOQPutTimeout
 1189              	.LVL89:
 1190 023c B0F1FF33 		subs	r3, r0, #-1
ARM GAS  /tmp/ccP0TEd1.s 			page 22


 1191 0240 5942     		rsbs	r1, r3, #0
 1192 0242 5941     		adcs	r1, r1, r3
 1193 0244 0D20     		movs	r0, #13
 1194              	.LBE204:
 1195              	.LBE207:
 1196              		.loc 1 236 0
 1197 0246 02B0     		add	sp, sp, #8
 1198              		@ sp needed
 1199 0248 BDE8F041 		pop	{r4, r5, r6, r7, r8, lr}
 1200              	.LBB208:
 1201              	.LBB205:
 1202              		.loc 1 235 0
 1203 024c FFF7FEBF 		b	_test_assert
 1204              	.LVL90:
 1205              	.L69:
 1206              		.align	2
 1207              	.L68:
 1208 0250 00000000 		.word	.LANCHOR1
 1209 0254 00000000 		.word	.LC0
 1210 0258 00000000 		.word	wa
 1211 025c 00000000 		.word	rlist
 1212 0260 00000000 		.word	thread2
 1213 0264 00000000 		.word	threads
 1214              	.LBE205:
 1215              	.LBE208:
 1216              		.cfi_endproc
 1217              	.LFE13:
 1218              		.size	queues2_execute, .-queues2_execute
 1219              		.global	patternqueues
 1220              		.global	testqueues2
 1221              		.global	testqueues1
 1222 0268 AFF30080 		.section	.rodata.testqueues1,"a",%progbits
 1222      AFF30080 
 1223              		.align	2
 1224              		.type	testqueues1, %object
 1225              		.size	testqueues1, 16
 1226              	testqueues1:
 1227 0000 20000000 		.word	.LC2
 1228 0004 00000000 		.word	queues1_setup
 1229 0008 00000000 		.word	0
 1230 000c 00000000 		.word	queues1_execute
 1231              		.section	.rodata.testqueues2,"a",%progbits
 1232              		.align	2
 1233              		.type	testqueues2, %object
 1234              		.size	testqueues2, 16
 1235              	testqueues2:
 1236 0000 08000000 		.word	.LC1
 1237 0004 00000000 		.word	queues2_setup
 1238 0008 00000000 		.word	0
 1239 000c 00000000 		.word	queues2_execute
 1240              		.section	.rodata.str1.4,"aMS",%progbits,1
 1241              		.align	2
 1242              	.LC0:
 1243 0000 41424344 		.ascii	"ABCD\000"
 1243      00
 1244 0005 000000   		.space	3
 1245              	.LC1:
ARM GAS  /tmp/ccP0TEd1.s 			page 23


 1246 0008 51756575 		.ascii	"Queues, output queues\000"
 1246      65732C20 
 1246      6F757470 
 1246      75742071 
 1246      75657565 
 1247 001e 0000     		.space	2
 1248              	.LC2:
 1249 0020 51756575 		.ascii	"Queues, input queues\000"
 1249      65732C20 
 1249      696E7075 
 1249      74207175 
 1249      65756573 
 1250 0035 000000   		.section	.rodata.patternqueues,"a",%progbits
 1251              		.align	2
 1252              		.type	patternqueues, %object
 1253              		.size	patternqueues, 12
 1254              	patternqueues:
 1255 0000 00000000 		.word	testqueues1
 1256 0004 00000000 		.word	testqueues2
 1257 0008 00000000 		.word	0
 1258              		.section	.data.oq,"aw",%progbits
 1259              		.align	2
 1260              		.set	.LANCHOR1,. + 0
 1261              		.type	oq, %object
 1262              		.size	oq, 32
 1263              	oq:
 1264 0000 00000000 		.word	oq
 1265 0004 00000000 		.word	oq
 1266 0008 04000000 		.word	4
 1267 000c 30010000 		.word	test+304
 1268 0010 34010000 		.word	test+308
 1269 0014 30010000 		.word	test+304
 1270 0018 30010000 		.word	test+304
 1271 001c 00000000 		.word	notify
 1272              		.section	.data.iq,"aw",%progbits
 1273              		.align	2
 1274              		.set	.LANCHOR0,. + 0
 1275              		.type	iq, %object
 1276              		.size	iq, 32
 1277              	iq:
 1278 0000 00000000 		.word	iq
 1279 0004 00000000 		.word	iq
 1280 0008 00000000 		.word	0
 1281 000c 00000000 		.word	test
 1282 0010 04000000 		.word	test+4
 1283 0014 00000000 		.word	test
 1284 0018 00000000 		.word	test
 1285 001c 00000000 		.word	notify
 1286              		.text
 1287              	.Letext0:
 1288              		.file 2 "/usr/local/gcc-arm-none-eabi-4_8-2014q2/lib/gcc/arm-none-eabi/4.8.4/include/stddef.h"
 1289              		.file 3 "/usr/local/gcc-arm-none-eabi-4_8-2014q2/arm-none-eabi/include/machine/_default_types.h"
 1290              		.file 4 "/usr/local/gcc-arm-none-eabi-4_8-2014q2/arm-none-eabi/include/stdint.h"
 1291              		.file 5 "../../os/ports/GCC/ARMCMx/chtypes.h"
 1292              		.file 6 "../../os/kernel/include/chlists.h"
 1293              		.file 7 "../../os/kernel/include/chthreads.h"
 1294              		.file 8 "../../os/ports/GCC/ARMCMx/chcore_v7m.h"
ARM GAS  /tmp/ccP0TEd1.s 			page 24


 1295              		.file 9 "../../os/kernel/include/chschd.h"
 1296              		.file 10 "../../os/kernel/include/chmtx.h"
 1297              		.file 11 "../../os/kernel/include/chqueues.h"
 1298              		.file 12 "../../test/test.h"
 1299              		.section	.debug_info,"",%progbits
 1300              	.Ldebug_info0:
 1301 0000 D2160000 		.4byte	0x16d2
 1302 0004 0400     		.2byte	0x4
 1303 0006 00000000 		.4byte	.Ldebug_abbrev0
 1304 000a 04       		.byte	0x4
 1305 000b 01       		.uleb128 0x1
 1306 000c FD010000 		.4byte	.LASF114
 1307 0010 01       		.byte	0x1
 1308 0011 58040000 		.4byte	.LASF115
 1309 0015 5F010000 		.4byte	.LASF116
 1310 0019 E0000000 		.4byte	.Ldebug_ranges0+0xe0
 1311 001d 00000000 		.4byte	0
 1312 0021 00000000 		.4byte	.Ldebug_line0
 1313 0025 02       		.uleb128 0x2
 1314 0026 04       		.byte	0x4
 1315 0027 05       		.byte	0x5
 1316 0028 696E7400 		.ascii	"int\000"
 1317 002c 03       		.uleb128 0x3
 1318 002d 1D000000 		.4byte	.LASF2
 1319 0031 02       		.byte	0x2
 1320 0032 D4       		.byte	0xd4
 1321 0033 37000000 		.4byte	0x37
 1322 0037 04       		.uleb128 0x4
 1323 0038 04       		.byte	0x4
 1324 0039 07       		.byte	0x7
 1325 003a 9A010000 		.4byte	.LASF0
 1326 003e 04       		.uleb128 0x4
 1327 003f 01       		.byte	0x1
 1328 0040 06       		.byte	0x6
 1329 0041 DD000000 		.4byte	.LASF1
 1330 0045 03       		.uleb128 0x3
 1331 0046 49000000 		.4byte	.LASF3
 1332 004a 03       		.byte	0x3
 1333 004b 1C       		.byte	0x1c
 1334 004c 50000000 		.4byte	0x50
 1335 0050 04       		.uleb128 0x4
 1336 0051 01       		.byte	0x1
 1337 0052 08       		.byte	0x8
 1338 0053 4A040000 		.4byte	.LASF4
 1339 0057 04       		.uleb128 0x4
 1340 0058 02       		.byte	0x2
 1341 0059 05       		.byte	0x5
 1342 005a 7A040000 		.4byte	.LASF5
 1343 005e 04       		.uleb128 0x4
 1344 005f 02       		.byte	0x2
 1345 0060 07       		.byte	0x7
 1346 0061 DA010000 		.4byte	.LASF6
 1347 0065 03       		.uleb128 0x3
 1348 0066 0B050000 		.4byte	.LASF7
 1349 006a 03       		.byte	0x3
 1350 006b 37       		.byte	0x37
 1351 006c 70000000 		.4byte	0x70
ARM GAS  /tmp/ccP0TEd1.s 			page 25


 1352 0070 04       		.uleb128 0x4
 1353 0071 04       		.byte	0x4
 1354 0072 05       		.byte	0x5
 1355 0073 10010000 		.4byte	.LASF8
 1356 0077 03       		.uleb128 0x3
 1357 0078 4B010000 		.4byte	.LASF9
 1358 007c 03       		.byte	0x3
 1359 007d 38       		.byte	0x38
 1360 007e 82000000 		.4byte	0x82
 1361 0082 04       		.uleb128 0x4
 1362 0083 04       		.byte	0x4
 1363 0084 07       		.byte	0x7
 1364 0085 B2010000 		.4byte	.LASF10
 1365 0089 04       		.uleb128 0x4
 1366 008a 08       		.byte	0x8
 1367 008b 05       		.byte	0x5
 1368 008c CF000000 		.4byte	.LASF11
 1369 0090 03       		.uleb128 0x3
 1370 0091 F8030000 		.4byte	.LASF12
 1371 0095 03       		.byte	0x3
 1372 0096 4E       		.byte	0x4e
 1373 0097 9B000000 		.4byte	0x9b
 1374 009b 04       		.uleb128 0x4
 1375 009c 08       		.byte	0x8
 1376 009d 07       		.byte	0x7
 1377 009e 71000000 		.4byte	.LASF13
 1378 00a2 03       		.uleb128 0x3
 1379 00a3 5F050000 		.4byte	.LASF14
 1380 00a7 04       		.byte	0x4
 1381 00a8 2A       		.byte	0x2a
 1382 00a9 45000000 		.4byte	0x45
 1383 00ad 03       		.uleb128 0x3
 1384 00ae 42040000 		.4byte	.LASF15
 1385 00b2 04       		.byte	0x4
 1386 00b3 41       		.byte	0x41
 1387 00b4 65000000 		.4byte	0x65
 1388 00b8 03       		.uleb128 0x3
 1389 00b9 CC040000 		.4byte	.LASF16
 1390 00bd 04       		.byte	0x4
 1391 00be 42       		.byte	0x42
 1392 00bf 77000000 		.4byte	0x77
 1393 00c3 03       		.uleb128 0x3
 1394 00c4 34000000 		.4byte	.LASF17
 1395 00c8 04       		.byte	0x4
 1396 00c9 4E       		.byte	0x4e
 1397 00ca 90000000 		.4byte	0x90
 1398 00ce 03       		.uleb128 0x3
 1399 00cf F1000000 		.4byte	.LASF18
 1400 00d3 05       		.byte	0x5
 1401 00d4 2E       		.byte	0x2e
 1402 00d5 AD000000 		.4byte	0xad
 1403 00d9 03       		.uleb128 0x3
 1404 00da F0020000 		.4byte	.LASF19
 1405 00de 05       		.byte	0x5
 1406 00df 2F       		.byte	0x2f
 1407 00e0 A2000000 		.4byte	0xa2
 1408 00e4 03       		.uleb128 0x3
ARM GAS  /tmp/ccP0TEd1.s 			page 26


 1409 00e5 19010000 		.4byte	.LASF20
 1410 00e9 05       		.byte	0x5
 1411 00ea 30       		.byte	0x30
 1412 00eb A2000000 		.4byte	0xa2
 1413 00ef 03       		.uleb128 0x3
 1414 00f0 11040000 		.4byte	.LASF21
 1415 00f4 05       		.byte	0x5
 1416 00f5 31       		.byte	0x31
 1417 00f6 A2000000 		.4byte	0xa2
 1418 00fa 03       		.uleb128 0x3
 1419 00fb 32040000 		.4byte	.LASF22
 1420 00ff 05       		.byte	0x5
 1421 0100 32       		.byte	0x32
 1422 0101 B8000000 		.4byte	0xb8
 1423 0105 03       		.uleb128 0x3
 1424 0106 E2020000 		.4byte	.LASF23
 1425 010a 05       		.byte	0x5
 1426 010b 33       		.byte	0x33
 1427 010c AD000000 		.4byte	0xad
 1428 0110 03       		.uleb128 0x3
 1429 0111 04030000 		.4byte	.LASF24
 1430 0115 05       		.byte	0x5
 1431 0116 35       		.byte	0x35
 1432 0117 B8000000 		.4byte	0xb8
 1433 011b 03       		.uleb128 0x3
 1434 011c F6040000 		.4byte	.LASF25
 1435 0120 05       		.byte	0x5
 1436 0121 36       		.byte	0x36
 1437 0122 B8000000 		.4byte	0xb8
 1438 0126 03       		.uleb128 0x3
 1439 0127 94010000 		.4byte	.LASF26
 1440 012b 05       		.byte	0x5
 1441 012c 37       		.byte	0x37
 1442 012d AD000000 		.4byte	0xad
 1443 0131 03       		.uleb128 0x3
 1444 0132 B1040000 		.4byte	.LASF27
 1445 0136 06       		.byte	0x6
 1446 0137 2A       		.byte	0x2a
 1447 0138 3C010000 		.4byte	0x13c
 1448 013c 05       		.uleb128 0x5
 1449 013d B1040000 		.4byte	.LASF27
 1450 0141 48       		.byte	0x48
 1451 0142 07       		.byte	0x7
 1452 0143 5E       		.byte	0x5e
 1453 0144 2D020000 		.4byte	0x22d
 1454 0148 06       		.uleb128 0x6
 1455 0149 A2040000 		.4byte	.LASF28
 1456 014d 07       		.byte	0x7
 1457 014e 5F       		.byte	0x5f
 1458 014f 4E020000 		.4byte	0x24e
 1459 0153 00       		.byte	0
 1460 0154 06       		.uleb128 0x6
 1461 0155 23040000 		.4byte	.LASF29
 1462 0159 07       		.byte	0x7
 1463 015a 61       		.byte	0x61
 1464 015b 4E020000 		.4byte	0x24e
 1465 015f 04       		.byte	0x4
ARM GAS  /tmp/ccP0TEd1.s 			page 27


 1466 0160 06       		.uleb128 0x6
 1467 0161 BE000000 		.4byte	.LASF30
 1468 0165 07       		.byte	0x7
 1469 0166 63       		.byte	0x63
 1470 0167 FA000000 		.4byte	0xfa
 1471 016b 08       		.byte	0x8
 1472 016c 06       		.uleb128 0x6
 1473 016d 94050000 		.4byte	.LASF31
 1474 0171 07       		.byte	0x7
 1475 0172 64       		.byte	0x64
 1476 0173 12030000 		.4byte	0x312
 1477 0177 0C       		.byte	0xc
 1478 0178 06       		.uleb128 0x6
 1479 0179 43010000 		.4byte	.LASF32
 1480 017d 07       		.byte	0x7
 1481 017e 66       		.byte	0x66
 1482 017f 4E020000 		.4byte	0x24e
 1483 0183 10       		.byte	0x10
 1484 0184 06       		.uleb128 0x6
 1485 0185 9F030000 		.4byte	.LASF33
 1486 0189 07       		.byte	0x7
 1487 018a 67       		.byte	0x67
 1488 018b 4E020000 		.4byte	0x24e
 1489 018f 14       		.byte	0x14
 1490 0190 06       		.uleb128 0x6
 1491 0191 6E050000 		.4byte	.LASF34
 1492 0195 07       		.byte	0x7
 1493 0196 6E       		.byte	0x6e
 1494 0197 1E040000 		.4byte	0x41e
 1495 019b 18       		.byte	0x18
 1496 019c 06       		.uleb128 0x6
 1497 019d 84040000 		.4byte	.LASF35
 1498 01a1 07       		.byte	0x7
 1499 01a2 79       		.byte	0x79
 1500 01a3 E4000000 		.4byte	0xe4
 1501 01a7 1C       		.byte	0x1c
 1502 01a8 06       		.uleb128 0x6
 1503 01a9 A9040000 		.4byte	.LASF36
 1504 01ad 07       		.byte	0x7
 1505 01ae 7D       		.byte	0x7d
 1506 01af D9000000 		.4byte	0xd9
 1507 01b3 1D       		.byte	0x1d
 1508 01b4 06       		.uleb128 0x6
 1509 01b5 3F050000 		.4byte	.LASF37
 1510 01b9 07       		.byte	0x7
 1511 01ba 82       		.byte	0x82
 1512 01bb EF000000 		.4byte	0xef
 1513 01bf 1E       		.byte	0x1e
 1514 01c0 06       		.uleb128 0x6
 1515 01c1 20050000 		.4byte	.LASF38
 1516 01c5 07       		.byte	0x7
 1517 01c6 89       		.byte	0x89
 1518 01c7 3A030000 		.4byte	0x33a
 1519 01cb 20       		.byte	0x20
 1520 01cc 07       		.uleb128 0x7
 1521 01cd 705F7500 		.ascii	"p_u\000"
 1522 01d1 07       		.byte	0x7
ARM GAS  /tmp/ccP0TEd1.s 			page 28


 1523 01d2 AE       		.byte	0xae
 1524 01d3 E9030000 		.4byte	0x3e9
 1525 01d7 24       		.byte	0x24
 1526 01d8 06       		.uleb128 0x6
 1527 01d9 9A050000 		.4byte	.LASF39
 1528 01dd 07       		.byte	0x7
 1529 01de B3       		.byte	0xb3
 1530 01df 74020000 		.4byte	0x274
 1531 01e3 28       		.byte	0x28
 1532 01e4 06       		.uleb128 0x6
 1533 01e5 2E050000 		.4byte	.LASF40
 1534 01e9 07       		.byte	0x7
 1535 01ea B9       		.byte	0xb9
 1536 01eb 54020000 		.4byte	0x254
 1537 01ef 2C       		.byte	0x2c
 1538 01f0 06       		.uleb128 0x6
 1539 01f1 17000000 		.4byte	.LASF41
 1540 01f5 07       		.byte	0x7
 1541 01f6 BD       		.byte	0xbd
 1542 01f7 05010000 		.4byte	0x105
 1543 01fb 34       		.byte	0x34
 1544 01fc 06       		.uleb128 0x6
 1545 01fd C1040000 		.4byte	.LASF42
 1546 0201 07       		.byte	0x7
 1547 0202 C3       		.byte	0xc3
 1548 0203 10010000 		.4byte	0x110
 1549 0207 38       		.byte	0x38
 1550 0208 06       		.uleb128 0x6
 1551 0209 70040000 		.4byte	.LASF43
 1552 020d 07       		.byte	0x7
 1553 020e CA       		.byte	0xca
 1554 020f 30040000 		.4byte	0x430
 1555 0213 3C       		.byte	0x3c
 1556 0214 06       		.uleb128 0x6
 1557 0215 00050000 		.4byte	.LASF44
 1558 0219 07       		.byte	0x7
 1559 021a CE       		.byte	0xce
 1560 021b FA000000 		.4byte	0xfa
 1561 021f 40       		.byte	0x40
 1562 0220 06       		.uleb128 0x6
 1563 0221 E9000000 		.4byte	.LASF45
 1564 0225 07       		.byte	0x7
 1565 0226 D4       		.byte	0xd4
 1566 0227 8A020000 		.4byte	0x28a
 1567 022b 44       		.byte	0x44
 1568 022c 00       		.byte	0
 1569 022d 08       		.uleb128 0x8
 1570 022e 08       		.byte	0x8
 1571 022f 06       		.byte	0x6
 1572 0230 61       		.byte	0x61
 1573 0231 4E020000 		.4byte	0x24e
 1574 0235 06       		.uleb128 0x6
 1575 0236 A2040000 		.4byte	.LASF28
 1576 023a 06       		.byte	0x6
 1577 023b 62       		.byte	0x62
 1578 023c 4E020000 		.4byte	0x24e
 1579 0240 00       		.byte	0
ARM GAS  /tmp/ccP0TEd1.s 			page 29


 1580 0241 06       		.uleb128 0x6
 1581 0242 23040000 		.4byte	.LASF29
 1582 0246 06       		.byte	0x6
 1583 0247 64       		.byte	0x64
 1584 0248 4E020000 		.4byte	0x24e
 1585 024c 04       		.byte	0x4
 1586 024d 00       		.byte	0
 1587 024e 09       		.uleb128 0x9
 1588 024f 04       		.byte	0x4
 1589 0250 31010000 		.4byte	0x131
 1590 0254 03       		.uleb128 0x3
 1591 0255 BD030000 		.4byte	.LASF46
 1592 0259 06       		.byte	0x6
 1593 025a 66       		.byte	0x66
 1594 025b 2D020000 		.4byte	0x22d
 1595 025f 08       		.uleb128 0x8
 1596 0260 04       		.byte	0x4
 1597 0261 06       		.byte	0x6
 1598 0262 6B       		.byte	0x6b
 1599 0263 74020000 		.4byte	0x274
 1600 0267 06       		.uleb128 0x6
 1601 0268 A2040000 		.4byte	.LASF28
 1602 026c 06       		.byte	0x6
 1603 026d 6D       		.byte	0x6d
 1604 026e 4E020000 		.4byte	0x24e
 1605 0272 00       		.byte	0
 1606 0273 00       		.byte	0
 1607 0274 03       		.uleb128 0x3
 1608 0275 F8020000 		.4byte	.LASF47
 1609 0279 06       		.byte	0x6
 1610 027a 70       		.byte	0x70
 1611 027b 5F020000 		.4byte	0x25f
 1612 027f 03       		.uleb128 0x3
 1613 0280 56010000 		.4byte	.LASF48
 1614 0284 08       		.byte	0x8
 1615 0285 D7       		.byte	0xd7
 1616 0286 8A020000 		.4byte	0x28a
 1617 028a 0A       		.uleb128 0xa
 1618 028b 04       		.byte	0x4
 1619 028c 03       		.uleb128 0x3
 1620 028d 2E030000 		.4byte	.LASF49
 1621 0291 08       		.byte	0x8
 1622 0292 DD       		.byte	0xdd
 1623 0293 C3000000 		.4byte	0xc3
 1624 0297 05       		.uleb128 0x5
 1625 0298 27050000 		.4byte	.LASF50
 1626 029c 24       		.byte	0x24
 1627 029d 08       		.byte	0x8
 1628 029e FE       		.byte	0xfe
 1629 029f 12030000 		.4byte	0x312
 1630 02a3 0B       		.uleb128 0xb
 1631 02a4 723400   		.ascii	"r4\000"
 1632 02a7 08       		.byte	0x8
 1633 02a8 1101     		.2byte	0x111
 1634 02aa 7F020000 		.4byte	0x27f
 1635 02ae 00       		.byte	0
 1636 02af 0B       		.uleb128 0xb
ARM GAS  /tmp/ccP0TEd1.s 			page 30


 1637 02b0 723500   		.ascii	"r5\000"
 1638 02b3 08       		.byte	0x8
 1639 02b4 1201     		.2byte	0x112
 1640 02b6 7F020000 		.4byte	0x27f
 1641 02ba 04       		.byte	0x4
 1642 02bb 0B       		.uleb128 0xb
 1643 02bc 723600   		.ascii	"r6\000"
 1644 02bf 08       		.byte	0x8
 1645 02c0 1301     		.2byte	0x113
 1646 02c2 7F020000 		.4byte	0x27f
 1647 02c6 08       		.byte	0x8
 1648 02c7 0B       		.uleb128 0xb
 1649 02c8 723700   		.ascii	"r7\000"
 1650 02cb 08       		.byte	0x8
 1651 02cc 1401     		.2byte	0x114
 1652 02ce 7F020000 		.4byte	0x27f
 1653 02d2 0C       		.byte	0xc
 1654 02d3 0B       		.uleb128 0xb
 1655 02d4 723800   		.ascii	"r8\000"
 1656 02d7 08       		.byte	0x8
 1657 02d8 1501     		.2byte	0x115
 1658 02da 7F020000 		.4byte	0x27f
 1659 02de 10       		.byte	0x10
 1660 02df 0B       		.uleb128 0xb
 1661 02e0 723900   		.ascii	"r9\000"
 1662 02e3 08       		.byte	0x8
 1663 02e4 1601     		.2byte	0x116
 1664 02e6 7F020000 		.4byte	0x27f
 1665 02ea 14       		.byte	0x14
 1666 02eb 0B       		.uleb128 0xb
 1667 02ec 72313000 		.ascii	"r10\000"
 1668 02f0 08       		.byte	0x8
 1669 02f1 1701     		.2byte	0x117
 1670 02f3 7F020000 		.4byte	0x27f
 1671 02f7 18       		.byte	0x18
 1672 02f8 0B       		.uleb128 0xb
 1673 02f9 72313100 		.ascii	"r11\000"
 1674 02fd 08       		.byte	0x8
 1675 02fe 1801     		.2byte	0x118
 1676 0300 7F020000 		.4byte	0x27f
 1677 0304 1C       		.byte	0x1c
 1678 0305 0B       		.uleb128 0xb
 1679 0306 6C7200   		.ascii	"lr\000"
 1680 0309 08       		.byte	0x8
 1681 030a 1901     		.2byte	0x119
 1682 030c 7F020000 		.4byte	0x27f
 1683 0310 20       		.byte	0x20
 1684 0311 00       		.byte	0
 1685 0312 0C       		.uleb128 0xc
 1686 0313 D2010000 		.4byte	.LASF51
 1687 0317 04       		.byte	0x4
 1688 0318 08       		.byte	0x8
 1689 0319 2301     		.2byte	0x123
 1690 031b 2D030000 		.4byte	0x32d
 1691 031f 0B       		.uleb128 0xb
 1692 0320 72313300 		.ascii	"r13\000"
 1693 0324 08       		.byte	0x8
ARM GAS  /tmp/ccP0TEd1.s 			page 31


 1694 0325 2401     		.2byte	0x124
 1695 0327 2D030000 		.4byte	0x32d
 1696 032b 00       		.byte	0
 1697 032c 00       		.byte	0
 1698 032d 09       		.uleb128 0x9
 1699 032e 04       		.byte	0x4
 1700 032f 97020000 		.4byte	0x297
 1701 0333 04       		.uleb128 0x4
 1702 0334 04       		.byte	0x4
 1703 0335 07       		.byte	0x7
 1704 0336 62030000 		.4byte	.LASF52
 1705 033a 0D       		.uleb128 0xd
 1706 033b 1B010000 		.4byte	0x11b
 1707 033f 08       		.uleb128 0x8
 1708 0340 20       		.byte	0x20
 1709 0341 09       		.byte	0x9
 1710 0342 5E       		.byte	0x5e
 1711 0343 9C030000 		.4byte	0x39c
 1712 0347 06       		.uleb128 0x6
 1713 0348 D5040000 		.4byte	.LASF53
 1714 034c 09       		.byte	0x9
 1715 034d 5F       		.byte	0x5f
 1716 034e 54020000 		.4byte	0x254
 1717 0352 00       		.byte	0
 1718 0353 06       		.uleb128 0x6
 1719 0354 94040000 		.4byte	.LASF54
 1720 0358 09       		.byte	0x9
 1721 0359 60       		.byte	0x60
 1722 035a FA000000 		.4byte	0xfa
 1723 035e 08       		.byte	0x8
 1724 035f 06       		.uleb128 0x6
 1725 0360 B7030000 		.4byte	.LASF55
 1726 0364 09       		.byte	0x9
 1727 0365 62       		.byte	0x62
 1728 0366 12030000 		.4byte	0x312
 1729 036a 0C       		.byte	0xc
 1730 036b 06       		.uleb128 0x6
 1731 036c E8020000 		.4byte	.LASF56
 1732 0370 09       		.byte	0x9
 1733 0371 65       		.byte	0x65
 1734 0372 4E020000 		.4byte	0x24e
 1735 0376 10       		.byte	0x10
 1736 0377 06       		.uleb128 0x6
 1737 0378 F0030000 		.4byte	.LASF57
 1738 037c 09       		.byte	0x9
 1739 037d 66       		.byte	0x66
 1740 037e 4E020000 		.4byte	0x24e
 1741 0382 14       		.byte	0x14
 1742 0383 06       		.uleb128 0x6
 1743 0384 82050000 		.4byte	.LASF58
 1744 0388 09       		.byte	0x9
 1745 0389 6A       		.byte	0x6a
 1746 038a 26010000 		.4byte	0x126
 1747 038e 18       		.byte	0x18
 1748 038f 06       		.uleb128 0x6
 1749 0390 E6030000 		.4byte	.LASF59
 1750 0394 09       		.byte	0x9
ARM GAS  /tmp/ccP0TEd1.s 			page 32


 1751 0395 6C       		.byte	0x6c
 1752 0396 4E020000 		.4byte	0x24e
 1753 039a 1C       		.byte	0x1c
 1754 039b 00       		.byte	0
 1755 039c 03       		.uleb128 0x3
 1756 039d 46050000 		.4byte	.LASF60
 1757 03a1 09       		.byte	0x9
 1758 03a2 6E       		.byte	0x6e
 1759 03a3 3F030000 		.4byte	0x33f
 1760 03a7 05       		.uleb128 0x5
 1761 03a8 1B030000 		.4byte	.LASF61
 1762 03ac 10       		.byte	0x10
 1763 03ad 0A       		.byte	0xa
 1764 03ae 2C       		.byte	0x2c
 1765 03af D8030000 		.4byte	0x3d8
 1766 03b3 06       		.uleb128 0x6
 1767 03b4 F8000000 		.4byte	.LASF62
 1768 03b8 0A       		.byte	0xa
 1769 03b9 2D       		.byte	0x2d
 1770 03ba 54020000 		.4byte	0x254
 1771 03be 00       		.byte	0
 1772 03bf 06       		.uleb128 0x6
 1773 03c0 8C050000 		.4byte	.LASF63
 1774 03c4 0A       		.byte	0xa
 1775 03c5 2F       		.byte	0x2f
 1776 03c6 4E020000 		.4byte	0x24e
 1777 03ca 08       		.byte	0x8
 1778 03cb 06       		.uleb128 0x6
 1779 03cc EF040000 		.4byte	.LASF64
 1780 03d0 0A       		.byte	0xa
 1781 03d1 31       		.byte	0x31
 1782 03d2 D8030000 		.4byte	0x3d8
 1783 03d6 0C       		.byte	0xc
 1784 03d7 00       		.byte	0
 1785 03d8 09       		.uleb128 0x9
 1786 03d9 04       		.byte	0x4
 1787 03da A7030000 		.4byte	0x3a7
 1788 03de 03       		.uleb128 0x3
 1789 03df 1B030000 		.4byte	.LASF61
 1790 03e3 0A       		.byte	0xa
 1791 03e4 33       		.byte	0x33
 1792 03e5 A7030000 		.4byte	0x3a7
 1793 03e9 0E       		.uleb128 0xe
 1794 03ea 04       		.byte	0x4
 1795 03eb 07       		.byte	0x7
 1796 03ec 90       		.byte	0x90
 1797 03ed 1E040000 		.4byte	0x41e
 1798 03f1 0F       		.uleb128 0xf
 1799 03f2 24000000 		.4byte	.LASF65
 1800 03f6 07       		.byte	0x7
 1801 03f7 97       		.byte	0x97
 1802 03f8 05010000 		.4byte	0x105
 1803 03fc 0F       		.uleb128 0xf
 1804 03fd A2000000 		.4byte	.LASF66
 1805 0401 07       		.byte	0x7
 1806 0402 9E       		.byte	0x9e
 1807 0403 05010000 		.4byte	0x105
ARM GAS  /tmp/ccP0TEd1.s 			page 33


 1808 0407 0F       		.uleb128 0xf
 1809 0408 67050000 		.4byte	.LASF67
 1810 040c 07       		.byte	0x7
 1811 040d A5       		.byte	0xa5
 1812 040e 8A020000 		.4byte	0x28a
 1813 0412 0F       		.uleb128 0xf
 1814 0413 9B040000 		.4byte	.LASF68
 1815 0417 07       		.byte	0x7
 1816 0418 AC       		.byte	0xac
 1817 0419 10010000 		.4byte	0x110
 1818 041d 00       		.byte	0
 1819 041e 09       		.uleb128 0x9
 1820 041f 04       		.byte	0x4
 1821 0420 24040000 		.4byte	0x424
 1822 0424 10       		.uleb128 0x10
 1823 0425 29040000 		.4byte	0x429
 1824 0429 04       		.uleb128 0x4
 1825 042a 01       		.byte	0x1
 1826 042b 08       		.byte	0x8
 1827 042c DD040000 		.4byte	.LASF69
 1828 0430 09       		.uleb128 0x9
 1829 0431 04       		.byte	0x4
 1830 0432 DE030000 		.4byte	0x3de
 1831 0436 03       		.uleb128 0x3
 1832 0437 0F000000 		.4byte	.LASF70
 1833 043b 07       		.byte	0x7
 1834 043c DF       		.byte	0xdf
 1835 043d 41040000 		.4byte	0x441
 1836 0441 09       		.uleb128 0x9
 1837 0442 04       		.byte	0x4
 1838 0443 47040000 		.4byte	0x447
 1839 0447 11       		.uleb128 0x11
 1840 0448 05010000 		.4byte	0x105
 1841 044c 56040000 		.4byte	0x456
 1842 0450 12       		.uleb128 0x12
 1843 0451 8A020000 		.4byte	0x28a
 1844 0455 00       		.byte	0
 1845 0456 03       		.uleb128 0x3
 1846 0457 21030000 		.4byte	.LASF71
 1847 045b 0B       		.byte	0xb
 1848 045c 37       		.byte	0x37
 1849 045d 61040000 		.4byte	0x461
 1850 0461 05       		.uleb128 0x5
 1851 0462 21030000 		.4byte	.LASF71
 1852 0466 20       		.byte	0x20
 1853 0467 0B       		.byte	0xb
 1854 0468 45       		.byte	0x45
 1855 0469 C2040000 		.4byte	0x4c2
 1856 046d 06       		.uleb128 0x6
 1857 046e C5000000 		.4byte	.LASF72
 1858 0472 0B       		.byte	0xb
 1859 0473 46       		.byte	0x46
 1860 0474 54020000 		.4byte	0x254
 1861 0478 00       		.byte	0
 1862 0479 06       		.uleb128 0x6
 1863 047a 6B030000 		.4byte	.LASF73
 1864 047e 0B       		.byte	0xb
ARM GAS  /tmp/ccP0TEd1.s 			page 34


 1865 047f 47       		.byte	0x47
 1866 0480 2C000000 		.4byte	0x2c
 1867 0484 08       		.byte	0x8
 1868 0485 06       		.uleb128 0x6
 1869 0486 2B010000 		.4byte	.LASF74
 1870 048a 0B       		.byte	0xb
 1871 048b 48       		.byte	0x48
 1872 048c E4040000 		.4byte	0x4e4
 1873 0490 0C       		.byte	0xc
 1874 0491 06       		.uleb128 0x6
 1875 0492 39050000 		.4byte	.LASF75
 1876 0496 0B       		.byte	0xb
 1877 0497 49       		.byte	0x49
 1878 0498 E4040000 		.4byte	0x4e4
 1879 049c 10       		.byte	0x10
 1880 049d 06       		.uleb128 0x6
 1881 049e 34010000 		.4byte	.LASF76
 1882 04a2 0B       		.byte	0xb
 1883 04a3 4B       		.byte	0x4b
 1884 04a4 E4040000 		.4byte	0x4e4
 1885 04a8 14       		.byte	0x14
 1886 04a9 06       		.uleb128 0x6
 1887 04aa 3A040000 		.4byte	.LASF77
 1888 04ae 0B       		.byte	0xb
 1889 04af 4C       		.byte	0x4c
 1890 04b0 E4040000 		.4byte	0x4e4
 1891 04b4 18       		.byte	0x18
 1892 04b5 06       		.uleb128 0x6
 1893 04b6 50050000 		.4byte	.LASF78
 1894 04ba 0B       		.byte	0xb
 1895 04bb 4D       		.byte	0x4d
 1896 04bc C2040000 		.4byte	0x4c2
 1897 04c0 1C       		.byte	0x1c
 1898 04c1 00       		.byte	0
 1899 04c2 03       		.uleb128 0x3
 1900 04c3 19040000 		.4byte	.LASF79
 1901 04c7 0B       		.byte	0xb
 1902 04c8 3A       		.byte	0x3a
 1903 04c9 CD040000 		.4byte	0x4cd
 1904 04cd 09       		.uleb128 0x9
 1905 04ce 04       		.byte	0x4
 1906 04cf D3040000 		.4byte	0x4d3
 1907 04d3 13       		.uleb128 0x13
 1908 04d4 DE040000 		.4byte	0x4de
 1909 04d8 12       		.uleb128 0x12
 1910 04d9 DE040000 		.4byte	0x4de
 1911 04dd 00       		.byte	0
 1912 04de 09       		.uleb128 0x9
 1913 04df 04       		.byte	0x4
 1914 04e0 56040000 		.4byte	0x456
 1915 04e4 09       		.uleb128 0x9
 1916 04e5 04       		.byte	0x4
 1917 04e6 A2000000 		.4byte	0xa2
 1918 04ea 03       		.uleb128 0x3
 1919 04eb 10030000 		.4byte	.LASF80
 1920 04ef 0B       		.byte	0xb
 1921 04f0 76       		.byte	0x76
ARM GAS  /tmp/ccP0TEd1.s 			page 35


 1922 04f1 56040000 		.4byte	0x456
 1923 04f5 03       		.uleb128 0x3
 1924 04f6 3D000000 		.4byte	.LASF81
 1925 04fa 0B       		.byte	0xb
 1926 04fb E6       		.byte	0xe6
 1927 04fc 56040000 		.4byte	0x456
 1928 0500 09       		.uleb128 0x9
 1929 0501 04       		.byte	0x4
 1930 0502 06050000 		.4byte	0x506
 1931 0506 10       		.uleb128 0x10
 1932 0507 A2000000 		.4byte	0xa2
 1933 050b 05       		.uleb128 0x5
 1934 050c B8040000 		.4byte	.LASF82
 1935 0510 10       		.byte	0x10
 1936 0511 0C       		.byte	0xc
 1937 0512 46       		.byte	0x46
 1938 0513 48050000 		.4byte	0x548
 1939 0517 06       		.uleb128 0x6
 1940 0518 CD010000 		.4byte	.LASF83
 1941 051c 0C       		.byte	0xc
 1942 051d 47       		.byte	0x47
 1943 051e 1E040000 		.4byte	0x41e
 1944 0522 00       		.byte	0
 1945 0523 06       		.uleb128 0x6
 1946 0524 CA030000 		.4byte	.LASF84
 1947 0528 0C       		.byte	0xc
 1948 0529 48       		.byte	0x48
 1949 052a 49050000 		.4byte	0x549
 1950 052e 04       		.byte	0x4
 1951 052f 06       		.uleb128 0x6
 1952 0530 C4010000 		.4byte	.LASF85
 1953 0534 0C       		.byte	0xc
 1954 0535 49       		.byte	0x49
 1955 0536 49050000 		.4byte	0x549
 1956 053a 08       		.byte	0x8
 1957 053b 06       		.uleb128 0x6
 1958 053c 2A040000 		.4byte	.LASF86
 1959 0540 0C       		.byte	0xc
 1960 0541 4A       		.byte	0x4a
 1961 0542 49050000 		.4byte	0x549
 1962 0546 0C       		.byte	0xc
 1963 0547 00       		.byte	0
 1964 0548 14       		.uleb128 0x14
 1965 0549 09       		.uleb128 0x9
 1966 054a 04       		.byte	0x4
 1967 054b 48050000 		.4byte	0x548
 1968 054f 15       		.uleb128 0x15
 1969 0550 F005     		.2byte	0x5f0
 1970 0552 0C       		.byte	0xc
 1971 0553 4F       		.byte	0x4f
 1972 0554 94050000 		.4byte	0x594
 1973 0558 07       		.uleb128 0x7
 1974 0559 543000   		.ascii	"T0\000"
 1975 055c 0C       		.byte	0xc
 1976 055d 50       		.byte	0x50
 1977 055e 94050000 		.4byte	0x594
 1978 0562 00       		.byte	0
ARM GAS  /tmp/ccP0TEd1.s 			page 36


 1979 0563 16       		.uleb128 0x16
 1980 0564 543100   		.ascii	"T1\000"
 1981 0567 0C       		.byte	0xc
 1982 0568 51       		.byte	0x51
 1983 0569 94050000 		.4byte	0x594
 1984 056d 3001     		.2byte	0x130
 1985 056f 16       		.uleb128 0x16
 1986 0570 543200   		.ascii	"T2\000"
 1987 0573 0C       		.byte	0xc
 1988 0574 52       		.byte	0x52
 1989 0575 94050000 		.4byte	0x594
 1990 0579 6002     		.2byte	0x260
 1991 057b 16       		.uleb128 0x16
 1992 057c 543300   		.ascii	"T3\000"
 1993 057f 0C       		.byte	0xc
 1994 0580 53       		.byte	0x53
 1995 0581 94050000 		.4byte	0x594
 1996 0585 9003     		.2byte	0x390
 1997 0587 16       		.uleb128 0x16
 1998 0588 543400   		.ascii	"T4\000"
 1999 058b 0C       		.byte	0xc
 2000 058c 54       		.byte	0x54
 2001 058d 94050000 		.4byte	0x594
 2002 0591 C004     		.2byte	0x4c0
 2003 0593 00       		.byte	0
 2004 0594 17       		.uleb128 0x17
 2005 0595 8C020000 		.4byte	0x28c
 2006 0599 A4050000 		.4byte	0x5a4
 2007 059d 18       		.uleb128 0x18
 2008 059e 33030000 		.4byte	0x333
 2009 05a2 25       		.byte	0x25
 2010 05a3 00       		.byte	0
 2011 05a4 19       		.uleb128 0x19
 2012 05a5 E2040000 		.4byte	.LASF117
 2013 05a9 F005     		.2byte	0x5f0
 2014 05ab 0C       		.byte	0xc
 2015 05ac 4E       		.byte	0x4e
 2016 05ad C7050000 		.4byte	0x5c7
 2017 05b1 1A       		.uleb128 0x1a
 2018 05b2 776100   		.ascii	"wa\000"
 2019 05b5 0C       		.byte	0xc
 2020 05b6 55       		.byte	0x55
 2021 05b7 4F050000 		.4byte	0x54f
 2022 05bb 0F       		.uleb128 0xf
 2023 05bc 3C010000 		.4byte	.LASF87
 2024 05c0 0C       		.byte	0xc
 2025 05c1 56       		.byte	0x56
 2026 05c2 C7050000 		.4byte	0x5c7
 2027 05c6 00       		.byte	0
 2028 05c7 17       		.uleb128 0x17
 2029 05c8 A2000000 		.4byte	0xa2
 2030 05cc D8050000 		.4byte	0x5d8
 2031 05d0 1B       		.uleb128 0x1b
 2032 05d1 33030000 		.4byte	0x333
 2033 05d5 EF05     		.2byte	0x5ef
 2034 05d7 00       		.byte	0
 2035 05d8 1C       		.uleb128 0x1c
ARM GAS  /tmp/ccP0TEd1.s 			page 37


 2036 05d9 ED010000 		.4byte	.LASF88
 2037 05dd 01       		.byte	0x1
 2038 05de 65       		.byte	0x65
 2039 05df 01       		.byte	0x1
 2040 05e0 13080000 		.4byte	0x813
 2041 05e4 1D       		.uleb128 0x1d
 2042 05e5 6900     		.ascii	"i\000"
 2043 05e7 01       		.byte	0x1
 2044 05e8 66       		.byte	0x66
 2045 05e9 37000000 		.4byte	0x37
 2046 05ed 1D       		.uleb128 0x1d
 2047 05ee 6E00     		.ascii	"n\000"
 2048 05f0 01       		.byte	0x1
 2049 05f1 67       		.byte	0x67
 2050 05f2 2C000000 		.4byte	0x2c
 2051 05f6 1E       		.uleb128 0x1e
 2052 05f7 07060000 		.4byte	0x607
 2053 05fb 1D       		.uleb128 0x1d
 2054 05fc 746D7000 		.ascii	"tmp\000"
 2055 0600 01       		.byte	0x1
 2056 0601 6A       		.byte	0x6a
 2057 0602 B8000000 		.4byte	0xb8
 2058 0606 00       		.byte	0
 2059 0607 1E       		.uleb128 0x1e
 2060 0608 18060000 		.4byte	0x618
 2061 060c 1D       		.uleb128 0x1d
 2062 060d 746D7000 		.ascii	"tmp\000"
 2063 0611 01       		.byte	0x1
 2064 0612 6A       		.byte	0x6a
 2065 0613 B8000000 		.4byte	0xb8
 2066 0617 00       		.byte	0
 2067 0618 1E       		.uleb128 0x1e
 2068 0619 29060000 		.4byte	0x629
 2069 061d 1D       		.uleb128 0x1d
 2070 061e 746D7000 		.ascii	"tmp\000"
 2071 0622 01       		.byte	0x1
 2072 0623 6A       		.byte	0x6a
 2073 0624 B8000000 		.4byte	0xb8
 2074 0628 00       		.byte	0
 2075 0629 1E       		.uleb128 0x1e
 2076 062a 3A060000 		.4byte	0x63a
 2077 062e 1D       		.uleb128 0x1d
 2078 062f 746D7000 		.ascii	"tmp\000"
 2079 0633 01       		.byte	0x1
 2080 0634 6D       		.byte	0x6d
 2081 0635 B8000000 		.4byte	0xb8
 2082 0639 00       		.byte	0
 2083 063a 1E       		.uleb128 0x1e
 2084 063b 4B060000 		.4byte	0x64b
 2085 063f 1D       		.uleb128 0x1d
 2086 0640 746D7000 		.ascii	"tmp\000"
 2087 0644 01       		.byte	0x1
 2088 0645 70       		.byte	0x70
 2089 0646 B8000000 		.4byte	0xb8
 2090 064a 00       		.byte	0
 2091 064b 1E       		.uleb128 0x1e
 2092 064c 5C060000 		.4byte	0x65c
ARM GAS  /tmp/ccP0TEd1.s 			page 38


 2093 0650 1D       		.uleb128 0x1d
 2094 0651 746D7000 		.ascii	"tmp\000"
 2095 0655 01       		.byte	0x1
 2096 0656 71       		.byte	0x71
 2097 0657 B8000000 		.4byte	0xb8
 2098 065b 00       		.byte	0
 2099 065c 1E       		.uleb128 0x1e
 2100 065d 6D060000 		.4byte	0x66d
 2101 0661 1D       		.uleb128 0x1d
 2102 0662 746D7000 		.ascii	"tmp\000"
 2103 0666 01       		.byte	0x1
 2104 0667 71       		.byte	0x71
 2105 0668 B8000000 		.4byte	0xb8
 2106 066c 00       		.byte	0
 2107 066d 1E       		.uleb128 0x1e
 2108 066e 7E060000 		.4byte	0x67e
 2109 0672 1D       		.uleb128 0x1d
 2110 0673 746D7000 		.ascii	"tmp\000"
 2111 0677 01       		.byte	0x1
 2112 0678 71       		.byte	0x71
 2113 0679 B8000000 		.4byte	0xb8
 2114 067d 00       		.byte	0
 2115 067e 1E       		.uleb128 0x1e
 2116 067f 8F060000 		.4byte	0x68f
 2117 0683 1D       		.uleb128 0x1d
 2118 0684 746D7000 		.ascii	"tmp\000"
 2119 0688 01       		.byte	0x1
 2120 0689 72       		.byte	0x72
 2121 068a B8000000 		.4byte	0xb8
 2122 068e 00       		.byte	0
 2123 068f 1E       		.uleb128 0x1e
 2124 0690 A0060000 		.4byte	0x6a0
 2125 0694 1D       		.uleb128 0x1d
 2126 0695 746D7000 		.ascii	"tmp\000"
 2127 0699 01       		.byte	0x1
 2128 069a 72       		.byte	0x72
 2129 069b B8000000 		.4byte	0xb8
 2130 069f 00       		.byte	0
 2131 06a0 1E       		.uleb128 0x1e
 2132 06a1 B1060000 		.4byte	0x6b1
 2133 06a5 1D       		.uleb128 0x1d
 2134 06a6 746D7000 		.ascii	"tmp\000"
 2135 06aa 01       		.byte	0x1
 2136 06ab 72       		.byte	0x72
 2137 06ac B8000000 		.4byte	0xb8
 2138 06b0 00       		.byte	0
 2139 06b1 1E       		.uleb128 0x1e
 2140 06b2 C2060000 		.4byte	0x6c2
 2141 06b6 1D       		.uleb128 0x1d
 2142 06b7 746D7000 		.ascii	"tmp\000"
 2143 06bb 01       		.byte	0x1
 2144 06bc 77       		.byte	0x77
 2145 06bd B8000000 		.4byte	0xb8
 2146 06c1 00       		.byte	0
 2147 06c2 1E       		.uleb128 0x1e
 2148 06c3 D3060000 		.4byte	0x6d3
 2149 06c7 1D       		.uleb128 0x1d
ARM GAS  /tmp/ccP0TEd1.s 			page 39


 2150 06c8 746D7000 		.ascii	"tmp\000"
 2151 06cc 01       		.byte	0x1
 2152 06cd 77       		.byte	0x77
 2153 06ce B8000000 		.4byte	0xb8
 2154 06d2 00       		.byte	0
 2155 06d3 1E       		.uleb128 0x1e
 2156 06d4 E4060000 		.4byte	0x6e4
 2157 06d8 1D       		.uleb128 0x1d
 2158 06d9 746D7000 		.ascii	"tmp\000"
 2159 06dd 01       		.byte	0x1
 2160 06de 77       		.byte	0x77
 2161 06df B8000000 		.4byte	0xb8
 2162 06e3 00       		.byte	0
 2163 06e4 1E       		.uleb128 0x1e
 2164 06e5 F5060000 		.4byte	0x6f5
 2165 06e9 1D       		.uleb128 0x1d
 2166 06ea 746D7000 		.ascii	"tmp\000"
 2167 06ee 01       		.byte	0x1
 2168 06ef 7B       		.byte	0x7b
 2169 06f0 B8000000 		.4byte	0xb8
 2170 06f4 00       		.byte	0
 2171 06f5 1E       		.uleb128 0x1e
 2172 06f6 06070000 		.4byte	0x706
 2173 06fa 1D       		.uleb128 0x1d
 2174 06fb 746D7000 		.ascii	"tmp\000"
 2175 06ff 01       		.byte	0x1
 2176 0700 7E       		.byte	0x7e
 2177 0701 B8000000 		.4byte	0xb8
 2178 0705 00       		.byte	0
 2179 0706 1E       		.uleb128 0x1e
 2180 0707 17070000 		.4byte	0x717
 2181 070b 1D       		.uleb128 0x1d
 2182 070c 746D7000 		.ascii	"tmp\000"
 2183 0710 01       		.byte	0x1
 2184 0711 83       		.byte	0x83
 2185 0712 B8000000 		.4byte	0xb8
 2186 0716 00       		.byte	0
 2187 0717 1E       		.uleb128 0x1e
 2188 0718 28070000 		.4byte	0x728
 2189 071c 1D       		.uleb128 0x1d
 2190 071d 746D7000 		.ascii	"tmp\000"
 2191 0721 01       		.byte	0x1
 2192 0722 83       		.byte	0x83
 2193 0723 B8000000 		.4byte	0xb8
 2194 0727 00       		.byte	0
 2195 0728 1E       		.uleb128 0x1e
 2196 0729 39070000 		.4byte	0x739
 2197 072d 1D       		.uleb128 0x1d
 2198 072e 746D7000 		.ascii	"tmp\000"
 2199 0732 01       		.byte	0x1
 2200 0733 83       		.byte	0x83
 2201 0734 B8000000 		.4byte	0xb8
 2202 0738 00       		.byte	0
 2203 0739 1E       		.uleb128 0x1e
 2204 073a 4A070000 		.4byte	0x74a
 2205 073e 1D       		.uleb128 0x1d
 2206 073f 746D7000 		.ascii	"tmp\000"
ARM GAS  /tmp/ccP0TEd1.s 			page 40


 2207 0743 01       		.byte	0x1
 2208 0744 86       		.byte	0x86
 2209 0745 B8000000 		.4byte	0xb8
 2210 0749 00       		.byte	0
 2211 074a 1E       		.uleb128 0x1e
 2212 074b 5B070000 		.4byte	0x75b
 2213 074f 1D       		.uleb128 0x1d
 2214 0750 746D7000 		.ascii	"tmp\000"
 2215 0754 01       		.byte	0x1
 2216 0755 89       		.byte	0x89
 2217 0756 B8000000 		.4byte	0xb8
 2218 075a 00       		.byte	0
 2219 075b 1E       		.uleb128 0x1e
 2220 075c 6C070000 		.4byte	0x76c
 2221 0760 1D       		.uleb128 0x1d
 2222 0761 746D7000 		.ascii	"tmp\000"
 2223 0765 01       		.byte	0x1
 2224 0766 90       		.byte	0x90
 2225 0767 B8000000 		.4byte	0xb8
 2226 076b 00       		.byte	0
 2227 076c 1E       		.uleb128 0x1e
 2228 076d 7D070000 		.4byte	0x77d
 2229 0771 1D       		.uleb128 0x1d
 2230 0772 746D7000 		.ascii	"tmp\000"
 2231 0776 01       		.byte	0x1
 2232 0777 90       		.byte	0x90
 2233 0778 B8000000 		.4byte	0xb8
 2234 077c 00       		.byte	0
 2235 077d 1E       		.uleb128 0x1e
 2236 077e 8E070000 		.4byte	0x78e
 2237 0782 1D       		.uleb128 0x1d
 2238 0783 746D7000 		.ascii	"tmp\000"
 2239 0787 01       		.byte	0x1
 2240 0788 90       		.byte	0x90
 2241 0789 B8000000 		.4byte	0xb8
 2242 078d 00       		.byte	0
 2243 078e 1E       		.uleb128 0x1e
 2244 078f 9F070000 		.4byte	0x79f
 2245 0793 1D       		.uleb128 0x1d
 2246 0794 746D7000 		.ascii	"tmp\000"
 2247 0798 01       		.byte	0x1
 2248 0799 93       		.byte	0x93
 2249 079a B8000000 		.4byte	0xb8
 2250 079e 00       		.byte	0
 2251 079f 1E       		.uleb128 0x1e
 2252 07a0 B0070000 		.4byte	0x7b0
 2253 07a4 1D       		.uleb128 0x1d
 2254 07a5 746D7000 		.ascii	"tmp\000"
 2255 07a9 01       		.byte	0x1
 2256 07aa 96       		.byte	0x96
 2257 07ab B8000000 		.4byte	0xb8
 2258 07af 00       		.byte	0
 2259 07b0 1E       		.uleb128 0x1e
 2260 07b1 C1070000 		.4byte	0x7c1
 2261 07b5 1D       		.uleb128 0x1d
 2262 07b6 746D7000 		.ascii	"tmp\000"
 2263 07ba 01       		.byte	0x1
ARM GAS  /tmp/ccP0TEd1.s 			page 41


 2264 07bb 97       		.byte	0x97
 2265 07bc B8000000 		.4byte	0xb8
 2266 07c0 00       		.byte	0
 2267 07c1 1E       		.uleb128 0x1e
 2268 07c2 D2070000 		.4byte	0x7d2
 2269 07c6 1D       		.uleb128 0x1d
 2270 07c7 746D7000 		.ascii	"tmp\000"
 2271 07cb 01       		.byte	0x1
 2272 07cc 97       		.byte	0x97
 2273 07cd B8000000 		.4byte	0xb8
 2274 07d1 00       		.byte	0
 2275 07d2 1E       		.uleb128 0x1e
 2276 07d3 E3070000 		.4byte	0x7e3
 2277 07d7 1D       		.uleb128 0x1d
 2278 07d8 746D7000 		.ascii	"tmp\000"
 2279 07dc 01       		.byte	0x1
 2280 07dd 97       		.byte	0x97
 2281 07de B8000000 		.4byte	0xb8
 2282 07e2 00       		.byte	0
 2283 07e3 1E       		.uleb128 0x1e
 2284 07e4 F4070000 		.4byte	0x7f4
 2285 07e8 1D       		.uleb128 0x1d
 2286 07e9 746D7000 		.ascii	"tmp\000"
 2287 07ed 01       		.byte	0x1
 2288 07ee 99       		.byte	0x99
 2289 07ef B8000000 		.4byte	0xb8
 2290 07f3 00       		.byte	0
 2291 07f4 1E       		.uleb128 0x1e
 2292 07f5 05080000 		.4byte	0x805
 2293 07f9 1D       		.uleb128 0x1d
 2294 07fa 746D7000 		.ascii	"tmp\000"
 2295 07fe 01       		.byte	0x1
 2296 07ff 99       		.byte	0x99
 2297 0800 B8000000 		.4byte	0xb8
 2298 0804 00       		.byte	0
 2299 0805 1F       		.uleb128 0x1f
 2300 0806 1D       		.uleb128 0x1d
 2301 0807 746D7000 		.ascii	"tmp\000"
 2302 080b 01       		.byte	0x1
 2303 080c 99       		.byte	0x99
 2304 080d B8000000 		.4byte	0xb8
 2305 0811 00       		.byte	0
 2306 0812 00       		.byte	0
 2307 0813 1C       		.uleb128 0x1c
 2308 0814 52030000 		.4byte	.LASF89
 2309 0818 01       		.byte	0x1
 2310 0819 BC       		.byte	0xbc
 2311 081a 01       		.byte	0x1
 2312 081b 150A0000 		.4byte	0xa15
 2313 081f 1D       		.uleb128 0x1d
 2314 0820 6900     		.ascii	"i\000"
 2315 0822 01       		.byte	0x1
 2316 0823 BD       		.byte	0xbd
 2317 0824 37000000 		.4byte	0x37
 2318 0828 1D       		.uleb128 0x1d
 2319 0829 6E00     		.ascii	"n\000"
 2320 082b 01       		.byte	0x1
ARM GAS  /tmp/ccP0TEd1.s 			page 42


 2321 082c BE       		.byte	0xbe
 2322 082d 2C000000 		.4byte	0x2c
 2323 0831 1E       		.uleb128 0x1e
 2324 0832 42080000 		.4byte	0x842
 2325 0836 1D       		.uleb128 0x1d
 2326 0837 746D7000 		.ascii	"tmp\000"
 2327 083b 01       		.byte	0x1
 2328 083c C1       		.byte	0xc1
 2329 083d B8000000 		.4byte	0xb8
 2330 0841 00       		.byte	0
 2331 0842 1E       		.uleb128 0x1e
 2332 0843 53080000 		.4byte	0x853
 2333 0847 1D       		.uleb128 0x1d
 2334 0848 746D7000 		.ascii	"tmp\000"
 2335 084c 01       		.byte	0x1
 2336 084d C1       		.byte	0xc1
 2337 084e B8000000 		.4byte	0xb8
 2338 0852 00       		.byte	0
 2339 0853 1E       		.uleb128 0x1e
 2340 0854 64080000 		.4byte	0x864
 2341 0858 1D       		.uleb128 0x1d
 2342 0859 746D7000 		.ascii	"tmp\000"
 2343 085d 01       		.byte	0x1
 2344 085e C1       		.byte	0xc1
 2345 085f B8000000 		.4byte	0xb8
 2346 0863 00       		.byte	0
 2347 0864 1E       		.uleb128 0x1e
 2348 0865 75080000 		.4byte	0x875
 2349 0869 1D       		.uleb128 0x1d
 2350 086a 746D7000 		.ascii	"tmp\000"
 2351 086e 01       		.byte	0x1
 2352 086f C6       		.byte	0xc6
 2353 0870 B8000000 		.4byte	0xb8
 2354 0874 00       		.byte	0
 2355 0875 1E       		.uleb128 0x1e
 2356 0876 86080000 		.4byte	0x886
 2357 087a 1D       		.uleb128 0x1d
 2358 087b 746D7000 		.ascii	"tmp\000"
 2359 087f 01       		.byte	0x1
 2360 0880 C6       		.byte	0xc6
 2361 0881 B8000000 		.4byte	0xb8
 2362 0885 00       		.byte	0
 2363 0886 1E       		.uleb128 0x1e
 2364 0887 97080000 		.4byte	0x897
 2365 088b 1D       		.uleb128 0x1d
 2366 088c 746D7000 		.ascii	"tmp\000"
 2367 0890 01       		.byte	0x1
 2368 0891 C6       		.byte	0xc6
 2369 0892 B8000000 		.4byte	0xb8
 2370 0896 00       		.byte	0
 2371 0897 1E       		.uleb128 0x1e
 2372 0898 C4080000 		.4byte	0x8c4
 2373 089c 1D       		.uleb128 0x1d
 2374 089d 6300     		.ascii	"c\000"
 2375 089f 01       		.byte	0x1
 2376 08a0 CA       		.byte	0xca
 2377 08a1 29040000 		.4byte	0x429
ARM GAS  /tmp/ccP0TEd1.s 			page 43


 2378 08a5 1E       		.uleb128 0x1e
 2379 08a6 B6080000 		.4byte	0x8b6
 2380 08aa 1D       		.uleb128 0x1d
 2381 08ab 746D7000 		.ascii	"tmp\000"
 2382 08af 01       		.byte	0x1
 2383 08b0 CC       		.byte	0xcc
 2384 08b1 B8000000 		.4byte	0xb8
 2385 08b5 00       		.byte	0
 2386 08b6 1F       		.uleb128 0x1f
 2387 08b7 1D       		.uleb128 0x1d
 2388 08b8 746D7000 		.ascii	"tmp\000"
 2389 08bc 01       		.byte	0x1
 2390 08bd CE       		.byte	0xce
 2391 08be B8000000 		.4byte	0xb8
 2392 08c2 00       		.byte	0
 2393 08c3 00       		.byte	0
 2394 08c4 1E       		.uleb128 0x1e
 2395 08c5 D5080000 		.4byte	0x8d5
 2396 08c9 1D       		.uleb128 0x1d
 2397 08ca 746D7000 		.ascii	"tmp\000"
 2398 08ce 01       		.byte	0x1
 2399 08cf D1       		.byte	0xd1
 2400 08d0 B8000000 		.4byte	0xb8
 2401 08d4 00       		.byte	0
 2402 08d5 1E       		.uleb128 0x1e
 2403 08d6 E6080000 		.4byte	0x8e6
 2404 08da 1D       		.uleb128 0x1d
 2405 08db 746D7000 		.ascii	"tmp\000"
 2406 08df 01       		.byte	0x1
 2407 08e0 D1       		.byte	0xd1
 2408 08e1 B8000000 		.4byte	0xb8
 2409 08e5 00       		.byte	0
 2410 08e6 1E       		.uleb128 0x1e
 2411 08e7 F7080000 		.4byte	0x8f7
 2412 08eb 1D       		.uleb128 0x1d
 2413 08ec 746D7000 		.ascii	"tmp\000"
 2414 08f0 01       		.byte	0x1
 2415 08f1 D1       		.byte	0xd1
 2416 08f2 B8000000 		.4byte	0xb8
 2417 08f6 00       		.byte	0
 2418 08f7 1E       		.uleb128 0x1e
 2419 08f8 08090000 		.4byte	0x908
 2420 08fc 1D       		.uleb128 0x1d
 2421 08fd 746D7000 		.ascii	"tmp\000"
 2422 0901 01       		.byte	0x1
 2423 0902 D3       		.byte	0xd3
 2424 0903 B8000000 		.4byte	0xb8
 2425 0907 00       		.byte	0
 2426 0908 1E       		.uleb128 0x1e
 2427 0909 19090000 		.4byte	0x919
 2428 090d 1D       		.uleb128 0x1d
 2429 090e 746D7000 		.ascii	"tmp\000"
 2430 0912 01       		.byte	0x1
 2431 0913 D3       		.byte	0xd3
 2432 0914 B8000000 		.4byte	0xb8
 2433 0918 00       		.byte	0
 2434 0919 1E       		.uleb128 0x1e
ARM GAS  /tmp/ccP0TEd1.s 			page 44


 2435 091a 2A090000 		.4byte	0x92a
 2436 091e 1D       		.uleb128 0x1d
 2437 091f 746D7000 		.ascii	"tmp\000"
 2438 0923 01       		.byte	0x1
 2439 0924 D3       		.byte	0xd3
 2440 0925 B8000000 		.4byte	0xb8
 2441 0929 00       		.byte	0
 2442 092a 1E       		.uleb128 0x1e
 2443 092b 3B090000 		.4byte	0x93b
 2444 092f 1D       		.uleb128 0x1d
 2445 0930 746D7000 		.ascii	"tmp\000"
 2446 0934 01       		.byte	0x1
 2447 0935 D8       		.byte	0xd8
 2448 0936 B8000000 		.4byte	0xb8
 2449 093a 00       		.byte	0
 2450 093b 1E       		.uleb128 0x1e
 2451 093c 4C090000 		.4byte	0x94c
 2452 0940 1D       		.uleb128 0x1d
 2453 0941 746D7000 		.ascii	"tmp\000"
 2454 0945 01       		.byte	0x1
 2455 0946 D8       		.byte	0xd8
 2456 0947 B8000000 		.4byte	0xb8
 2457 094b 00       		.byte	0
 2458 094c 1E       		.uleb128 0x1e
 2459 094d 5D090000 		.4byte	0x95d
 2460 0951 1D       		.uleb128 0x1d
 2461 0952 746D7000 		.ascii	"tmp\000"
 2462 0956 01       		.byte	0x1
 2463 0957 D8       		.byte	0xd8
 2464 0958 B8000000 		.4byte	0xb8
 2465 095c 00       		.byte	0
 2466 095d 1E       		.uleb128 0x1e
 2467 095e 6E090000 		.4byte	0x96e
 2468 0962 1D       		.uleb128 0x1d
 2469 0963 746D7000 		.ascii	"tmp\000"
 2470 0967 01       		.byte	0x1
 2471 0968 DA       		.byte	0xda
 2472 0969 B8000000 		.4byte	0xb8
 2473 096d 00       		.byte	0
 2474 096e 1E       		.uleb128 0x1e
 2475 096f 7F090000 		.4byte	0x97f
 2476 0973 1D       		.uleb128 0x1d
 2477 0974 746D7000 		.ascii	"tmp\000"
 2478 0978 01       		.byte	0x1
 2479 0979 DA       		.byte	0xda
 2480 097a B8000000 		.4byte	0xb8
 2481 097e 00       		.byte	0
 2482 097f 1E       		.uleb128 0x1e
 2483 0980 90090000 		.4byte	0x990
 2484 0984 1D       		.uleb128 0x1d
 2485 0985 746D7000 		.ascii	"tmp\000"
 2486 0989 01       		.byte	0x1
 2487 098a DA       		.byte	0xda
 2488 098b B8000000 		.4byte	0xb8
 2489 098f 00       		.byte	0
 2490 0990 1E       		.uleb128 0x1e
 2491 0991 A1090000 		.4byte	0x9a1
ARM GAS  /tmp/ccP0TEd1.s 			page 45


 2492 0995 1D       		.uleb128 0x1d
 2493 0996 746D7000 		.ascii	"tmp\000"
 2494 099a 01       		.byte	0x1
 2495 099b DE       		.byte	0xde
 2496 099c B8000000 		.4byte	0xb8
 2497 09a0 00       		.byte	0
 2498 09a1 1E       		.uleb128 0x1e
 2499 09a2 B2090000 		.4byte	0x9b2
 2500 09a6 1D       		.uleb128 0x1d
 2501 09a7 746D7000 		.ascii	"tmp\000"
 2502 09ab 01       		.byte	0x1
 2503 09ac E0       		.byte	0xe0
 2504 09ad B8000000 		.4byte	0xb8
 2505 09b1 00       		.byte	0
 2506 09b2 1E       		.uleb128 0x1e
 2507 09b3 C3090000 		.4byte	0x9c3
 2508 09b7 1D       		.uleb128 0x1d
 2509 09b8 746D7000 		.ascii	"tmp\000"
 2510 09bc 01       		.byte	0x1
 2511 09bd E1       		.byte	0xe1
 2512 09be B8000000 		.4byte	0xb8
 2513 09c2 00       		.byte	0
 2514 09c3 1E       		.uleb128 0x1e
 2515 09c4 D4090000 		.4byte	0x9d4
 2516 09c8 1D       		.uleb128 0x1d
 2517 09c9 746D7000 		.ascii	"tmp\000"
 2518 09cd 01       		.byte	0x1
 2519 09ce E1       		.byte	0xe1
 2520 09cf B8000000 		.4byte	0xb8
 2521 09d3 00       		.byte	0
 2522 09d4 1E       		.uleb128 0x1e
 2523 09d5 E5090000 		.4byte	0x9e5
 2524 09d9 1D       		.uleb128 0x1d
 2525 09da 746D7000 		.ascii	"tmp\000"
 2526 09de 01       		.byte	0x1
 2527 09df E1       		.byte	0xe1
 2528 09e0 B8000000 		.4byte	0xb8
 2529 09e4 00       		.byte	0
 2530 09e5 1E       		.uleb128 0x1e
 2531 09e6 F6090000 		.4byte	0x9f6
 2532 09ea 1D       		.uleb128 0x1d
 2533 09eb 746D7000 		.ascii	"tmp\000"
 2534 09ef 01       		.byte	0x1
 2535 09f0 E8       		.byte	0xe8
 2536 09f1 B8000000 		.4byte	0xb8
 2537 09f5 00       		.byte	0
 2538 09f6 1E       		.uleb128 0x1e
 2539 09f7 070A0000 		.4byte	0xa07
 2540 09fb 1D       		.uleb128 0x1d
 2541 09fc 746D7000 		.ascii	"tmp\000"
 2542 0a00 01       		.byte	0x1
 2543 0a01 E8       		.byte	0xe8
 2544 0a02 B8000000 		.4byte	0xb8
 2545 0a06 00       		.byte	0
 2546 0a07 1F       		.uleb128 0x1f
 2547 0a08 1D       		.uleb128 0x1d
 2548 0a09 746D7000 		.ascii	"tmp\000"
ARM GAS  /tmp/ccP0TEd1.s 			page 46


 2549 0a0d 01       		.byte	0x1
 2550 0a0e E8       		.byte	0xe8
 2551 0a0f B8000000 		.4byte	0xb8
 2552 0a13 00       		.byte	0
 2553 0a14 00       		.byte	0
 2554 0a15 20       		.uleb128 0x20
 2555 0a16 4B030000 		.4byte	.LASF90
 2556 0a1a 01       		.byte	0x1
 2557 0a1b 44       		.byte	0x44
 2558 0a1c 00000000 		.4byte	.LFB7
 2559 0a20 02000000 		.4byte	.LFE7-.LFB7
 2560 0a24 01       		.uleb128 0x1
 2561 0a25 9C       		.byte	0x9c
 2562 0a26 370A0000 		.4byte	0xa37
 2563 0a2a 21       		.uleb128 0x21
 2564 0a2b 717000   		.ascii	"qp\000"
 2565 0a2e 01       		.byte	0x1
 2566 0a2f 44       		.byte	0x44
 2567 0a30 DE040000 		.4byte	0x4de
 2568 0a34 01       		.uleb128 0x1
 2569 0a35 50       		.byte	0x50
 2570 0a36 00       		.byte	0
 2571 0a37 22       		.uleb128 0x22
 2572 0a38 A7030000 		.4byte	.LASF92
 2573 0a3c 01       		.byte	0x1
 2574 0a3d 5E       		.byte	0x5e
 2575 0a3e 05010000 		.4byte	0x105
 2576 0a42 00000000 		.4byte	.LFB9
 2577 0a46 14000000 		.4byte	.LFE9-.LFB9
 2578 0a4a 01       		.uleb128 0x1
 2579 0a4b 9C       		.byte	0x9c
 2580 0a4c 770A0000 		.4byte	0xa77
 2581 0a50 23       		.uleb128 0x23
 2582 0a51 7000     		.ascii	"p\000"
 2583 0a53 01       		.byte	0x1
 2584 0a54 5E       		.byte	0x5e
 2585 0a55 8A020000 		.4byte	0x28a
 2586 0a59 00000000 		.4byte	.LLST0
 2587 0a5d 24       		.uleb128 0x24
 2588 0a5e 0A000000 		.4byte	.LVL3
 2589 0a62 35150000 		.4byte	0x1535
 2590 0a66 25       		.uleb128 0x25
 2591 0a67 01       		.uleb128 0x1
 2592 0a68 51       		.byte	0x51
 2593 0a69 02       		.uleb128 0x2
 2594 0a6a 08       		.byte	0x8
 2595 0a6b C8       		.byte	0xc8
 2596 0a6c 25       		.uleb128 0x25
 2597 0a6d 01       		.uleb128 0x1
 2598 0a6e 50       		.byte	0x50
 2599 0a6f 05       		.uleb128 0x5
 2600 0a70 03       		.byte	0x3
 2601 0a71 00000000 		.4byte	.LANCHOR0
 2602 0a75 00       		.byte	0
 2603 0a76 00       		.byte	0
 2604 0a77 20       		.uleb128 0x20
 2605 0a78 03040000 		.4byte	.LASF91
ARM GAS  /tmp/ccP0TEd1.s 			page 47


 2606 0a7c 01       		.byte	0x1
 2607 0a7d 59       		.byte	0x59
 2608 0a7e 00000000 		.4byte	.LFB8
 2609 0a82 1C000000 		.4byte	.LFE8-.LFB8
 2610 0a86 01       		.uleb128 0x1
 2611 0a87 9C       		.byte	0x9c
 2612 0a88 AE0A0000 		.4byte	0xaae
 2613 0a8c 26       		.uleb128 0x26
 2614 0a8d 0E000000 		.4byte	.LVL4
 2615 0a91 56150000 		.4byte	0x1556
 2616 0a95 25       		.uleb128 0x25
 2617 0a96 01       		.uleb128 0x1
 2618 0a97 53       		.byte	0x53
 2619 0a98 05       		.uleb128 0x5
 2620 0a99 03       		.byte	0x3
 2621 0a9a 00000000 		.4byte	notify
 2622 0a9e 25       		.uleb128 0x25
 2623 0a9f 01       		.uleb128 0x1
 2624 0aa0 52       		.byte	0x52
 2625 0aa1 01       		.uleb128 0x1
 2626 0aa2 34       		.byte	0x34
 2627 0aa3 25       		.uleb128 0x25
 2628 0aa4 01       		.uleb128 0x1
 2629 0aa5 50       		.byte	0x50
 2630 0aa6 05       		.uleb128 0x5
 2631 0aa7 03       		.byte	0x3
 2632 0aa8 00000000 		.4byte	.LANCHOR0
 2633 0aac 00       		.byte	0
 2634 0aad 00       		.byte	0
 2635 0aae 22       		.uleb128 0x22
 2636 0aaf AF030000 		.4byte	.LASF93
 2637 0ab3 01       		.byte	0x1
 2638 0ab4 B5       		.byte	0xb5
 2639 0ab5 05010000 		.4byte	0x105
 2640 0ab9 00000000 		.4byte	.LFB12
 2641 0abd 14000000 		.4byte	.LFE12-.LFB12
 2642 0ac1 01       		.uleb128 0x1
 2643 0ac2 9C       		.byte	0x9c
 2644 0ac3 F30A0000 		.4byte	0xaf3
 2645 0ac7 23       		.uleb128 0x23
 2646 0ac8 7000     		.ascii	"p\000"
 2647 0aca 01       		.byte	0x1
 2648 0acb B5       		.byte	0xb5
 2649 0acc 8A020000 		.4byte	0x28a
 2650 0ad0 21000000 		.4byte	.LLST1
 2651 0ad4 24       		.uleb128 0x24
 2652 0ad5 0C000000 		.4byte	.LVL7
 2653 0ad9 77150000 		.4byte	0x1577
 2654 0add 25       		.uleb128 0x25
 2655 0ade 01       		.uleb128 0x1
 2656 0adf 52       		.byte	0x52
 2657 0ae0 02       		.uleb128 0x2
 2658 0ae1 08       		.byte	0x8
 2659 0ae2 C8       		.byte	0xc8
 2660 0ae3 25       		.uleb128 0x25
 2661 0ae4 01       		.uleb128 0x1
 2662 0ae5 51       		.byte	0x51
ARM GAS  /tmp/ccP0TEd1.s 			page 48


 2663 0ae6 01       		.uleb128 0x1
 2664 0ae7 30       		.byte	0x30
 2665 0ae8 25       		.uleb128 0x25
 2666 0ae9 01       		.uleb128 0x1
 2667 0aea 50       		.byte	0x50
 2668 0aeb 05       		.uleb128 0x5
 2669 0aec 03       		.byte	0x3
 2670 0aed 00000000 		.4byte	.LANCHOR1
 2671 0af1 00       		.byte	0
 2672 0af2 00       		.byte	0
 2673 0af3 20       		.uleb128 0x20
 2674 0af4 AB000000 		.4byte	.LASF94
 2675 0af8 01       		.byte	0x1
 2676 0af9 B0       		.byte	0xb0
 2677 0afa 00000000 		.4byte	.LFB11
 2678 0afe 1C000000 		.4byte	.LFE11-.LFB11
 2679 0b02 01       		.uleb128 0x1
 2680 0b03 9C       		.byte	0x9c
 2681 0b04 2A0B0000 		.4byte	0xb2a
 2682 0b08 26       		.uleb128 0x26
 2683 0b09 0E000000 		.4byte	.LVL8
 2684 0b0d 9D150000 		.4byte	0x159d
 2685 0b11 25       		.uleb128 0x25
 2686 0b12 01       		.uleb128 0x1
 2687 0b13 53       		.byte	0x53
 2688 0b14 05       		.uleb128 0x5
 2689 0b15 03       		.byte	0x3
 2690 0b16 00000000 		.4byte	notify
 2691 0b1a 25       		.uleb128 0x25
 2692 0b1b 01       		.uleb128 0x1
 2693 0b1c 52       		.byte	0x52
 2694 0b1d 01       		.uleb128 0x1
 2695 0b1e 34       		.byte	0x34
 2696 0b1f 25       		.uleb128 0x25
 2697 0b20 01       		.uleb128 0x1
 2698 0b21 50       		.byte	0x50
 2699 0b22 05       		.uleb128 0x5
 2700 0b23 03       		.byte	0x3
 2701 0b24 00000000 		.4byte	.LANCHOR1
 2702 0b28 00       		.byte	0
 2703 0b29 00       		.byte	0
 2704 0b2a 27       		.uleb128 0x27
 2705 0b2b D8050000 		.4byte	0x5d8
 2706 0b2f 00000000 		.4byte	.LFB10
 2707 0b33 80020000 		.4byte	.LFE10-.LFB10
 2708 0b37 01       		.uleb128 0x1
 2709 0b38 9C       		.byte	0x9c
 2710 0b39 01100000 		.4byte	0x1001
 2711 0b3d 28       		.uleb128 0x28
 2712 0b3e E4050000 		.4byte	0x5e4
 2713 0b42 28       		.uleb128 0x28
 2714 0b43 ED050000 		.4byte	0x5ed
 2715 0b47 29       		.uleb128 0x29
 2716 0b48 00000000 		.4byte	.Ldebug_ranges0+0
 2717 0b4c 580B0000 		.4byte	0xb58
 2718 0b50 2A       		.uleb128 0x2a
 2719 0b51 FB050000 		.4byte	0x5fb
ARM GAS  /tmp/ccP0TEd1.s 			page 49


 2720 0b55 01       		.uleb128 0x1
 2721 0b56 53       		.byte	0x53
 2722 0b57 00       		.byte	0
 2723 0b58 29       		.uleb128 0x29
 2724 0b59 18000000 		.4byte	.Ldebug_ranges0+0x18
 2725 0b5d F10F0000 		.4byte	0xff1
 2726 0b61 2B       		.uleb128 0x2b
 2727 0b62 E4050000 		.4byte	0x5e4
 2728 0b66 42000000 		.4byte	.LLST2
 2729 0b6a 2B       		.uleb128 0x2b
 2730 0b6b ED050000 		.4byte	0x5ed
 2731 0b6f C5000000 		.4byte	.LLST3
 2732 0b73 2C       		.uleb128 0x2c
 2733 0b74 1E000000 		.4byte	.LBB103
 2734 0b78 06000000 		.4byte	.LBE103-.LBB103
 2735 0b7c 880B0000 		.4byte	0xb88
 2736 0b80 2A       		.uleb128 0x2a
 2737 0b81 1D060000 		.4byte	0x61d
 2738 0b85 01       		.uleb128 0x1
 2739 0b86 53       		.byte	0x53
 2740 0b87 00       		.byte	0
 2741 0b88 2C       		.uleb128 0x2c
 2742 0b89 24000000 		.4byte	.LBB104
 2743 0b8d 08000000 		.4byte	.LBE104-.LBB104
 2744 0b91 9D0B0000 		.4byte	0xb9d
 2745 0b95 2A       		.uleb128 0x2a
 2746 0b96 2E060000 		.4byte	0x62e
 2747 0b9a 01       		.uleb128 0x1
 2748 0b9b 53       		.byte	0x53
 2749 0b9c 00       		.byte	0
 2750 0b9d 2C       		.uleb128 0x2c
 2751 0b9e 3E000000 		.4byte	.LBB105
 2752 0ba2 06000000 		.4byte	.LBE105-.LBB105
 2753 0ba6 B20B0000 		.4byte	0xbb2
 2754 0baa 2A       		.uleb128 0x2a
 2755 0bab 3F060000 		.4byte	0x63f
 2756 0baf 01       		.uleb128 0x1
 2757 0bb0 53       		.byte	0x53
 2758 0bb1 00       		.byte	0
 2759 0bb2 2C       		.uleb128 0x2c
 2760 0bb3 44000000 		.4byte	.LBB106
 2761 0bb7 06000000 		.4byte	.LBE106-.LBB106
 2762 0bbb C70B0000 		.4byte	0xbc7
 2763 0bbf 2A       		.uleb128 0x2a
 2764 0bc0 50060000 		.4byte	0x650
 2765 0bc4 01       		.uleb128 0x1
 2766 0bc5 53       		.byte	0x53
 2767 0bc6 00       		.byte	0
 2768 0bc7 2C       		.uleb128 0x2c
 2769 0bc8 5E000000 		.4byte	.LBB107
 2770 0bcc 06000000 		.4byte	.LBE107-.LBB107
 2771 0bd0 DC0B0000 		.4byte	0xbdc
 2772 0bd4 2A       		.uleb128 0x2a
 2773 0bd5 61060000 		.4byte	0x661
 2774 0bd9 01       		.uleb128 0x1
 2775 0bda 53       		.byte	0x53
 2776 0bdb 00       		.byte	0
ARM GAS  /tmp/ccP0TEd1.s 			page 50


 2777 0bdc 2C       		.uleb128 0x2c
 2778 0bdd 68000000 		.4byte	.LBB108
 2779 0be1 06000000 		.4byte	.LBE108-.LBB108
 2780 0be5 F10B0000 		.4byte	0xbf1
 2781 0be9 2A       		.uleb128 0x2a
 2782 0bea 72060000 		.4byte	0x672
 2783 0bee 01       		.uleb128 0x1
 2784 0bef 53       		.byte	0x53
 2785 0bf0 00       		.byte	0
 2786 0bf1 2C       		.uleb128 0x2c
 2787 0bf2 6E000000 		.4byte	.LBB109
 2788 0bf6 06000000 		.4byte	.LBE109-.LBB109
 2789 0bfa 060C0000 		.4byte	0xc06
 2790 0bfe 2A       		.uleb128 0x2a
 2791 0bff 83060000 		.4byte	0x683
 2792 0c03 01       		.uleb128 0x1
 2793 0c04 53       		.byte	0x53
 2794 0c05 00       		.byte	0
 2795 0c06 2C       		.uleb128 0x2c
 2796 0c07 8C000000 		.4byte	.LBB110
 2797 0c0b 08000000 		.4byte	.LBE110-.LBB110
 2798 0c0f 1B0C0000 		.4byte	0xc1b
 2799 0c13 2A       		.uleb128 0x2a
 2800 0c14 A5060000 		.4byte	0x6a5
 2801 0c18 01       		.uleb128 0x1
 2802 0c19 53       		.byte	0x53
 2803 0c1a 00       		.byte	0
 2804 0c1b 2C       		.uleb128 0x2c
 2805 0c1c AA000000 		.4byte	.LBB111
 2806 0c20 06000000 		.4byte	.LBE111-.LBB111
 2807 0c24 300C0000 		.4byte	0xc30
 2808 0c28 2A       		.uleb128 0x2a
 2809 0c29 B6060000 		.4byte	0x6b6
 2810 0c2d 01       		.uleb128 0x1
 2811 0c2e 53       		.byte	0x53
 2812 0c2f 00       		.byte	0
 2813 0c30 2C       		.uleb128 0x2c
 2814 0c31 C0000000 		.4byte	.LBB112
 2815 0c35 02000000 		.4byte	.LBE112-.LBB112
 2816 0c39 450C0000 		.4byte	0xc45
 2817 0c3d 2A       		.uleb128 0x2a
 2818 0c3e C7060000 		.4byte	0x6c7
 2819 0c42 01       		.uleb128 0x1
 2820 0c43 53       		.byte	0x53
 2821 0c44 00       		.byte	0
 2822 0c45 29       		.uleb128 0x29
 2823 0c46 40000000 		.4byte	.Ldebug_ranges0+0x40
 2824 0c4a 560C0000 		.4byte	0xc56
 2825 0c4e 2A       		.uleb128 0x2a
 2826 0c4f C6070000 		.4byte	0x7c6
 2827 0c53 01       		.uleb128 0x1
 2828 0c54 53       		.byte	0x53
 2829 0c55 00       		.byte	0
 2830 0c56 2C       		.uleb128 0x2c
 2831 0c57 DA000000 		.4byte	.LBB115
 2832 0c5b 04000000 		.4byte	.LBE115-.LBB115
 2833 0c5f 6B0C0000 		.4byte	0xc6b
ARM GAS  /tmp/ccP0TEd1.s 			page 51


 2834 0c63 2A       		.uleb128 0x2a
 2835 0c64 D8060000 		.4byte	0x6d8
 2836 0c68 01       		.uleb128 0x1
 2837 0c69 53       		.byte	0x53
 2838 0c6a 00       		.byte	0
 2839 0c6b 2C       		.uleb128 0x2c
 2840 0c6c EA000000 		.4byte	.LBB116
 2841 0c70 08000000 		.4byte	.LBE116-.LBB116
 2842 0c74 800C0000 		.4byte	0xc80
 2843 0c78 2A       		.uleb128 0x2a
 2844 0c79 E9060000 		.4byte	0x6e9
 2845 0c7d 01       		.uleb128 0x1
 2846 0c7e 53       		.byte	0x53
 2847 0c7f 00       		.byte	0
 2848 0c80 2C       		.uleb128 0x2c
 2849 0c81 04010000 		.4byte	.LBB117
 2850 0c85 06000000 		.4byte	.LBE117-.LBB117
 2851 0c89 950C0000 		.4byte	0xc95
 2852 0c8d 2A       		.uleb128 0x2a
 2853 0c8e FA060000 		.4byte	0x6fa
 2854 0c92 01       		.uleb128 0x1
 2855 0c93 53       		.byte	0x53
 2856 0c94 00       		.byte	0
 2857 0c95 2C       		.uleb128 0x2c
 2858 0c96 28010000 		.4byte	.LBB118
 2859 0c9a 06000000 		.4byte	.LBE118-.LBB118
 2860 0c9e AA0C0000 		.4byte	0xcaa
 2861 0ca2 2A       		.uleb128 0x2a
 2862 0ca3 0B070000 		.4byte	0x70b
 2863 0ca7 01       		.uleb128 0x1
 2864 0ca8 53       		.byte	0x53
 2865 0ca9 00       		.byte	0
 2866 0caa 2C       		.uleb128 0x2c
 2867 0cab 42010000 		.4byte	.LBB119
 2868 0caf 06000000 		.4byte	.LBE119-.LBB119
 2869 0cb3 BF0C0000 		.4byte	0xcbf
 2870 0cb7 2A       		.uleb128 0x2a
 2871 0cb8 2D070000 		.4byte	0x72d
 2872 0cbc 01       		.uleb128 0x1
 2873 0cbd 53       		.byte	0x53
 2874 0cbe 00       		.byte	0
 2875 0cbf 2C       		.uleb128 0x2c
 2876 0cc0 48010000 		.4byte	.LBB120
 2877 0cc4 08000000 		.4byte	.LBE120-.LBB120
 2878 0cc8 D40C0000 		.4byte	0xcd4
 2879 0ccc 2A       		.uleb128 0x2a
 2880 0ccd 3E070000 		.4byte	0x73e
 2881 0cd1 01       		.uleb128 0x1
 2882 0cd2 53       		.byte	0x53
 2883 0cd3 00       		.byte	0
 2884 0cd4 2C       		.uleb128 0x2c
 2885 0cd5 62010000 		.4byte	.LBB121
 2886 0cd9 06000000 		.4byte	.LBE121-.LBB121
 2887 0cdd E90C0000 		.4byte	0xce9
 2888 0ce1 2A       		.uleb128 0x2a
 2889 0ce2 4F070000 		.4byte	0x74f
 2890 0ce6 01       		.uleb128 0x1
ARM GAS  /tmp/ccP0TEd1.s 			page 52


 2891 0ce7 53       		.byte	0x53
 2892 0ce8 00       		.byte	0
 2893 0ce9 2C       		.uleb128 0x2c
 2894 0cea A8010000 		.4byte	.LBB122
 2895 0cee 06000000 		.4byte	.LBE122-.LBB122
 2896 0cf2 FE0C0000 		.4byte	0xcfe
 2897 0cf6 2A       		.uleb128 0x2a
 2898 0cf7 60070000 		.4byte	0x760
 2899 0cfb 01       		.uleb128 0x1
 2900 0cfc 53       		.byte	0x53
 2901 0cfd 00       		.byte	0
 2902 0cfe 2C       		.uleb128 0x2c
 2903 0cff C2010000 		.4byte	.LBB123
 2904 0d03 08000000 		.4byte	.LBE123-.LBB123
 2905 0d07 130D0000 		.4byte	0xd13
 2906 0d0b 2A       		.uleb128 0x2a
 2907 0d0c F9070000 		.4byte	0x7f9
 2908 0d10 01       		.uleb128 0x1
 2909 0d11 53       		.byte	0x53
 2910 0d12 00       		.byte	0
 2911 0d13 2C       		.uleb128 0x2c
 2912 0d14 CA010000 		.4byte	.LBB124
 2913 0d18 06000000 		.4byte	.LBE124-.LBB124
 2914 0d1c 280D0000 		.4byte	0xd28
 2915 0d20 2A       		.uleb128 0x2a
 2916 0d21 82070000 		.4byte	0x782
 2917 0d25 01       		.uleb128 0x1
 2918 0d26 53       		.byte	0x53
 2919 0d27 00       		.byte	0
 2920 0d28 2C       		.uleb128 0x2c
 2921 0d29 D0010000 		.4byte	.LBB125
 2922 0d2d 06000000 		.4byte	.LBE125-.LBB125
 2923 0d31 3D0D0000 		.4byte	0xd3d
 2924 0d35 2A       		.uleb128 0x2a
 2925 0d36 93070000 		.4byte	0x793
 2926 0d3a 01       		.uleb128 0x1
 2927 0d3b 53       		.byte	0x53
 2928 0d3c 00       		.byte	0
 2929 0d3d 2C       		.uleb128 0x2c
 2930 0d3e E4010000 		.4byte	.LBB126
 2931 0d42 06000000 		.4byte	.LBE126-.LBB126
 2932 0d46 520D0000 		.4byte	0xd52
 2933 0d4a 2A       		.uleb128 0x2a
 2934 0d4b A4070000 		.4byte	0x7a4
 2935 0d4f 01       		.uleb128 0x1
 2936 0d50 53       		.byte	0x53
 2937 0d51 00       		.byte	0
 2938 0d52 2C       		.uleb128 0x2c
 2939 0d53 EA010000 		.4byte	.LBB127
 2940 0d57 06000000 		.4byte	.LBE127-.LBB127
 2941 0d5b 670D0000 		.4byte	0xd67
 2942 0d5f 2A       		.uleb128 0x2a
 2943 0d60 B5070000 		.4byte	0x7b5
 2944 0d64 01       		.uleb128 0x1
 2945 0d65 53       		.byte	0x53
 2946 0d66 00       		.byte	0
 2947 0d67 2C       		.uleb128 0x2c
ARM GAS  /tmp/ccP0TEd1.s 			page 53


 2948 0d68 08020000 		.4byte	.LBB128
 2949 0d6c 06000000 		.4byte	.LBE128-.LBB128
 2950 0d70 7C0D0000 		.4byte	0xd7c
 2951 0d74 2A       		.uleb128 0x2a
 2952 0d75 D7070000 		.4byte	0x7d7
 2953 0d79 01       		.uleb128 0x1
 2954 0d7a 53       		.byte	0x53
 2955 0d7b 00       		.byte	0
 2956 0d7c 29       		.uleb128 0x29
 2957 0d7d 58000000 		.4byte	.Ldebug_ranges0+0x58
 2958 0d81 8D0D0000 		.4byte	0xd8d
 2959 0d85 2A       		.uleb128 0x2a
 2960 0d86 E8070000 		.4byte	0x7e8
 2961 0d8a 01       		.uleb128 0x1
 2962 0d8b 53       		.byte	0x53
 2963 0d8c 00       		.byte	0
 2964 0d8d 2C       		.uleb128 0x2c
 2965 0d8e 44020000 		.4byte	.LBB131
 2966 0d92 04000000 		.4byte	.LBE131-.LBB131
 2967 0d96 A20D0000 		.4byte	0xda2
 2968 0d9a 2A       		.uleb128 0x2a
 2969 0d9b 06080000 		.4byte	0x806
 2970 0d9f 01       		.uleb128 0x1
 2971 0da0 53       		.byte	0x53
 2972 0da1 00       		.byte	0
 2973 0da2 2D       		.uleb128 0x2d
 2974 0da3 3A000000 		.4byte	.LVL12
 2975 0da7 BE150000 		.4byte	0x15be
 2976 0dab B60D0000 		.4byte	0xdb6
 2977 0daf 25       		.uleb128 0x25
 2978 0db0 01       		.uleb128 0x1
 2979 0db1 50       		.byte	0x50
 2980 0db2 02       		.uleb128 0x2
 2981 0db3 75       		.byte	0x75
 2982 0db4 00       		.sleb128 0
 2983 0db5 00       		.byte	0
 2984 0db6 2D       		.uleb128 0x2d
 2985 0db7 5A000000 		.4byte	.LVL13
 2986 0dbb D9150000 		.4byte	0x15d9
 2987 0dbf C90D0000 		.4byte	0xdc9
 2988 0dc3 25       		.uleb128 0x25
 2989 0dc4 01       		.uleb128 0x1
 2990 0dc5 50       		.byte	0x50
 2991 0dc6 01       		.uleb128 0x1
 2992 0dc7 32       		.byte	0x32
 2993 0dc8 00       		.byte	0
 2994 0dc9 2D       		.uleb128 0x2d
 2995 0dca 7C000000 		.4byte	.LVL14
 2996 0dce BE150000 		.4byte	0x15be
 2997 0dd2 E30D0000 		.4byte	0xde3
 2998 0dd6 25       		.uleb128 0x25
 2999 0dd7 01       		.uleb128 0x1
 3000 0dd8 51       		.byte	0x51
 3001 0dd9 02       		.uleb128 0x2
 3002 0dda 74       		.byte	0x74
 3003 0ddb 00       		.sleb128 0
 3004 0ddc 25       		.uleb128 0x25
ARM GAS  /tmp/ccP0TEd1.s 			page 54


 3005 0ddd 01       		.uleb128 0x1
 3006 0dde 50       		.byte	0x50
 3007 0ddf 02       		.uleb128 0x2
 3008 0de0 75       		.byte	0x75
 3009 0de1 00       		.sleb128 0
 3010 0de2 00       		.byte	0
 3011 0de3 2D       		.uleb128 0x2d
 3012 0de4 8A000000 		.4byte	.LVL15
 3013 0de8 D9150000 		.4byte	0x15d9
 3014 0dec F60D0000 		.4byte	0xdf6
 3015 0df0 25       		.uleb128 0x25
 3016 0df1 01       		.uleb128 0x1
 3017 0df2 50       		.byte	0x50
 3018 0df3 01       		.uleb128 0x1
 3019 0df4 33       		.byte	0x33
 3020 0df5 00       		.byte	0
 3021 0df6 2D       		.uleb128 0x2d
 3022 0df7 A0000000 		.4byte	.LVL18
 3023 0dfb 35150000 		.4byte	0x1535
 3024 0dff 100E0000 		.4byte	0xe10
 3025 0e03 25       		.uleb128 0x25
 3026 0e04 01       		.uleb128 0x1
 3027 0e05 51       		.byte	0x51
 3028 0e06 02       		.uleb128 0x2
 3029 0e07 09       		.byte	0x9
 3030 0e08 FF       		.byte	0xff
 3031 0e09 25       		.uleb128 0x25
 3032 0e0a 01       		.uleb128 0x1
 3033 0e0b 50       		.byte	0x50
 3034 0e0c 02       		.uleb128 0x2
 3035 0e0d 75       		.byte	0x75
 3036 0e0e 00       		.sleb128 0
 3037 0e0f 00       		.byte	0
 3038 0e10 2E       		.uleb128 0x2e
 3039 0e11 A6000000 		.4byte	.LVL19
 3040 0e15 F3150000 		.4byte	0x15f3
 3041 0e19 2D       		.uleb128 0x2d
 3042 0e1a C0000000 		.4byte	.LVL21
 3043 0e1e D9150000 		.4byte	0x15d9
 3044 0e22 2C0E0000 		.4byte	0xe2c
 3045 0e26 25       		.uleb128 0x25
 3046 0e27 01       		.uleb128 0x1
 3047 0e28 50       		.byte	0x50
 3048 0e29 01       		.uleb128 0x1
 3049 0e2a 34       		.byte	0x34
 3050 0e2b 00       		.byte	0
 3051 0e2c 2D       		.uleb128 0x2d
 3052 0e2d E6000000 		.4byte	.LVL24
 3053 0e31 04160000 		.4byte	0x1604
 3054 0e35 480E0000 		.4byte	0xe48
 3055 0e39 25       		.uleb128 0x25
 3056 0e3a 01       		.uleb128 0x1
 3057 0e3b 51       		.byte	0x51
 3058 0e3c 05       		.uleb128 0x5
 3059 0e3d 03       		.byte	0x3
 3060 0e3e 00000000 		.4byte	.LC0
 3061 0e42 25       		.uleb128 0x25
ARM GAS  /tmp/ccP0TEd1.s 			page 55


 3062 0e43 01       		.uleb128 0x1
 3063 0e44 50       		.byte	0x50
 3064 0e45 01       		.uleb128 0x1
 3065 0e46 35       		.byte	0x35
 3066 0e47 00       		.byte	0
 3067 0e48 2D       		.uleb128 0x2d
 3068 0e49 00010000 		.4byte	.LVL27
 3069 0e4d BE150000 		.4byte	0x15be
 3070 0e51 5C0E0000 		.4byte	0xe5c
 3071 0e55 25       		.uleb128 0x25
 3072 0e56 01       		.uleb128 0x1
 3073 0e57 50       		.byte	0x50
 3074 0e58 02       		.uleb128 0x2
 3075 0e59 75       		.byte	0x75
 3076 0e5a 00       		.sleb128 0
 3077 0e5b 00       		.byte	0
 3078 0e5c 2D       		.uleb128 0x2d
 3079 0e5d 16010000 		.4byte	.LVL28
 3080 0e61 24160000 		.4byte	0x1624
 3081 0e65 810E0000 		.4byte	0xe81
 3082 0e69 25       		.uleb128 0x25
 3083 0e6a 01       		.uleb128 0x1
 3084 0e6b 53       		.byte	0x53
 3085 0e6c 01       		.uleb128 0x1
 3086 0e6d 30       		.byte	0x30
 3087 0e6e 25       		.uleb128 0x25
 3088 0e6f 01       		.uleb128 0x1
 3089 0e70 52       		.byte	0x52
 3090 0e71 01       		.uleb128 0x1
 3091 0e72 38       		.byte	0x38
 3092 0e73 25       		.uleb128 0x25
 3093 0e74 01       		.uleb128 0x1
 3094 0e75 51       		.byte	0x51
 3095 0e76 03       		.uleb128 0x3
 3096 0e77 76       		.byte	0x76
 3097 0e78 04       		.sleb128 4
 3098 0e79 06       		.byte	0x6
 3099 0e7a 25       		.uleb128 0x25
 3100 0e7b 01       		.uleb128 0x1
 3101 0e7c 50       		.byte	0x50
 3102 0e7d 02       		.uleb128 0x2
 3103 0e7e 75       		.byte	0x75
 3104 0e7f 00       		.sleb128 0
 3105 0e80 00       		.byte	0
 3106 0e81 2D       		.uleb128 0x2d
 3107 0e82 22010000 		.4byte	.LVL30
 3108 0e86 D9150000 		.4byte	0x15d9
 3109 0e8a 9C0E0000 		.4byte	0xe9c
 3110 0e8e 25       		.uleb128 0x25
 3111 0e8f 01       		.uleb128 0x1
 3112 0e90 51       		.byte	0x51
 3113 0e91 04       		.uleb128 0x4
 3114 0e92 74       		.byte	0x74
 3115 0e93 00       		.sleb128 0
 3116 0e94 30       		.byte	0x30
 3117 0e95 29       		.byte	0x29
 3118 0e96 25       		.uleb128 0x25
ARM GAS  /tmp/ccP0TEd1.s 			page 56


 3119 0e97 01       		.uleb128 0x1
 3120 0e98 50       		.byte	0x50
 3121 0e99 01       		.uleb128 0x1
 3122 0e9a 36       		.byte	0x36
 3123 0e9b 00       		.byte	0
 3124 0e9c 2D       		.uleb128 0x2d
 3125 0e9d 3E010000 		.4byte	.LVL32
 3126 0ea1 D9150000 		.4byte	0x15d9
 3127 0ea5 AF0E0000 		.4byte	0xeaf
 3128 0ea9 25       		.uleb128 0x25
 3129 0eaa 01       		.uleb128 0x1
 3130 0eab 50       		.byte	0x50
 3131 0eac 01       		.uleb128 0x1
 3132 0ead 37       		.byte	0x37
 3133 0eae 00       		.byte	0
 3134 0eaf 2D       		.uleb128 0x2d
 3135 0eb0 5E010000 		.4byte	.LVL35
 3136 0eb4 BE150000 		.4byte	0x15be
 3137 0eb8 C30E0000 		.4byte	0xec3
 3138 0ebc 25       		.uleb128 0x25
 3139 0ebd 01       		.uleb128 0x1
 3140 0ebe 50       		.byte	0x50
 3141 0ebf 02       		.uleb128 0x2
 3142 0ec0 75       		.byte	0x75
 3143 0ec1 00       		.sleb128 0
 3144 0ec2 00       		.byte	0
 3145 0ec3 2D       		.uleb128 0x2d
 3146 0ec4 74010000 		.4byte	.LVL36
 3147 0ec8 24160000 		.4byte	0x1624
 3148 0ecc E70E0000 		.4byte	0xee7
 3149 0ed0 25       		.uleb128 0x25
 3150 0ed1 01       		.uleb128 0x1
 3151 0ed2 53       		.byte	0x53
 3152 0ed3 01       		.uleb128 0x1
 3153 0ed4 30       		.byte	0x30
 3154 0ed5 25       		.uleb128 0x25
 3155 0ed6 01       		.uleb128 0x1
 3156 0ed7 52       		.byte	0x52
 3157 0ed8 01       		.uleb128 0x1
 3158 0ed9 32       		.byte	0x32
 3159 0eda 25       		.uleb128 0x25
 3160 0edb 01       		.uleb128 0x1
 3161 0edc 51       		.byte	0x51
 3162 0edd 02       		.uleb128 0x2
 3163 0ede 74       		.byte	0x74
 3164 0edf 00       		.sleb128 0
 3165 0ee0 25       		.uleb128 0x25
 3166 0ee1 01       		.uleb128 0x1
 3167 0ee2 50       		.byte	0x50
 3168 0ee3 02       		.uleb128 0x2
 3169 0ee4 75       		.byte	0x75
 3170 0ee5 00       		.sleb128 0
 3171 0ee6 00       		.byte	0
 3172 0ee7 2D       		.uleb128 0x2d
 3173 0ee8 80010000 		.4byte	.LVL39
 3174 0eec D9150000 		.4byte	0x15d9
 3175 0ef0 FA0E0000 		.4byte	0xefa
ARM GAS  /tmp/ccP0TEd1.s 			page 57


 3176 0ef4 25       		.uleb128 0x25
 3177 0ef5 01       		.uleb128 0x1
 3178 0ef6 50       		.byte	0x50
 3179 0ef7 01       		.uleb128 0x1
 3180 0ef8 38       		.byte	0x38
 3181 0ef9 00       		.byte	0
 3182 0efa 2D       		.uleb128 0x2d
 3183 0efb 94010000 		.4byte	.LVL40
 3184 0eff 24160000 		.4byte	0x1624
 3185 0f03 190F0000 		.4byte	0xf19
 3186 0f07 25       		.uleb128 0x25
 3187 0f08 01       		.uleb128 0x1
 3188 0f09 52       		.byte	0x52
 3189 0f0a 01       		.uleb128 0x1
 3190 0f0b 32       		.byte	0x32
 3191 0f0c 25       		.uleb128 0x25
 3192 0f0d 01       		.uleb128 0x1
 3193 0f0e 51       		.byte	0x51
 3194 0f0f 02       		.uleb128 0x2
 3195 0f10 74       		.byte	0x74
 3196 0f11 00       		.sleb128 0
 3197 0f12 25       		.uleb128 0x25
 3198 0f13 01       		.uleb128 0x1
 3199 0f14 50       		.byte	0x50
 3200 0f15 02       		.uleb128 0x2
 3201 0f16 75       		.byte	0x75
 3202 0f17 00       		.sleb128 0
 3203 0f18 00       		.byte	0
 3204 0f19 2D       		.uleb128 0x2d
 3205 0f1a A0010000 		.4byte	.LVL42
 3206 0f1e D9150000 		.4byte	0x15d9
 3207 0f22 2C0F0000 		.4byte	0xf2c
 3208 0f26 25       		.uleb128 0x25
 3209 0f27 01       		.uleb128 0x1
 3210 0f28 50       		.byte	0x50
 3211 0f29 01       		.uleb128 0x1
 3212 0f2a 39       		.byte	0x39
 3213 0f2b 00       		.byte	0
 3214 0f2c 2D       		.uleb128 0x2d
 3215 0f2d BE010000 		.4byte	.LVL43
 3216 0f31 D9150000 		.4byte	0x15d9
 3217 0f35 3F0F0000 		.4byte	0xf3f
 3218 0f39 25       		.uleb128 0x25
 3219 0f3a 01       		.uleb128 0x1
 3220 0f3b 50       		.byte	0x50
 3221 0f3c 01       		.uleb128 0x1
 3222 0f3d 3A       		.byte	0x3a
 3223 0f3e 00       		.byte	0
 3224 0f3f 2D       		.uleb128 0x2d
 3225 0f40 DE010000 		.4byte	.LVL44
 3226 0f44 BE150000 		.4byte	0x15be
 3227 0f48 590F0000 		.4byte	0xf59
 3228 0f4c 25       		.uleb128 0x25
 3229 0f4d 01       		.uleb128 0x1
 3230 0f4e 51       		.byte	0x51
 3231 0f4f 02       		.uleb128 0x2
 3232 0f50 74       		.byte	0x74
ARM GAS  /tmp/ccP0TEd1.s 			page 58


 3233 0f51 00       		.sleb128 0
 3234 0f52 25       		.uleb128 0x25
 3235 0f53 01       		.uleb128 0x1
 3236 0f54 50       		.byte	0x50
 3237 0f55 02       		.uleb128 0x2
 3238 0f56 75       		.byte	0x75
 3239 0f57 00       		.sleb128 0
 3240 0f58 00       		.byte	0
 3241 0f59 2D       		.uleb128 0x2d
 3242 0f5a E4010000 		.4byte	.LVL45
 3243 0f5e 49160000 		.4byte	0x1649
 3244 0f62 6D0F0000 		.4byte	0xf6d
 3245 0f66 25       		.uleb128 0x25
 3246 0f67 01       		.uleb128 0x1
 3247 0f68 50       		.byte	0x50
 3248 0f69 02       		.uleb128 0x2
 3249 0f6a 75       		.byte	0x75
 3250 0f6b 00       		.sleb128 0
 3251 0f6c 00       		.byte	0
 3252 0f6d 2D       		.uleb128 0x2d
 3253 0f6e 00020000 		.4byte	.LVL46
 3254 0f72 D9150000 		.4byte	0x15d9
 3255 0f76 800F0000 		.4byte	0xf80
 3256 0f7a 25       		.uleb128 0x25
 3257 0f7b 01       		.uleb128 0x1
 3258 0f7c 50       		.byte	0x50
 3259 0f7d 01       		.uleb128 0x1
 3260 0f7e 3B       		.byte	0x3b
 3261 0f7f 00       		.byte	0
 3262 0f80 2D       		.uleb128 0x2d
 3263 0f81 24020000 		.4byte	.LVL47
 3264 0f85 5B160000 		.4byte	0x165b
 3265 0f89 AC0F0000 		.4byte	0xfac
 3266 0f8d 25       		.uleb128 0x25
 3267 0f8e 01       		.uleb128 0x1
 3268 0f8f 53       		.byte	0x53
 3269 0f90 05       		.uleb128 0x5
 3270 0f91 03       		.byte	0x3
 3271 0f92 00000000 		.4byte	thread1
 3272 0f96 25       		.uleb128 0x25
 3273 0f97 01       		.uleb128 0x1
 3274 0f98 51       		.byte	0x51
 3275 0f99 03       		.uleb128 0x3
 3276 0f9a 0A       		.byte	0xa
 3277 0f9b 3001     		.2byte	0x130
 3278 0f9d 25       		.uleb128 0x25
 3279 0f9e 01       		.uleb128 0x1
 3280 0f9f 50       		.byte	0x50
 3281 0fa0 03       		.uleb128 0x3
 3282 0fa1 77       		.byte	0x77
 3283 0fa2 00       		.sleb128 0
 3284 0fa3 06       		.byte	0x6
 3285 0fa4 25       		.uleb128 0x25
 3286 0fa5 02       		.uleb128 0x2
 3287 0fa6 7D       		.byte	0x7d
 3288 0fa7 00       		.sleb128 0
 3289 0fa8 02       		.uleb128 0x2
ARM GAS  /tmp/ccP0TEd1.s 			page 59


 3290 0fa9 76       		.byte	0x76
 3291 0faa 00       		.sleb128 0
 3292 0fab 00       		.byte	0
 3293 0fac 2D       		.uleb128 0x2d
 3294 0fad 3E020000 		.4byte	.LVL48
 3295 0fb1 D9150000 		.4byte	0x15d9
 3296 0fb5 BF0F0000 		.4byte	0xfbf
 3297 0fb9 25       		.uleb128 0x25
 3298 0fba 01       		.uleb128 0x1
 3299 0fbb 50       		.byte	0x50
 3300 0fbc 01       		.uleb128 0x1
 3301 0fbd 3C       		.byte	0x3c
 3302 0fbe 00       		.byte	0
 3303 0fbf 2E       		.uleb128 0x2e
 3304 0fc0 4C020000 		.4byte	.LVL49
 3305 0fc4 85160000 		.4byte	0x1685
 3306 0fc8 2D       		.uleb128 0x2d
 3307 0fc9 54020000 		.4byte	.LVL50
 3308 0fcd 35150000 		.4byte	0x1535
 3309 0fd1 E10F0000 		.4byte	0xfe1
 3310 0fd5 25       		.uleb128 0x25
 3311 0fd6 01       		.uleb128 0x1
 3312 0fd7 51       		.byte	0x51
 3313 0fd8 01       		.uleb128 0x1
 3314 0fd9 3A       		.byte	0x3a
 3315 0fda 25       		.uleb128 0x25
 3316 0fdb 01       		.uleb128 0x1
 3317 0fdc 50       		.byte	0x50
 3318 0fdd 02       		.uleb128 0x2
 3319 0fde 75       		.byte	0x75
 3320 0fdf 00       		.sleb128 0
 3321 0fe0 00       		.byte	0
 3322 0fe1 26       		.uleb128 0x26
 3323 0fe2 68020000 		.4byte	.LVL51
 3324 0fe6 D9150000 		.4byte	0x15d9
 3325 0fea 25       		.uleb128 0x25
 3326 0feb 01       		.uleb128 0x1
 3327 0fec 50       		.byte	0x50
 3328 0fed 01       		.uleb128 0x1
 3329 0fee 3D       		.byte	0x3d
 3330 0fef 00       		.byte	0
 3331 0ff0 00       		.byte	0
 3332 0ff1 24       		.uleb128 0x24
 3333 0ff2 1C000000 		.4byte	.LVL9
 3334 0ff6 D9150000 		.4byte	0x15d9
 3335 0ffa 25       		.uleb128 0x25
 3336 0ffb 01       		.uleb128 0x1
 3337 0ffc 50       		.byte	0x50
 3338 0ffd 01       		.uleb128 0x1
 3339 0ffe 31       		.byte	0x31
 3340 0fff 00       		.byte	0
 3341 1000 00       		.byte	0
 3342 1001 27       		.uleb128 0x27
 3343 1002 13080000 		.4byte	0x813
 3344 1006 00000000 		.4byte	.LFB13
 3345 100a 68020000 		.4byte	.LFE13-.LFB13
 3346 100e 01       		.uleb128 0x1
ARM GAS  /tmp/ccP0TEd1.s 			page 60


 3347 100f 9C       		.byte	0x9c
 3348 1010 77140000 		.4byte	0x1477
 3349 1014 28       		.uleb128 0x28
 3350 1015 1F080000 		.4byte	0x81f
 3351 1019 28       		.uleb128 0x28
 3352 101a 28080000 		.4byte	0x828
 3353 101e 29       		.uleb128 0x29
 3354 101f 70000000 		.4byte	.Ldebug_ranges0+0x70
 3355 1023 2F100000 		.4byte	0x102f
 3356 1027 2A       		.uleb128 0x2a
 3357 1028 36080000 		.4byte	0x836
 3358 102c 01       		.uleb128 0x1
 3359 102d 53       		.byte	0x53
 3360 102e 00       		.byte	0
 3361 102f 29       		.uleb128 0x29
 3362 1030 88000000 		.4byte	.Ldebug_ranges0+0x88
 3363 1034 67140000 		.4byte	0x1467
 3364 1038 2B       		.uleb128 0x2b
 3365 1039 1F080000 		.4byte	0x81f
 3366 103d 15010000 		.4byte	.LLST4
 3367 1041 2B       		.uleb128 0x2b
 3368 1042 28080000 		.4byte	0x828
 3369 1046 80010000 		.4byte	.LLST5
 3370 104a 2C       		.uleb128 0x2c
 3371 104b 22000000 		.4byte	.LBB175
 3372 104f 08000000 		.4byte	.LBE175-.LBB175
 3373 1053 5F100000 		.4byte	0x105f
 3374 1057 2A       		.uleb128 0x2a
 3375 1058 58080000 		.4byte	0x858
 3376 105c 01       		.uleb128 0x1
 3377 105d 53       		.byte	0x53
 3378 105e 00       		.byte	0
 3379 105f 2C       		.uleb128 0x2c
 3380 1060 40000000 		.4byte	.LBB176
 3381 1064 06000000 		.4byte	.LBE176-.LBB176
 3382 1068 74100000 		.4byte	0x1074
 3383 106c 2A       		.uleb128 0x2a
 3384 106d 69080000 		.4byte	0x869
 3385 1071 01       		.uleb128 0x1
 3386 1072 53       		.byte	0x53
 3387 1073 00       		.byte	0
 3388 1074 2C       		.uleb128 0x2c
 3389 1075 58000000 		.4byte	.LBB177
 3390 1079 08000000 		.4byte	.LBE177-.LBB177
 3391 107d 89100000 		.4byte	0x1089
 3392 1081 2A       		.uleb128 0x2a
 3393 1082 8B080000 		.4byte	0x88b
 3394 1086 01       		.uleb128 0x1
 3395 1087 53       		.byte	0x53
 3396 1088 00       		.byte	0
 3397 1089 2C       		.uleb128 0x2c
 3398 108a 60000000 		.4byte	.LBB178
 3399 108e 1A000000 		.4byte	.LBE178-.LBB178
 3400 1092 E7100000 		.4byte	0x10e7
 3401 1096 2B       		.uleb128 0x2b
 3402 1097 9C080000 		.4byte	0x89c
 3403 109b D0010000 		.4byte	.LLST6
ARM GAS  /tmp/ccP0TEd1.s 			page 61


 3404 109f 2C       		.uleb128 0x2c
 3405 10a0 60000000 		.4byte	.LBB179
 3406 10a4 06000000 		.4byte	.LBE179-.LBB179
 3407 10a8 B4100000 		.4byte	0x10b4
 3408 10ac 2A       		.uleb128 0x2a
 3409 10ad AA080000 		.4byte	0x8aa
 3410 10b1 01       		.uleb128 0x1
 3411 10b2 53       		.byte	0x53
 3412 10b3 00       		.byte	0
 3413 10b4 2C       		.uleb128 0x2c
 3414 10b5 6E000000 		.4byte	.LBB180
 3415 10b9 06000000 		.4byte	.LBE180-.LBB180
 3416 10bd C9100000 		.4byte	0x10c9
 3417 10c1 2A       		.uleb128 0x2a
 3418 10c2 B7080000 		.4byte	0x8b7
 3419 10c6 01       		.uleb128 0x1
 3420 10c7 53       		.byte	0x53
 3421 10c8 00       		.byte	0
 3422 10c9 2D       		.uleb128 0x2d
 3423 10ca 6E000000 		.4byte	.LVL59
 3424 10ce 8C160000 		.4byte	0x168c
 3425 10d2 DD100000 		.4byte	0x10dd
 3426 10d6 25       		.uleb128 0x25
 3427 10d7 01       		.uleb128 0x1
 3428 10d8 50       		.byte	0x50
 3429 10d9 02       		.uleb128 0x2
 3430 10da 75       		.byte	0x75
 3431 10db 00       		.sleb128 0
 3432 10dc 00       		.byte	0
 3433 10dd 2E       		.uleb128 0x2e
 3434 10de 7A000000 		.4byte	.LVL61
 3435 10e2 F3150000 		.4byte	0x15f3
 3436 10e6 00       		.byte	0
 3437 10e7 2C       		.uleb128 0x2c
 3438 10e8 7E000000 		.4byte	.LBB181
 3439 10ec 06000000 		.4byte	.LBE181-.LBB181
 3440 10f0 FC100000 		.4byte	0x10fc
 3441 10f4 2A       		.uleb128 0x2a
 3442 10f5 C9080000 		.4byte	0x8c9
 3443 10f9 01       		.uleb128 0x1
 3444 10fa 53       		.byte	0x53
 3445 10fb 00       		.byte	0
 3446 10fc 2C       		.uleb128 0x2c
 3447 10fd 96000000 		.4byte	.LBB182
 3448 1101 06000000 		.4byte	.LBE182-.LBB182
 3449 1105 11110000 		.4byte	0x1111
 3450 1109 2A       		.uleb128 0x2a
 3451 110a DA080000 		.4byte	0x8da
 3452 110e 01       		.uleb128 0x1
 3453 110f 53       		.byte	0x53
 3454 1110 00       		.byte	0
 3455 1111 2C       		.uleb128 0x2c
 3456 1112 A2000000 		.4byte	.LBB183
 3457 1116 06000000 		.4byte	.LBE183-.LBB183
 3458 111a 26110000 		.4byte	0x1126
 3459 111e 2A       		.uleb128 0x2a
 3460 111f EB080000 		.4byte	0x8eb
ARM GAS  /tmp/ccP0TEd1.s 			page 62


 3461 1123 01       		.uleb128 0x1
 3462 1124 53       		.byte	0x53
 3463 1125 00       		.byte	0
 3464 1126 2C       		.uleb128 0x2c
 3465 1127 B6000000 		.4byte	.LBB184
 3466 112b 06000000 		.4byte	.LBE184-.LBB184
 3467 112f 3B110000 		.4byte	0x113b
 3468 1133 2A       		.uleb128 0x2a
 3469 1134 FC080000 		.4byte	0x8fc
 3470 1138 01       		.uleb128 0x1
 3471 1139 53       		.byte	0x53
 3472 113a 00       		.byte	0
 3473 113b 2C       		.uleb128 0x2c
 3474 113c D4000000 		.4byte	.LBB185
 3475 1140 08000000 		.4byte	.LBE185-.LBB185
 3476 1144 50110000 		.4byte	0x1150
 3477 1148 2A       		.uleb128 0x2a
 3478 1149 0D090000 		.4byte	0x90d
 3479 114d 01       		.uleb128 0x1
 3480 114e 53       		.byte	0x53
 3481 114f 00       		.byte	0
 3482 1150 2C       		.uleb128 0x2c
 3483 1151 F0000000 		.4byte	.LBB186
 3484 1155 06000000 		.4byte	.LBE186-.LBB186
 3485 1159 65110000 		.4byte	0x1165
 3486 115d 2A       		.uleb128 0x2a
 3487 115e 1E090000 		.4byte	0x91e
 3488 1162 01       		.uleb128 0x1
 3489 1163 53       		.byte	0x53
 3490 1164 00       		.byte	0
 3491 1165 2C       		.uleb128 0x2c
 3492 1166 1C010000 		.4byte	.LBB187
 3493 116a 06000000 		.4byte	.LBE187-.LBB187
 3494 116e 7A110000 		.4byte	0x117a
 3495 1172 2A       		.uleb128 0x2a
 3496 1173 2F090000 		.4byte	0x92f
 3497 1177 01       		.uleb128 0x1
 3498 1178 53       		.byte	0x53
 3499 1179 00       		.byte	0
 3500 117a 2C       		.uleb128 0x2c
 3501 117b 36010000 		.4byte	.LBB188
 3502 117f 08000000 		.4byte	.LBE188-.LBB188
 3503 1183 8F110000 		.4byte	0x118f
 3504 1187 2A       		.uleb128 0x2a
 3505 1188 40090000 		.4byte	0x940
 3506 118c 01       		.uleb128 0x1
 3507 118d 53       		.byte	0x53
 3508 118e 00       		.byte	0
 3509 118f 2C       		.uleb128 0x2c
 3510 1190 3E010000 		.4byte	.LBB189
 3511 1194 06000000 		.4byte	.LBE189-.LBB189
 3512 1198 A4110000 		.4byte	0x11a4
 3513 119c 2A       		.uleb128 0x2a
 3514 119d 51090000 		.4byte	0x951
 3515 11a1 01       		.uleb128 0x1
 3516 11a2 53       		.byte	0x53
 3517 11a3 00       		.byte	0
ARM GAS  /tmp/ccP0TEd1.s 			page 63


 3518 11a4 29       		.uleb128 0x29
 3519 11a5 B0000000 		.4byte	.Ldebug_ranges0+0xb0
 3520 11a9 B5110000 		.4byte	0x11b5
 3521 11ad 2A       		.uleb128 0x2a
 3522 11ae 62090000 		.4byte	0x962
 3523 11b2 01       		.uleb128 0x1
 3524 11b3 53       		.byte	0x53
 3525 11b4 00       		.byte	0
 3526 11b5 2C       		.uleb128 0x2c
 3527 11b6 86010000 		.4byte	.LBB192
 3528 11ba 08000000 		.4byte	.LBE192-.LBB192
 3529 11be CA110000 		.4byte	0x11ca
 3530 11c2 2A       		.uleb128 0x2a
 3531 11c3 73090000 		.4byte	0x973
 3532 11c7 01       		.uleb128 0x1
 3533 11c8 53       		.byte	0x53
 3534 11c9 00       		.byte	0
 3535 11ca 2C       		.uleb128 0x2c
 3536 11cb 8E010000 		.4byte	.LBB193
 3537 11cf 06000000 		.4byte	.LBE193-.LBB193
 3538 11d3 DF110000 		.4byte	0x11df
 3539 11d7 2A       		.uleb128 0x2a
 3540 11d8 84090000 		.4byte	0x984
 3541 11dc 01       		.uleb128 0x1
 3542 11dd 53       		.byte	0x53
 3543 11de 00       		.byte	0
 3544 11df 2C       		.uleb128 0x2c
 3545 11e0 98010000 		.4byte	.LBB194
 3546 11e4 06000000 		.4byte	.LBE194-.LBB194
 3547 11e8 F4110000 		.4byte	0x11f4
 3548 11ec 2A       		.uleb128 0x2a
 3549 11ed 95090000 		.4byte	0x995
 3550 11f1 01       		.uleb128 0x1
 3551 11f2 53       		.byte	0x53
 3552 11f3 00       		.byte	0
 3553 11f4 2C       		.uleb128 0x2c
 3554 11f5 A4010000 		.4byte	.LBB195
 3555 11f9 06000000 		.4byte	.LBE195-.LBB195
 3556 11fd 09120000 		.4byte	0x1209
 3557 1201 2A       		.uleb128 0x2a
 3558 1202 A6090000 		.4byte	0x9a6
 3559 1206 01       		.uleb128 0x1
 3560 1207 53       		.byte	0x53
 3561 1208 00       		.byte	0
 3562 1209 2C       		.uleb128 0x2c
 3563 120a AA010000 		.4byte	.LBB196
 3564 120e 06000000 		.4byte	.LBE196-.LBB196
 3565 1212 1E120000 		.4byte	0x121e
 3566 1216 2A       		.uleb128 0x2a
 3567 1217 B7090000 		.4byte	0x9b7
 3568 121b 01       		.uleb128 0x1
 3569 121c 53       		.byte	0x53
 3570 121d 00       		.byte	0
 3571 121e 2C       		.uleb128 0x2c
 3572 121f C8010000 		.4byte	.LBB197
 3573 1223 08000000 		.4byte	.LBE197-.LBB197
 3574 1227 33120000 		.4byte	0x1233
ARM GAS  /tmp/ccP0TEd1.s 			page 64


 3575 122b 2A       		.uleb128 0x2a
 3576 122c C8090000 		.4byte	0x9c8
 3577 1230 01       		.uleb128 0x1
 3578 1231 53       		.byte	0x53
 3579 1232 00       		.byte	0
 3580 1233 2C       		.uleb128 0x2c
 3581 1234 D0010000 		.4byte	.LBB198
 3582 1238 04000000 		.4byte	.LBE198-.LBB198
 3583 123c 48120000 		.4byte	0x1248
 3584 1240 2A       		.uleb128 0x2a
 3585 1241 D9090000 		.4byte	0x9d9
 3586 1245 01       		.uleb128 0x1
 3587 1246 53       		.byte	0x53
 3588 1247 00       		.byte	0
 3589 1248 2C       		.uleb128 0x2c
 3590 1249 0E020000 		.4byte	.LBB199
 3591 124d 06000000 		.4byte	.LBE199-.LBB199
 3592 1251 5D120000 		.4byte	0x125d
 3593 1255 2A       		.uleb128 0x2a
 3594 1256 EA090000 		.4byte	0x9ea
 3595 125a 01       		.uleb128 0x1
 3596 125b 53       		.byte	0x53
 3597 125c 00       		.byte	0
 3598 125d 29       		.uleb128 0x29
 3599 125e C8000000 		.4byte	.Ldebug_ranges0+0xc8
 3600 1262 6E120000 		.4byte	0x126e
 3601 1266 2A       		.uleb128 0x2a
 3602 1267 FB090000 		.4byte	0x9fb
 3603 126b 01       		.uleb128 0x1
 3604 126c 53       		.byte	0x53
 3605 126d 00       		.byte	0
 3606 126e 2C       		.uleb128 0x2c
 3607 126f 2E020000 		.4byte	.LBB202
 3608 1273 04000000 		.4byte	.LBE202-.LBB202
 3609 1277 83120000 		.4byte	0x1283
 3610 127b 2A       		.uleb128 0x2a
 3611 127c 080A0000 		.4byte	0xa08
 3612 1280 01       		.uleb128 0x1
 3613 1281 53       		.byte	0x53
 3614 1282 00       		.byte	0
 3615 1283 2D       		.uleb128 0x2d
 3616 1284 3C000000 		.4byte	.LVL55
 3617 1288 77150000 		.4byte	0x1577
 3618 128c 9D120000 		.4byte	0x129d
 3619 1290 25       		.uleb128 0x25
 3620 1291 01       		.uleb128 0x1
 3621 1292 52       		.byte	0x52
 3622 1293 02       		.uleb128 0x2
 3623 1294 09       		.byte	0x9
 3624 1295 FF       		.byte	0xff
 3625 1296 25       		.uleb128 0x25
 3626 1297 01       		.uleb128 0x1
 3627 1298 50       		.byte	0x50
 3628 1299 02       		.uleb128 0x2
 3629 129a 75       		.byte	0x75
 3630 129b 00       		.sleb128 0
 3631 129c 00       		.byte	0
ARM GAS  /tmp/ccP0TEd1.s 			page 65


 3632 129d 2D       		.uleb128 0x2d
 3633 129e 56000000 		.4byte	.LVL56
 3634 12a2 D9150000 		.4byte	0x15d9
 3635 12a6 B0120000 		.4byte	0x12b0
 3636 12aa 25       		.uleb128 0x25
 3637 12ab 01       		.uleb128 0x1
 3638 12ac 50       		.byte	0x50
 3639 12ad 01       		.uleb128 0x1
 3640 12ae 32       		.byte	0x32
 3641 12af 00       		.byte	0
 3642 12b0 2D       		.uleb128 0x2d
 3643 12b1 94000000 		.4byte	.LVL63
 3644 12b5 D9150000 		.4byte	0x15d9
 3645 12b9 C3120000 		.4byte	0x12c3
 3646 12bd 25       		.uleb128 0x25
 3647 12be 01       		.uleb128 0x1
 3648 12bf 50       		.byte	0x50
 3649 12c0 01       		.uleb128 0x1
 3650 12c1 33       		.byte	0x33
 3651 12c2 00       		.byte	0
 3652 12c3 2D       		.uleb128 0x2d
 3653 12c4 B0000000 		.4byte	.LVL66
 3654 12c8 04160000 		.4byte	0x1604
 3655 12cc DF120000 		.4byte	0x12df
 3656 12d0 25       		.uleb128 0x25
 3657 12d1 01       		.uleb128 0x1
 3658 12d2 51       		.byte	0x51
 3659 12d3 05       		.uleb128 0x5
 3660 12d4 03       		.byte	0x3
 3661 12d5 00000000 		.4byte	.LC0
 3662 12d9 25       		.uleb128 0x25
 3663 12da 01       		.uleb128 0x1
 3664 12db 50       		.byte	0x50
 3665 12dc 01       		.uleb128 0x1
 3666 12dd 34       		.byte	0x34
 3667 12de 00       		.byte	0
 3668 12df 2D       		.uleb128 0x2d
 3669 12e0 C4000000 		.4byte	.LVL68
 3670 12e4 8C160000 		.4byte	0x168c
 3671 12e8 F3120000 		.4byte	0x12f3
 3672 12ec 25       		.uleb128 0x25
 3673 12ed 01       		.uleb128 0x1
 3674 12ee 50       		.byte	0x50
 3675 12ef 02       		.uleb128 0x2
 3676 12f0 75       		.byte	0x75
 3677 12f1 00       		.sleb128 0
 3678 12f2 00       		.byte	0
 3679 12f3 2D       		.uleb128 0x2d
 3680 12f4 D2000000 		.4byte	.LVL69
 3681 12f8 D9150000 		.4byte	0x15d9
 3682 12fc 06130000 		.4byte	0x1306
 3683 1300 25       		.uleb128 0x25
 3684 1301 01       		.uleb128 0x1
 3685 1302 50       		.byte	0x50
 3686 1303 01       		.uleb128 0x1
 3687 1304 35       		.byte	0x35
 3688 1305 00       		.byte	0
ARM GAS  /tmp/ccP0TEd1.s 			page 66


 3689 1306 2D       		.uleb128 0x2d
 3690 1307 04010000 		.4byte	.LVL72
 3691 130b A2160000 		.4byte	0x16a2
 3692 130f 25130000 		.4byte	0x1325
 3693 1313 25       		.uleb128 0x25
 3694 1314 01       		.uleb128 0x1
 3695 1315 52       		.byte	0x52
 3696 1316 01       		.uleb128 0x1
 3697 1317 38       		.byte	0x38
 3698 1318 25       		.uleb128 0x25
 3699 1319 01       		.uleb128 0x1
 3700 131a 51       		.byte	0x51
 3701 131b 02       		.uleb128 0x2
 3702 131c 74       		.byte	0x74
 3703 131d 00       		.sleb128 0
 3704 131e 25       		.uleb128 0x25
 3705 131f 01       		.uleb128 0x1
 3706 1320 50       		.byte	0x50
 3707 1321 02       		.uleb128 0x2
 3708 1322 75       		.byte	0x75
 3709 1323 00       		.sleb128 0
 3710 1324 00       		.byte	0
 3711 1325 2D       		.uleb128 0x2d
 3712 1326 16010000 		.4byte	.LVL74
 3713 132a D9150000 		.4byte	0x15d9
 3714 132e 38130000 		.4byte	0x1338
 3715 1332 25       		.uleb128 0x25
 3716 1333 01       		.uleb128 0x1
 3717 1334 50       		.byte	0x50
 3718 1335 01       		.uleb128 0x1
 3719 1336 36       		.byte	0x36
 3720 1337 00       		.byte	0
 3721 1338 2D       		.uleb128 0x2d
 3722 1339 32010000 		.4byte	.LVL75
 3723 133d D9150000 		.4byte	0x15d9
 3724 1341 4B130000 		.4byte	0x134b
 3725 1345 25       		.uleb128 0x25
 3726 1346 01       		.uleb128 0x1
 3727 1347 50       		.byte	0x50
 3728 1348 01       		.uleb128 0x1
 3729 1349 37       		.byte	0x37
 3730 134a 00       		.byte	0
 3731 134b 2D       		.uleb128 0x2d
 3732 134c 5C010000 		.4byte	.LVL76
 3733 1350 5B160000 		.4byte	0x165b
 3734 1354 77130000 		.4byte	0x1377
 3735 1358 25       		.uleb128 0x25
 3736 1359 01       		.uleb128 0x1
 3737 135a 53       		.byte	0x53
 3738 135b 05       		.uleb128 0x5
 3739 135c 03       		.byte	0x3
 3740 135d 00000000 		.4byte	thread2
 3741 1361 25       		.uleb128 0x25
 3742 1362 01       		.uleb128 0x1
 3743 1363 51       		.byte	0x51
 3744 1364 03       		.uleb128 0x3
 3745 1365 0A       		.byte	0xa
ARM GAS  /tmp/ccP0TEd1.s 			page 67


 3746 1366 3001     		.2byte	0x130
 3747 1368 25       		.uleb128 0x25
 3748 1369 01       		.uleb128 0x1
 3749 136a 50       		.byte	0x50
 3750 136b 03       		.uleb128 0x3
 3751 136c 76       		.byte	0x76
 3752 136d 00       		.sleb128 0
 3753 136e 06       		.byte	0x6
 3754 136f 25       		.uleb128 0x25
 3755 1370 02       		.uleb128 0x2
 3756 1371 7D       		.byte	0x7d
 3757 1372 00       		.sleb128 0
 3758 1373 02       		.uleb128 0x2
 3759 1374 78       		.byte	0x78
 3760 1375 00       		.sleb128 0
 3761 1376 00       		.byte	0
 3762 1377 2D       		.uleb128 0x2d
 3763 1378 82010000 		.4byte	.LVL77
 3764 137c D9150000 		.4byte	0x15d9
 3765 1380 8A130000 		.4byte	0x138a
 3766 1384 25       		.uleb128 0x25
 3767 1385 01       		.uleb128 0x1
 3768 1386 50       		.byte	0x50
 3769 1387 01       		.uleb128 0x1
 3770 1388 38       		.byte	0x38
 3771 1389 00       		.byte	0
 3772 138a 2E       		.uleb128 0x2e
 3773 138b 98010000 		.4byte	.LVL78
 3774 138f 85160000 		.4byte	0x1685
 3775 1393 2D       		.uleb128 0x2d
 3776 1394 A4010000 		.4byte	.LVL79
 3777 1398 C7160000 		.4byte	0x16c7
 3778 139c A7130000 		.4byte	0x13a7
 3779 13a0 25       		.uleb128 0x25
 3780 13a1 01       		.uleb128 0x1
 3781 13a2 50       		.byte	0x50
 3782 13a3 02       		.uleb128 0x2
 3783 13a4 75       		.byte	0x75
 3784 13a5 00       		.sleb128 0
 3785 13a6 00       		.byte	0
 3786 13a7 2D       		.uleb128 0x2d
 3787 13a8 C4010000 		.4byte	.LVL80
 3788 13ac D9150000 		.4byte	0x15d9
 3789 13b0 C2130000 		.4byte	0x13c2
 3790 13b4 25       		.uleb128 0x25
 3791 13b5 01       		.uleb128 0x1
 3792 13b6 51       		.byte	0x51
 3793 13b7 04       		.uleb128 0x4
 3794 13b8 77       		.byte	0x77
 3795 13b9 00       		.sleb128 0
 3796 13ba 30       		.byte	0x30
 3797 13bb 29       		.byte	0x29
 3798 13bc 25       		.uleb128 0x25
 3799 13bd 01       		.uleb128 0x1
 3800 13be 50       		.byte	0x50
 3801 13bf 01       		.uleb128 0x1
 3802 13c0 39       		.byte	0x39
ARM GAS  /tmp/ccP0TEd1.s 			page 68


 3803 13c1 00       		.byte	0
 3804 13c2 2D       		.uleb128 0x2d
 3805 13c3 DE010000 		.4byte	.LVL81
 3806 13c7 A2160000 		.4byte	0x16a2
 3807 13cb E1130000 		.4byte	0x13e1
 3808 13cf 25       		.uleb128 0x25
 3809 13d0 01       		.uleb128 0x1
 3810 13d1 52       		.byte	0x52
 3811 13d2 01       		.uleb128 0x1
 3812 13d3 32       		.byte	0x32
 3813 13d4 25       		.uleb128 0x25
 3814 13d5 01       		.uleb128 0x1
 3815 13d6 51       		.byte	0x51
 3816 13d7 02       		.uleb128 0x2
 3817 13d8 74       		.byte	0x74
 3818 13d9 00       		.sleb128 0
 3819 13da 25       		.uleb128 0x25
 3820 13db 01       		.uleb128 0x1
 3821 13dc 50       		.byte	0x50
 3822 13dd 02       		.uleb128 0x2
 3823 13de 75       		.byte	0x75
 3824 13df 00       		.sleb128 0
 3825 13e0 00       		.byte	0
 3826 13e1 2D       		.uleb128 0x2d
 3827 13e2 EA010000 		.4byte	.LVL84
 3828 13e6 D9150000 		.4byte	0x15d9
 3829 13ea F4130000 		.4byte	0x13f4
 3830 13ee 25       		.uleb128 0x25
 3831 13ef 01       		.uleb128 0x1
 3832 13f0 50       		.byte	0x50
 3833 13f1 01       		.uleb128 0x1
 3834 13f2 3A       		.byte	0x3a
 3835 13f3 00       		.byte	0
 3836 13f4 2D       		.uleb128 0x2d
 3837 13f5 FC010000 		.4byte	.LVL85
 3838 13f9 A2160000 		.4byte	0x16a2
 3839 13fd 13140000 		.4byte	0x1413
 3840 1401 25       		.uleb128 0x25
 3841 1402 01       		.uleb128 0x1
 3842 1403 52       		.byte	0x52
 3843 1404 01       		.uleb128 0x1
 3844 1405 32       		.byte	0x32
 3845 1406 25       		.uleb128 0x25
 3846 1407 01       		.uleb128 0x1
 3847 1408 51       		.byte	0x51
 3848 1409 02       		.uleb128 0x2
 3849 140a 74       		.byte	0x74
 3850 140b 00       		.sleb128 0
 3851 140c 25       		.uleb128 0x25
 3852 140d 01       		.uleb128 0x1
 3853 140e 50       		.byte	0x50
 3854 140f 02       		.uleb128 0x2
 3855 1410 75       		.byte	0x75
 3856 1411 00       		.sleb128 0
 3857 1412 00       		.byte	0
 3858 1413 2D       		.uleb128 0x2d
 3859 1414 08020000 		.4byte	.LVL87
ARM GAS  /tmp/ccP0TEd1.s 			page 69


 3860 1418 D9150000 		.4byte	0x15d9
 3861 141c 26140000 		.4byte	0x1426
 3862 1420 25       		.uleb128 0x25
 3863 1421 01       		.uleb128 0x1
 3864 1422 50       		.byte	0x50
 3865 1423 01       		.uleb128 0x1
 3866 1424 3B       		.byte	0x3b
 3867 1425 00       		.byte	0
 3868 1426 2D       		.uleb128 0x2d
 3869 1427 24020000 		.4byte	.LVL88
 3870 142b D9150000 		.4byte	0x15d9
 3871 142f 39140000 		.4byte	0x1439
 3872 1433 25       		.uleb128 0x25
 3873 1434 01       		.uleb128 0x1
 3874 1435 50       		.byte	0x50
 3875 1436 01       		.uleb128 0x1
 3876 1437 3C       		.byte	0x3c
 3877 1438 00       		.byte	0
 3878 1439 2D       		.uleb128 0x2d
 3879 143a 3C020000 		.4byte	.LVL89
 3880 143e 77150000 		.4byte	0x1577
 3881 1442 57140000 		.4byte	0x1457
 3882 1446 25       		.uleb128 0x25
 3883 1447 01       		.uleb128 0x1
 3884 1448 52       		.byte	0x52
 3885 1449 01       		.uleb128 0x1
 3886 144a 3A       		.byte	0x3a
 3887 144b 25       		.uleb128 0x25
 3888 144c 01       		.uleb128 0x1
 3889 144d 51       		.byte	0x51
 3890 144e 01       		.uleb128 0x1
 3891 144f 30       		.byte	0x30
 3892 1450 25       		.uleb128 0x25
 3893 1451 01       		.uleb128 0x1
 3894 1452 50       		.byte	0x50
 3895 1453 02       		.uleb128 0x2
 3896 1454 75       		.byte	0x75
 3897 1455 00       		.sleb128 0
 3898 1456 00       		.byte	0
 3899 1457 26       		.uleb128 0x26
 3900 1458 50020000 		.4byte	.LVL90
 3901 145c D9150000 		.4byte	0x15d9
 3902 1460 25       		.uleb128 0x25
 3903 1461 01       		.uleb128 0x1
 3904 1462 50       		.byte	0x50
 3905 1463 01       		.uleb128 0x1
 3906 1464 3D       		.byte	0x3d
 3907 1465 00       		.byte	0
 3908 1466 00       		.byte	0
 3909 1467 24       		.uleb128 0x24
 3910 1468 1E000000 		.4byte	.LVL52
 3911 146c D9150000 		.4byte	0x15d9
 3912 1470 25       		.uleb128 0x25
 3913 1471 01       		.uleb128 0x1
 3914 1472 50       		.byte	0x50
 3915 1473 01       		.uleb128 0x1
 3916 1474 31       		.byte	0x31
ARM GAS  /tmp/ccP0TEd1.s 			page 70


 3917 1475 00       		.byte	0
 3918 1476 00       		.byte	0
 3919 1477 2F       		.uleb128 0x2f
 3920 1478 697100   		.ascii	"iq\000"
 3921 147b 01       		.byte	0x1
 3922 147c 4D       		.byte	0x4d
 3923 147d EA040000 		.4byte	0x4ea
 3924 1481 05       		.uleb128 0x5
 3925 1482 03       		.byte	0x3
 3926 1483 00000000 		.4byte	iq
 3927 1487 2F       		.uleb128 0x2f
 3928 1488 6F7100   		.ascii	"oq\000"
 3929 148b 01       		.byte	0x1
 3930 148c 4E       		.byte	0x4e
 3931 148d F5040000 		.4byte	0x4f5
 3932 1491 05       		.uleb128 0x5
 3933 1492 03       		.byte	0x3
 3934 1493 00000000 		.4byte	oq
 3935 1497 30       		.uleb128 0x30
 3936 1498 59050000 		.4byte	.LASF95
 3937 149c 09       		.byte	0x9
 3938 149d 72       		.byte	0x72
 3939 149e 9C030000 		.4byte	0x39c
 3940 14a2 17       		.uleb128 0x17
 3941 14a3 4E020000 		.4byte	0x24e
 3942 14a7 B2140000 		.4byte	0x14b2
 3943 14ab 18       		.uleb128 0x18
 3944 14ac 33030000 		.4byte	0x333
 3945 14b0 04       		.byte	0x4
 3946 14b1 00       		.byte	0
 3947 14b2 30       		.uleb128 0x30
 3948 14b3 8C040000 		.4byte	.LASF96
 3949 14b7 0C       		.byte	0xc
 3950 14b8 B0       		.byte	0xb0
 3951 14b9 A2140000 		.4byte	0x14a2
 3952 14bd 30       		.uleb128 0x30
 3953 14be B9000000 		.4byte	.LASF97
 3954 14c2 0C       		.byte	0xc
 3955 14c3 B1       		.byte	0xb1
 3956 14c4 A4050000 		.4byte	0x5a4
 3957 14c8 17       		.uleb128 0x17
 3958 14c9 8A020000 		.4byte	0x28a
 3959 14cd D3140000 		.4byte	0x14d3
 3960 14d1 31       		.uleb128 0x31
 3961 14d2 00       		.byte	0
 3962 14d3 32       		.uleb128 0x32
 3963 14d4 776100   		.ascii	"wa\000"
 3964 14d7 0C       		.byte	0xc
 3965 14d8 B2       		.byte	0xb2
 3966 14d9 DD140000 		.4byte	0x14dd
 3967 14dd 10       		.uleb128 0x10
 3968 14de C8140000 		.4byte	0x14c8
 3969 14e2 33       		.uleb128 0x33
 3970 14e3 75030000 		.4byte	.LASF98
 3971 14e7 01       		.byte	0x1
 3972 14e8 A0       		.byte	0xa0
 3973 14e9 F3140000 		.4byte	0x14f3
ARM GAS  /tmp/ccP0TEd1.s 			page 71


 3974 14ed 05       		.uleb128 0x5
 3975 14ee 03       		.byte	0x3
 3976 14ef 00000000 		.4byte	testqueues1
 3977 14f3 10       		.uleb128 0x10
 3978 14f4 0B050000 		.4byte	0x50b
 3979 14f8 33       		.uleb128 0x33
 3980 14f9 81030000 		.4byte	.LASF99
 3981 14fd 01       		.byte	0x1
 3982 14fe EE       		.byte	0xee
 3983 14ff F3140000 		.4byte	0x14f3
 3984 1503 05       		.uleb128 0x5
 3985 1504 03       		.byte	0x3
 3986 1505 00000000 		.4byte	testqueues2
 3987 1509 17       		.uleb128 0x17
 3988 150a 19150000 		.4byte	0x1519
 3989 150e 19150000 		.4byte	0x1519
 3990 1512 18       		.uleb128 0x18
 3991 1513 33030000 		.4byte	0x333
 3992 1517 02       		.byte	0x2
 3993 1518 00       		.byte	0
 3994 1519 09       		.uleb128 0x9
 3995 151a 04       		.byte	0x4
 3996 151b F3140000 		.4byte	0x14f3
 3997 151f 33       		.uleb128 0x33
 3998 1520 63000000 		.4byte	.LASF100
 3999 1524 01       		.byte	0x1
 4000 1525 F9       		.byte	0xf9
 4001 1526 30150000 		.4byte	0x1530
 4002 152a 05       		.uleb128 0x5
 4003 152b 03       		.byte	0x3
 4004 152c 00000000 		.4byte	patternqueues
 4005 1530 10       		.uleb128 0x10
 4006 1531 09150000 		.4byte	0x1509
 4007 1535 34       		.uleb128 0x34
 4008 1536 A4050000 		.4byte	.LASF101
 4009 153a 0B       		.byte	0xb
 4010 153b 5301     		.2byte	0x153
 4011 153d 05010000 		.4byte	0x105
 4012 1541 50150000 		.4byte	0x1550
 4013 1545 12       		.uleb128 0x12
 4014 1546 50150000 		.4byte	0x1550
 4015 154a 12       		.uleb128 0x12
 4016 154b 1B010000 		.4byte	0x11b
 4017 154f 00       		.byte	0
 4018 1550 09       		.uleb128 0x9
 4019 1551 04       		.byte	0x4
 4020 1552 EA040000 		.4byte	0x4ea
 4021 1556 35       		.uleb128 0x35
 4022 1557 2B000000 		.4byte	.LASF103
 4023 155b 0B       		.byte	0xb
 4024 155c 5001     		.2byte	0x150
 4025 155e 77150000 		.4byte	0x1577
 4026 1562 12       		.uleb128 0x12
 4027 1563 50150000 		.4byte	0x1550
 4028 1567 12       		.uleb128 0x12
 4029 1568 E4040000 		.4byte	0x4e4
 4030 156c 12       		.uleb128 0x12
ARM GAS  /tmp/ccP0TEd1.s 			page 72


 4031 156d 2C000000 		.4byte	0x2c
 4032 1571 12       		.uleb128 0x12
 4033 1572 C2040000 		.4byte	0x4c2
 4034 1576 00       		.byte	0
 4035 1577 34       		.uleb128 0x34
 4036 1578 00000000 		.4byte	.LASF102
 4037 157c 0B       		.byte	0xb
 4038 157d 5901     		.2byte	0x159
 4039 157f 05010000 		.4byte	0x105
 4040 1583 97150000 		.4byte	0x1597
 4041 1587 12       		.uleb128 0x12
 4042 1588 97150000 		.4byte	0x1597
 4043 158c 12       		.uleb128 0x12
 4044 158d A2000000 		.4byte	0xa2
 4045 1591 12       		.uleb128 0x12
 4046 1592 1B010000 		.4byte	0x11b
 4047 1596 00       		.byte	0
 4048 1597 09       		.uleb128 0x9
 4049 1598 04       		.byte	0x4
 4050 1599 F5040000 		.4byte	0x4f5
 4051 159d 35       		.uleb128 0x35
 4052 159e 99000000 		.4byte	.LASF104
 4053 15a2 0B       		.byte	0xb
 4054 15a3 5701     		.2byte	0x157
 4055 15a5 BE150000 		.4byte	0x15be
 4056 15a9 12       		.uleb128 0x12
 4057 15aa 97150000 		.4byte	0x1597
 4058 15ae 12       		.uleb128 0x12
 4059 15af E4040000 		.4byte	0x4e4
 4060 15b3 12       		.uleb128 0x12
 4061 15b4 2C000000 		.4byte	0x2c
 4062 15b8 12       		.uleb128 0x12
 4063 15b9 C2040000 		.4byte	0x4c2
 4064 15bd 00       		.byte	0
 4065 15be 34       		.uleb128 0x34
 4066 15bf 8B010000 		.4byte	.LASF105
 4067 15c3 0B       		.byte	0xb
 4068 15c4 5201     		.2byte	0x152
 4069 15c6 05010000 		.4byte	0x105
 4070 15ca D9150000 		.4byte	0x15d9
 4071 15ce 12       		.uleb128 0x12
 4072 15cf 50150000 		.4byte	0x1550
 4073 15d3 12       		.uleb128 0x12
 4074 15d4 A2000000 		.4byte	0xa2
 4075 15d8 00       		.byte	0
 4076 15d9 36       		.uleb128 0x36
 4077 15da 75050000 		.4byte	.LASF106
 4078 15de 0C       		.byte	0xc
 4079 15df 63       		.byte	0x63
 4080 15e0 CE000000 		.4byte	0xce
 4081 15e4 F3150000 		.4byte	0x15f3
 4082 15e8 12       		.uleb128 0x12
 4083 15e9 37000000 		.4byte	0x37
 4084 15ed 12       		.uleb128 0x12
 4085 15ee CE000000 		.4byte	0xce
 4086 15f2 00       		.byte	0
 4087 15f3 37       		.uleb128 0x37
ARM GAS  /tmp/ccP0TEd1.s 			page 73


 4088 15f4 00010000 		.4byte	.LASF107
 4089 15f8 0C       		.byte	0xc
 4090 15f9 61       		.byte	0x61
 4091 15fa 04160000 		.4byte	0x1604
 4092 15fe 12       		.uleb128 0x12
 4093 15ff 29040000 		.4byte	0x429
 4094 1603 00       		.byte	0
 4095 1604 36       		.uleb128 0x36
 4096 1605 D0030000 		.4byte	.LASF108
 4097 1609 0C       		.byte	0xc
 4098 160a 64       		.byte	0x64
 4099 160b CE000000 		.4byte	0xce
 4100 160f 1E160000 		.4byte	0x161e
 4101 1613 12       		.uleb128 0x12
 4102 1614 37000000 		.4byte	0x37
 4103 1618 12       		.uleb128 0x12
 4104 1619 1E160000 		.4byte	0x161e
 4105 161d 00       		.byte	0
 4106 161e 09       		.uleb128 0x9
 4107 161f 04       		.byte	0x4
 4108 1620 29040000 		.4byte	0x429
 4109 1624 34       		.uleb128 0x34
 4110 1625 53000000 		.4byte	.LASF109
 4111 1629 0B       		.byte	0xb
 4112 162a 5401     		.2byte	0x154
 4113 162c 2C000000 		.4byte	0x2c
 4114 1630 49160000 		.4byte	0x1649
 4115 1634 12       		.uleb128 0x12
 4116 1635 50150000 		.4byte	0x1550
 4117 1639 12       		.uleb128 0x12
 4118 163a E4040000 		.4byte	0x4e4
 4119 163e 12       		.uleb128 0x12
 4120 163f 2C000000 		.4byte	0x2c
 4121 1643 12       		.uleb128 0x12
 4122 1644 1B010000 		.4byte	0x11b
 4123 1648 00       		.byte	0
 4124 1649 35       		.uleb128 0x35
 4125 164a A7010000 		.4byte	.LASF110
 4126 164e 0B       		.byte	0xb
 4127 164f 5101     		.2byte	0x151
 4128 1651 5B160000 		.4byte	0x165b
 4129 1655 12       		.uleb128 0x12
 4130 1656 50150000 		.4byte	0x1550
 4131 165a 00       		.byte	0
 4132 165b 34       		.uleb128 0x34
 4133 165c 39030000 		.4byte	.LASF111
 4134 1660 07       		.byte	0x7
 4135 1661 6401     		.2byte	0x164
 4136 1663 4E020000 		.4byte	0x24e
 4137 1667 85160000 		.4byte	0x1685
 4138 166b 12       		.uleb128 0x12
 4139 166c 8A020000 		.4byte	0x28a
 4140 1670 12       		.uleb128 0x12
 4141 1671 2C000000 		.4byte	0x2c
 4142 1675 12       		.uleb128 0x12
 4143 1676 FA000000 		.4byte	0xfa
 4144 167a 12       		.uleb128 0x12
ARM GAS  /tmp/ccP0TEd1.s 			page 74


 4145 167b 36040000 		.4byte	0x436
 4146 167f 12       		.uleb128 0x12
 4147 1680 8A020000 		.4byte	0x28a
 4148 1684 00       		.byte	0
 4149 1685 38       		.uleb128 0x38
 4150 1686 8D030000 		.4byte	.LASF118
 4151 168a 0C       		.byte	0xc
 4152 168b 67       		.byte	0x67
 4153 168c 34       		.uleb128 0x34
 4154 168d 22010000 		.4byte	.LASF112
 4155 1691 0B       		.byte	0xb
 4156 1692 5A01     		.2byte	0x15a
 4157 1694 05010000 		.4byte	0x105
 4158 1698 A2160000 		.4byte	0x16a2
 4159 169c 12       		.uleb128 0x12
 4160 169d 97150000 		.4byte	0x1597
 4161 16a1 00       		.byte	0
 4162 16a2 34       		.uleb128 0x34
 4163 16a3 88000000 		.4byte	.LASF113
 4164 16a7 0B       		.byte	0xb
 4165 16a8 5B01     		.2byte	0x15b
 4166 16aa 2C000000 		.4byte	0x2c
 4167 16ae C7160000 		.4byte	0x16c7
 4168 16b2 12       		.uleb128 0x12
 4169 16b3 97150000 		.4byte	0x1597
 4170 16b7 12       		.uleb128 0x12
 4171 16b8 00050000 		.4byte	0x500
 4172 16bc 12       		.uleb128 0x12
 4173 16bd 2C000000 		.4byte	0x2c
 4174 16c1 12       		.uleb128 0x12
 4175 16c2 1B010000 		.4byte	0x11b
 4176 16c6 00       		.byte	0
 4177 16c7 39       		.uleb128 0x39
 4178 16c8 15050000 		.4byte	.LASF119
 4179 16cc 0B       		.byte	0xb
 4180 16cd 5801     		.2byte	0x158
 4181 16cf 12       		.uleb128 0x12
 4182 16d0 97150000 		.4byte	0x1597
 4183 16d4 00       		.byte	0
 4184 16d5 00       		.byte	0
 4185              		.section	.debug_abbrev,"",%progbits
 4186              	.Ldebug_abbrev0:
 4187 0000 01       		.uleb128 0x1
 4188 0001 11       		.uleb128 0x11
 4189 0002 01       		.byte	0x1
 4190 0003 25       		.uleb128 0x25
 4191 0004 0E       		.uleb128 0xe
 4192 0005 13       		.uleb128 0x13
 4193 0006 0B       		.uleb128 0xb
 4194 0007 03       		.uleb128 0x3
 4195 0008 0E       		.uleb128 0xe
 4196 0009 1B       		.uleb128 0x1b
 4197 000a 0E       		.uleb128 0xe
 4198 000b 55       		.uleb128 0x55
 4199 000c 17       		.uleb128 0x17
 4200 000d 11       		.uleb128 0x11
 4201 000e 01       		.uleb128 0x1
ARM GAS  /tmp/ccP0TEd1.s 			page 75


 4202 000f 10       		.uleb128 0x10
 4203 0010 17       		.uleb128 0x17
 4204 0011 00       		.byte	0
 4205 0012 00       		.byte	0
 4206 0013 02       		.uleb128 0x2
 4207 0014 24       		.uleb128 0x24
 4208 0015 00       		.byte	0
 4209 0016 0B       		.uleb128 0xb
 4210 0017 0B       		.uleb128 0xb
 4211 0018 3E       		.uleb128 0x3e
 4212 0019 0B       		.uleb128 0xb
 4213 001a 03       		.uleb128 0x3
 4214 001b 08       		.uleb128 0x8
 4215 001c 00       		.byte	0
 4216 001d 00       		.byte	0
 4217 001e 03       		.uleb128 0x3
 4218 001f 16       		.uleb128 0x16
 4219 0020 00       		.byte	0
 4220 0021 03       		.uleb128 0x3
 4221 0022 0E       		.uleb128 0xe
 4222 0023 3A       		.uleb128 0x3a
 4223 0024 0B       		.uleb128 0xb
 4224 0025 3B       		.uleb128 0x3b
 4225 0026 0B       		.uleb128 0xb
 4226 0027 49       		.uleb128 0x49
 4227 0028 13       		.uleb128 0x13
 4228 0029 00       		.byte	0
 4229 002a 00       		.byte	0
 4230 002b 04       		.uleb128 0x4
 4231 002c 24       		.uleb128 0x24
 4232 002d 00       		.byte	0
 4233 002e 0B       		.uleb128 0xb
 4234 002f 0B       		.uleb128 0xb
 4235 0030 3E       		.uleb128 0x3e
 4236 0031 0B       		.uleb128 0xb
 4237 0032 03       		.uleb128 0x3
 4238 0033 0E       		.uleb128 0xe
 4239 0034 00       		.byte	0
 4240 0035 00       		.byte	0
 4241 0036 05       		.uleb128 0x5
 4242 0037 13       		.uleb128 0x13
 4243 0038 01       		.byte	0x1
 4244 0039 03       		.uleb128 0x3
 4245 003a 0E       		.uleb128 0xe
 4246 003b 0B       		.uleb128 0xb
 4247 003c 0B       		.uleb128 0xb
 4248 003d 3A       		.uleb128 0x3a
 4249 003e 0B       		.uleb128 0xb
 4250 003f 3B       		.uleb128 0x3b
 4251 0040 0B       		.uleb128 0xb
 4252 0041 01       		.uleb128 0x1
 4253 0042 13       		.uleb128 0x13
 4254 0043 00       		.byte	0
 4255 0044 00       		.byte	0
 4256 0045 06       		.uleb128 0x6
 4257 0046 0D       		.uleb128 0xd
 4258 0047 00       		.byte	0
ARM GAS  /tmp/ccP0TEd1.s 			page 76


 4259 0048 03       		.uleb128 0x3
 4260 0049 0E       		.uleb128 0xe
 4261 004a 3A       		.uleb128 0x3a
 4262 004b 0B       		.uleb128 0xb
 4263 004c 3B       		.uleb128 0x3b
 4264 004d 0B       		.uleb128 0xb
 4265 004e 49       		.uleb128 0x49
 4266 004f 13       		.uleb128 0x13
 4267 0050 38       		.uleb128 0x38
 4268 0051 0B       		.uleb128 0xb
 4269 0052 00       		.byte	0
 4270 0053 00       		.byte	0
 4271 0054 07       		.uleb128 0x7
 4272 0055 0D       		.uleb128 0xd
 4273 0056 00       		.byte	0
 4274 0057 03       		.uleb128 0x3
 4275 0058 08       		.uleb128 0x8
 4276 0059 3A       		.uleb128 0x3a
 4277 005a 0B       		.uleb128 0xb
 4278 005b 3B       		.uleb128 0x3b
 4279 005c 0B       		.uleb128 0xb
 4280 005d 49       		.uleb128 0x49
 4281 005e 13       		.uleb128 0x13
 4282 005f 38       		.uleb128 0x38
 4283 0060 0B       		.uleb128 0xb
 4284 0061 00       		.byte	0
 4285 0062 00       		.byte	0
 4286 0063 08       		.uleb128 0x8
 4287 0064 13       		.uleb128 0x13
 4288 0065 01       		.byte	0x1
 4289 0066 0B       		.uleb128 0xb
 4290 0067 0B       		.uleb128 0xb
 4291 0068 3A       		.uleb128 0x3a
 4292 0069 0B       		.uleb128 0xb
 4293 006a 3B       		.uleb128 0x3b
 4294 006b 0B       		.uleb128 0xb
 4295 006c 01       		.uleb128 0x1
 4296 006d 13       		.uleb128 0x13
 4297 006e 00       		.byte	0
 4298 006f 00       		.byte	0
 4299 0070 09       		.uleb128 0x9
 4300 0071 0F       		.uleb128 0xf
 4301 0072 00       		.byte	0
 4302 0073 0B       		.uleb128 0xb
 4303 0074 0B       		.uleb128 0xb
 4304 0075 49       		.uleb128 0x49
 4305 0076 13       		.uleb128 0x13
 4306 0077 00       		.byte	0
 4307 0078 00       		.byte	0
 4308 0079 0A       		.uleb128 0xa
 4309 007a 0F       		.uleb128 0xf
 4310 007b 00       		.byte	0
 4311 007c 0B       		.uleb128 0xb
 4312 007d 0B       		.uleb128 0xb
 4313 007e 00       		.byte	0
 4314 007f 00       		.byte	0
 4315 0080 0B       		.uleb128 0xb
ARM GAS  /tmp/ccP0TEd1.s 			page 77


 4316 0081 0D       		.uleb128 0xd
 4317 0082 00       		.byte	0
 4318 0083 03       		.uleb128 0x3
 4319 0084 08       		.uleb128 0x8
 4320 0085 3A       		.uleb128 0x3a
 4321 0086 0B       		.uleb128 0xb
 4322 0087 3B       		.uleb128 0x3b
 4323 0088 05       		.uleb128 0x5
 4324 0089 49       		.uleb128 0x49
 4325 008a 13       		.uleb128 0x13
 4326 008b 38       		.uleb128 0x38
 4327 008c 0B       		.uleb128 0xb
 4328 008d 00       		.byte	0
 4329 008e 00       		.byte	0
 4330 008f 0C       		.uleb128 0xc
 4331 0090 13       		.uleb128 0x13
 4332 0091 01       		.byte	0x1
 4333 0092 03       		.uleb128 0x3
 4334 0093 0E       		.uleb128 0xe
 4335 0094 0B       		.uleb128 0xb
 4336 0095 0B       		.uleb128 0xb
 4337 0096 3A       		.uleb128 0x3a
 4338 0097 0B       		.uleb128 0xb
 4339 0098 3B       		.uleb128 0x3b
 4340 0099 05       		.uleb128 0x5
 4341 009a 01       		.uleb128 0x1
 4342 009b 13       		.uleb128 0x13
 4343 009c 00       		.byte	0
 4344 009d 00       		.byte	0
 4345 009e 0D       		.uleb128 0xd
 4346 009f 35       		.uleb128 0x35
 4347 00a0 00       		.byte	0
 4348 00a1 49       		.uleb128 0x49
 4349 00a2 13       		.uleb128 0x13
 4350 00a3 00       		.byte	0
 4351 00a4 00       		.byte	0
 4352 00a5 0E       		.uleb128 0xe
 4353 00a6 17       		.uleb128 0x17
 4354 00a7 01       		.byte	0x1
 4355 00a8 0B       		.uleb128 0xb
 4356 00a9 0B       		.uleb128 0xb
 4357 00aa 3A       		.uleb128 0x3a
 4358 00ab 0B       		.uleb128 0xb
 4359 00ac 3B       		.uleb128 0x3b
 4360 00ad 0B       		.uleb128 0xb
 4361 00ae 01       		.uleb128 0x1
 4362 00af 13       		.uleb128 0x13
 4363 00b0 00       		.byte	0
 4364 00b1 00       		.byte	0
 4365 00b2 0F       		.uleb128 0xf
 4366 00b3 0D       		.uleb128 0xd
 4367 00b4 00       		.byte	0
 4368 00b5 03       		.uleb128 0x3
 4369 00b6 0E       		.uleb128 0xe
 4370 00b7 3A       		.uleb128 0x3a
 4371 00b8 0B       		.uleb128 0xb
 4372 00b9 3B       		.uleb128 0x3b
ARM GAS  /tmp/ccP0TEd1.s 			page 78


 4373 00ba 0B       		.uleb128 0xb
 4374 00bb 49       		.uleb128 0x49
 4375 00bc 13       		.uleb128 0x13
 4376 00bd 00       		.byte	0
 4377 00be 00       		.byte	0
 4378 00bf 10       		.uleb128 0x10
 4379 00c0 26       		.uleb128 0x26
 4380 00c1 00       		.byte	0
 4381 00c2 49       		.uleb128 0x49
 4382 00c3 13       		.uleb128 0x13
 4383 00c4 00       		.byte	0
 4384 00c5 00       		.byte	0
 4385 00c6 11       		.uleb128 0x11
 4386 00c7 15       		.uleb128 0x15
 4387 00c8 01       		.byte	0x1
 4388 00c9 27       		.uleb128 0x27
 4389 00ca 19       		.uleb128 0x19
 4390 00cb 49       		.uleb128 0x49
 4391 00cc 13       		.uleb128 0x13
 4392 00cd 01       		.uleb128 0x1
 4393 00ce 13       		.uleb128 0x13
 4394 00cf 00       		.byte	0
 4395 00d0 00       		.byte	0
 4396 00d1 12       		.uleb128 0x12
 4397 00d2 05       		.uleb128 0x5
 4398 00d3 00       		.byte	0
 4399 00d4 49       		.uleb128 0x49
 4400 00d5 13       		.uleb128 0x13
 4401 00d6 00       		.byte	0
 4402 00d7 00       		.byte	0
 4403 00d8 13       		.uleb128 0x13
 4404 00d9 15       		.uleb128 0x15
 4405 00da 01       		.byte	0x1
 4406 00db 27       		.uleb128 0x27
 4407 00dc 19       		.uleb128 0x19
 4408 00dd 01       		.uleb128 0x1
 4409 00de 13       		.uleb128 0x13
 4410 00df 00       		.byte	0
 4411 00e0 00       		.byte	0
 4412 00e1 14       		.uleb128 0x14
 4413 00e2 15       		.uleb128 0x15
 4414 00e3 00       		.byte	0
 4415 00e4 27       		.uleb128 0x27
 4416 00e5 19       		.uleb128 0x19
 4417 00e6 00       		.byte	0
 4418 00e7 00       		.byte	0
 4419 00e8 15       		.uleb128 0x15
 4420 00e9 13       		.uleb128 0x13
 4421 00ea 01       		.byte	0x1
 4422 00eb 0B       		.uleb128 0xb
 4423 00ec 05       		.uleb128 0x5
 4424 00ed 3A       		.uleb128 0x3a
 4425 00ee 0B       		.uleb128 0xb
 4426 00ef 3B       		.uleb128 0x3b
 4427 00f0 0B       		.uleb128 0xb
 4428 00f1 01       		.uleb128 0x1
 4429 00f2 13       		.uleb128 0x13
ARM GAS  /tmp/ccP0TEd1.s 			page 79


 4430 00f3 00       		.byte	0
 4431 00f4 00       		.byte	0
 4432 00f5 16       		.uleb128 0x16
 4433 00f6 0D       		.uleb128 0xd
 4434 00f7 00       		.byte	0
 4435 00f8 03       		.uleb128 0x3
 4436 00f9 08       		.uleb128 0x8
 4437 00fa 3A       		.uleb128 0x3a
 4438 00fb 0B       		.uleb128 0xb
 4439 00fc 3B       		.uleb128 0x3b
 4440 00fd 0B       		.uleb128 0xb
 4441 00fe 49       		.uleb128 0x49
 4442 00ff 13       		.uleb128 0x13
 4443 0100 38       		.uleb128 0x38
 4444 0101 05       		.uleb128 0x5
 4445 0102 00       		.byte	0
 4446 0103 00       		.byte	0
 4447 0104 17       		.uleb128 0x17
 4448 0105 01       		.uleb128 0x1
 4449 0106 01       		.byte	0x1
 4450 0107 49       		.uleb128 0x49
 4451 0108 13       		.uleb128 0x13
 4452 0109 01       		.uleb128 0x1
 4453 010a 13       		.uleb128 0x13
 4454 010b 00       		.byte	0
 4455 010c 00       		.byte	0
 4456 010d 18       		.uleb128 0x18
 4457 010e 21       		.uleb128 0x21
 4458 010f 00       		.byte	0
 4459 0110 49       		.uleb128 0x49
 4460 0111 13       		.uleb128 0x13
 4461 0112 2F       		.uleb128 0x2f
 4462 0113 0B       		.uleb128 0xb
 4463 0114 00       		.byte	0
 4464 0115 00       		.byte	0
 4465 0116 19       		.uleb128 0x19
 4466 0117 17       		.uleb128 0x17
 4467 0118 01       		.byte	0x1
 4468 0119 03       		.uleb128 0x3
 4469 011a 0E       		.uleb128 0xe
 4470 011b 0B       		.uleb128 0xb
 4471 011c 05       		.uleb128 0x5
 4472 011d 3A       		.uleb128 0x3a
 4473 011e 0B       		.uleb128 0xb
 4474 011f 3B       		.uleb128 0x3b
 4475 0120 0B       		.uleb128 0xb
 4476 0121 01       		.uleb128 0x1
 4477 0122 13       		.uleb128 0x13
 4478 0123 00       		.byte	0
 4479 0124 00       		.byte	0
 4480 0125 1A       		.uleb128 0x1a
 4481 0126 0D       		.uleb128 0xd
 4482 0127 00       		.byte	0
 4483 0128 03       		.uleb128 0x3
 4484 0129 08       		.uleb128 0x8
 4485 012a 3A       		.uleb128 0x3a
 4486 012b 0B       		.uleb128 0xb
ARM GAS  /tmp/ccP0TEd1.s 			page 80


 4487 012c 3B       		.uleb128 0x3b
 4488 012d 0B       		.uleb128 0xb
 4489 012e 49       		.uleb128 0x49
 4490 012f 13       		.uleb128 0x13
 4491 0130 00       		.byte	0
 4492 0131 00       		.byte	0
 4493 0132 1B       		.uleb128 0x1b
 4494 0133 21       		.uleb128 0x21
 4495 0134 00       		.byte	0
 4496 0135 49       		.uleb128 0x49
 4497 0136 13       		.uleb128 0x13
 4498 0137 2F       		.uleb128 0x2f
 4499 0138 05       		.uleb128 0x5
 4500 0139 00       		.byte	0
 4501 013a 00       		.byte	0
 4502 013b 1C       		.uleb128 0x1c
 4503 013c 2E       		.uleb128 0x2e
 4504 013d 01       		.byte	0x1
 4505 013e 03       		.uleb128 0x3
 4506 013f 0E       		.uleb128 0xe
 4507 0140 3A       		.uleb128 0x3a
 4508 0141 0B       		.uleb128 0xb
 4509 0142 3B       		.uleb128 0x3b
 4510 0143 0B       		.uleb128 0xb
 4511 0144 27       		.uleb128 0x27
 4512 0145 19       		.uleb128 0x19
 4513 0146 20       		.uleb128 0x20
 4514 0147 0B       		.uleb128 0xb
 4515 0148 01       		.uleb128 0x1
 4516 0149 13       		.uleb128 0x13
 4517 014a 00       		.byte	0
 4518 014b 00       		.byte	0
 4519 014c 1D       		.uleb128 0x1d
 4520 014d 34       		.uleb128 0x34
 4521 014e 00       		.byte	0
 4522 014f 03       		.uleb128 0x3
 4523 0150 08       		.uleb128 0x8
 4524 0151 3A       		.uleb128 0x3a
 4525 0152 0B       		.uleb128 0xb
 4526 0153 3B       		.uleb128 0x3b
 4527 0154 0B       		.uleb128 0xb
 4528 0155 49       		.uleb128 0x49
 4529 0156 13       		.uleb128 0x13
 4530 0157 00       		.byte	0
 4531 0158 00       		.byte	0
 4532 0159 1E       		.uleb128 0x1e
 4533 015a 0B       		.uleb128 0xb
 4534 015b 01       		.byte	0x1
 4535 015c 01       		.uleb128 0x1
 4536 015d 13       		.uleb128 0x13
 4537 015e 00       		.byte	0
 4538 015f 00       		.byte	0
 4539 0160 1F       		.uleb128 0x1f
 4540 0161 0B       		.uleb128 0xb
 4541 0162 01       		.byte	0x1
 4542 0163 00       		.byte	0
 4543 0164 00       		.byte	0
ARM GAS  /tmp/ccP0TEd1.s 			page 81


 4544 0165 20       		.uleb128 0x20
 4545 0166 2E       		.uleb128 0x2e
 4546 0167 01       		.byte	0x1
 4547 0168 03       		.uleb128 0x3
 4548 0169 0E       		.uleb128 0xe
 4549 016a 3A       		.uleb128 0x3a
 4550 016b 0B       		.uleb128 0xb
 4551 016c 3B       		.uleb128 0x3b
 4552 016d 0B       		.uleb128 0xb
 4553 016e 27       		.uleb128 0x27
 4554 016f 19       		.uleb128 0x19
 4555 0170 11       		.uleb128 0x11
 4556 0171 01       		.uleb128 0x1
 4557 0172 12       		.uleb128 0x12
 4558 0173 06       		.uleb128 0x6
 4559 0174 40       		.uleb128 0x40
 4560 0175 18       		.uleb128 0x18
 4561 0176 9742     		.uleb128 0x2117
 4562 0178 19       		.uleb128 0x19
 4563 0179 01       		.uleb128 0x1
 4564 017a 13       		.uleb128 0x13
 4565 017b 00       		.byte	0
 4566 017c 00       		.byte	0
 4567 017d 21       		.uleb128 0x21
 4568 017e 05       		.uleb128 0x5
 4569 017f 00       		.byte	0
 4570 0180 03       		.uleb128 0x3
 4571 0181 08       		.uleb128 0x8
 4572 0182 3A       		.uleb128 0x3a
 4573 0183 0B       		.uleb128 0xb
 4574 0184 3B       		.uleb128 0x3b
 4575 0185 0B       		.uleb128 0xb
 4576 0186 49       		.uleb128 0x49
 4577 0187 13       		.uleb128 0x13
 4578 0188 02       		.uleb128 0x2
 4579 0189 18       		.uleb128 0x18
 4580 018a 00       		.byte	0
 4581 018b 00       		.byte	0
 4582 018c 22       		.uleb128 0x22
 4583 018d 2E       		.uleb128 0x2e
 4584 018e 01       		.byte	0x1
 4585 018f 03       		.uleb128 0x3
 4586 0190 0E       		.uleb128 0xe
 4587 0191 3A       		.uleb128 0x3a
 4588 0192 0B       		.uleb128 0xb
 4589 0193 3B       		.uleb128 0x3b
 4590 0194 0B       		.uleb128 0xb
 4591 0195 27       		.uleb128 0x27
 4592 0196 19       		.uleb128 0x19
 4593 0197 49       		.uleb128 0x49
 4594 0198 13       		.uleb128 0x13
 4595 0199 11       		.uleb128 0x11
 4596 019a 01       		.uleb128 0x1
 4597 019b 12       		.uleb128 0x12
 4598 019c 06       		.uleb128 0x6
 4599 019d 40       		.uleb128 0x40
 4600 019e 18       		.uleb128 0x18
ARM GAS  /tmp/ccP0TEd1.s 			page 82


 4601 019f 9742     		.uleb128 0x2117
 4602 01a1 19       		.uleb128 0x19
 4603 01a2 01       		.uleb128 0x1
 4604 01a3 13       		.uleb128 0x13
 4605 01a4 00       		.byte	0
 4606 01a5 00       		.byte	0
 4607 01a6 23       		.uleb128 0x23
 4608 01a7 05       		.uleb128 0x5
 4609 01a8 00       		.byte	0
 4610 01a9 03       		.uleb128 0x3
 4611 01aa 08       		.uleb128 0x8
 4612 01ab 3A       		.uleb128 0x3a
 4613 01ac 0B       		.uleb128 0xb
 4614 01ad 3B       		.uleb128 0x3b
 4615 01ae 0B       		.uleb128 0xb
 4616 01af 49       		.uleb128 0x49
 4617 01b0 13       		.uleb128 0x13
 4618 01b1 02       		.uleb128 0x2
 4619 01b2 17       		.uleb128 0x17
 4620 01b3 00       		.byte	0
 4621 01b4 00       		.byte	0
 4622 01b5 24       		.uleb128 0x24
 4623 01b6 898201   		.uleb128 0x4109
 4624 01b9 01       		.byte	0x1
 4625 01ba 11       		.uleb128 0x11
 4626 01bb 01       		.uleb128 0x1
 4627 01bc 31       		.uleb128 0x31
 4628 01bd 13       		.uleb128 0x13
 4629 01be 00       		.byte	0
 4630 01bf 00       		.byte	0
 4631 01c0 25       		.uleb128 0x25
 4632 01c1 8A8201   		.uleb128 0x410a
 4633 01c4 00       		.byte	0
 4634 01c5 02       		.uleb128 0x2
 4635 01c6 18       		.uleb128 0x18
 4636 01c7 9142     		.uleb128 0x2111
 4637 01c9 18       		.uleb128 0x18
 4638 01ca 00       		.byte	0
 4639 01cb 00       		.byte	0
 4640 01cc 26       		.uleb128 0x26
 4641 01cd 898201   		.uleb128 0x4109
 4642 01d0 01       		.byte	0x1
 4643 01d1 11       		.uleb128 0x11
 4644 01d2 01       		.uleb128 0x1
 4645 01d3 9542     		.uleb128 0x2115
 4646 01d5 19       		.uleb128 0x19
 4647 01d6 31       		.uleb128 0x31
 4648 01d7 13       		.uleb128 0x13
 4649 01d8 00       		.byte	0
 4650 01d9 00       		.byte	0
 4651 01da 27       		.uleb128 0x27
 4652 01db 2E       		.uleb128 0x2e
 4653 01dc 01       		.byte	0x1
 4654 01dd 31       		.uleb128 0x31
 4655 01de 13       		.uleb128 0x13
 4656 01df 11       		.uleb128 0x11
 4657 01e0 01       		.uleb128 0x1
ARM GAS  /tmp/ccP0TEd1.s 			page 83


 4658 01e1 12       		.uleb128 0x12
 4659 01e2 06       		.uleb128 0x6
 4660 01e3 40       		.uleb128 0x40
 4661 01e4 18       		.uleb128 0x18
 4662 01e5 9742     		.uleb128 0x2117
 4663 01e7 19       		.uleb128 0x19
 4664 01e8 01       		.uleb128 0x1
 4665 01e9 13       		.uleb128 0x13
 4666 01ea 00       		.byte	0
 4667 01eb 00       		.byte	0
 4668 01ec 28       		.uleb128 0x28
 4669 01ed 34       		.uleb128 0x34
 4670 01ee 00       		.byte	0
 4671 01ef 31       		.uleb128 0x31
 4672 01f0 13       		.uleb128 0x13
 4673 01f1 00       		.byte	0
 4674 01f2 00       		.byte	0
 4675 01f3 29       		.uleb128 0x29
 4676 01f4 0B       		.uleb128 0xb
 4677 01f5 01       		.byte	0x1
 4678 01f6 55       		.uleb128 0x55
 4679 01f7 17       		.uleb128 0x17
 4680 01f8 01       		.uleb128 0x1
 4681 01f9 13       		.uleb128 0x13
 4682 01fa 00       		.byte	0
 4683 01fb 00       		.byte	0
 4684 01fc 2A       		.uleb128 0x2a
 4685 01fd 34       		.uleb128 0x34
 4686 01fe 00       		.byte	0
 4687 01ff 31       		.uleb128 0x31
 4688 0200 13       		.uleb128 0x13
 4689 0201 02       		.uleb128 0x2
 4690 0202 18       		.uleb128 0x18
 4691 0203 00       		.byte	0
 4692 0204 00       		.byte	0
 4693 0205 2B       		.uleb128 0x2b
 4694 0206 34       		.uleb128 0x34
 4695 0207 00       		.byte	0
 4696 0208 31       		.uleb128 0x31
 4697 0209 13       		.uleb128 0x13
 4698 020a 02       		.uleb128 0x2
 4699 020b 17       		.uleb128 0x17
 4700 020c 00       		.byte	0
 4701 020d 00       		.byte	0
 4702 020e 2C       		.uleb128 0x2c
 4703 020f 0B       		.uleb128 0xb
 4704 0210 01       		.byte	0x1
 4705 0211 11       		.uleb128 0x11
 4706 0212 01       		.uleb128 0x1
 4707 0213 12       		.uleb128 0x12
 4708 0214 06       		.uleb128 0x6
 4709 0215 01       		.uleb128 0x1
 4710 0216 13       		.uleb128 0x13
 4711 0217 00       		.byte	0
 4712 0218 00       		.byte	0
 4713 0219 2D       		.uleb128 0x2d
 4714 021a 898201   		.uleb128 0x4109
ARM GAS  /tmp/ccP0TEd1.s 			page 84


 4715 021d 01       		.byte	0x1
 4716 021e 11       		.uleb128 0x11
 4717 021f 01       		.uleb128 0x1
 4718 0220 31       		.uleb128 0x31
 4719 0221 13       		.uleb128 0x13
 4720 0222 01       		.uleb128 0x1
 4721 0223 13       		.uleb128 0x13
 4722 0224 00       		.byte	0
 4723 0225 00       		.byte	0
 4724 0226 2E       		.uleb128 0x2e
 4725 0227 898201   		.uleb128 0x4109
 4726 022a 00       		.byte	0
 4727 022b 11       		.uleb128 0x11
 4728 022c 01       		.uleb128 0x1
 4729 022d 31       		.uleb128 0x31
 4730 022e 13       		.uleb128 0x13
 4731 022f 00       		.byte	0
 4732 0230 00       		.byte	0
 4733 0231 2F       		.uleb128 0x2f
 4734 0232 34       		.uleb128 0x34
 4735 0233 00       		.byte	0
 4736 0234 03       		.uleb128 0x3
 4737 0235 08       		.uleb128 0x8
 4738 0236 3A       		.uleb128 0x3a
 4739 0237 0B       		.uleb128 0xb
 4740 0238 3B       		.uleb128 0x3b
 4741 0239 0B       		.uleb128 0xb
 4742 023a 49       		.uleb128 0x49
 4743 023b 13       		.uleb128 0x13
 4744 023c 02       		.uleb128 0x2
 4745 023d 18       		.uleb128 0x18
 4746 023e 00       		.byte	0
 4747 023f 00       		.byte	0
 4748 0240 30       		.uleb128 0x30
 4749 0241 34       		.uleb128 0x34
 4750 0242 00       		.byte	0
 4751 0243 03       		.uleb128 0x3
 4752 0244 0E       		.uleb128 0xe
 4753 0245 3A       		.uleb128 0x3a
 4754 0246 0B       		.uleb128 0xb
 4755 0247 3B       		.uleb128 0x3b
 4756 0248 0B       		.uleb128 0xb
 4757 0249 49       		.uleb128 0x49
 4758 024a 13       		.uleb128 0x13
 4759 024b 3F       		.uleb128 0x3f
 4760 024c 19       		.uleb128 0x19
 4761 024d 3C       		.uleb128 0x3c
 4762 024e 19       		.uleb128 0x19
 4763 024f 00       		.byte	0
 4764 0250 00       		.byte	0
 4765 0251 31       		.uleb128 0x31
 4766 0252 21       		.uleb128 0x21
 4767 0253 00       		.byte	0
 4768 0254 00       		.byte	0
 4769 0255 00       		.byte	0
 4770 0256 32       		.uleb128 0x32
 4771 0257 34       		.uleb128 0x34
ARM GAS  /tmp/ccP0TEd1.s 			page 85


 4772 0258 00       		.byte	0
 4773 0259 03       		.uleb128 0x3
 4774 025a 08       		.uleb128 0x8
 4775 025b 3A       		.uleb128 0x3a
 4776 025c 0B       		.uleb128 0xb
 4777 025d 3B       		.uleb128 0x3b
 4778 025e 0B       		.uleb128 0xb
 4779 025f 49       		.uleb128 0x49
 4780 0260 13       		.uleb128 0x13
 4781 0261 3F       		.uleb128 0x3f
 4782 0262 19       		.uleb128 0x19
 4783 0263 3C       		.uleb128 0x3c
 4784 0264 19       		.uleb128 0x19
 4785 0265 00       		.byte	0
 4786 0266 00       		.byte	0
 4787 0267 33       		.uleb128 0x33
 4788 0268 34       		.uleb128 0x34
 4789 0269 00       		.byte	0
 4790 026a 03       		.uleb128 0x3
 4791 026b 0E       		.uleb128 0xe
 4792 026c 3A       		.uleb128 0x3a
 4793 026d 0B       		.uleb128 0xb
 4794 026e 3B       		.uleb128 0x3b
 4795 026f 0B       		.uleb128 0xb
 4796 0270 49       		.uleb128 0x49
 4797 0271 13       		.uleb128 0x13
 4798 0272 3F       		.uleb128 0x3f
 4799 0273 19       		.uleb128 0x19
 4800 0274 02       		.uleb128 0x2
 4801 0275 18       		.uleb128 0x18
 4802 0276 00       		.byte	0
 4803 0277 00       		.byte	0
 4804 0278 34       		.uleb128 0x34
 4805 0279 2E       		.uleb128 0x2e
 4806 027a 01       		.byte	0x1
 4807 027b 3F       		.uleb128 0x3f
 4808 027c 19       		.uleb128 0x19
 4809 027d 03       		.uleb128 0x3
 4810 027e 0E       		.uleb128 0xe
 4811 027f 3A       		.uleb128 0x3a
 4812 0280 0B       		.uleb128 0xb
 4813 0281 3B       		.uleb128 0x3b
 4814 0282 05       		.uleb128 0x5
 4815 0283 27       		.uleb128 0x27
 4816 0284 19       		.uleb128 0x19
 4817 0285 49       		.uleb128 0x49
 4818 0286 13       		.uleb128 0x13
 4819 0287 3C       		.uleb128 0x3c
 4820 0288 19       		.uleb128 0x19
 4821 0289 01       		.uleb128 0x1
 4822 028a 13       		.uleb128 0x13
 4823 028b 00       		.byte	0
 4824 028c 00       		.byte	0
 4825 028d 35       		.uleb128 0x35
 4826 028e 2E       		.uleb128 0x2e
 4827 028f 01       		.byte	0x1
 4828 0290 3F       		.uleb128 0x3f
ARM GAS  /tmp/ccP0TEd1.s 			page 86


 4829 0291 19       		.uleb128 0x19
 4830 0292 03       		.uleb128 0x3
 4831 0293 0E       		.uleb128 0xe
 4832 0294 3A       		.uleb128 0x3a
 4833 0295 0B       		.uleb128 0xb
 4834 0296 3B       		.uleb128 0x3b
 4835 0297 05       		.uleb128 0x5
 4836 0298 27       		.uleb128 0x27
 4837 0299 19       		.uleb128 0x19
 4838 029a 3C       		.uleb128 0x3c
 4839 029b 19       		.uleb128 0x19
 4840 029c 01       		.uleb128 0x1
 4841 029d 13       		.uleb128 0x13
 4842 029e 00       		.byte	0
 4843 029f 00       		.byte	0
 4844 02a0 36       		.uleb128 0x36
 4845 02a1 2E       		.uleb128 0x2e
 4846 02a2 01       		.byte	0x1
 4847 02a3 3F       		.uleb128 0x3f
 4848 02a4 19       		.uleb128 0x19
 4849 02a5 03       		.uleb128 0x3
 4850 02a6 0E       		.uleb128 0xe
 4851 02a7 3A       		.uleb128 0x3a
 4852 02a8 0B       		.uleb128 0xb
 4853 02a9 3B       		.uleb128 0x3b
 4854 02aa 0B       		.uleb128 0xb
 4855 02ab 27       		.uleb128 0x27
 4856 02ac 19       		.uleb128 0x19
 4857 02ad 49       		.uleb128 0x49
 4858 02ae 13       		.uleb128 0x13
 4859 02af 3C       		.uleb128 0x3c
 4860 02b0 19       		.uleb128 0x19
 4861 02b1 01       		.uleb128 0x1
 4862 02b2 13       		.uleb128 0x13
 4863 02b3 00       		.byte	0
 4864 02b4 00       		.byte	0
 4865 02b5 37       		.uleb128 0x37
 4866 02b6 2E       		.uleb128 0x2e
 4867 02b7 01       		.byte	0x1
 4868 02b8 3F       		.uleb128 0x3f
 4869 02b9 19       		.uleb128 0x19
 4870 02ba 03       		.uleb128 0x3
 4871 02bb 0E       		.uleb128 0xe
 4872 02bc 3A       		.uleb128 0x3a
 4873 02bd 0B       		.uleb128 0xb
 4874 02be 3B       		.uleb128 0x3b
 4875 02bf 0B       		.uleb128 0xb
 4876 02c0 27       		.uleb128 0x27
 4877 02c1 19       		.uleb128 0x19
 4878 02c2 3C       		.uleb128 0x3c
 4879 02c3 19       		.uleb128 0x19
 4880 02c4 01       		.uleb128 0x1
 4881 02c5 13       		.uleb128 0x13
 4882 02c6 00       		.byte	0
 4883 02c7 00       		.byte	0
 4884 02c8 38       		.uleb128 0x38
 4885 02c9 2E       		.uleb128 0x2e
ARM GAS  /tmp/ccP0TEd1.s 			page 87


 4886 02ca 00       		.byte	0
 4887 02cb 3F       		.uleb128 0x3f
 4888 02cc 19       		.uleb128 0x19
 4889 02cd 03       		.uleb128 0x3
 4890 02ce 0E       		.uleb128 0xe
 4891 02cf 3A       		.uleb128 0x3a
 4892 02d0 0B       		.uleb128 0xb
 4893 02d1 3B       		.uleb128 0x3b
 4894 02d2 0B       		.uleb128 0xb
 4895 02d3 27       		.uleb128 0x27
 4896 02d4 19       		.uleb128 0x19
 4897 02d5 3C       		.uleb128 0x3c
 4898 02d6 19       		.uleb128 0x19
 4899 02d7 00       		.byte	0
 4900 02d8 00       		.byte	0
 4901 02d9 39       		.uleb128 0x39
 4902 02da 2E       		.uleb128 0x2e
 4903 02db 01       		.byte	0x1
 4904 02dc 3F       		.uleb128 0x3f
 4905 02dd 19       		.uleb128 0x19
 4906 02de 03       		.uleb128 0x3
 4907 02df 0E       		.uleb128 0xe
 4908 02e0 3A       		.uleb128 0x3a
 4909 02e1 0B       		.uleb128 0xb
 4910 02e2 3B       		.uleb128 0x3b
 4911 02e3 05       		.uleb128 0x5
 4912 02e4 27       		.uleb128 0x27
 4913 02e5 19       		.uleb128 0x19
 4914 02e6 3C       		.uleb128 0x3c
 4915 02e7 19       		.uleb128 0x19
 4916 02e8 00       		.byte	0
 4917 02e9 00       		.byte	0
 4918 02ea 00       		.byte	0
 4919              		.section	.debug_loc,"",%progbits
 4920              	.Ldebug_loc0:
 4921              	.LLST0:
 4922 0000 00000000 		.4byte	.LVL1
 4923 0004 06000000 		.4byte	.LVL2
 4924 0008 0100     		.2byte	0x1
 4925 000a 50       		.byte	0x50
 4926 000b 06000000 		.4byte	.LVL2
 4927 000f 14000000 		.4byte	.LFE9
 4928 0013 0400     		.2byte	0x4
 4929 0015 F3       		.byte	0xf3
 4930 0016 01       		.uleb128 0x1
 4931 0017 50       		.byte	0x50
 4932 0018 9F       		.byte	0x9f
 4933 0019 00000000 		.4byte	0
 4934 001d 00000000 		.4byte	0
 4935              	.LLST1:
 4936 0021 00000000 		.4byte	.LVL5
 4937 0025 08000000 		.4byte	.LVL6
 4938 0029 0100     		.2byte	0x1
 4939 002b 50       		.byte	0x50
 4940 002c 08000000 		.4byte	.LVL6
 4941 0030 14000000 		.4byte	.LFE12
 4942 0034 0400     		.2byte	0x4
ARM GAS  /tmp/ccP0TEd1.s 			page 88


 4943 0036 F3       		.byte	0xf3
 4944 0037 01       		.uleb128 0x1
 4945 0038 50       		.byte	0x50
 4946 0039 9F       		.byte	0x9f
 4947 003a 00000000 		.4byte	0
 4948 003e 00000000 		.4byte	0
 4949              	.LLST2:
 4950 0042 2A000000 		.4byte	.LVL10
 4951 0046 2C000000 		.4byte	.LVL11
 4952 004a 0200     		.2byte	0x2
 4953 004c 30       		.byte	0x30
 4954 004d 9F       		.byte	0x9f
 4955 004e 92000000 		.4byte	.LVL16
 4956 0052 94000000 		.4byte	.LVL17
 4957 0056 0200     		.2byte	0x2
 4958 0058 30       		.byte	0x30
 4959 0059 9F       		.byte	0x9f
 4960 005a 94000000 		.4byte	.LVL17
 4961 005e A6000000 		.4byte	.LVL19
 4962 0062 0500     		.2byte	0x5
 4963 0064 34       		.byte	0x34
 4964 0065 74       		.byte	0x74
 4965 0066 00       		.sleb128 0
 4966 0067 1C       		.byte	0x1c
 4967 0068 9F       		.byte	0x9f
 4968 0069 A6000000 		.4byte	.LVL19
 4969 006d A8000000 		.4byte	.LVL20
 4970 0071 0500     		.2byte	0x5
 4971 0073 35       		.byte	0x35
 4972 0074 74       		.byte	0x74
 4973 0075 00       		.sleb128 0
 4974 0076 1C       		.byte	0x1c
 4975 0077 9F       		.byte	0x9f
 4976 0078 A8000000 		.4byte	.LVL20
 4977 007c C4000000 		.4byte	.LVL22
 4978 0080 0500     		.2byte	0x5
 4979 0082 34       		.byte	0x34
 4980 0083 74       		.byte	0x74
 4981 0084 00       		.sleb128 0
 4982 0085 1C       		.byte	0x1c
 4983 0086 9F       		.byte	0x9f
 4984 0087 DA000000 		.4byte	.LVL23
 4985 008b E5000000 		.4byte	.LVL24-1
 4986 008f 0500     		.2byte	0x5
 4987 0091 34       		.byte	0x34
 4988 0092 73       		.byte	0x73
 4989 0093 00       		.sleb128 0
 4990 0094 1C       		.byte	0x1c
 4991 0095 9F       		.byte	0x9f
 4992 0096 E5000000 		.4byte	.LVL24-1
 4993 009a F0000000 		.4byte	.LVL25
 4994 009e 0500     		.2byte	0x5
 4995 00a0 34       		.byte	0x34
 4996 00a1 74       		.byte	0x74
 4997 00a2 00       		.sleb128 0
 4998 00a3 1C       		.byte	0x1c
 4999 00a4 9F       		.byte	0x9f
ARM GAS  /tmp/ccP0TEd1.s 			page 89


 5000 00a5 F0000000 		.4byte	.LVL25
 5001 00a9 F2000000 		.4byte	.LVL26
 5002 00ad 0200     		.2byte	0x2
 5003 00af 30       		.byte	0x30
 5004 00b0 9F       		.byte	0x9f
 5005 00b1 4E010000 		.4byte	.LVL33
 5006 00b5 50010000 		.4byte	.LVL34
 5007 00b9 0200     		.2byte	0x2
 5008 00bb 30       		.byte	0x30
 5009 00bc 9F       		.byte	0x9f
 5010 00bd 00000000 		.4byte	0
 5011 00c1 00000000 		.4byte	0
 5012              	.LLST3:
 5013 00c5 16010000 		.4byte	.LVL28
 5014 00c9 1E010000 		.4byte	.LVL29
 5015 00cd 0100     		.2byte	0x1
 5016 00cf 50       		.byte	0x50
 5017 00d0 1E010000 		.4byte	.LVL29
 5018 00d4 24010000 		.4byte	.LVL31
 5019 00d8 0300     		.2byte	0x3
 5020 00da 74       		.byte	0x74
 5021 00db 04       		.sleb128 4
 5022 00dc 9F       		.byte	0x9f
 5023 00dd 74010000 		.4byte	.LVL36
 5024 00e1 76010000 		.4byte	.LVL37
 5025 00e5 0100     		.2byte	0x1
 5026 00e7 50       		.byte	0x50
 5027 00e8 76010000 		.4byte	.LVL37
 5028 00ec 7C010000 		.4byte	.LVL38
 5029 00f0 0300     		.2byte	0x3
 5030 00f2 70       		.byte	0x70
 5031 00f3 02       		.sleb128 2
 5032 00f4 9F       		.byte	0x9f
 5033 00f5 94010000 		.4byte	.LVL40
 5034 00f9 9C010000 		.4byte	.LVL41
 5035 00fd 0100     		.2byte	0x1
 5036 00ff 50       		.byte	0x50
 5037 0100 9C010000 		.4byte	.LVL41
 5038 0104 9F010000 		.4byte	.LVL42-1
 5039 0108 0300     		.2byte	0x3
 5040 010a 72       		.byte	0x72
 5041 010b 02       		.sleb128 2
 5042 010c 9F       		.byte	0x9f
 5043 010d 00000000 		.4byte	0
 5044 0111 00000000 		.4byte	0
 5045              	.LLST4:
 5046 0115 28000000 		.4byte	.LVL53
 5047 0119 2A000000 		.4byte	.LVL54
 5048 011d 0200     		.2byte	0x2
 5049 011f 30       		.byte	0x30
 5050 0120 9F       		.byte	0x9f
 5051 0121 5E000000 		.4byte	.LVL57
 5052 0125 60000000 		.4byte	.LVL58
 5053 0129 0200     		.2byte	0x2
 5054 012b 30       		.byte	0x30
 5055 012c 9F       		.byte	0x9f
 5056 012d 60000000 		.4byte	.LVL58
ARM GAS  /tmp/ccP0TEd1.s 			page 90


 5057 0131 7A000000 		.4byte	.LVL61
 5058 0135 0500     		.2byte	0x5
 5059 0137 34       		.byte	0x34
 5060 0138 74       		.byte	0x74
 5061 0139 00       		.sleb128 0
 5062 013a 1C       		.byte	0x1c
 5063 013b 9F       		.byte	0x9f
 5064 013c 7A000000 		.4byte	.LVL61
 5065 0140 7C000000 		.4byte	.LVL62
 5066 0144 0500     		.2byte	0x5
 5067 0146 35       		.byte	0x35
 5068 0147 74       		.byte	0x74
 5069 0148 00       		.sleb128 0
 5070 0149 1C       		.byte	0x1c
 5071 014a 9F       		.byte	0x9f
 5072 014b 7C000000 		.4byte	.LVL62
 5073 014f 96000000 		.4byte	.LVL64
 5074 0153 0500     		.2byte	0x5
 5075 0155 34       		.byte	0x34
 5076 0156 74       		.byte	0x74
 5077 0157 00       		.sleb128 0
 5078 0158 1C       		.byte	0x1c
 5079 0159 9F       		.byte	0x9f
 5080 015a A2000000 		.4byte	.LVL65
 5081 015e B2000000 		.4byte	.LVL67
 5082 0162 0500     		.2byte	0x5
 5083 0164 34       		.byte	0x34
 5084 0165 74       		.byte	0x74
 5085 0166 00       		.sleb128 0
 5086 0167 1C       		.byte	0x1c
 5087 0168 9F       		.byte	0x9f
 5088 0169 E6000000 		.4byte	.LVL70
 5089 016d F0000000 		.4byte	.LVL71
 5090 0171 0500     		.2byte	0x5
 5091 0173 34       		.byte	0x34
 5092 0174 74       		.byte	0x74
 5093 0175 00       		.sleb128 0
 5094 0176 1C       		.byte	0x1c
 5095 0177 9F       		.byte	0x9f
 5096 0178 00000000 		.4byte	0
 5097 017c 00000000 		.4byte	0
 5098              	.LLST5:
 5099 0180 04010000 		.4byte	.LVL72
 5100 0184 12010000 		.4byte	.LVL73
 5101 0188 0100     		.2byte	0x1
 5102 018a 50       		.byte	0x50
 5103 018b 12010000 		.4byte	.LVL73
 5104 018f 15010000 		.4byte	.LVL74-1
 5105 0193 0300     		.2byte	0x3
 5106 0195 7C       		.byte	0x7c
 5107 0196 04       		.sleb128 4
 5108 0197 9F       		.byte	0x9f
 5109 0198 DE010000 		.4byte	.LVL81
 5110 019c E0010000 		.4byte	.LVL82
 5111 01a0 0100     		.2byte	0x1
 5112 01a2 50       		.byte	0x50
 5113 01a3 E0010000 		.4byte	.LVL82
ARM GAS  /tmp/ccP0TEd1.s 			page 91


 5114 01a7 E6010000 		.4byte	.LVL83
 5115 01ab 0300     		.2byte	0x3
 5116 01ad 70       		.byte	0x70
 5117 01ae 02       		.sleb128 2
 5118 01af 9F       		.byte	0x9f
 5119 01b0 FC010000 		.4byte	.LVL85
 5120 01b4 04020000 		.4byte	.LVL86
 5121 01b8 0100     		.2byte	0x1
 5122 01ba 50       		.byte	0x50
 5123 01bb 04020000 		.4byte	.LVL86
 5124 01bf 07020000 		.4byte	.LVL87-1
 5125 01c3 0300     		.2byte	0x3
 5126 01c5 72       		.byte	0x72
 5127 01c6 02       		.sleb128 2
 5128 01c7 9F       		.byte	0x9f
 5129 01c8 00000000 		.4byte	0
 5130 01cc 00000000 		.4byte	0
 5131              	.LLST6:
 5132 01d0 6E000000 		.4byte	.LVL59
 5133 01d4 76000000 		.4byte	.LVL60
 5134 01d8 0100     		.2byte	0x1
 5135 01da 50       		.byte	0x50
 5136 01db 00000000 		.4byte	0
 5137 01df 00000000 		.4byte	0
 5138              		.section	.debug_aranges,"",%progbits
 5139 0000 4C000000 		.4byte	0x4c
 5140 0004 0200     		.2byte	0x2
 5141 0006 00000000 		.4byte	.Ldebug_info0
 5142 000a 04       		.byte	0x4
 5143 000b 00       		.byte	0
 5144 000c 0000     		.2byte	0
 5145 000e 0000     		.2byte	0
 5146 0010 00000000 		.4byte	.LFB7
 5147 0014 02000000 		.4byte	.LFE7-.LFB7
 5148 0018 00000000 		.4byte	.LFB9
 5149 001c 14000000 		.4byte	.LFE9-.LFB9
 5150 0020 00000000 		.4byte	.LFB8
 5151 0024 1C000000 		.4byte	.LFE8-.LFB8
 5152 0028 00000000 		.4byte	.LFB12
 5153 002c 14000000 		.4byte	.LFE12-.LFB12
 5154 0030 00000000 		.4byte	.LFB11
 5155 0034 1C000000 		.4byte	.LFE11-.LFB11
 5156 0038 00000000 		.4byte	.LFB10
 5157 003c 80020000 		.4byte	.LFE10-.LFB10
 5158 0040 00000000 		.4byte	.LFB13
 5159 0044 68020000 		.4byte	.LFE13-.LFB13
 5160 0048 00000000 		.4byte	0
 5161 004c 00000000 		.4byte	0
 5162              		.section	.debug_ranges,"",%progbits
 5163              	.Ldebug_ranges0:
 5164 0000 02000000 		.4byte	.LBB99
 5165 0004 04000000 		.4byte	.LBE99
 5166 0008 06000000 		.4byte	.LBB100
 5167 000c 0A000000 		.4byte	.LBE100
 5168 0010 00000000 		.4byte	0
 5169 0014 00000000 		.4byte	0
 5170 0018 1E000000 		.4byte	.LBB102
ARM GAS  /tmp/ccP0TEd1.s 			page 92


 5171 001c 64000000 		.4byte	.LBE102
 5172 0020 68000000 		.4byte	.LBB132
 5173 0024 C8000000 		.4byte	.LBE132
 5174 0028 CC000000 		.4byte	.LBB133
 5175 002c 5E020000 		.4byte	.LBE133
 5176 0030 64020000 		.4byte	.LBB134
 5177 0034 80020000 		.4byte	.LBE134
 5178 0038 00000000 		.4byte	0
 5179 003c 00000000 		.4byte	0
 5180 0040 C4000000 		.4byte	.LBB113
 5181 0044 C8000000 		.4byte	.LBE113
 5182 0048 CC000000 		.4byte	.LBB114
 5183 004c D0000000 		.4byte	.LBE114
 5184 0050 00000000 		.4byte	0
 5185 0054 00000000 		.4byte	0
 5186 0058 26020000 		.4byte	.LBB129
 5187 005c 28020000 		.4byte	.LBE129
 5188 0060 2A020000 		.4byte	.LBB130
 5189 0064 2E020000 		.4byte	.LBE130
 5190 0068 00000000 		.4byte	0
 5191 006c 00000000 		.4byte	0
 5192 0070 04000000 		.4byte	.LBB171
 5193 0074 06000000 		.4byte	.LBE171
 5194 0078 08000000 		.4byte	.LBB172
 5195 007c 0C000000 		.4byte	.LBE172
 5196 0080 00000000 		.4byte	0
 5197 0084 00000000 		.4byte	0
 5198 0088 22000000 		.4byte	.LBB174
 5199 008c 9C000000 		.4byte	.LBE174
 5200 0090 A2000000 		.4byte	.LBB203
 5201 0094 DC000000 		.4byte	.LBE203
 5202 0098 E6000000 		.4byte	.LBB204
 5203 009c 46020000 		.4byte	.LBE204
 5204 00a0 4C020000 		.4byte	.LBB205
 5205 00a4 68020000 		.4byte	.LBE205
 5206 00a8 00000000 		.4byte	0
 5207 00ac 00000000 		.4byte	0
 5208 00b0 5E010000 		.4byte	.LBB190
 5209 00b4 60010000 		.4byte	.LBE190
 5210 00b8 62010000 		.4byte	.LBB191
 5211 00bc 66010000 		.4byte	.LBE191
 5212 00c0 00000000 		.4byte	0
 5213 00c4 00000000 		.4byte	0
 5214 00c8 24020000 		.4byte	.LBB200
 5215 00cc 26020000 		.4byte	.LBE200
 5216 00d0 28020000 		.4byte	.LBB201
 5217 00d4 2E020000 		.4byte	.LBE201
 5218 00d8 00000000 		.4byte	0
 5219 00dc 00000000 		.4byte	0
 5220 00e0 00000000 		.4byte	.LFB7
 5221 00e4 02000000 		.4byte	.LFE7
 5222 00e8 00000000 		.4byte	.LFB9
 5223 00ec 14000000 		.4byte	.LFE9
 5224 00f0 00000000 		.4byte	.LFB8
 5225 00f4 1C000000 		.4byte	.LFE8
 5226 00f8 00000000 		.4byte	.LFB12
 5227 00fc 14000000 		.4byte	.LFE12
ARM GAS  /tmp/ccP0TEd1.s 			page 93


 5228 0100 00000000 		.4byte	.LFB11
 5229 0104 1C000000 		.4byte	.LFE11
 5230 0108 00000000 		.4byte	.LFB10
 5231 010c 80020000 		.4byte	.LFE10
 5232 0110 00000000 		.4byte	.LFB13
 5233 0114 68020000 		.4byte	.LFE13
 5234 0118 00000000 		.4byte	0
 5235 011c 00000000 		.4byte	0
 5236              		.section	.debug_line,"",%progbits
 5237              	.Ldebug_line0:
 5238 0000 C8020000 		.section	.debug_str,"MS",%progbits,1
 5238      0200C401 
 5238      00000201 
 5238      FB0E0D00 
 5238      01010101 
 5239              	.LASF102:
 5240 0000 63684F51 		.ascii	"chOQPutTimeout\000"
 5240      50757454 
 5240      696D656F 
 5240      757400
 5241              	.LASF70:
 5242 000f 7466756E 		.ascii	"tfunc_t\000"
 5242      635F7400 
 5243              	.LASF41:
 5244 0017 705F6D73 		.ascii	"p_msg\000"
 5244      6700
 5245              	.LASF2:
 5246 001d 73697A65 		.ascii	"size_t\000"
 5246      5F7400
 5247              	.LASF65:
 5248 0024 7264796D 		.ascii	"rdymsg\000"
 5248      736700
 5249              	.LASF103:
 5250 002b 63684951 		.ascii	"chIQInit\000"
 5250      496E6974 
 5250      00
 5251              	.LASF17:
 5252 0034 75696E74 		.ascii	"uint64_t\000"
 5252      36345F74 
 5252      00
 5253              	.LASF81:
 5254 003d 4F757470 		.ascii	"OutputQueue\000"
 5254      75745175 
 5254      65756500 
 5255              	.LASF3:
 5256 0049 5F5F7569 		.ascii	"__uint8_t\000"
 5256      6E74385F 
 5256      7400
 5257              	.LASF109:
 5258 0053 63684951 		.ascii	"chIQReadTimeout\000"
 5258      52656164 
 5258      54696D65 
 5258      6F757400 
 5259              	.LASF100:
 5260 0063 70617474 		.ascii	"patternqueues\000"
 5260      65726E71 
 5260      75657565 
ARM GAS  /tmp/ccP0TEd1.s 			page 94


 5260      7300
 5261              	.LASF13:
 5262 0071 6C6F6E67 		.ascii	"long long unsigned int\000"
 5262      206C6F6E 
 5262      6720756E 
 5262      7369676E 
 5262      65642069 
 5263              	.LASF113:
 5264 0088 63684F51 		.ascii	"chOQWriteTimeout\000"
 5264      57726974 
 5264      6554696D 
 5264      656F7574 
 5264      00
 5265              	.LASF104:
 5266 0099 63684F51 		.ascii	"chOQInit\000"
 5266      496E6974 
 5266      00
 5267              	.LASF66:
 5268 00a2 65786974 		.ascii	"exitcode\000"
 5268      636F6465 
 5268      00
 5269              	.LASF94:
 5270 00ab 71756575 		.ascii	"queues2_setup\000"
 5270      6573325F 
 5270      73657475 
 5270      7000
 5271              	.LASF97:
 5272 00b9 74657374 		.ascii	"test\000"
 5272      00
 5273              	.LASF30:
 5274 00be 705F7072 		.ascii	"p_prio\000"
 5274      696F00
 5275              	.LASF72:
 5276 00c5 715F7761 		.ascii	"q_waiting\000"
 5276      6974696E 
 5276      6700
 5277              	.LASF11:
 5278 00cf 6C6F6E67 		.ascii	"long long int\000"
 5278      206C6F6E 
 5278      6720696E 
 5278      7400
 5279              	.LASF1:
 5280 00dd 7369676E 		.ascii	"signed char\000"
 5280      65642063 
 5280      68617200 
 5281              	.LASF45:
 5282 00e9 705F6D70 		.ascii	"p_mpool\000"
 5282      6F6F6C00 
 5283              	.LASF18:
 5284 00f1 626F6F6C 		.ascii	"bool_t\000"
 5284      5F7400
 5285              	.LASF62:
 5286 00f8 6D5F7175 		.ascii	"m_queue\000"
 5286      65756500 
 5287              	.LASF107:
 5288 0100 74657374 		.ascii	"test_emit_token\000"
 5288      5F656D69 
ARM GAS  /tmp/ccP0TEd1.s 			page 95


 5288      745F746F 
 5288      6B656E00 
 5289              	.LASF8:
 5290 0110 6C6F6E67 		.ascii	"long int\000"
 5290      20696E74 
 5290      00
 5291              	.LASF20:
 5292 0119 74737461 		.ascii	"tstate_t\000"
 5292      74655F74 
 5292      00
 5293              	.LASF112:
 5294 0122 63684F51 		.ascii	"chOQGetI\000"
 5294      47657449 
 5294      00
 5295              	.LASF74:
 5296 012b 715F6275 		.ascii	"q_buffer\000"
 5296      66666572 
 5296      00
 5297              	.LASF76:
 5298 0134 715F7772 		.ascii	"q_wrptr\000"
 5298      70747200 
 5299              	.LASF87:
 5300 013c 62756666 		.ascii	"buffer\000"
 5300      657200
 5301              	.LASF32:
 5302 0143 705F6E65 		.ascii	"p_newer\000"
 5302      77657200 
 5303              	.LASF9:
 5304 014b 5F5F7569 		.ascii	"__uint32_t\000"
 5304      6E743332 
 5304      5F7400
 5305              	.LASF48:
 5306 0156 72656761 		.ascii	"regarm_t\000"
 5306      726D5F74 
 5306      00
 5307              	.LASF116:
 5308 015f 2F686F6D 		.ascii	"/home/alejandro/Desktop/ChibiOS/sam3s/blink\000"
 5308      652F616C 
 5308      656A616E 
 5308      64726F2F 
 5308      4465736B 
 5309              	.LASF105:
 5310 018b 63684951 		.ascii	"chIQPutI\000"
 5310      50757449 
 5310      00
 5311              	.LASF26:
 5312 0194 636E745F 		.ascii	"cnt_t\000"
 5312      7400
 5313              	.LASF0:
 5314 019a 756E7369 		.ascii	"unsigned int\000"
 5314      676E6564 
 5314      20696E74 
 5314      00
 5315              	.LASF110:
 5316 01a7 63684951 		.ascii	"chIQResetI\000"
 5316      52657365 
 5316      744900
ARM GAS  /tmp/ccP0TEd1.s 			page 96


 5317              	.LASF10:
 5318 01b2 6C6F6E67 		.ascii	"long unsigned int\000"
 5318      20756E73 
 5318      69676E65 
 5318      6420696E 
 5318      7400
 5319              	.LASF85:
 5320 01c4 74656172 		.ascii	"teardown\000"
 5320      646F776E 
 5320      00
 5321              	.LASF83:
 5322 01cd 6E616D65 		.ascii	"name\000"
 5322      00
 5323              	.LASF51:
 5324 01d2 636F6E74 		.ascii	"context\000"
 5324      65787400 
 5325              	.LASF6:
 5326 01da 73686F72 		.ascii	"short unsigned int\000"
 5326      7420756E 
 5326      7369676E 
 5326      65642069 
 5326      6E7400
 5327              	.LASF88:
 5328 01ed 71756575 		.ascii	"queues1_execute\000"
 5328      6573315F 
 5328      65786563 
 5328      75746500 
 5329              	.LASF114:
 5330 01fd 474E5520 		.ascii	"GNU C 4.8.4 20140526 (release) [ARM/embedded-4_8-br"
 5330      4320342E 
 5330      382E3420 
 5330      32303134 
 5330      30353236 
 5331 0230 616E6368 		.ascii	"anch revision 211358] -mcpu=cortex-m3 -mno-thumb-in"
 5331      20726576 
 5331      6973696F 
 5331      6E203231 
 5331      31333538 
 5332 0263 74657277 		.ascii	"terwork -mthumb -ggdb -O2 -std=gnu99 -fomit-frame-p"
 5332      6F726B20 
 5332      2D6D7468 
 5332      756D6220 
 5332      2D676764 
 5333 0296 6F696E74 		.ascii	"ointer -falign-functions=16 -ffunction-sections -fd"
 5333      6572202D 
 5333      66616C69 
 5333      676E2D66 
 5333      756E6374 
 5334 02c9 6174612D 		.ascii	"ata-sections -fno-common\000"
 5334      73656374 
 5334      696F6E73 
 5334      202D666E 
 5334      6F2D636F 
 5335              	.LASF23:
 5336 02e2 6D73675F 		.ascii	"msg_t\000"
 5336      7400
 5337              	.LASF56:
ARM GAS  /tmp/ccP0TEd1.s 			page 97


 5338 02e8 725F6E65 		.ascii	"r_newer\000"
 5338      77657200 
 5339              	.LASF19:
 5340 02f0 746D6F64 		.ascii	"tmode_t\000"
 5340      655F7400 
 5341              	.LASF47:
 5342 02f8 54687265 		.ascii	"ThreadsList\000"
 5342      6164734C 
 5342      69737400 
 5343              	.LASF24:
 5344 0304 6576656E 		.ascii	"eventmask_t\000"
 5344      746D6173 
 5344      6B5F7400 
 5345              	.LASF80:
 5346 0310 496E7075 		.ascii	"InputQueue\000"
 5346      74517565 
 5346      756500
 5347              	.LASF61:
 5348 031b 4D757465 		.ascii	"Mutex\000"
 5348      7800
 5349              	.LASF71:
 5350 0321 47656E65 		.ascii	"GenericQueue\000"
 5350      72696351 
 5350      75657565 
 5350      00
 5351              	.LASF49:
 5352 032e 73746B61 		.ascii	"stkalign_t\000"
 5352      6C69676E 
 5352      5F7400
 5353              	.LASF111:
 5354 0339 63685468 		.ascii	"chThdCreateStatic\000"
 5354      64437265 
 5354      61746553 
 5354      74617469 
 5354      6300
 5355              	.LASF90:
 5356 034b 6E6F7469 		.ascii	"notify\000"
 5356      667900
 5357              	.LASF89:
 5358 0352 71756575 		.ascii	"queues2_execute\000"
 5358      6573325F 
 5358      65786563 
 5358      75746500 
 5359              	.LASF52:
 5360 0362 73697A65 		.ascii	"sizetype\000"
 5360      74797065 
 5360      00
 5361              	.LASF73:
 5362 036b 715F636F 		.ascii	"q_counter\000"
 5362      756E7465 
 5362      7200
 5363              	.LASF98:
 5364 0375 74657374 		.ascii	"testqueues1\000"
 5364      71756575 
 5364      65733100 
 5365              	.LASF99:
 5366 0381 74657374 		.ascii	"testqueues2\000"
ARM GAS  /tmp/ccP0TEd1.s 			page 98


 5366      71756575 
 5366      65733200 
 5367              	.LASF118:
 5368 038d 74657374 		.ascii	"test_wait_threads\000"
 5368      5F776169 
 5368      745F7468 
 5368      72656164 
 5368      7300
 5369              	.LASF33:
 5370 039f 705F6F6C 		.ascii	"p_older\000"
 5370      64657200 
 5371              	.LASF92:
 5372 03a7 74687265 		.ascii	"thread1\000"
 5372      61643100 
 5373              	.LASF93:
 5374 03af 74687265 		.ascii	"thread2\000"
 5374      61643200 
 5375              	.LASF55:
 5376 03b7 725F6374 		.ascii	"r_ctx\000"
 5376      7800
 5377              	.LASF46:
 5378 03bd 54687265 		.ascii	"ThreadsQueue\000"
 5378      61647351 
 5378      75657565 
 5378      00
 5379              	.LASF84:
 5380 03ca 73657475 		.ascii	"setup\000"
 5380      7000
 5381              	.LASF108:
 5382 03d0 5F746573 		.ascii	"_test_assert_sequence\000"
 5382      745F6173 
 5382      73657274 
 5382      5F736571 
 5382      75656E63 
 5383              	.LASF59:
 5384 03e6 725F6375 		.ascii	"r_current\000"
 5384      7272656E 
 5384      7400
 5385              	.LASF57:
 5386 03f0 725F6F6C 		.ascii	"r_older\000"
 5386      64657200 
 5387              	.LASF12:
 5388 03f8 5F5F7569 		.ascii	"__uint64_t\000"
 5388      6E743634 
 5388      5F7400
 5389              	.LASF91:
 5390 0403 71756575 		.ascii	"queues1_setup\000"
 5390      6573315F 
 5390      73657475 
 5390      7000
 5391              	.LASF21:
 5392 0411 74726566 		.ascii	"trefs_t\000"
 5392      735F7400 
 5393              	.LASF79:
 5394 0419 716E6F74 		.ascii	"qnotify_t\000"
 5394      6966795F 
 5394      7400
ARM GAS  /tmp/ccP0TEd1.s 			page 99


 5395              	.LASF29:
 5396 0423 705F7072 		.ascii	"p_prev\000"
 5396      657600
 5397              	.LASF86:
 5398 042a 65786563 		.ascii	"execute\000"
 5398      75746500 
 5399              	.LASF22:
 5400 0432 74707269 		.ascii	"tprio_t\000"
 5400      6F5F7400 
 5401              	.LASF77:
 5402 043a 715F7264 		.ascii	"q_rdptr\000"
 5402      70747200 
 5403              	.LASF15:
 5404 0442 696E7433 		.ascii	"int32_t\000"
 5404      325F7400 
 5405              	.LASF4:
 5406 044a 756E7369 		.ascii	"unsigned char\000"
 5406      676E6564 
 5406      20636861 
 5406      7200
 5407              	.LASF115:
 5408 0458 2E2E2F2E 		.ascii	"../../test/testqueues.c\000"
 5408      2E2F7465 
 5408      73742F74 
 5408      65737471 
 5408      75657565 
 5409              	.LASF43:
 5410 0470 705F6D74 		.ascii	"p_mtxlist\000"
 5410      786C6973 
 5410      7400
 5411              	.LASF5:
 5412 047a 73686F72 		.ascii	"short int\000"
 5412      7420696E 
 5412      7400
 5413              	.LASF35:
 5414 0484 705F7374 		.ascii	"p_state\000"
 5414      61746500 
 5415              	.LASF96:
 5416 048c 74687265 		.ascii	"threads\000"
 5416      61647300 
 5417              	.LASF54:
 5418 0494 725F7072 		.ascii	"r_prio\000"
 5418      696F00
 5419              	.LASF68:
 5420 049b 65776D61 		.ascii	"ewmask\000"
 5420      736B00
 5421              	.LASF28:
 5422 04a2 705F6E65 		.ascii	"p_next\000"
 5422      787400
 5423              	.LASF36:
 5424 04a9 705F666C 		.ascii	"p_flags\000"
 5424      61677300 
 5425              	.LASF27:
 5426 04b1 54687265 		.ascii	"Thread\000"
 5426      616400
 5427              	.LASF82:
 5428 04b8 74657374 		.ascii	"testcase\000"
ARM GAS  /tmp/ccP0TEd1.s 			page 100


 5428      63617365 
 5428      00
 5429              	.LASF42:
 5430 04c1 705F6570 		.ascii	"p_epending\000"
 5430      656E6469 
 5430      6E6700
 5431              	.LASF16:
 5432 04cc 75696E74 		.ascii	"uint32_t\000"
 5432      33325F74 
 5432      00
 5433              	.LASF53:
 5434 04d5 725F7175 		.ascii	"r_queue\000"
 5434      65756500 
 5435              	.LASF69:
 5436 04dd 63686172 		.ascii	"char\000"
 5436      00
 5437              	.LASF117:
 5438 04e2 74657374 		.ascii	"test_buffers\000"
 5438      5F627566 
 5438      66657273 
 5438      00
 5439              	.LASF64:
 5440 04ef 6D5F6E65 		.ascii	"m_next\000"
 5440      787400
 5441              	.LASF25:
 5442 04f6 73797374 		.ascii	"systime_t\000"
 5442      696D655F 
 5442      7400
 5443              	.LASF44:
 5444 0500 705F7265 		.ascii	"p_realprio\000"
 5444      616C7072 
 5444      696F00
 5445              	.LASF7:
 5446 050b 5F5F696E 		.ascii	"__int32_t\000"
 5446      7433325F 
 5446      7400
 5447              	.LASF119:
 5448 0515 63684F51 		.ascii	"chOQResetI\000"
 5448      52657365 
 5448      744900
 5449              	.LASF38:
 5450 0520 705F7469 		.ascii	"p_time\000"
 5450      6D6500
 5451              	.LASF50:
 5452 0527 696E7463 		.ascii	"intctx\000"
 5452      747800
 5453              	.LASF40:
 5454 052e 705F6D73 		.ascii	"p_msgqueue\000"
 5454      67717565 
 5454      756500
 5455              	.LASF75:
 5456 0539 715F746F 		.ascii	"q_top\000"
 5456      7000
 5457              	.LASF37:
 5458 053f 705F7265 		.ascii	"p_refs\000"
 5458      667300
 5459              	.LASF60:
ARM GAS  /tmp/ccP0TEd1.s 			page 101


 5460 0546 52656164 		.ascii	"ReadyList\000"
 5460      794C6973 
 5460      7400
 5461              	.LASF78:
 5462 0550 715F6E6F 		.ascii	"q_notify\000"
 5462      74696679 
 5462      00
 5463              	.LASF95:
 5464 0559 726C6973 		.ascii	"rlist\000"
 5464      7400
 5465              	.LASF14:
 5466 055f 75696E74 		.ascii	"uint8_t\000"
 5466      385F7400 
 5467              	.LASF67:
 5468 0567 77746F62 		.ascii	"wtobjp\000"
 5468      6A7000
 5469              	.LASF34:
 5470 056e 705F6E61 		.ascii	"p_name\000"
 5470      6D6500
 5471              	.LASF106:
 5472 0575 5F746573 		.ascii	"_test_assert\000"
 5472      745F6173 
 5472      73657274 
 5472      00
 5473              	.LASF58:
 5474 0582 725F7072 		.ascii	"r_preempt\000"
 5474      65656D70 
 5474      7400
 5475              	.LASF63:
 5476 058c 6D5F6F77 		.ascii	"m_owner\000"
 5476      6E657200 
 5477              	.LASF31:
 5478 0594 705F6374 		.ascii	"p_ctx\000"
 5478      7800
 5479              	.LASF39:
 5480 059a 705F7761 		.ascii	"p_waiting\000"
 5480      6974696E 
 5480      6700
 5481              	.LASF101:
 5482 05a4 63684951 		.ascii	"chIQGetTimeout\000"
 5482      47657454 
 5482      696D656F 
 5482      757400
 5483              		.ident	"GCC: (GNU Tools for ARM Embedded Processors) 4.8.4 20140526 (release) [ARM/embedded-4_8-br
ARM GAS  /tmp/ccP0TEd1.s 			page 102


DEFINED SYMBOLS
                            *ABS*:00000000 testqueues.c
     /tmp/ccP0TEd1.s:19     .text.notify:00000000 $t
     /tmp/ccP0TEd1.s:24     .text.notify:00000000 notify
     /tmp/ccP0TEd1.s:38     .text.thread1:00000000 $t
     /tmp/ccP0TEd1.s:43     .text.thread1:00000000 thread1
     /tmp/ccP0TEd1.s:67     .text.thread1:00000010 $d
     /tmp/ccP0TEd1.s:72     .text.queues1_setup:00000000 $t
     /tmp/ccP0TEd1.s:77     .text.queues1_setup:00000000 queues1_setup
     /tmp/ccP0TEd1.s:95     .text.queues1_setup:00000010 $d
     /tmp/ccP0TEd1.s:102    .text.thread2:00000000 $t
     /tmp/ccP0TEd1.s:107    .text.thread2:00000000 thread2
     /tmp/ccP0TEd1.s:131    .text.thread2:00000010 $d
     /tmp/ccP0TEd1.s:136    .text.queues2_setup:00000000 $t
     /tmp/ccP0TEd1.s:141    .text.queues2_setup:00000000 queues2_setup
     /tmp/ccP0TEd1.s:159    .text.queues2_setup:00000010 $d
     /tmp/ccP0TEd1.s:166    .text.queues1_execute:00000000 $t
     /tmp/ccP0TEd1.s:171    .text.queues1_execute:00000000 queues1_execute
     /tmp/ccP0TEd1.s:698    .text.queues1_execute:00000268 $d
     /tmp/ccP0TEd1.s:710    .text.queues2_execute:00000000 $t
     /tmp/ccP0TEd1.s:715    .text.queues2_execute:00000000 queues2_execute
     /tmp/ccP0TEd1.s:1208   .text.queues2_execute:00000250 $d
     /tmp/ccP0TEd1.s:1254   .rodata.patternqueues:00000000 patternqueues
     /tmp/ccP0TEd1.s:1235   .rodata.testqueues2:00000000 testqueues2
     /tmp/ccP0TEd1.s:1226   .rodata.testqueues1:00000000 testqueues1
     /tmp/ccP0TEd1.s:1223   .rodata.testqueues1:00000000 $d
     /tmp/ccP0TEd1.s:1232   .rodata.testqueues2:00000000 $d
     /tmp/ccP0TEd1.s:1241   .rodata.str1.4:00000000 $d
     /tmp/ccP0TEd1.s:1251   .rodata.patternqueues:00000000 $d
     /tmp/ccP0TEd1.s:1259   .data.oq:00000000 $d
     /tmp/ccP0TEd1.s:1263   .data.oq:00000000 oq
     /tmp/ccP0TEd1.s:1273   .data.iq:00000000 $d
     /tmp/ccP0TEd1.s:1277   .data.iq:00000000 iq
                     .debug_frame:00000010 $d
     /tmp/ccP0TEd1.s:71     .text.thread1:00000014 $t
     /tmp/ccP0TEd1.s:101    .text.queues1_setup:0000001c $t
     /tmp/ccP0TEd1.s:135    .text.thread2:00000014 $t
     /tmp/ccP0TEd1.s:165    .text.queues2_setup:0000001c $t
     /tmp/ccP0TEd1.s:1222   .text.queues2_execute:00000268 $t

UNDEFINED SYMBOLS
chIQGetTimeout
chIQInit
wa
chOQPutTimeout
chOQInit
_test_assert
chIQPutI
test_emit_token
_test_assert_sequence
chIQReadTimeout
chIQResetI
chThdCreateStatic
test_wait_threads
rlist
threads
chOQGetI
ARM GAS  /tmp/ccP0TEd1.s 			page 103


chOQWriteTimeout
chOQResetI
test
