ARM GAS  /tmp/ccQ2y3LG.s 			page 1


   1              		.syntax unified
   2              		.cpu cortex-m3
   3              		.fpu softvfp
   4              		.eabi_attribute 20, 1
   5              		.eabi_attribute 21, 1
   6              		.eabi_attribute 23, 3
   7              		.eabi_attribute 24, 1
   8              		.eabi_attribute 25, 1
   9              		.eabi_attribute 26, 1
  10              		.eabi_attribute 30, 2
  11              		.eabi_attribute 34, 1
  12              		.eabi_attribute 18, 4
  13              		.thumb
  14              		.file	"testsem.c"
  15              		.text
  16              	.Ltext0:
  17              		.cfi_sections	.debug_frame
  18              		.section	.text.sem1_execute,"ax",%progbits
  19              		.align	2
  20              		.p2align 4,,15
  21              		.thumb
  22              		.thumb_func
  23              		.type	sem1_execute, %function
  24              	sem1_execute:
  25              	.LFB9:
  26              		.file 1 "../../test/testsem.c"
  27              		.loc 1 95 0
  28              		.cfi_startproc
  29              		@ args = 0, pretend = 0, frame = 0
  30              		@ frame_needed = 0, uses_anonymous_args = 0
  31 0000 2DE9F043 		push	{r4, r5, r6, r7, r8, r9, lr}
  32              		.cfi_def_cfa_offset 28
  33              		.cfi_offset 4, -28
  34              		.cfi_offset 5, -24
  35              		.cfi_offset 6, -20
  36              		.cfi_offset 7, -16
  37              		.cfi_offset 8, -12
  38              		.cfi_offset 9, -8
  39              		.cfi_offset 14, -4
  40              		.loc 1 97 0
  41 0004 404E     		ldr	r6, .L5
  42 0006 414C     		ldr	r4, .L5+4
  43 0008 F369     		ldr	r3, [r6, #28]
  44 000a D4F80080 		ldr	r8, [r4]
  45 000e 9A68     		ldr	r2, [r3, #8]
  46 0010 3F4F     		ldr	r7, .L5+8
  47              		.loc 1 95 0
  48 0012 83B0     		sub	sp, sp, #12
  49              		.cfi_def_cfa_offset 40
  50              		.loc 1 97 0
  51 0014 0532     		adds	r2, r2, #5
  52 0016 4FF49871 		mov	r1, #304
  53 001a 3E4B     		ldr	r3, .L5+12
  54 001c 4046     		mov	r0, r8
  55 001e 0097     		str	r7, [sp]
  56 0020 FFF7FEFF 		bl	chThdCreateStatic
  57              	.LVL0:
ARM GAS  /tmp/ccQ2y3LG.s 			page 2


  58              		.loc 1 98 0
  59 0024 F369     		ldr	r3, [r6, #28]
  60              		.loc 1 97 0
  61 0026 3C4D     		ldr	r5, .L5+16
  62              		.loc 1 98 0
  63 0028 9A68     		ldr	r2, [r3, #8]
  64 002a 3C49     		ldr	r1, .L5+20
  65 002c 6368     		ldr	r3, [r4, #4]
  66              		.loc 1 97 0
  67 002e 2860     		str	r0, [r5]
  68              		.loc 1 98 0
  69 0030 0132     		adds	r2, r2, #1
  70 0032 1846     		mov	r0, r3
  71 0034 0091     		str	r1, [sp]
  72 0036 374B     		ldr	r3, .L5+12
  73 0038 4FF49871 		mov	r1, #304
  74 003c FFF7FEFF 		bl	chThdCreateStatic
  75              	.LVL1:
  76              		.loc 1 99 0
  77 0040 F269     		ldr	r2, [r6, #28]
  78 0042 A368     		ldr	r3, [r4, #8]
  79 0044 9268     		ldr	r2, [r2, #8]
  80 0046 3649     		ldr	r1, .L5+24
  81              		.loc 1 98 0
  82 0048 6860     		str	r0, [r5, #4]
  83              		.loc 1 99 0
  84 004a 0332     		adds	r2, r2, #3
  85 004c 1846     		mov	r0, r3
  86 004e 0091     		str	r1, [sp]
  87 0050 304B     		ldr	r3, .L5+12
  88 0052 4FF49871 		mov	r1, #304
  89 0056 FFF7FEFF 		bl	chThdCreateStatic
  90              	.LVL2:
  91              		.loc 1 100 0
  92 005a F269     		ldr	r2, [r6, #28]
  93 005c E368     		ldr	r3, [r4, #12]
  94 005e 9268     		ldr	r2, [r2, #8]
  95 0060 3049     		ldr	r1, .L5+28
  96              		.loc 1 99 0
  97 0062 A860     		str	r0, [r5, #8]
  98              		.loc 1 100 0
  99 0064 0432     		adds	r2, r2, #4
 100 0066 1846     		mov	r0, r3
 101 0068 0091     		str	r1, [sp]
 102 006a 2A4B     		ldr	r3, .L5+12
 103 006c 4FF49871 		mov	r1, #304
 104 0070 FFF7FEFF 		bl	chThdCreateStatic
 105              	.LVL3:
 106              		.loc 1 101 0
 107 0074 F269     		ldr	r2, [r6, #28]
 108 0076 2369     		ldr	r3, [r4, #16]
 109 0078 9268     		ldr	r2, [r2, #8]
 110 007a 2B49     		ldr	r1, .L5+32
 111 007c 0232     		adds	r2, r2, #2
 112              		.loc 1 100 0
 113 007e E860     		str	r0, [r5, #12]
 114              		.loc 1 101 0
ARM GAS  /tmp/ccQ2y3LG.s 			page 3


 115 0080 0091     		str	r1, [sp]
 116 0082 1846     		mov	r0, r3
 117 0084 4FF49871 		mov	r1, #304
 118 0088 224B     		ldr	r3, .L5+12
 119 008a FFF7FEFF 		bl	chThdCreateStatic
 120              	.LVL4:
 121              		.loc 1 102 0
 122 008e 274C     		ldr	r4, .L5+36
 123              		.loc 1 101 0
 124 0090 2861     		str	r0, [r5, #16]
 125              		.loc 1 102 0
 126 0092 2046     		mov	r0, r4
 127 0094 FFF7FEFF 		bl	chSemSignal
 128              	.LVL5:
 129              		.loc 1 103 0
 130 0098 2046     		mov	r0, r4
 131 009a FFF7FEFF 		bl	chSemSignal
 132              	.LVL6:
 133              		.loc 1 104 0
 134 009e 2046     		mov	r0, r4
 135 00a0 FFF7FEFF 		bl	chSemSignal
 136              	.LVL7:
 137              		.loc 1 105 0
 138 00a4 2046     		mov	r0, r4
 139 00a6 FFF7FEFF 		bl	chSemSignal
 140              	.LVL8:
 141              		.loc 1 106 0
 142 00aa 2046     		mov	r0, r4
 143 00ac FFF7FEFF 		bl	chSemSignal
 144              	.LVL9:
 145              		.loc 1 107 0
 146 00b0 FFF7FEFF 		bl	test_wait_threads
 147              	.LVL10:
 148              		.loc 1 111 0
 149 00b4 0120     		movs	r0, #1
 150 00b6 1E49     		ldr	r1, .L5+40
 151 00b8 FFF7FEFF 		bl	_test_assert_sequence
 152              	.LVL11:
 153 00bc 8146     		mov	r9, r0
 154 00be 10B1     		cbz	r0, .L4
 155              		.loc 1 119 0
 156 00c0 03B0     		add	sp, sp, #12
 157              		@ sp needed
 158 00c2 BDE8F083 		pop	{r4, r5, r6, r7, r8, r9, pc}
 159              	.L4:
 160              		.loc 1 113 0
 161 00c6 F369     		ldr	r3, [r6, #28]
 162 00c8 4046     		mov	r0, r8
 163 00ca 9A68     		ldr	r2, [r3, #8]
 164 00cc 4FF49871 		mov	r1, #304
 165 00d0 0532     		adds	r2, r2, #5
 166 00d2 0097     		str	r7, [sp]
 167 00d4 0F4B     		ldr	r3, .L5+12
 168 00d6 FFF7FEFF 		bl	chThdCreateStatic
 169              	.LVL12:
 170              	.LBB2:
 171              		.loc 1 114 0
ARM GAS  /tmp/ccQ2y3LG.s 			page 4


 172 00da 2023     		movs	r3, #32
 173              	.LBE2:
 174              		.loc 1 113 0
 175 00dc 2860     		str	r0, [r5]
 176              	.LBB3:
 177              		.loc 1 114 0
 178              	@ 114 "../../test/testsem.c" 1
 179 00de 83F31188 		msr     BASEPRI, r3
 180              	@ 0 "" 2
 181              		.thumb
 182              	.LBE3:
 183              		.loc 1 115 0
 184 00e2 0221     		movs	r1, #2
 185 00e4 2046     		mov	r0, r4
 186 00e6 FFF7FEFF 		bl	chSemAddCounterI
 187              	.LVL13:
 188              	.LBB4:
 189              		.loc 1 116 0
 190 00ea 4B46     		mov	r3, r9
 191              	@ 116 "../../test/testsem.c" 1
 192 00ec 83F31188 		msr     BASEPRI, r3
 193              	@ 0 "" 2
 194              		.thumb
 195              	.LBE4:
 196              		.loc 1 117 0
 197 00f0 FFF7FEFF 		bl	test_wait_threads
 198              	.LVL14:
 199              		.loc 1 118 0
 200 00f4 A168     		ldr	r1, [r4, #8]
 201 00f6 0220     		movs	r0, #2
 202 00f8 4B1E     		subs	r3, r1, #1
 203 00fa 5942     		rsbs	r1, r3, #0
 204 00fc 5941     		adcs	r1, r1, r3
 205              		.loc 1 119 0
 206 00fe 03B0     		add	sp, sp, #12
 207              		@ sp needed
 208 0100 BDE8F043 		pop	{r4, r5, r6, r7, r8, r9, lr}
 209              		.loc 1 118 0
 210 0104 FFF7FEBF 		b	_test_assert
 211              	.LVL15:
 212              	.L6:
 213              		.align	2
 214              	.L5:
 215 0108 00000000 		.word	rlist
 216 010c 00000000 		.word	wa
 217 0110 00000000 		.word	.LC0
 218 0114 00000000 		.word	thread1
 219 0118 00000000 		.word	threads
 220 011c 04000000 		.word	.LC1
 221 0120 08000000 		.word	.LC2
 222 0124 0C000000 		.word	.LC3
 223 0128 10000000 		.word	.LC4
 224 012c 00000000 		.word	.LANCHOR0
 225 0130 14000000 		.word	.LC5
 226              		.cfi_endproc
 227              	.LFE9:
 228              		.size	sem1_execute, .-sem1_execute
ARM GAS  /tmp/ccQ2y3LG.s 			page 5


 229 0134 AFF30080 		.section	.text.thread3,"ax",%progbits
 229      AFF30080 
 229      AFF30080 
 230              		.align	2
 231              		.p2align 4,,15
 232              		.thumb
 233              		.thumb_func
 234              		.type	thread3, %function
 235              	thread3:
 236              	.LFB14:
 237              		.loc 1 220 0
 238              		.cfi_startproc
 239              		@ args = 0, pretend = 0, frame = 0
 240              		@ frame_needed = 0, uses_anonymous_args = 0
 241              	.LVL16:
 242 0000 10B5     		push	{r4, lr}
 243              		.cfi_def_cfa_offset 8
 244              		.cfi_offset 4, -8
 245              		.cfi_offset 14, -4
 246              		.loc 1 223 0
 247 0002 044C     		ldr	r4, .L8
 248 0004 2046     		mov	r0, r4
 249              	.LVL17:
 250 0006 FFF7FEFF 		bl	chSemWait
 251              	.LVL18:
 252              		.loc 1 224 0
 253 000a 2046     		mov	r0, r4
 254 000c FFF7FEFF 		bl	chSemSignal
 255              	.LVL19:
 256              		.loc 1 226 0
 257 0010 0020     		movs	r0, #0
 258 0012 10BD     		pop	{r4, pc}
 259              	.L9:
 260              		.align	2
 261              	.L8:
 262 0014 00000000 		.word	.LANCHOR0
 263              		.cfi_endproc
 264              	.LFE14:
 265              		.size	thread3, .-thread3
 266 0018 AFF30080 		.section	.text.thread1,"ax",%progbits
 266      AFF30080 
 267              		.align	2
 268              		.p2align 4,,15
 269              		.thumb
 270              		.thumb_func
 271              		.type	thread1, %function
 272              	thread1:
 273              	.LFB8:
 274              		.loc 1 88 0
 275              		.cfi_startproc
 276              		@ args = 0, pretend = 0, frame = 0
 277              		@ frame_needed = 0, uses_anonymous_args = 0
 278              	.LVL20:
 279 0000 10B5     		push	{r4, lr}
 280              		.cfi_def_cfa_offset 8
 281              		.cfi_offset 4, -8
 282              		.cfi_offset 14, -4
ARM GAS  /tmp/ccQ2y3LG.s 			page 6


 283              		.loc 1 88 0
 284 0002 0446     		mov	r4, r0
 285              		.loc 1 90 0
 286 0004 0348     		ldr	r0, .L11
 287              	.LVL21:
 288 0006 FFF7FEFF 		bl	chSemWait
 289              	.LVL22:
 290              		.loc 1 91 0
 291 000a 2078     		ldrb	r0, [r4]	@ zero_extendqisi2
 292 000c FFF7FEFF 		bl	test_emit_token
 293              	.LVL23:
 294              		.loc 1 93 0
 295 0010 0020     		movs	r0, #0
 296 0012 10BD     		pop	{r4, pc}
 297              	.LVL24:
 298              	.L12:
 299              		.align	2
 300              	.L11:
 301 0014 00000000 		.word	.LANCHOR0
 302              		.cfi_endproc
 303              	.LFE8:
 304              		.size	thread1, .-thread1
 305 0018 AFF30080 		.section	.text.sem1_setup,"ax",%progbits
 305      AFF30080 
 306              		.align	2
 307              		.p2align 4,,15
 308              		.thumb
 309              		.thumb_func
 310              		.type	sem1_setup, %function
 311              	sem1_setup:
 312              	.LFB7:
 313              		.loc 1 83 0
 314              		.cfi_startproc
 315              		@ args = 0, pretend = 0, frame = 0
 316              		@ frame_needed = 0, uses_anonymous_args = 0
 317              		@ link register save eliminated.
 318              		.loc 1 85 0
 319 0000 0148     		ldr	r0, .L14
 320 0002 0021     		movs	r1, #0
 321 0004 FFF7FEBF 		b	chSemInit
 322              	.LVL25:
 323              	.L15:
 324              		.align	2
 325              	.L14:
 326 0008 00000000 		.word	.LANCHOR0
 327              		.cfi_endproc
 328              	.LFE7:
 329              		.size	sem1_setup, .-sem1_setup
 330 000c AFF30080 		.section	.text.sem2_setup,"ax",%progbits
 331              		.align	2
 332              		.p2align 4,,15
 333              		.thumb
 334              		.thumb_func
 335              		.type	sem2_setup, %function
 336              	sem2_setup:
 337              	.LFB10:
 338              		.loc 1 139 0
ARM GAS  /tmp/ccQ2y3LG.s 			page 7


 339              		.cfi_startproc
 340              		@ args = 0, pretend = 0, frame = 0
 341              		@ frame_needed = 0, uses_anonymous_args = 0
 342              		@ link register save eliminated.
 343              		.loc 1 141 0
 344 0000 0148     		ldr	r0, .L17
 345 0002 0021     		movs	r1, #0
 346 0004 FFF7FEBF 		b	chSemInit
 347              	.LVL26:
 348              	.L18:
 349              		.align	2
 350              	.L17:
 351 0008 00000000 		.word	.LANCHOR0
 352              		.cfi_endproc
 353              	.LFE10:
 354              		.size	sem2_setup, .-sem2_setup
 355 000c AFF30080 		.section	.text.sem3_setup,"ax",%progbits
 356              		.align	2
 357              		.p2align 4,,15
 358              		.thumb
 359              		.thumb_func
 360              		.type	sem3_setup, %function
 361              	sem3_setup:
 362              	.LFB13:
 363              		.loc 1 215 0
 364              		.cfi_startproc
 365              		@ args = 0, pretend = 0, frame = 0
 366              		@ frame_needed = 0, uses_anonymous_args = 0
 367              		@ link register save eliminated.
 368              		.loc 1 217 0
 369 0000 0148     		ldr	r0, .L20
 370 0002 0021     		movs	r1, #0
 371 0004 FFF7FEBF 		b	chSemInit
 372              	.LVL27:
 373              	.L21:
 374              		.align	2
 375              	.L20:
 376 0008 00000000 		.word	.LANCHOR0
 377              		.cfi_endproc
 378              	.LFE13:
 379              		.size	sem3_setup, .-sem3_setup
 380 000c AFF30080 		.section	.text.thread2,"ax",%progbits
 381              		.align	2
 382              		.p2align 4,,15
 383              		.thumb
 384              		.thumb_func
 385              		.type	thread2, %function
 386              	thread2:
 387              	.LFB11:
 388              		.loc 1 144 0
 389              		.cfi_startproc
 390              		@ args = 0, pretend = 0, frame = 0
 391              		@ frame_needed = 0, uses_anonymous_args = 0
 392              	.LVL28:
 393 0000 08B5     		push	{r3, lr}
 394              		.cfi_def_cfa_offset 8
 395              		.cfi_offset 3, -8
ARM GAS  /tmp/ccQ2y3LG.s 			page 8


 396              		.cfi_offset 14, -4
 397              		.loc 1 147 0
 398 0002 3220     		movs	r0, #50
 399              	.LVL29:
 400 0004 FFF7FEFF 		bl	chThdSleep
 401              	.LVL30:
 402              	.LBB5:
 403              		.loc 1 148 0
 404 0008 2023     		movs	r3, #32
 405              	@ 148 "../../test/testsem.c" 1
 406 000a 83F31188 		msr     BASEPRI, r3
 407              	@ 0 "" 2
 408              		.thumb
 409              	.LBE5:
 410              		.loc 1 149 0
 411 000e 0548     		ldr	r0, .L23
 412 0010 FFF7FEFF 		bl	chSemSignalI
 413              	.LVL31:
 414              		.loc 1 150 0
 415 0014 FFF7FEFF 		bl	chSchRescheduleS
 416              	.LVL32:
 417              	.LBB6:
 418              		.loc 1 151 0
 419 0018 0023     		movs	r3, #0
 420              	@ 151 "../../test/testsem.c" 1
 421 001a 83F31188 		msr     BASEPRI, r3
 422              	@ 0 "" 2
 423              		.thumb
 424              	.LBE6:
 425              		.loc 1 153 0
 426 001e 1846     		mov	r0, r3
 427 0020 08BD     		pop	{r3, pc}
 428              	.L24:
 429 0022 00BF     		.align	2
 430              	.L23:
 431 0024 00000000 		.word	.LANCHOR0
 432              		.cfi_endproc
 433              	.LFE11:
 434              		.size	thread2, .-thread2
 435 0028 AFF30080 		.section	.text.thread4,"ax",%progbits
 435      AFF30080 
 436              		.align	2
 437              		.p2align 4,,15
 438              		.thumb
 439              		.thumb_func
 440              		.type	thread4, %function
 441              	thread4:
 442              	.LFB16:
 443              		.loc 1 256 0
 444              		.cfi_startproc
 445              		@ args = 0, pretend = 0, frame = 0
 446              		@ frame_needed = 0, uses_anonymous_args = 0
 447              	.LVL33:
 448 0000 08B5     		push	{r3, lr}
 449              		.cfi_def_cfa_offset 8
 450              		.cfi_offset 3, -8
 451              		.cfi_offset 14, -4
ARM GAS  /tmp/ccQ2y3LG.s 			page 9


 452              	.LBB7:
 453              		.loc 1 258 0
 454 0002 2023     		movs	r3, #32
 455              	@ 258 "../../test/testsem.c" 1
 456 0004 83F31188 		msr     BASEPRI, r3
 457              	@ 0 "" 2
 458              		.thumb
 459              	.LBE7:
 460 0008 8368     		ldr	r3, [r0, #8]
 461 000a 002B     		cmp	r3, #0
 462 000c 06DD     		ble	.L27
 463              	.LVL34:
 464              	.L26:
 465              		.loc 1 258 0 is_stmt 0 discriminator 2
 466 000e FFF7FEFF 		bl	chSchRescheduleS
 467              	.LVL35:
 468              	.LBB8:
 469 0012 0023     		movs	r3, #0
 470              	@ 258 "../../test/testsem.c" 1
 471 0014 83F31188 		msr     BASEPRI, r3
 472              	@ 0 "" 2
 473              		.thumb
 474              	.LBE8:
 475              		.loc 1 260 0 is_stmt 1 discriminator 2
 476 0018 1846     		mov	r0, r3
 477 001a 08BD     		pop	{r3, pc}
 478              	.LVL36:
 479              	.L27:
 480              		.loc 1 258 0 discriminator 1
 481 001c FFF7FEFF 		bl	chSemSignalI
 482              	.LVL37:
 483 0020 F5E7     		b	.L26
 484              		.cfi_endproc
 485              	.LFE16:
 486              		.size	thread4, .-thread4
 487 0022 00BFAFF3 		.section	.text.sem4_execute,"ax",%progbits
 487      0080AFF3 
 487      0080AFF3 
 487      0080
 488              		.align	2
 489              		.p2align 4,,15
 490              		.thumb
 491              		.thumb_func
 492              		.type	sem4_execute, %function
 493              	sem4_execute:
 494              	.LFB17:
 495              		.loc 1 262 0
 496              		.cfi_startproc
 497              		@ args = 0, pretend = 0, frame = 16
 498              		@ frame_needed = 0, uses_anonymous_args = 0
 499 0000 00B5     		push	{lr}
 500              		.cfi_def_cfa_offset 4
 501              		.cfi_offset 14, -4
 502 0002 87B0     		sub	sp, sp, #28
 503              		.cfi_def_cfa_offset 32
 504              		.loc 1 266 0
 505 0004 03A8     		add	r0, sp, #12
ARM GAS  /tmp/ccQ2y3LG.s 			page 10


 506 0006 0021     		movs	r1, #0
 507 0008 FFF7FEFF 		bl	chSemInit
 508              	.LVL38:
 509              		.loc 1 267 0
 510 000c 03A8     		add	r0, sp, #12
 511 000e 0021     		movs	r1, #0
 512 0010 FFF7FEFF 		bl	chSemReset
 513              	.LVL39:
 514              		.loc 1 268 0
 515 0014 0599     		ldr	r1, [sp, #20]
 516 0016 0120     		movs	r0, #1
 517 0018 0029     		cmp	r1, #0
 518 001a CCBF     		ite	gt
 519 001c 0021     		movgt	r1, #0
 520 001e 0121     		movle	r1, #1
 521 0020 FFF7FEFF 		bl	_test_assert
 522              	.LVL40:
 523 0024 10B1     		cbz	r0, .L33
 524              	.L28:
 525              		.loc 1 290 0
 526 0026 07B0     		add	sp, sp, #28
 527              		@ sp needed
 528 0028 5DF804FB 		ldr	pc, [sp], #4
 529              	.L33:
 530              		.loc 1 272 0
 531 002c 2F4B     		ldr	r3, .L36
 532              		.loc 1 271 0
 533 002e 304A     		ldr	r2, .L36+4
 534              		.loc 1 272 0
 535 0030 DB69     		ldr	r3, [r3, #28]
 536              		.loc 1 271 0
 537 0032 1068     		ldr	r0, [r2]
 538 0034 9A68     		ldr	r2, [r3, #8]
 539 0036 03AB     		add	r3, sp, #12
 540 0038 4FF49871 		mov	r1, #304
 541 003c 013A     		subs	r2, r2, #1
 542 003e 0093     		str	r3, [sp]
 543 0040 2C4B     		ldr	r3, .L36+8
 544 0042 FFF7FEFF 		bl	chThdCreateStatic
 545              	.LVL41:
 546 0046 2C4B     		ldr	r3, .L36+12
 547 0048 1860     		str	r0, [r3]
 548              		.loc 1 275 0
 549 004a 03A8     		add	r0, sp, #12
 550 004c FFF7FEFF 		bl	chSemWait
 551              	.LVL42:
 552              		.loc 1 278 0
 553 0050 0599     		ldr	r1, [sp, #20]
 554 0052 0220     		movs	r0, #2
 555 0054 0029     		cmp	r1, #0
 556 0056 CCBF     		ite	gt
 557 0058 0021     		movgt	r1, #0
 558 005a 0121     		movle	r1, #1
 559 005c FFF7FEFF 		bl	_test_assert
 560              	.LVL43:
 561 0060 0028     		cmp	r0, #0
 562 0062 E0D1     		bne	.L28
ARM GAS  /tmp/ccQ2y3LG.s 			page 11


 563              	.LBB9:
 564              		.loc 1 282 0
 565 0064 2023     		movs	r3, #32
 566              	@ 282 "../../test/testsem.c" 1
 567 0066 83F31188 		msr     BASEPRI, r3
 568              	@ 0 "" 2
 569              		.thumb
 570              	.LBE9:
 571 006a 059B     		ldr	r3, [sp, #20]
 572 006c 002B     		cmp	r3, #0
 573 006e 34DD     		ble	.L34
 574              	.L30:
 575              		.loc 1 282 0 is_stmt 0 discriminator 2
 576 0070 FFF7FEFF 		bl	chSchRescheduleS
 577              	.LVL44:
 578              	.LBB10:
 579 0074 0023     		movs	r3, #0
 580              	@ 282 "../../test/testsem.c" 1
 581 0076 83F31188 		msr     BASEPRI, r3
 582              	@ 0 "" 2
 583              		.thumb
 584              	.LBE10:
 585              		.loc 1 283 0 is_stmt 1 discriminator 2
 586 007a 0599     		ldr	r1, [sp, #20]
 587 007c 0320     		movs	r0, #3
 588 007e 9942     		cmp	r1, r3
 589 0080 D4BF     		ite	le
 590 0082 0021     		movle	r1, #0
 591 0084 0121     		movgt	r1, #1
 592 0086 FFF7FEFF 		bl	_test_assert
 593              	.LVL45:
 594 008a 0028     		cmp	r0, #0
 595 008c CBD1     		bne	.L28
 596              		.loc 1 284 0
 597 008e 0599     		ldr	r1, [sp, #20]
 598 0090 0420     		movs	r0, #4
 599 0092 4A1E     		subs	r2, r1, #1
 600 0094 5142     		rsbs	r1, r2, #0
 601 0096 5141     		adcs	r1, r1, r2
 602 0098 FFF7FEFF 		bl	_test_assert
 603              	.LVL46:
 604 009c 0028     		cmp	r0, #0
 605 009e C2D1     		bne	.L28
 606              	.LBB11:
 607              		.loc 1 287 0
 608 00a0 2023     		movs	r3, #32
 609              	@ 287 "../../test/testsem.c" 1
 610 00a2 83F31188 		msr     BASEPRI, r3
 611              	@ 0 "" 2
 612              		.thumb
 613              	.LBE11:
 614 00a6 059B     		ldr	r3, [sp, #20]
 615 00a8 002B     		cmp	r3, #0
 616 00aa 1ADD     		ble	.L35
 617              	.L31:
 618              		.loc 1 287 0 is_stmt 0 discriminator 2
 619 00ac FFF7FEFF 		bl	chSchRescheduleS
ARM GAS  /tmp/ccQ2y3LG.s 			page 12


 620              	.LVL47:
 621              	.LBB12:
 622 00b0 0023     		movs	r3, #0
 623              	@ 287 "../../test/testsem.c" 1
 624 00b2 83F31188 		msr     BASEPRI, r3
 625              	@ 0 "" 2
 626              		.thumb
 627              	.LBE12:
 628              		.loc 1 288 0 is_stmt 1 discriminator 2
 629 00b6 0599     		ldr	r1, [sp, #20]
 630 00b8 0320     		movs	r0, #3
 631 00ba 9942     		cmp	r1, r3
 632 00bc D4BF     		ite	le
 633 00be 0021     		movle	r1, #0
 634 00c0 0121     		movgt	r1, #1
 635 00c2 FFF7FEFF 		bl	_test_assert
 636              	.LVL48:
 637 00c6 0028     		cmp	r0, #0
 638 00c8 ADD1     		bne	.L28
 639              		.loc 1 289 0
 640 00ca 0599     		ldr	r1, [sp, #20]
 641 00cc 0520     		movs	r0, #5
 642 00ce 4B1E     		subs	r3, r1, #1
 643 00d0 5942     		rsbs	r1, r3, #0
 644 00d2 5941     		adcs	r1, r1, r3
 645 00d4 FFF7FEFF 		bl	_test_assert
 646              	.LVL49:
 647 00d8 A5E7     		b	.L28
 648              	.L34:
 649              		.loc 1 282 0 discriminator 1
 650 00da 03A8     		add	r0, sp, #12
 651 00dc FFF7FEFF 		bl	chSemSignalI
 652              	.LVL50:
 653 00e0 C6E7     		b	.L30
 654              	.L35:
 655              		.loc 1 287 0 discriminator 1
 656 00e2 03A8     		add	r0, sp, #12
 657 00e4 FFF7FEFF 		bl	chSemSignalI
 658              	.LVL51:
 659 00e8 E0E7     		b	.L31
 660              	.L37:
 661 00ea 00BF     		.align	2
 662              	.L36:
 663 00ec 00000000 		.word	rlist
 664 00f0 00000000 		.word	wa
 665 00f4 00000000 		.word	thread4
 666 00f8 00000000 		.word	threads
 667              		.cfi_endproc
 668              	.LFE17:
 669              		.size	sem4_execute, .-sem4_execute
 670 00fc AFF30080 		.section	.text.sem2_execute,"ax",%progbits
 671              		.align	2
 672              		.p2align 4,,15
 673              		.thumb
 674              		.thumb_func
 675              		.type	sem2_execute, %function
 676              	sem2_execute:
ARM GAS  /tmp/ccQ2y3LG.s 			page 13


 677              	.LFB12:
 678              		.loc 1 155 0
 679              		.cfi_startproc
 680              		@ args = 0, pretend = 0, frame = 0
 681              		@ frame_needed = 0, uses_anonymous_args = 0
 682 0000 70B5     		push	{r4, r5, r6, lr}
 683              		.cfi_def_cfa_offset 16
 684              		.cfi_offset 4, -16
 685              		.cfi_offset 5, -12
 686              		.cfi_offset 6, -8
 687              		.cfi_offset 14, -4
 688              		.loc 1 163 0
 689 0002 4A4C     		ldr	r4, .L45
 690              		.loc 1 155 0
 691 0004 82B0     		sub	sp, sp, #8
 692              		.cfi_def_cfa_offset 24
 693              		.loc 1 163 0
 694 0006 0021     		movs	r1, #0
 695 0008 2046     		mov	r0, r4
 696 000a FFF7FEFF 		bl	chSemWaitTimeout
 697              	.LVL52:
 698              		.loc 1 164 0
 699 000e B0F1FF3E 		subs	lr, r0, #-1
 700 0012 DEF10001 		rsbs	r1, lr, #0
 701 0016 51EB0E01 		adcs	r1, r1, lr
 702 001a 0120     		movs	r0, #1
 703              	.LVL53:
 704 001c FFF7FEFF 		bl	_test_assert
 705              	.LVL54:
 706 0020 08B1     		cbz	r0, .L44
 707              	.L38:
 708              		.loc 1 193 0
 709 0022 02B0     		add	sp, sp, #8
 710              		@ sp needed
 711 0024 70BD     		pop	{r4, r5, r6, pc}
 712              	.L44:
 713              		.loc 1 165 0
 714 0026 2168     		ldr	r1, [r4]
 715 0028 0220     		movs	r0, #2
 716 002a 0E1B     		subs	r6, r1, r4
 717 002c 7142     		rsbs	r1, r6, #0
 718 002e 7141     		adcs	r1, r1, r6
 719 0030 FFF7FEFF 		bl	_test_assert
 720              	.LVL55:
 721 0034 0028     		cmp	r0, #0
 722 0036 F4D1     		bne	.L38
 723              		.loc 1 166 0
 724 0038 A168     		ldr	r1, [r4, #8]
 725 003a 0320     		movs	r0, #3
 726 003c D1F10101 		rsbs	r1, r1, #1
 727 0040 38BF     		it	cc
 728 0042 0021     		movcc	r1, #0
 729 0044 FFF7FEFF 		bl	_test_assert
 730              	.LVL56:
 731 0048 0346     		mov	r3, r0
 732 004a 0028     		cmp	r0, #0
 733 004c E9D1     		bne	.L38
ARM GAS  /tmp/ccQ2y3LG.s 			page 14


 734              	.LBB15:
 735              	.LBB16:
 736              		.loc 1 171 0
 737 004e 384A     		ldr	r2, .L45+4
 738 0050 3849     		ldr	r1, .L45+8
 739 0052 D269     		ldr	r2, [r2, #28]
 740 0054 0868     		ldr	r0, [r1]
 741 0056 9268     		ldr	r2, [r2, #8]
 742 0058 4FF49871 		mov	r1, #304
 743 005c 013A     		subs	r2, r2, #1
 744 005e 0093     		str	r3, [sp]
 745 0060 354B     		ldr	r3, .L45+12
 746 0062 FFF7FEFF 		bl	chThdCreateStatic
 747              	.LVL57:
 748 0066 354B     		ldr	r3, .L45+16
 749              		.loc 1 173 0
 750 0068 4FF4FA71 		mov	r1, #500
 751              		.loc 1 171 0
 752 006c 1860     		str	r0, [r3]
 753              		.loc 1 173 0
 754 006e 2046     		mov	r0, r4
 755 0070 FFF7FEFF 		bl	chSemWaitTimeout
 756              	.LVL58:
 757 0074 0546     		mov	r5, r0
 758              	.LVL59:
 759              		.loc 1 174 0
 760 0076 FFF7FEFF 		bl	test_wait_threads
 761              	.LVL60:
 762              		.loc 1 175 0
 763 007a D5F10101 		rsbs	r1, r5, #1
 764 007e 38BF     		it	cc
 765 0080 0021     		movcc	r1, #0
 766 0082 0420     		movs	r0, #4
 767 0084 FFF7FEFF 		bl	_test_assert
 768              	.LVL61:
 769 0088 0028     		cmp	r0, #0
 770 008a CAD1     		bne	.L38
 771              		.loc 1 176 0
 772 008c 2168     		ldr	r1, [r4]
 773 008e 0520     		movs	r0, #5
 774 0090 0D1B     		subs	r5, r1, r4
 775              	.LVL62:
 776 0092 6942     		rsbs	r1, r5, #0
 777 0094 6941     		adcs	r1, r1, r5
 778 0096 FFF7FEFF 		bl	_test_assert
 779              	.LVL63:
 780 009a 0028     		cmp	r0, #0
 781 009c C1D1     		bne	.L38
 782              		.loc 1 177 0
 783 009e A168     		ldr	r1, [r4, #8]
 784 00a0 0620     		movs	r0, #6
 785 00a2 D1F10101 		rsbs	r1, r1, #1
 786 00a6 38BF     		it	cc
 787 00a8 0021     		movcc	r1, #0
 788 00aa FFF7FEFF 		bl	_test_assert
 789              	.LVL64:
 790 00ae 0028     		cmp	r0, #0
ARM GAS  /tmp/ccQ2y3LG.s 			page 15


 791 00b0 B7D1     		bne	.L38
 792              		.loc 1 182 0
 793 00b2 FFF7FEFF 		bl	test_wait_tick
 794              	.LVL65:
 795              		.loc 1 183 0
 796 00b6 224B     		ldr	r3, .L45+20
 797 00b8 4125     		movs	r5, #65
 798 00ba DE68     		ldr	r6, [r3, #12]
 799              	.LVL66:
 800              	.L43:
 801              		.loc 1 185 0
 802 00bc 2846     		mov	r0, r5
 803 00be FFF7FEFF 		bl	test_emit_token
 804              	.LVL67:
 805              		.loc 1 186 0
 806 00c2 4FF4FA71 		mov	r1, #500
 807 00c6 1948     		ldr	r0, .L45
 808 00c8 FFF7FEFF 		bl	chSemWaitTimeout
 809              	.LVL68:
 810              		.loc 1 187 0
 811 00cc B0F1FF32 		subs	r2, r0, #-1
 812 00d0 5142     		rsbs	r1, r2, #0
 813 00d2 5141     		adcs	r1, r1, r2
 814 00d4 0720     		movs	r0, #7
 815              	.LVL69:
 816 00d6 FFF7FEFF 		bl	_test_assert
 817              	.LVL70:
 818 00da 0028     		cmp	r0, #0
 819 00dc A1D1     		bne	.L38
 820              		.loc 1 188 0
 821 00de 2168     		ldr	r1, [r4]
 822 00e0 0820     		movs	r0, #8
 823 00e2 0B1B     		subs	r3, r1, r4
 824 00e4 5942     		rsbs	r1, r3, #0
 825 00e6 5941     		adcs	r1, r1, r3
 826 00e8 FFF7FEFF 		bl	_test_assert
 827              	.LVL71:
 828 00ec 0028     		cmp	r0, #0
 829 00ee 98D1     		bne	.L38
 830              		.loc 1 189 0
 831 00f0 A168     		ldr	r1, [r4, #8]
 832 00f2 0920     		movs	r0, #9
 833 00f4 D1F10101 		rsbs	r1, r1, #1
 834 00f8 38BF     		it	cc
 835 00fa 0021     		movcc	r1, #0
 836 00fc FFF7FEFF 		bl	_test_assert
 837              	.LVL72:
 838 0100 0135     		adds	r5, r5, #1
 839 0102 EDB2     		uxtb	r5, r5
 840 0104 0028     		cmp	r0, #0
 841 0106 8CD1     		bne	.L38
 842              		.loc 1 184 0
 843 0108 462D     		cmp	r5, #70
 844 010a D7D1     		bne	.L43
 845              		.loc 1 191 0
 846 010c 0A20     		movs	r0, #10
 847 010e 0D49     		ldr	r1, .L45+24
ARM GAS  /tmp/ccQ2y3LG.s 			page 16


 848 0110 FFF7FEFF 		bl	_test_assert_sequence
 849              	.LVL73:
 850 0114 0028     		cmp	r0, #0
 851 0116 84D1     		bne	.L38
 852              		.loc 1 192 0
 853 0118 0B20     		movs	r0, #11
 854 011a 06F6C411 		addw	r1, r6, #2500
 855 011e 06F6C912 		addw	r2, r6, #2505
 856              	.LBE16:
 857              	.LBE15:
 858              		.loc 1 193 0
 859 0122 02B0     		add	sp, sp, #8
 860              		@ sp needed
 861 0124 BDE87040 		pop	{r4, r5, r6, lr}
 862              	.LVL74:
 863              	.LBB18:
 864              	.LBB17:
 865              		.loc 1 192 0
 866 0128 FFF7FEBF 		b	_test_assert_time_window
 867              	.LVL75:
 868              	.L46:
 869              		.align	2
 870              	.L45:
 871 012c 00000000 		.word	.LANCHOR0
 872 0130 00000000 		.word	rlist
 873 0134 00000000 		.word	wa
 874 0138 00000000 		.word	thread2
 875 013c 00000000 		.word	threads
 876 0140 00000000 		.word	vtlist
 877 0144 14000000 		.word	.LC5
 878              	.LBE17:
 879              	.LBE18:
 880              		.cfi_endproc
 881              	.LFE12:
 882              		.size	sem2_execute, .-sem2_execute
 883 0148 AFF30080 		.section	.text.sem3_execute,"ax",%progbits
 883      AFF30080 
 884              		.align	2
 885              		.p2align 4,,15
 886              		.thumb
 887              		.thumb_func
 888              		.type	sem3_execute, %function
 889              	sem3_execute:
 890              	.LFB15:
 891              		.loc 1 228 0
 892              		.cfi_startproc
 893              		@ args = 0, pretend = 0, frame = 0
 894              		@ frame_needed = 0, uses_anonymous_args = 0
 895 0000 10B5     		push	{r4, lr}
 896              		.cfi_def_cfa_offset 8
 897              		.cfi_offset 4, -8
 898              		.cfi_offset 14, -4
 899              		.loc 1 230 0
 900 0002 204B     		ldr	r3, .L52
 901 0004 204A     		ldr	r2, .L52+4
 902 0006 DB69     		ldr	r3, [r3, #28]
 903 0008 1068     		ldr	r0, [r2]
ARM GAS  /tmp/ccQ2y3LG.s 			page 17


 904 000a 9A68     		ldr	r2, [r3, #8]
 905              		.loc 1 228 0
 906 000c 82B0     		sub	sp, sp, #8
 907              		.cfi_def_cfa_offset 16
 908              		.loc 1 230 0
 909 000e 0023     		movs	r3, #0
 910 0010 0132     		adds	r2, r2, #1
 911 0012 0093     		str	r3, [sp]
 912 0014 4FF49871 		mov	r1, #304
 913 0018 1C4B     		ldr	r3, .L52+8
 914 001a FFF7FEFF 		bl	chThdCreateStatic
 915              	.LVL76:
 916              		.loc 1 231 0
 917 001e 1C4C     		ldr	r4, .L52+12
 918              		.loc 1 230 0
 919 0020 1C4B     		ldr	r3, .L52+16
 920              		.loc 1 231 0
 921 0022 2146     		mov	r1, r4
 922              		.loc 1 230 0
 923 0024 1860     		str	r0, [r3]
 924              		.loc 1 231 0
 925 0026 2046     		mov	r0, r4
 926 0028 FFF7FEFF 		bl	chSemSignalWait
 927              	.LVL77:
 928              		.loc 1 232 0
 929 002c 2168     		ldr	r1, [r4]
 930 002e 0120     		movs	r0, #1
 931 0030 0A1B     		subs	r2, r1, r4
 932 0032 5142     		rsbs	r1, r2, #0
 933 0034 5141     		adcs	r1, r1, r2
 934 0036 FFF7FEFF 		bl	_test_assert
 935              	.LVL78:
 936 003a 08B1     		cbz	r0, .L51
 937              	.L47:
 938              		.loc 1 238 0
 939 003c 02B0     		add	sp, sp, #8
 940              		@ sp needed
 941 003e 10BD     		pop	{r4, pc}
 942              	.L51:
 943              		.loc 1 233 0
 944 0040 A168     		ldr	r1, [r4, #8]
 945 0042 0220     		movs	r0, #2
 946 0044 D1F10101 		rsbs	r1, r1, #1
 947 0048 38BF     		it	cc
 948 004a 0021     		movcc	r1, #0
 949 004c FFF7FEFF 		bl	_test_assert
 950              	.LVL79:
 951 0050 0028     		cmp	r0, #0
 952 0052 F3D1     		bne	.L47
 953              	.LBB21:
 954              	.LBB22:
 955              		.loc 1 235 0
 956 0054 2146     		mov	r1, r4
 957 0056 2046     		mov	r0, r4
 958 0058 FFF7FEFF 		bl	chSemSignalWait
 959              	.LVL80:
 960              		.loc 1 236 0
ARM GAS  /tmp/ccQ2y3LG.s 			page 18


 961 005c 2168     		ldr	r1, [r4]
 962 005e 0320     		movs	r0, #3
 963 0060 0B1B     		subs	r3, r1, r4
 964 0062 5942     		rsbs	r1, r3, #0
 965 0064 5941     		adcs	r1, r1, r3
 966 0066 FFF7FEFF 		bl	_test_assert
 967              	.LVL81:
 968 006a 0028     		cmp	r0, #0
 969 006c E6D1     		bne	.L47
 970              		.loc 1 237 0
 971 006e A168     		ldr	r1, [r4, #8]
 972 0070 0420     		movs	r0, #4
 973 0072 D1F10101 		rsbs	r1, r1, #1
 974 0076 38BF     		it	cc
 975 0078 0021     		movcc	r1, #0
 976              	.LBE22:
 977              	.LBE21:
 978              		.loc 1 238 0
 979 007a 02B0     		add	sp, sp, #8
 980              		@ sp needed
 981 007c BDE81040 		pop	{r4, lr}
 982              	.LBB24:
 983              	.LBB23:
 984              		.loc 1 237 0
 985 0080 FFF7FEBF 		b	_test_assert
 986              	.LVL82:
 987              	.L53:
 988              		.align	2
 989              	.L52:
 990 0084 00000000 		.word	rlist
 991 0088 00000000 		.word	wa
 992 008c 00000000 		.word	thread3
 993 0090 00000000 		.word	.LANCHOR0
 994 0094 00000000 		.word	threads
 995              	.LBE23:
 996              	.LBE24:
 997              		.cfi_endproc
 998              	.LFE15:
 999              		.size	sem3_execute, .-sem3_execute
 1000              		.global	patternsem
 1001              		.global	testsem4
 1002              		.global	testsem3
 1003              		.global	testsem2
 1004              		.global	testsem1
 1005 0098 AFF30080 		.section	.rodata.testsem1,"a",%progbits
 1005      AFF30080 
 1006              		.align	2
 1007              		.type	testsem1, %object
 1008              		.size	testsem1, 16
 1009              	testsem1:
 1010 0000 74000000 		.word	.LC9
 1011 0004 00000000 		.word	sem1_setup
 1012 0008 00000000 		.word	0
 1013 000c 00000000 		.word	sem1_execute
 1014              		.section	.rodata.testsem2,"a",%progbits
 1015              		.align	2
 1016              		.type	testsem2, %object
ARM GAS  /tmp/ccQ2y3LG.s 			page 19


 1017              		.size	testsem2, 16
 1018              	testsem2:
 1019 0000 60000000 		.word	.LC8
 1020 0004 00000000 		.word	sem2_setup
 1021 0008 00000000 		.word	0
 1022 000c 00000000 		.word	sem2_execute
 1023              		.section	.rodata.testsem3,"a",%progbits
 1024              		.align	2
 1025              		.type	testsem3, %object
 1026              		.size	testsem3, 16
 1027              	testsem3:
 1028 0000 40000000 		.word	.LC7
 1029 0004 00000000 		.word	sem3_setup
 1030 0008 00000000 		.word	0
 1031 000c 00000000 		.word	sem3_execute
 1032              		.section	.rodata.testsem4,"a",%progbits
 1033              		.align	2
 1034              		.type	testsem4, %object
 1035              		.size	testsem4, 16
 1036              	testsem4:
 1037 0000 1C000000 		.word	.LC6
 1038 0004 00000000 		.word	0
 1039 0008 00000000 		.word	0
 1040 000c 00000000 		.word	sem4_execute
 1041              		.section	.data.sem1,"aw",%progbits
 1042              		.align	2
 1043              		.set	.LANCHOR0,. + 0
 1044              		.type	sem1, %object
 1045              		.size	sem1, 12
 1046              	sem1:
 1047 0000 00000000 		.word	sem1
 1048 0004 00000000 		.word	sem1
 1049 0008 00000000 		.word	0
 1050              		.section	.rodata.patternsem,"a",%progbits
 1051              		.align	2
 1052              		.type	patternsem, %object
 1053              		.size	patternsem, 20
 1054              	patternsem:
 1055 0000 00000000 		.word	testsem1
 1056 0004 00000000 		.word	testsem2
 1057 0008 00000000 		.word	testsem3
 1058 000c 00000000 		.word	testsem4
 1059 0010 00000000 		.word	0
 1060              		.section	.rodata.str1.4,"aMS",%progbits,1
 1061              		.align	2
 1062              	.LC0:
 1063 0000 4100     		.ascii	"A\000"
 1064 0002 0000     		.space	2
 1065              	.LC1:
 1066 0004 4200     		.ascii	"B\000"
 1067 0006 0000     		.space	2
 1068              	.LC2:
 1069 0008 4300     		.ascii	"C\000"
 1070 000a 0000     		.space	2
 1071              	.LC3:
 1072 000c 4400     		.ascii	"D\000"
 1073 000e 0000     		.space	2
ARM GAS  /tmp/ccQ2y3LG.s 			page 20


 1074              	.LC4:
 1075 0010 4500     		.ascii	"E\000"
 1076 0012 0000     		.space	2
 1077              	.LC5:
 1078 0014 41424344 		.ascii	"ABCDE\000"
 1078      4500
 1079 001a 0000     		.space	2
 1080              	.LC6:
 1081 001c 42696E61 		.ascii	"Binary Semaphores, functionality\000"
 1081      72792053 
 1081      656D6170 
 1081      686F7265 
 1081      732C2066 
 1082 003d 000000   		.space	3
 1083              	.LC7:
 1084 0040 53656D61 		.ascii	"Semaphores, atomic signal-wait\000"
 1084      70686F72 
 1084      65732C20 
 1084      61746F6D 
 1084      69632073 
 1085 005f 00       		.space	1
 1086              	.LC8:
 1087 0060 53656D61 		.ascii	"Semaphores, timeout\000"
 1087      70686F72 
 1087      65732C20 
 1087      74696D65 
 1087      6F757400 
 1088              	.LC9:
 1089 0074 53656D61 		.ascii	"Semaphores, enqueuing\000"
 1089      70686F72 
 1089      65732C20 
 1089      656E7175 
 1089      6575696E 
 1090 008a 0000     		.text
 1091              	.Letext0:
 1092              		.file 2 "/usr/local/gcc-arm-none-eabi-4_8-2014q2/lib/gcc/arm-none-eabi/4.8.4/include/stddef.h"
 1093              		.file 3 "/usr/local/gcc-arm-none-eabi-4_8-2014q2/arm-none-eabi/include/machine/_default_types.h"
 1094              		.file 4 "/usr/local/gcc-arm-none-eabi-4_8-2014q2/arm-none-eabi/include/stdint.h"
 1095              		.file 5 "../../os/ports/GCC/ARMCMx/chtypes.h"
 1096              		.file 6 "../../os/kernel/include/chlists.h"
 1097              		.file 7 "../../os/kernel/include/chthreads.h"
 1098              		.file 8 "../../os/ports/GCC/ARMCMx/chcore_v7m.h"
 1099              		.file 9 "../../os/kernel/include/chvt.h"
 1100              		.file 10 "../../os/kernel/include/chschd.h"
 1101              		.file 11 "../../os/kernel/include/chsem.h"
 1102              		.file 12 "../../os/kernel/include/chbsem.h"
 1103              		.file 13 "../../os/kernel/include/chmtx.h"
 1104              		.file 14 "../../test/test.h"