ARM GAS  /tmp/ccQqQCWT.s 			page 1


   1              		.syntax unified
   2              		.cpu cortex-m3
   3              		.fpu softvfp
   4              		.eabi_attribute 20, 1
   5              		.eabi_attribute 21, 1
   6              		.eabi_attribute 23, 3
   7              		.eabi_attribute 24, 1
   8              		.eabi_attribute 25, 1
   9              		.eabi_attribute 26, 1
  10              		.eabi_attribute 30, 2
  11              		.eabi_attribute 34, 1
  12              		.eabi_attribute 18, 4
  13              		.thumb
  14              		.file	"testmtx.c"
  15              		.text
  16              	.Ltext0:
  17              		.cfi_sections	.debug_frame
  18              		.section	.text.mtx1_execute,"ax",%progbits
  19              		.align	2
  20              		.p2align 4,,15
  21              		.thumb
  22              		.thumb_func
  23              		.type	mtx1_execute, %function
  24              	mtx1_execute:
  25              	.LFB9:
  26              		.file 1 "../../test/testmtx.c"
  27              		.loc 1 108 0
  28              		.cfi_startproc
  29              		@ args = 0, pretend = 0, frame = 0
  30              		@ frame_needed = 0, uses_anonymous_args = 0
  31 0000 F0B5     		push	{r4, r5, r6, r7, lr}
  32              		.cfi_def_cfa_offset 20
  33              		.cfi_offset 4, -20
  34              		.cfi_offset 5, -16
  35              		.cfi_offset 6, -12
  36              		.cfi_offset 7, -8
  37              		.cfi_offset 14, -4
  38              		.loc 1 110 0
  39 0002 2A4F     		ldr	r7, .L5
  40              		.loc 1 108 0
  41 0004 83B0     		sub	sp, sp, #12
  42              		.cfi_def_cfa_offset 32
  43              		.loc 1 110 0
  44 0006 FB69     		ldr	r3, [r7, #28]
  45              		.loc 1 111 0
  46 0008 2948     		ldr	r0, .L5+4
  47              		.loc 1 110 0
  48 000a 9C68     		ldr	r4, [r3, #8]
  49              	.LVL0:
  50              		.loc 1 112 0
  51 000c 294E     		ldr	r6, .L5+8
  52              		.loc 1 111 0
  53 000e FFF7FEFF 		bl	chMtxLock
  54              	.LVL1:
  55              		.loc 1 112 0
  56 0012 294B     		ldr	r3, .L5+12
  57 0014 621C     		adds	r2, r4, #1
ARM GAS  /tmp/ccQqQCWT.s 			page 2


  58 0016 0093     		str	r3, [sp]
  59 0018 4FF49871 		mov	r1, #304
  60 001c 274B     		ldr	r3, .L5+16
  61 001e 3068     		ldr	r0, [r6]
  62 0020 FFF7FEFF 		bl	chThdCreateStatic
  63              	.LVL2:
  64 0024 264D     		ldr	r5, .L5+20
  65              		.loc 1 113 0
  66 0026 7368     		ldr	r3, [r6, #4]
  67 0028 2649     		ldr	r1, .L5+24
  68              		.loc 1 112 0
  69 002a 2860     		str	r0, [r5]
  70              		.loc 1 113 0
  71 002c A21C     		adds	r2, r4, #2
  72 002e 1846     		mov	r0, r3
  73 0030 0091     		str	r1, [sp]
  74 0032 224B     		ldr	r3, .L5+16
  75 0034 4FF49871 		mov	r1, #304
  76 0038 FFF7FEFF 		bl	chThdCreateStatic
  77              	.LVL3:
  78              		.loc 1 114 0
  79 003c B368     		ldr	r3, [r6, #8]
  80 003e 2249     		ldr	r1, .L5+28
  81              		.loc 1 113 0
  82 0040 6860     		str	r0, [r5, #4]
  83              		.loc 1 114 0
  84 0042 E21C     		adds	r2, r4, #3
  85 0044 1846     		mov	r0, r3
  86 0046 0091     		str	r1, [sp]
  87 0048 1C4B     		ldr	r3, .L5+16
  88 004a 4FF49871 		mov	r1, #304
  89 004e FFF7FEFF 		bl	chThdCreateStatic
  90              	.LVL4:
  91              		.loc 1 115 0
  92 0052 F368     		ldr	r3, [r6, #12]
  93 0054 1D49     		ldr	r1, .L5+32
  94              		.loc 1 114 0
  95 0056 A860     		str	r0, [r5, #8]
  96              		.loc 1 115 0
  97 0058 221D     		adds	r2, r4, #4
  98 005a 1846     		mov	r0, r3
  99 005c 0091     		str	r1, [sp]
 100 005e 174B     		ldr	r3, .L5+16
 101 0060 4FF49871 		mov	r1, #304
 102 0064 FFF7FEFF 		bl	chThdCreateStatic
 103              	.LVL5:
 104              		.loc 1 116 0
 105 0068 3369     		ldr	r3, [r6, #16]
 106 006a 1949     		ldr	r1, .L5+36
 107 006c 621D     		adds	r2, r4, #5
 108              		.loc 1 115 0
 109 006e E860     		str	r0, [r5, #12]
 110              		.loc 1 116 0
 111 0070 0091     		str	r1, [sp]
 112 0072 1846     		mov	r0, r3
 113 0074 4FF49871 		mov	r1, #304
 114 0078 104B     		ldr	r3, .L5+16
ARM GAS  /tmp/ccQqQCWT.s 			page 3


 115 007a FFF7FEFF 		bl	chThdCreateStatic
 116              	.LVL6:
 117 007e 2861     		str	r0, [r5, #16]
 118              		.loc 1 117 0
 119 0080 FFF7FEFF 		bl	chMtxUnlock
 120              	.LVL7:
 121              		.loc 1 118 0
 122 0084 FFF7FEFF 		bl	test_wait_threads
 123              	.LVL8:
 124              		.loc 1 119 0
 125 0088 FB69     		ldr	r3, [r7, #28]
 126 008a 0120     		movs	r0, #1
 127 008c 9968     		ldr	r1, [r3, #8]
 128 008e 0B1B     		subs	r3, r1, r4
 129 0090 5942     		rsbs	r1, r3, #0
 130 0092 5941     		adcs	r1, r1, r3
 131 0094 FFF7FEFF 		bl	_test_assert
 132              	.LVL9:
 133 0098 08B1     		cbz	r0, .L4
 134              		.loc 1 121 0
 135 009a 03B0     		add	sp, sp, #12
 136              		@ sp needed
 137 009c F0BD     		pop	{r4, r5, r6, r7, pc}
 138              	.LVL10:
 139              	.L4:
 140              		.loc 1 120 0
 141 009e 0D49     		ldr	r1, .L5+40
 142 00a0 0220     		movs	r0, #2
 143              		.loc 1 121 0
 144 00a2 03B0     		add	sp, sp, #12
 145              		@ sp needed
 146 00a4 BDE8F040 		pop	{r4, r5, r6, r7, lr}
 147              	.LVL11:
 148              		.loc 1 120 0
 149 00a8 FFF7FEBF 		b	_test_assert_sequence
 150              	.LVL12:
 151              	.L6:
 152              		.align	2
 153              	.L5:
 154 00ac 00000000 		.word	rlist
 155 00b0 00000000 		.word	.LANCHOR0
 156 00b4 00000000 		.word	wa
 157 00b8 00000000 		.word	.LC0
 158 00bc 00000000 		.word	thread1
 159 00c0 00000000 		.word	threads
 160 00c4 04000000 		.word	.LC1
 161 00c8 08000000 		.word	.LC2
 162 00cc 0C000000 		.word	.LC3
 163 00d0 10000000 		.word	.LC4
 164 00d4 14000000 		.word	.LC5
 165              		.cfi_endproc
 166              	.LFE9:
 167              		.size	mtx1_execute, .-mtx1_execute
 168              		.section	.text.thread1,"ax",%progbits
 169              		.align	2
 170              		.p2align 4,,15
 171              		.thumb
ARM GAS  /tmp/ccQqQCWT.s 			page 4


 172              		.thumb_func
 173              		.type	thread1, %function
 174              	thread1:
 175              	.LFB8:
 176              		.loc 1 100 0
 177              		.cfi_startproc
 178              		@ args = 0, pretend = 0, frame = 0
 179              		@ frame_needed = 0, uses_anonymous_args = 0
 180              	.LVL13:
 181 0000 10B5     		push	{r4, lr}
 182              		.cfi_def_cfa_offset 8
 183              		.cfi_offset 4, -8
 184              		.cfi_offset 14, -4
 185              		.loc 1 100 0
 186 0002 0446     		mov	r4, r0
 187              		.loc 1 102 0
 188 0004 0448     		ldr	r0, .L8
 189              	.LVL14:
 190 0006 FFF7FEFF 		bl	chMtxLock
 191              	.LVL15:
 192              		.loc 1 103 0
 193 000a 2078     		ldrb	r0, [r4]	@ zero_extendqisi2
 194 000c FFF7FEFF 		bl	test_emit_token
 195              	.LVL16:
 196              		.loc 1 104 0
 197 0010 FFF7FEFF 		bl	chMtxUnlock
 198              	.LVL17:
 199              		.loc 1 106 0
 200 0014 0020     		movs	r0, #0
 201 0016 10BD     		pop	{r4, pc}
 202              	.LVL18:
 203              	.L9:
 204              		.align	2
 205              	.L8:
 206 0018 00000000 		.word	.LANCHOR0
 207              		.cfi_endproc
 208              	.LFE8:
 209              		.size	thread1, .-thread1
 210 001c AFF30080 		.section	.text.thread12,"ax",%progbits
 211              		.align	2
 212              		.p2align 4,,15
 213              		.thumb
 214              		.thumb_func
 215              		.type	thread12, %function
 216              	thread12:
 217              	.LFB35:
 218              		.loc 1 598 0
 219              		.cfi_startproc
 220              		@ args = 0, pretend = 0, frame = 0
 221              		@ frame_needed = 0, uses_anonymous_args = 0
 222              	.LVL19:
 223 0000 10B5     		push	{r4, lr}
 224              		.cfi_def_cfa_offset 8
 225              		.cfi_offset 4, -8
 226              		.cfi_offset 14, -4
 227              		.loc 1 598 0
 228 0002 0446     		mov	r4, r0
ARM GAS  /tmp/ccQqQCWT.s 			page 5


 229              		.loc 1 600 0
 230 0004 0448     		ldr	r0, .L11
 231              	.LVL20:
 232 0006 FFF7FEFF 		bl	chMtxLock
 233              	.LVL21:
 234              		.loc 1 601 0
 235 000a 2078     		ldrb	r0, [r4]	@ zero_extendqisi2
 236 000c FFF7FEFF 		bl	test_emit_token
 237              	.LVL22:
 238              		.loc 1 602 0
 239 0010 FFF7FEFF 		bl	chMtxUnlock
 240              	.LVL23:
 241              		.loc 1 604 0
 242 0014 0020     		movs	r0, #0
 243 0016 10BD     		pop	{r4, pc}
 244              	.LVL24:
 245              	.L12:
 246              		.align	2
 247              	.L11:
 248 0018 00000000 		.word	.LANCHOR1
 249              		.cfi_endproc
 250              	.LFE35:
 251              		.size	thread12, .-thread12
 252 001c AFF30080 		.section	.text.mtx1_setup,"ax",%progbits
 253              		.align	2
 254              		.p2align 4,,15
 255              		.thumb
 256              		.thumb_func
 257              		.type	mtx1_setup, %function
 258              	mtx1_setup:
 259              	.LFB7:
 260              		.loc 1 95 0
 261              		.cfi_startproc
 262              		@ args = 0, pretend = 0, frame = 0
 263              		@ frame_needed = 0, uses_anonymous_args = 0
 264              		@ link register save eliminated.
 265              		.loc 1 97 0
 266 0000 0148     		ldr	r0, .L14
 267 0002 FFF7FEBF 		b	chMtxInit
 268              	.LVL25:
 269              	.L15:
 270 0006 00BF     		.align	2
 271              	.L14:
 272 0008 00000000 		.word	.LANCHOR0
 273              		.cfi_endproc
 274              	.LFE7:
 275              		.size	mtx1_setup, .-mtx1_setup
 276 000c AFF30080 		.section	.text.mtx2_setup,"ax",%progbits
 277              		.align	2
 278              		.p2align 4,,15
 279              		.thumb
 280              		.thumb_func
 281              		.type	mtx2_setup, %function
 282              	mtx2_setup:
 283              	.LFB10:
 284              		.loc 1 162 0
 285              		.cfi_startproc
ARM GAS  /tmp/ccQqQCWT.s 			page 6


 286              		@ args = 0, pretend = 0, frame = 0
 287              		@ frame_needed = 0, uses_anonymous_args = 0
 288              		@ link register save eliminated.
 289              		.loc 1 164 0
 290 0000 0148     		ldr	r0, .L17
 291 0002 FFF7FEBF 		b	chMtxInit
 292              	.LVL26:
 293              	.L18:
 294 0006 00BF     		.align	2
 295              	.L17:
 296 0008 00000000 		.word	.LANCHOR0
 297              		.cfi_endproc
 298              	.LFE10:
 299              		.size	mtx2_setup, .-mtx2_setup
 300 000c AFF30080 		.section	.text.mtx3_setup,"ax",%progbits
 301              		.align	2
 302              		.p2align 4,,15
 303              		.thumb
 304              		.thumb_func
 305              		.type	mtx3_setup, %function
 306              	mtx3_setup:
 307              	.LFB15:
 308              		.loc 1 252 0
 309              		.cfi_startproc
 310              		@ args = 0, pretend = 0, frame = 0
 311              		@ frame_needed = 0, uses_anonymous_args = 0
 312 0000 08B5     		push	{r3, lr}
 313              		.cfi_def_cfa_offset 8
 314              		.cfi_offset 3, -8
 315              		.cfi_offset 14, -4
 316              		.loc 1 254 0
 317 0002 0448     		ldr	r0, .L20
 318 0004 FFF7FEFF 		bl	chMtxInit
 319              	.LVL27:
 320              		.loc 1 256 0
 321 0008 BDE80840 		pop	{r3, lr}
 322              		.loc 1 255 0
 323 000c 0248     		ldr	r0, .L20+4
 324 000e FFF7FEBF 		b	chMtxInit
 325              	.LVL28:
 326              	.L21:
 327 0012 00BF     		.align	2
 328              	.L20:
 329 0014 00000000 		.word	.LANCHOR0
 330 0018 00000000 		.word	.LANCHOR1
 331              		.cfi_endproc
 332              	.LFE15:
 333              		.size	mtx3_setup, .-mtx3_setup
 334 001c AFF30080 		.section	.text.mtx4_setup,"ax",%progbits
 335              		.align	2
 336              		.p2align 4,,15
 337              		.thumb
 338              		.thumb_func
 339              		.type	mtx4_setup, %function
 340              	mtx4_setup:
 341              	.LFB22:
 342              		.loc 1 352 0
ARM GAS  /tmp/ccQqQCWT.s 			page 7


 343              		.cfi_startproc
 344              		@ args = 0, pretend = 0, frame = 0
 345              		@ frame_needed = 0, uses_anonymous_args = 0
 346 0000 08B5     		push	{r3, lr}
 347              		.cfi_def_cfa_offset 8
 348              		.cfi_offset 3, -8
 349              		.cfi_offset 14, -4
 350              		.loc 1 354 0
 351 0002 0448     		ldr	r0, .L23
 352 0004 FFF7FEFF 		bl	chMtxInit
 353              	.LVL29:
 354              		.loc 1 356 0
 355 0008 BDE80840 		pop	{r3, lr}
 356              		.loc 1 355 0
 357 000c 0248     		ldr	r0, .L23+4
 358 000e FFF7FEBF 		b	chMtxInit
 359              	.LVL30:
 360              	.L24:
 361 0012 00BF     		.align	2
 362              	.L23:
 363 0014 00000000 		.word	.LANCHOR0
 364 0018 00000000 		.word	.LANCHOR1
 365              		.cfi_endproc
 366              	.LFE22:
 367              		.size	mtx4_setup, .-mtx4_setup
 368 001c AFF30080 		.section	.text.mtx5_setup,"ax",%progbits
 369              		.align	2
 370              		.p2align 4,,15
 371              		.thumb
 372              		.thumb_func
 373              		.type	mtx5_setup, %function
 374              	mtx5_setup:
 375              	.LFB26:
 376              		.loc 1 439 0
 377              		.cfi_startproc
 378              		@ args = 0, pretend = 0, frame = 0
 379              		@ frame_needed = 0, uses_anonymous_args = 0
 380              		@ link register save eliminated.
 381              		.loc 1 441 0
 382 0000 0148     		ldr	r0, .L26
 383 0002 FFF7FEBF 		b	chMtxInit
 384              	.LVL31:
 385              	.L27:
 386 0006 00BF     		.align	2
 387              	.L26:
 388 0008 00000000 		.word	.LANCHOR0
 389              		.cfi_endproc
 390              	.LFE26:
 391              		.size	mtx5_setup, .-mtx5_setup
 392 000c AFF30080 		.section	.text.mtx2_execute,"ax",%progbits
 393              		.align	2
 394              		.p2align 4,,15
 395              		.thumb
 396              		.thumb_func
 397              		.type	mtx2_execute, %function
 398              	mtx2_execute:
 399              	.LFB14:
ARM GAS  /tmp/ccQqQCWT.s 			page 8


 400              		.loc 1 201 0
 401              		.cfi_startproc
 402              		@ args = 0, pretend = 0, frame = 0
 403              		@ frame_needed = 0, uses_anonymous_args = 0
 404 0000 2DE9F041 		push	{r4, r5, r6, r7, r8, lr}
 405              		.cfi_def_cfa_offset 24
 406              		.cfi_offset 4, -24
 407              		.cfi_offset 5, -20
 408              		.cfi_offset 6, -16
 409              		.cfi_offset 7, -12
 410              		.cfi_offset 8, -8
 411              		.cfi_offset 14, -4
 412              		.loc 1 206 0
 413 0004 204E     		ldr	r6, .L31
 414              		.loc 1 201 0
 415 0006 82B0     		sub	sp, sp, #8
 416              		.cfi_def_cfa_offset 32
 417              		.loc 1 204 0
 418 0008 FFF7FEFF 		bl	test_wait_tick
 419              	.LVL32:
 420              		.loc 1 206 0
 421 000c F369     		ldr	r3, [r6, #28]
 422 000e 1F4F     		ldr	r7, .L31+4
 423 0010 9A68     		ldr	r2, [r3, #8]
 424 0012 0025     		movs	r5, #0
 425              		.loc 1 205 0
 426 0014 1E4C     		ldr	r4, .L31+8
 427              		.loc 1 206 0
 428 0016 013A     		subs	r2, r2, #1
 429 0018 0095     		str	r5, [sp]
 430 001a 4FF49871 		mov	r1, #304
 431 001e 1D4B     		ldr	r3, .L31+12
 432 0020 3868     		ldr	r0, [r7]
 433              		.loc 1 205 0
 434 0022 D4F80C80 		ldr	r8, [r4, #12]
 435              	.LVL33:
 436              		.loc 1 206 0
 437 0026 FFF7FEFF 		bl	chThdCreateStatic
 438              	.LVL34:
 439              		.loc 1 207 0
 440 002a F369     		ldr	r3, [r6, #28]
 441              		.loc 1 206 0
 442 002c 1A4C     		ldr	r4, .L31+16
 443              		.loc 1 207 0
 444 002e 9A68     		ldr	r2, [r3, #8]
 445 0030 7B68     		ldr	r3, [r7, #4]
 446              		.loc 1 206 0
 447 0032 2060     		str	r0, [r4]
 448              		.loc 1 207 0
 449 0034 023A     		subs	r2, r2, #2
 450 0036 1846     		mov	r0, r3
 451 0038 4FF49871 		mov	r1, #304
 452 003c 174B     		ldr	r3, .L31+20
 453 003e 0095     		str	r5, [sp]
 454 0040 FFF7FEFF 		bl	chThdCreateStatic
 455              	.LVL35:
 456              		.loc 1 208 0
ARM GAS  /tmp/ccQqQCWT.s 			page 9


 457 0044 F269     		ldr	r2, [r6, #28]
 458 0046 BB68     		ldr	r3, [r7, #8]
 459 0048 9268     		ldr	r2, [r2, #8]
 460 004a 4FF49871 		mov	r1, #304
 461              		.loc 1 207 0
 462 004e 6060     		str	r0, [r4, #4]
 463              		.loc 1 208 0
 464 0050 033A     		subs	r2, r2, #3
 465 0052 1846     		mov	r0, r3
 466 0054 0095     		str	r5, [sp]
 467 0056 124B     		ldr	r3, .L31+24
 468 0058 FFF7FEFF 		bl	chThdCreateStatic
 469              	.LVL36:
 470 005c A060     		str	r0, [r4, #8]
 471              		.loc 1 209 0
 472 005e FFF7FEFF 		bl	test_wait_threads
 473              	.LVL37:
 474              		.loc 1 210 0
 475 0062 0120     		movs	r0, #1
 476 0064 0F49     		ldr	r1, .L31+28
 477 0066 FFF7FEFF 		bl	_test_assert_sequence
 478              	.LVL38:
 479 006a 10B1     		cbz	r0, .L30
 480              		.loc 1 212 0
 481 006c 02B0     		add	sp, sp, #8
 482              		@ sp needed
 483 006e BDE8F081 		pop	{r4, r5, r6, r7, r8, pc}
 484              	.LVL39:
 485              	.L30:
 486              		.loc 1 211 0
 487 0072 0220     		movs	r0, #2
 488 0074 08F16401 		add	r1, r8, #100
 489 0078 08F16902 		add	r2, r8, #105
 490              		.loc 1 212 0
 491 007c 02B0     		add	sp, sp, #8
 492              		@ sp needed
 493 007e BDE8F041 		pop	{r4, r5, r6, r7, r8, lr}
 494              	.LVL40:
 495              		.loc 1 211 0
 496 0082 FFF7FEBF 		b	_test_assert_time_window
 497              	.LVL41:
 498              	.L32:
 499 0086 00BF     		.align	2
 500              	.L31:
 501 0088 00000000 		.word	rlist
 502 008c 00000000 		.word	wa
 503 0090 00000000 		.word	vtlist
 504 0094 00000000 		.word	thread2H
 505 0098 00000000 		.word	threads
 506 009c 00000000 		.word	thread2M
 507 00a0 00000000 		.word	thread2L
 508 00a4 1C000000 		.word	.LC6
 509              		.cfi_endproc
 510              	.LFE14:
 511              		.size	mtx2_execute, .-mtx2_execute
 512 00a8 AFF30080 		.section	.text.mtx3_execute,"ax",%progbits
 512      AFF30080 
ARM GAS  /tmp/ccQqQCWT.s 			page 10


 513              		.align	2
 514              		.p2align 4,,15
 515              		.thumb
 516              		.thumb_func
 517              		.type	mtx3_execute, %function
 518              	mtx3_execute:
 519              	.LFB21:
 520              		.loc 1 319 0
 521              		.cfi_startproc
 522              		@ args = 0, pretend = 0, frame = 0
 523              		@ frame_needed = 0, uses_anonymous_args = 0
 524 0000 2DE9F041 		push	{r4, r5, r6, r7, r8, lr}
 525              		.cfi_def_cfa_offset 24
 526              		.cfi_offset 4, -24
 527              		.cfi_offset 5, -20
 528              		.cfi_offset 6, -16
 529              		.cfi_offset 7, -12
 530              		.cfi_offset 8, -8
 531              		.cfi_offset 14, -4
 532              		.loc 1 324 0
 533 0004 2C4E     		ldr	r6, .L36
 534              		.loc 1 319 0
 535 0006 82B0     		sub	sp, sp, #8
 536              		.cfi_def_cfa_offset 32
 537              		.loc 1 322 0
 538 0008 FFF7FEFF 		bl	test_wait_tick
 539              	.LVL42:
 540              		.loc 1 324 0
 541 000c F369     		ldr	r3, [r6, #28]
 542 000e 2B4F     		ldr	r7, .L36+4
 543 0010 9A68     		ldr	r2, [r3, #8]
 544 0012 0025     		movs	r5, #0
 545              		.loc 1 323 0
 546 0014 2A4C     		ldr	r4, .L36+8
 547              		.loc 1 324 0
 548 0016 053A     		subs	r2, r2, #5
 549 0018 0095     		str	r5, [sp]
 550 001a 4FF49871 		mov	r1, #304
 551 001e 294B     		ldr	r3, .L36+12
 552 0020 3868     		ldr	r0, [r7]
 553              		.loc 1 323 0
 554 0022 D4F80C80 		ldr	r8, [r4, #12]
 555              	.LVL43:
 556              		.loc 1 324 0
 557 0026 FFF7FEFF 		bl	chThdCreateStatic
 558              	.LVL44:
 559              		.loc 1 325 0
 560 002a F369     		ldr	r3, [r6, #28]
 561              		.loc 1 324 0
 562 002c 264C     		ldr	r4, .L36+16
 563              		.loc 1 325 0
 564 002e 9A68     		ldr	r2, [r3, #8]
 565 0030 7B68     		ldr	r3, [r7, #4]
 566              		.loc 1 324 0
 567 0032 2060     		str	r0, [r4]
 568              		.loc 1 325 0
 569 0034 043A     		subs	r2, r2, #4
ARM GAS  /tmp/ccQqQCWT.s 			page 11


 570 0036 1846     		mov	r0, r3
 571 0038 4FF49871 		mov	r1, #304
 572 003c 234B     		ldr	r3, .L36+20
 573 003e 0095     		str	r5, [sp]
 574 0040 FFF7FEFF 		bl	chThdCreateStatic
 575              	.LVL45:
 576              		.loc 1 326 0
 577 0044 F269     		ldr	r2, [r6, #28]
 578 0046 BB68     		ldr	r3, [r7, #8]
 579 0048 9268     		ldr	r2, [r2, #8]
 580 004a 4FF49871 		mov	r1, #304
 581              		.loc 1 325 0
 582 004e 6060     		str	r0, [r4, #4]
 583              		.loc 1 326 0
 584 0050 033A     		subs	r2, r2, #3
 585 0052 1846     		mov	r0, r3
 586 0054 0095     		str	r5, [sp]
 587 0056 1E4B     		ldr	r3, .L36+24
 588 0058 FFF7FEFF 		bl	chThdCreateStatic
 589              	.LVL46:
 590              		.loc 1 327 0
 591 005c F269     		ldr	r2, [r6, #28]
 592 005e FB68     		ldr	r3, [r7, #12]
 593 0060 9268     		ldr	r2, [r2, #8]
 594 0062 4FF49871 		mov	r1, #304
 595              		.loc 1 326 0
 596 0066 A060     		str	r0, [r4, #8]
 597              		.loc 1 327 0
 598 0068 023A     		subs	r2, r2, #2
 599 006a 1846     		mov	r0, r3
 600 006c 0095     		str	r5, [sp]
 601 006e 194B     		ldr	r3, .L36+28
 602 0070 FFF7FEFF 		bl	chThdCreateStatic
 603              	.LVL47:
 604              		.loc 1 328 0
 605 0074 F269     		ldr	r2, [r6, #28]
 606 0076 3B69     		ldr	r3, [r7, #16]
 607 0078 9268     		ldr	r2, [r2, #8]
 608 007a 4FF49871 		mov	r1, #304
 609              		.loc 1 327 0
 610 007e E060     		str	r0, [r4, #12]
 611              		.loc 1 328 0
 612 0080 013A     		subs	r2, r2, #1
 613 0082 1846     		mov	r0, r3
 614 0084 0095     		str	r5, [sp]
 615 0086 144B     		ldr	r3, .L36+32
 616 0088 FFF7FEFF 		bl	chThdCreateStatic
 617              	.LVL48:
 618 008c 2061     		str	r0, [r4, #16]
 619              		.loc 1 329 0
 620 008e FFF7FEFF 		bl	test_wait_threads
 621              	.LVL49:
 622              		.loc 1 330 0
 623 0092 0120     		movs	r0, #1
 624 0094 1149     		ldr	r1, .L36+36
 625 0096 FFF7FEFF 		bl	_test_assert_sequence
 626              	.LVL50:
ARM GAS  /tmp/ccQqQCWT.s 			page 12


 627 009a 10B1     		cbz	r0, .L35
 628              		.loc 1 332 0
 629 009c 02B0     		add	sp, sp, #8
 630              		@ sp needed
 631 009e BDE8F081 		pop	{r4, r5, r6, r7, r8, pc}
 632              	.LVL51:
 633              	.L35:
 634              		.loc 1 331 0
 635 00a2 0220     		movs	r0, #2
 636 00a4 08F16E01 		add	r1, r8, #110
 637 00a8 08F17302 		add	r2, r8, #115
 638              		.loc 1 332 0
 639 00ac 02B0     		add	sp, sp, #8
 640              		@ sp needed
 641 00ae BDE8F041 		pop	{r4, r5, r6, r7, r8, lr}
 642              	.LVL52:
 643              		.loc 1 331 0
 644 00b2 FFF7FEBF 		b	_test_assert_time_window
 645              	.LVL53:
 646              	.L37:
 647 00b6 00BF     		.align	2
 648              	.L36:
 649 00b8 00000000 		.word	rlist
 650 00bc 00000000 		.word	wa
 651 00c0 00000000 		.word	vtlist
 652 00c4 00000000 		.word	thread3LL
 653 00c8 00000000 		.word	threads
 654 00cc 00000000 		.word	thread3L
 655 00d0 00000000 		.word	thread3M
 656 00d4 00000000 		.word	thread3H
 657 00d8 00000000 		.word	thread3HH
 658 00dc 14000000 		.word	.LC5
 659              		.cfi_endproc
 660              	.LFE21:
 661              		.size	mtx3_execute, .-mtx3_execute
 662              		.section	.text.thread2L,"ax",%progbits
 663              		.align	2
 664              		.p2align 4,,15
 665              		.thumb
 666              		.thumb_func
 667              		.type	thread2L, %function
 668              	thread2L:
 669              	.LFB11:
 670              		.loc 1 168 0
 671              		.cfi_startproc
 672              		@ args = 0, pretend = 0, frame = 0
 673              		@ frame_needed = 0, uses_anonymous_args = 0
 674              	.LVL54:
 675 0000 08B5     		push	{r3, lr}
 676              		.cfi_def_cfa_offset 8
 677              		.cfi_offset 3, -8
 678              		.cfi_offset 14, -4
 679              		.loc 1 171 0
 680 0002 0848     		ldr	r0, .L39
 681              	.LVL55:
 682 0004 FFF7FEFF 		bl	chMtxLock
 683              	.LVL56:
ARM GAS  /tmp/ccQqQCWT.s 			page 13


 684              		.loc 1 172 0
 685 0008 2820     		movs	r0, #40
 686 000a FFF7FEFF 		bl	test_cpu_pulse
 687              	.LVL57:
 688              		.loc 1 173 0
 689 000e FFF7FEFF 		bl	chMtxUnlock
 690              	.LVL58:
 691              		.loc 1 174 0
 692 0012 0A20     		movs	r0, #10
 693 0014 FFF7FEFF 		bl	test_cpu_pulse
 694              	.LVL59:
 695              		.loc 1 175 0
 696 0018 4320     		movs	r0, #67
 697 001a FFF7FEFF 		bl	test_emit_token
 698              	.LVL60:
 699              		.loc 1 177 0
 700 001e 0020     		movs	r0, #0
 701 0020 08BD     		pop	{r3, pc}
 702              	.L40:
 703 0022 00BF     		.align	2
 704              	.L39:
 705 0024 00000000 		.word	.LANCHOR0
 706              		.cfi_endproc
 707              	.LFE11:
 708              		.size	thread2L, .-thread2L
 709 0028 AFF30080 		.section	.text.thread3LL,"ax",%progbits
 709      AFF30080 
 710              		.align	2
 711              		.p2align 4,,15
 712              		.thumb
 713              		.thumb_func
 714              		.type	thread3LL, %function
 715              	thread3LL:
 716              	.LFB16:
 717              		.loc 1 259 0
 718              		.cfi_startproc
 719              		@ args = 0, pretend = 0, frame = 0
 720              		@ frame_needed = 0, uses_anonymous_args = 0
 721              	.LVL61:
 722 0000 08B5     		push	{r3, lr}
 723              		.cfi_def_cfa_offset 8
 724              		.cfi_offset 3, -8
 725              		.cfi_offset 14, -4
 726              		.loc 1 262 0
 727 0002 0648     		ldr	r0, .L42
 728              	.LVL62:
 729 0004 FFF7FEFF 		bl	chMtxLock
 730              	.LVL63:
 731              		.loc 1 263 0
 732 0008 1E20     		movs	r0, #30
 733 000a FFF7FEFF 		bl	test_cpu_pulse
 734              	.LVL64:
 735              		.loc 1 264 0
 736 000e FFF7FEFF 		bl	chMtxUnlock
 737              	.LVL65:
 738              		.loc 1 265 0
 739 0012 4520     		movs	r0, #69
ARM GAS  /tmp/ccQqQCWT.s 			page 14


 740 0014 FFF7FEFF 		bl	test_emit_token
 741              	.LVL66:
 742              		.loc 1 267 0
 743 0018 0020     		movs	r0, #0
 744 001a 08BD     		pop	{r3, pc}
 745              	.L43:
 746              		.align	2
 747              	.L42:
 748 001c 00000000 		.word	.LANCHOR0
 749              		.cfi_endproc
 750              	.LFE16:
 751              		.size	thread3LL, .-thread3LL
 752              		.section	.text.thread2M,"ax",%progbits
 753              		.align	2
 754              		.p2align 4,,15
 755              		.thumb
 756              		.thumb_func
 757              		.type	thread2M, %function
 758              	thread2M:
 759              	.LFB12:
 760              		.loc 1 180 0
 761              		.cfi_startproc
 762              		@ args = 0, pretend = 0, frame = 0
 763              		@ frame_needed = 0, uses_anonymous_args = 0
 764              	.LVL67:
 765 0000 08B5     		push	{r3, lr}
 766              		.cfi_def_cfa_offset 8
 767              		.cfi_offset 3, -8
 768              		.cfi_offset 14, -4
 769              		.loc 1 183 0
 770 0002 1420     		movs	r0, #20
 771              	.LVL68:
 772 0004 FFF7FEFF 		bl	chThdSleep
 773              	.LVL69:
 774              		.loc 1 184 0
 775 0008 2820     		movs	r0, #40
 776 000a FFF7FEFF 		bl	test_cpu_pulse
 777              	.LVL70:
 778              		.loc 1 185 0
 779 000e 4220     		movs	r0, #66
 780 0010 FFF7FEFF 		bl	test_emit_token
 781              	.LVL71:
 782              		.loc 1 187 0
 783 0014 0020     		movs	r0, #0
 784 0016 08BD     		pop	{r3, pc}
 785              		.cfi_endproc
 786              	.LFE12:
 787              		.size	thread2M, .-thread2M
 788 0018 AFF30080 		.section	.text.thread2H,"ax",%progbits
 788      AFF30080 
 789              		.align	2
 790              		.p2align 4,,15
 791              		.thumb
 792              		.thumb_func
 793              		.type	thread2H, %function
 794              	thread2H:
 795              	.LFB13:
ARM GAS  /tmp/ccQqQCWT.s 			page 15


 796              		.loc 1 190 0
 797              		.cfi_startproc
 798              		@ args = 0, pretend = 0, frame = 0
 799              		@ frame_needed = 0, uses_anonymous_args = 0
 800              	.LVL72:
 801 0000 08B5     		push	{r3, lr}
 802              		.cfi_def_cfa_offset 8
 803              		.cfi_offset 3, -8
 804              		.cfi_offset 14, -4
 805              		.loc 1 193 0
 806 0002 2820     		movs	r0, #40
 807              	.LVL73:
 808 0004 FFF7FEFF 		bl	chThdSleep
 809              	.LVL74:
 810              		.loc 1 194 0
 811 0008 0648     		ldr	r0, .L46
 812 000a FFF7FEFF 		bl	chMtxLock
 813              	.LVL75:
 814              		.loc 1 195 0
 815 000e 0A20     		movs	r0, #10
 816 0010 FFF7FEFF 		bl	test_cpu_pulse
 817              	.LVL76:
 818              		.loc 1 196 0
 819 0014 FFF7FEFF 		bl	chMtxUnlock
 820              	.LVL77:
 821              		.loc 1 197 0
 822 0018 4120     		movs	r0, #65
 823 001a FFF7FEFF 		bl	test_emit_token
 824              	.LVL78:
 825              		.loc 1 199 0
 826 001e 0020     		movs	r0, #0
 827 0020 08BD     		pop	{r3, pc}
 828              	.L47:
 829 0022 00BF     		.align	2
 830              	.L46:
 831 0024 00000000 		.word	.LANCHOR0
 832              		.cfi_endproc
 833              	.LFE13:
 834              		.size	thread2H, .-thread2H
 835 0028 AFF30080 		.section	.text.thread3HH,"ax",%progbits
 835      AFF30080 
 836              		.align	2
 837              		.p2align 4,,15
 838              		.thumb
 839              		.thumb_func
 840              		.type	thread3HH, %function
 841              	thread3HH:
 842              	.LFB20:
 843              		.loc 1 308 0
 844              		.cfi_startproc
 845              		@ args = 0, pretend = 0, frame = 0
 846              		@ frame_needed = 0, uses_anonymous_args = 0
 847              	.LVL79:
 848 0000 08B5     		push	{r3, lr}
 849              		.cfi_def_cfa_offset 8
 850              		.cfi_offset 3, -8
 851              		.cfi_offset 14, -4
ARM GAS  /tmp/ccQqQCWT.s 			page 16


 852              		.loc 1 311 0
 853 0002 3220     		movs	r0, #50
 854              	.LVL80:
 855 0004 FFF7FEFF 		bl	chThdSleep
 856              	.LVL81:
 857              		.loc 1 312 0
 858 0008 0648     		ldr	r0, .L49
 859 000a FFF7FEFF 		bl	chMtxLock
 860              	.LVL82:
 861              		.loc 1 313 0
 862 000e 0A20     		movs	r0, #10
 863 0010 FFF7FEFF 		bl	test_cpu_pulse
 864              	.LVL83:
 865              		.loc 1 314 0
 866 0014 FFF7FEFF 		bl	chMtxUnlock
 867              	.LVL84:
 868              		.loc 1 315 0
 869 0018 4120     		movs	r0, #65
 870 001a FFF7FEFF 		bl	test_emit_token
 871              	.LVL85:
 872              		.loc 1 317 0
 873 001e 0020     		movs	r0, #0
 874 0020 08BD     		pop	{r3, pc}
 875              	.L50:
 876 0022 00BF     		.align	2
 877              	.L49:
 878 0024 00000000 		.word	.LANCHOR1
 879              		.cfi_endproc
 880              	.LFE20:
 881              		.size	thread3HH, .-thread3HH
 882 0028 AFF30080 		.section	.text.thread3H,"ax",%progbits
 882      AFF30080 
 883              		.align	2
 884              		.p2align 4,,15
 885              		.thumb
 886              		.thumb_func
 887              		.type	thread3H, %function
 888              	thread3H:
 889              	.LFB19:
 890              		.loc 1 298 0
 891              		.cfi_startproc
 892              		@ args = 0, pretend = 0, frame = 0
 893              		@ frame_needed = 0, uses_anonymous_args = 0
 894              	.LVL86:
 895 0000 08B5     		push	{r3, lr}
 896              		.cfi_def_cfa_offset 8
 897              		.cfi_offset 3, -8
 898              		.cfi_offset 14, -4
 899              		.loc 1 301 0
 900 0002 2820     		movs	r0, #40
 901              	.LVL87:
 902 0004 FFF7FEFF 		bl	chThdSleep
 903              	.LVL88:
 904              		.loc 1 302 0
 905 0008 1420     		movs	r0, #20
 906 000a FFF7FEFF 		bl	test_cpu_pulse
 907              	.LVL89:
ARM GAS  /tmp/ccQqQCWT.s 			page 17


 908              		.loc 1 303 0
 909 000e 4220     		movs	r0, #66
 910 0010 FFF7FEFF 		bl	test_emit_token
 911              	.LVL90:
 912              		.loc 1 305 0
 913 0014 0020     		movs	r0, #0
 914 0016 08BD     		pop	{r3, pc}
 915              		.cfi_endproc
 916              	.LFE19:
 917              		.size	thread3H, .-thread3H
 918 0018 AFF30080 		.section	.text.thread3M,"ax",%progbits
 918      AFF30080 
 919              		.align	2
 920              		.p2align 4,,15
 921              		.thumb
 922              		.thumb_func
 923              		.type	thread3M, %function
 924              	thread3M:
 925              	.LFB18:
 926              		.loc 1 286 0
 927              		.cfi_startproc
 928              		@ args = 0, pretend = 0, frame = 0
 929              		@ frame_needed = 0, uses_anonymous_args = 0
 930              	.LVL91:
 931 0000 08B5     		push	{r3, lr}
 932              		.cfi_def_cfa_offset 8
 933              		.cfi_offset 3, -8
 934              		.cfi_offset 14, -4
 935              		.loc 1 289 0
 936 0002 1420     		movs	r0, #20
 937              	.LVL92:
 938 0004 FFF7FEFF 		bl	chThdSleep
 939              	.LVL93:
 940              		.loc 1 290 0
 941 0008 0648     		ldr	r0, .L53
 942 000a FFF7FEFF 		bl	chMtxLock
 943              	.LVL94:
 944              		.loc 1 291 0
 945 000e 0A20     		movs	r0, #10
 946 0010 FFF7FEFF 		bl	test_cpu_pulse
 947              	.LVL95:
 948              		.loc 1 292 0
 949 0014 FFF7FEFF 		bl	chMtxUnlock
 950              	.LVL96:
 951              		.loc 1 293 0
 952 0018 4320     		movs	r0, #67
 953 001a FFF7FEFF 		bl	test_emit_token
 954              	.LVL97:
 955              		.loc 1 295 0
 956 001e 0020     		movs	r0, #0
 957 0020 08BD     		pop	{r3, pc}
 958              	.L54:
 959 0022 00BF     		.align	2
 960              	.L53:
 961 0024 00000000 		.word	.LANCHOR1
 962              		.cfi_endproc
 963              	.LFE18:
ARM GAS  /tmp/ccQqQCWT.s 			page 18


 964              		.size	thread3M, .-thread3M
 965 0028 AFF30080 		.section	.text.thread3L,"ax",%progbits
 965      AFF30080 
 966              		.align	2
 967              		.p2align 4,,15
 968              		.thumb
 969              		.thumb_func
 970              		.type	thread3L, %function
 971              	thread3L:
 972              	.LFB17:
 973              		.loc 1 270 0
 974              		.cfi_startproc
 975              		@ args = 0, pretend = 0, frame = 0
 976              		@ frame_needed = 0, uses_anonymous_args = 0
 977              	.LVL98:
 978 0000 08B5     		push	{r3, lr}
 979              		.cfi_def_cfa_offset 8
 980              		.cfi_offset 3, -8
 981              		.cfi_offset 14, -4
 982              		.loc 1 273 0
 983 0002 0A20     		movs	r0, #10
 984              	.LVL99:
 985 0004 FFF7FEFF 		bl	chThdSleep
 986              	.LVL100:
 987              		.loc 1 274 0
 988 0008 0B48     		ldr	r0, .L56
 989 000a FFF7FEFF 		bl	chMtxLock
 990              	.LVL101:
 991              		.loc 1 275 0
 992 000e 1420     		movs	r0, #20
 993 0010 FFF7FEFF 		bl	test_cpu_pulse
 994              	.LVL102:
 995              		.loc 1 276 0
 996 0014 0948     		ldr	r0, .L56+4
 997 0016 FFF7FEFF 		bl	chMtxLock
 998              	.LVL103:
 999              		.loc 1 277 0
 1000 001a 0A20     		movs	r0, #10
 1001 001c FFF7FEFF 		bl	test_cpu_pulse
 1002              	.LVL104:
 1003              		.loc 1 278 0
 1004 0020 FFF7FEFF 		bl	chMtxUnlock
 1005              	.LVL105:
 1006              		.loc 1 279 0
 1007 0024 0A20     		movs	r0, #10
 1008 0026 FFF7FEFF 		bl	test_cpu_pulse
 1009              	.LVL106:
 1010              		.loc 1 280 0
 1011 002a FFF7FEFF 		bl	chMtxUnlock
 1012              	.LVL107:
 1013              		.loc 1 281 0
 1014 002e 4420     		movs	r0, #68
 1015 0030 FFF7FEFF 		bl	test_emit_token
 1016              	.LVL108:
 1017              		.loc 1 283 0
 1018 0034 0020     		movs	r0, #0
 1019 0036 08BD     		pop	{r3, pc}
ARM GAS  /tmp/ccQqQCWT.s 			page 19


 1020              	.L57:
 1021              		.align	2
 1022              	.L56:
 1023 0038 00000000 		.word	.LANCHOR1
 1024 003c 00000000 		.word	.LANCHOR0
 1025              		.cfi_endproc
 1026              	.LFE17:
 1027              		.size	thread3L, .-thread3L
 1028              		.section	.text.thread4b,"ax",%progbits
 1029              		.align	2
 1030              		.p2align 4,,15
 1031              		.thumb
 1032              		.thumb_func
 1033              		.type	thread4b, %function
 1034              	thread4b:
 1035              	.LFB24:
 1036              		.loc 1 367 0
 1037              		.cfi_startproc
 1038              		@ args = 0, pretend = 0, frame = 0
 1039              		@ frame_needed = 0, uses_anonymous_args = 0
 1040              	.LVL109:
 1041 0000 08B5     		push	{r3, lr}
 1042              		.cfi_def_cfa_offset 8
 1043              		.cfi_offset 3, -8
 1044              		.cfi_offset 14, -4
 1045              		.loc 1 370 0
 1046 0002 9620     		movs	r0, #150
 1047              	.LVL110:
 1048 0004 FFF7FEFF 		bl	chThdSleep
 1049              	.LVL111:
 1050              		.loc 1 371 0
 1051 0008 0348     		ldr	r0, .L59
 1052 000a FFF7FEFF 		bl	chMtxLock
 1053              	.LVL112:
 1054              		.loc 1 372 0
 1055 000e FFF7FEFF 		bl	chMtxUnlock
 1056              	.LVL113:
 1057              		.loc 1 374 0
 1058 0012 0020     		movs	r0, #0
 1059 0014 08BD     		pop	{r3, pc}
 1060              	.L60:
 1061 0016 00BF     		.align	2
 1062              	.L59:
 1063 0018 00000000 		.word	.LANCHOR0
 1064              		.cfi_endproc
 1065              	.LFE24:
 1066              		.size	thread4b, .-thread4b
 1067 001c AFF30080 		.section	.text.thread4a,"ax",%progbits
 1068              		.align	2
 1069              		.p2align 4,,15
 1070              		.thumb
 1071              		.thumb_func
 1072              		.type	thread4a, %function
 1073              	thread4a:
 1074              	.LFB23:
 1075              		.loc 1 358 0
 1076              		.cfi_startproc
ARM GAS  /tmp/ccQqQCWT.s 			page 20


 1077              		@ args = 0, pretend = 0, frame = 0
 1078              		@ frame_needed = 0, uses_anonymous_args = 0
 1079              	.LVL114:
 1080 0000 08B5     		push	{r3, lr}
 1081              		.cfi_def_cfa_offset 8
 1082              		.cfi_offset 3, -8
 1083              		.cfi_offset 14, -4
 1084              		.loc 1 361 0
 1085 0002 3220     		movs	r0, #50
 1086              	.LVL115:
 1087 0004 FFF7FEFF 		bl	chThdSleep
 1088              	.LVL116:
 1089              		.loc 1 362 0
 1090 0008 0348     		ldr	r0, .L62
 1091 000a FFF7FEFF 		bl	chMtxLock
 1092              	.LVL117:
 1093              		.loc 1 363 0
 1094 000e FFF7FEFF 		bl	chMtxUnlock
 1095              	.LVL118:
 1096              		.loc 1 365 0
 1097 0012 0020     		movs	r0, #0
 1098 0014 08BD     		pop	{r3, pc}
 1099              	.L63:
 1100 0016 00BF     		.align	2
 1101              	.L62:
 1102 0018 00000000 		.word	.LANCHOR1
 1103              		.cfi_endproc
 1104              	.LFE23:
 1105              		.size	thread4a, .-thread4a
 1106 001c AFF30080 		.section	.text.mtx4_execute,"ax",%progbits
 1107              		.align	2
 1108              		.p2align 4,,15
 1109              		.thumb
 1110              		.thumb_func
 1111              		.type	mtx4_execute, %function
 1112              	mtx4_execute:
 1113              	.LFB25:
 1114              		.loc 1 376 0
 1115              		.cfi_startproc
 1116              		@ args = 0, pretend = 0, frame = 8
 1117              		@ frame_needed = 0, uses_anonymous_args = 0
 1118 0000 2DE9F046 		push	{r4, r5, r6, r7, r9, r10, lr}
 1119              		.cfi_def_cfa_offset 28
 1120              		.cfi_offset 4, -28
 1121              		.cfi_offset 5, -24
 1122              		.cfi_offset 6, -20
 1123              		.cfi_offset 7, -16
 1124              		.cfi_offset 9, -12
 1125              		.cfi_offset 10, -8
 1126              		.cfi_offset 14, -4
 1127              		.loc 1 379 0
 1128 0004 894D     		ldr	r5, .L69
 1129              		.loc 1 382 0
 1130 0006 8A4E     		ldr	r6, .L69+4
 1131              		.loc 1 379 0
 1132 0008 EB69     		ldr	r3, [r5, #28]
 1133              		.loc 1 382 0
ARM GAS  /tmp/ccQqQCWT.s 			page 21


 1134 000a 3268     		ldr	r2, [r6]
 1135              		.loc 1 379 0
 1136 000c 9C68     		ldr	r4, [r3, #8]
 1137              	.LVL119:
 1138              		.loc 1 376 0
 1139 000e 85B0     		sub	sp, sp, #20
 1140              		.cfi_def_cfa_offset 48
 1141              		.loc 1 382 0
 1142 0010 884B     		ldr	r3, .L69+8
 1143 0012 0392     		str	r2, [sp, #12]
 1144              		.loc 1 380 0
 1145 0014 04F10109 		add	r9, r4, #1
 1146              	.LVL120:
 1147              		.loc 1 382 0
 1148 0018 4A46     		mov	r2, r9
 1149 001a 0093     		str	r3, [sp]
 1150 001c 4FF49871 		mov	r1, #304
 1151 0020 854B     		ldr	r3, .L69+12
 1152 0022 0398     		ldr	r0, [sp, #12]
 1153 0024 FFF7FEFF 		bl	chThdCreateStatic
 1154              	.LVL121:
 1155 0028 844F     		ldr	r7, .L69+16
 1156              		.loc 1 383 0
 1157 002a 7668     		ldr	r6, [r6, #4]
 1158 002c 844B     		ldr	r3, .L69+20
 1159              		.loc 1 381 0
 1160 002e 04F1020A 		add	r10, r4, #2
 1161              	.LVL122:
 1162              		.loc 1 382 0
 1163 0032 3860     		str	r0, [r7]
 1164              		.loc 1 383 0
 1165 0034 4FF49871 		mov	r1, #304
 1166 0038 5246     		mov	r2, r10
 1167 003a 0093     		str	r3, [sp]
 1168 003c 3046     		mov	r0, r6
 1169 003e 814B     		ldr	r3, .L69+24
 1170 0040 FFF7FEFF 		bl	chThdCreateStatic
 1171              	.LVL123:
 1172 0044 7860     		str	r0, [r7, #4]
 1173              		.loc 1 384 0
 1174 0046 8048     		ldr	r0, .L69+28
 1175 0048 FFF7FEFF 		bl	chMtxLock
 1176              	.LVL124:
 1177              		.loc 1 385 0
 1178 004c EB69     		ldr	r3, [r5, #28]
 1179 004e 0120     		movs	r0, #1
 1180 0050 9968     		ldr	r1, [r3, #8]
 1181 0052 B1EB040C 		subs	ip, r1, r4
 1182 0056 DCF10001 		rsbs	r1, ip, #0
 1183 005a 51EB0C01 		adcs	r1, r1, ip
 1184 005e FFF7FEFF 		bl	_test_assert
 1185              	.LVL125:
 1186 0062 10B1     		cbz	r0, .L68
 1187              	.L64:
 1188              		.loc 1 420 0
 1189 0064 05B0     		add	sp, sp, #20
 1190              		@ sp needed
ARM GAS  /tmp/ccQqQCWT.s 			page 22


 1191 0066 BDE8F086 		pop	{r4, r5, r6, r7, r9, r10, pc}
 1192              	.LVL126:
 1193              	.L68:
 1194              		.loc 1 386 0
 1195 006a 6420     		movs	r0, #100
 1196 006c FFF7FEFF 		bl	chThdSleep
 1197              	.LVL127:
 1198              		.loc 1 387 0
 1199 0070 EB69     		ldr	r3, [r5, #28]
 1200 0072 0220     		movs	r0, #2
 1201 0074 9968     		ldr	r1, [r3, #8]
 1202 0076 B1EB090E 		subs	lr, r1, r9
 1203 007a DEF10001 		rsbs	r1, lr, #0
 1204 007e 51EB0E01 		adcs	r1, r1, lr
 1205 0082 FFF7FEFF 		bl	_test_assert
 1206              	.LVL128:
 1207 0086 0028     		cmp	r0, #0
 1208 0088 ECD1     		bne	.L64
 1209              		.loc 1 388 0
 1210 008a 7048     		ldr	r0, .L69+32
 1211 008c FFF7FEFF 		bl	chMtxLock
 1212              	.LVL129:
 1213              		.loc 1 389 0
 1214 0090 EB69     		ldr	r3, [r5, #28]
 1215 0092 0320     		movs	r0, #3
 1216 0094 9968     		ldr	r1, [r3, #8]
 1217 0096 B1EB0902 		subs	r2, r1, r9
 1218 009a 5142     		rsbs	r1, r2, #0
 1219 009c 5141     		adcs	r1, r1, r2
 1220 009e FFF7FEFF 		bl	_test_assert
 1221              	.LVL130:
 1222 00a2 0028     		cmp	r0, #0
 1223 00a4 DED1     		bne	.L64
 1224              		.loc 1 390 0
 1225 00a6 6420     		movs	r0, #100
 1226 00a8 FFF7FEFF 		bl	chThdSleep
 1227              	.LVL131:
 1228              		.loc 1 391 0
 1229 00ac EB69     		ldr	r3, [r5, #28]
 1230 00ae 0420     		movs	r0, #4
 1231 00b0 9968     		ldr	r1, [r3, #8]
 1232 00b2 B1EB0A03 		subs	r3, r1, r10
 1233 00b6 5942     		rsbs	r1, r3, #0
 1234 00b8 5941     		adcs	r1, r1, r3
 1235 00ba FFF7FEFF 		bl	_test_assert
 1236              	.LVL132:
 1237 00be 0028     		cmp	r0, #0
 1238 00c0 D0D1     		bne	.L64
 1239              		.loc 1 392 0
 1240 00c2 FFF7FEFF 		bl	chMtxUnlock
 1241              	.LVL133:
 1242              		.loc 1 393 0
 1243 00c6 EB69     		ldr	r3, [r5, #28]
 1244 00c8 0520     		movs	r0, #5
 1245 00ca 9968     		ldr	r1, [r3, #8]
 1246 00cc B1EB090C 		subs	ip, r1, r9
 1247 00d0 DCF10001 		rsbs	r1, ip, #0
ARM GAS  /tmp/ccQqQCWT.s 			page 23


 1248 00d4 51EB0C01 		adcs	r1, r1, ip
 1249 00d8 FFF7FEFF 		bl	_test_assert
 1250              	.LVL134:
 1251 00dc 0028     		cmp	r0, #0
 1252 00de C1D1     		bne	.L64
 1253              		.loc 1 394 0
 1254 00e0 6420     		movs	r0, #100
 1255 00e2 FFF7FEFF 		bl	chThdSleep
 1256              	.LVL135:
 1257              		.loc 1 395 0
 1258 00e6 EB69     		ldr	r3, [r5, #28]
 1259 00e8 0620     		movs	r0, #6
 1260 00ea 9968     		ldr	r1, [r3, #8]
 1261 00ec B1EB090E 		subs	lr, r1, r9
 1262 00f0 DEF10001 		rsbs	r1, lr, #0
 1263 00f4 51EB0E01 		adcs	r1, r1, lr
 1264 00f8 FFF7FEFF 		bl	_test_assert
 1265              	.LVL136:
 1266 00fc 0028     		cmp	r0, #0
 1267 00fe B1D1     		bne	.L64
 1268              		.loc 1 396 0
 1269 0100 FFF7FEFF 		bl	chMtxUnlockAll
 1270              	.LVL137:
 1271              		.loc 1 397 0
 1272 0104 EB69     		ldr	r3, [r5, #28]
 1273 0106 0720     		movs	r0, #7
 1274 0108 9968     		ldr	r1, [r3, #8]
 1275 010a 0A1B     		subs	r2, r1, r4
 1276 010c 5142     		rsbs	r1, r2, #0
 1277 010e 5141     		adcs	r1, r1, r2
 1278 0110 FFF7FEFF 		bl	_test_assert
 1279              	.LVL138:
 1280 0114 0028     		cmp	r0, #0
 1281 0116 A5D1     		bne	.L64
 1282              		.loc 1 398 0
 1283 0118 FFF7FEFF 		bl	test_wait_threads
 1284              	.LVL139:
 1285              		.loc 1 401 0
 1286 011c 4C4B     		ldr	r3, .L69+36
 1287 011e 4FF49871 		mov	r1, #304
 1288 0122 0093     		str	r3, [sp]
 1289 0124 4A46     		mov	r2, r9
 1290 0126 444B     		ldr	r3, .L69+12
 1291 0128 0398     		ldr	r0, [sp, #12]
 1292 012a FFF7FEFF 		bl	chThdCreateStatic
 1293              	.LVL140:
 1294              		.loc 1 402 0
 1295 012e 494B     		ldr	r3, .L69+40
 1296              		.loc 1 401 0
 1297 0130 3860     		str	r0, [r7]
 1298              		.loc 1 402 0
 1299 0132 4FF49871 		mov	r1, #304
 1300 0136 0093     		str	r3, [sp]
 1301 0138 5246     		mov	r2, r10
 1302 013a 424B     		ldr	r3, .L69+24
 1303 013c 3046     		mov	r0, r6
 1304 013e FFF7FEFF 		bl	chThdCreateStatic
ARM GAS  /tmp/ccQqQCWT.s 			page 24


 1305              	.LVL141:
 1306 0142 7860     		str	r0, [r7, #4]
 1307              		.loc 1 403 0
 1308 0144 4048     		ldr	r0, .L69+28
 1309 0146 FFF7FEFF 		bl	chMtxLock
 1310              	.LVL142:
 1311              		.loc 1 404 0
 1312 014a EB69     		ldr	r3, [r5, #28]
 1313 014c 0820     		movs	r0, #8
 1314 014e 9968     		ldr	r1, [r3, #8]
 1315 0150 0B1B     		subs	r3, r1, r4
 1316 0152 5942     		rsbs	r1, r3, #0
 1317 0154 5941     		adcs	r1, r1, r3
 1318 0156 FFF7FEFF 		bl	_test_assert
 1319              	.LVL143:
 1320 015a 0028     		cmp	r0, #0
 1321 015c 82D1     		bne	.L64
 1322              		.loc 1 405 0
 1323 015e 6420     		movs	r0, #100
 1324 0160 FFF7FEFF 		bl	chThdSleep
 1325              	.LVL144:
 1326              		.loc 1 406 0
 1327 0164 EB69     		ldr	r3, [r5, #28]
 1328 0166 0920     		movs	r0, #9
 1329 0168 9968     		ldr	r1, [r3, #8]
 1330 016a B1EB090C 		subs	ip, r1, r9
 1331 016e DCF10001 		rsbs	r1, ip, #0
 1332 0172 51EB0C01 		adcs	r1, r1, ip
 1333 0176 FFF7FEFF 		bl	_test_assert
 1334              	.LVL145:
 1335 017a 0028     		cmp	r0, #0
 1336 017c 7FF472AF 		bne	.L64
 1337              		.loc 1 407 0
 1338 0180 3248     		ldr	r0, .L69+32
 1339 0182 FFF7FEFF 		bl	chMtxLock
 1340              	.LVL146:
 1341              		.loc 1 408 0
 1342 0186 EB69     		ldr	r3, [r5, #28]
 1343 0188 0A20     		movs	r0, #10
 1344 018a 9968     		ldr	r1, [r3, #8]
 1345 018c B1EB090E 		subs	lr, r1, r9
 1346 0190 DEF10001 		rsbs	r1, lr, #0
 1347 0194 51EB0E01 		adcs	r1, r1, lr
 1348 0198 FFF7FEFF 		bl	_test_assert
 1349              	.LVL147:
 1350 019c 0028     		cmp	r0, #0
 1351 019e 7FF461AF 		bne	.L64
 1352              		.loc 1 409 0
 1353 01a2 6420     		movs	r0, #100
 1354 01a4 FFF7FEFF 		bl	chThdSleep
 1355              	.LVL148:
 1356              		.loc 1 410 0
 1357 01a8 EB69     		ldr	r3, [r5, #28]
 1358 01aa 0B20     		movs	r0, #11
 1359 01ac 9968     		ldr	r1, [r3, #8]
 1360 01ae B1EB0A07 		subs	r7, r1, r10
 1361 01b2 7942     		rsbs	r1, r7, #0
ARM GAS  /tmp/ccQqQCWT.s 			page 25


 1362 01b4 7941     		adcs	r1, r1, r7
 1363 01b6 FFF7FEFF 		bl	_test_assert
 1364              	.LVL149:
 1365 01ba 0646     		mov	r6, r0
 1366 01bc 0028     		cmp	r0, #0
 1367 01be 7FF451AF 		bne	.L64
 1368              	.LBB2:
 1369              		.loc 1 411 0
 1370 01c2 2023     		movs	r3, #32
 1371              	@ 411 "../../test/testmtx.c" 1
 1372 01c4 83F31188 		msr     BASEPRI, r3
 1373              	@ 0 "" 2
 1374              		.thumb
 1375              	.LBE2:
 1376              		.loc 1 412 0
 1377 01c8 FFF7FEFF 		bl	chMtxUnlockS
 1378              	.LVL150:
 1379              	.LBB3:
 1380              		.loc 1 413 0
 1381 01cc 3346     		mov	r3, r6
 1382              	@ 413 "../../test/testmtx.c" 1
 1383 01ce 83F31188 		msr     BASEPRI, r3
 1384              	@ 0 "" 2
 1385              		.thumb
 1386              	.LBE3:
 1387              		.loc 1 414 0
 1388 01d2 EB69     		ldr	r3, [r5, #28]
 1389 01d4 0C20     		movs	r0, #12
 1390 01d6 9968     		ldr	r1, [r3, #8]
 1391 01d8 B1EB0906 		subs	r6, r1, r9
 1392 01dc 7142     		rsbs	r1, r6, #0
 1393 01de 7141     		adcs	r1, r1, r6
 1394 01e0 FFF7FEFF 		bl	_test_assert
 1395              	.LVL151:
 1396 01e4 0028     		cmp	r0, #0
 1397 01e6 7FF43DAF 		bne	.L64
 1398              		.loc 1 415 0
 1399 01ea 6420     		movs	r0, #100
 1400 01ec FFF7FEFF 		bl	chThdSleep
 1401              	.LVL152:
 1402              		.loc 1 416 0
 1403 01f0 EB69     		ldr	r3, [r5, #28]
 1404 01f2 0D20     		movs	r0, #13
 1405 01f4 9968     		ldr	r1, [r3, #8]
 1406 01f6 B1EB0902 		subs	r2, r1, r9
 1407 01fa 5142     		rsbs	r1, r2, #0
 1408 01fc 5141     		adcs	r1, r1, r2
 1409 01fe FFF7FEFF 		bl	_test_assert
 1410              	.LVL153:
 1411 0202 0028     		cmp	r0, #0
 1412 0204 7FF42EAF 		bne	.L64
 1413              		.loc 1 417 0
 1414 0208 FFF7FEFF 		bl	chMtxUnlockAll
 1415              	.LVL154:
 1416              		.loc 1 418 0
 1417 020c EB69     		ldr	r3, [r5, #28]
 1418 020e 0E20     		movs	r0, #14
ARM GAS  /tmp/ccQqQCWT.s 			page 26


 1419 0210 9968     		ldr	r1, [r3, #8]
 1420 0212 0B1B     		subs	r3, r1, r4
 1421 0214 5942     		rsbs	r1, r3, #0
 1422 0216 5941     		adcs	r1, r1, r3
 1423 0218 FFF7FEFF 		bl	_test_assert
 1424              	.LVL155:
 1425 021c 0028     		cmp	r0, #0
 1426 021e 7FF421AF 		bne	.L64
 1427              		.loc 1 420 0
 1428 0222 05B0     		add	sp, sp, #20
 1429              		@ sp needed
 1430 0224 BDE8F046 		pop	{r4, r5, r6, r7, r9, r10, lr}
 1431              	.LVL156:
 1432              		.loc 1 419 0
 1433 0228 FFF7FEBF 		b	test_wait_threads
 1434              	.LVL157:
 1435              	.L70:
 1436              		.align	2
 1437              	.L69:
 1438 022c 00000000 		.word	rlist
 1439 0230 00000000 		.word	wa
 1440 0234 0C000000 		.word	.LC3
 1441 0238 00000000 		.word	thread4a
 1442 023c 00000000 		.word	threads
 1443 0240 10000000 		.word	.LC4
 1444 0244 00000000 		.word	thread4b
 1445 0248 00000000 		.word	.LANCHOR1
 1446 024c 00000000 		.word	.LANCHOR0
 1447 0250 04000000 		.word	.LC1
 1448 0254 08000000 		.word	.LC2
 1449              		.cfi_endproc
 1450              	.LFE25:
 1451              		.size	mtx4_execute, .-mtx4_execute
 1452 0258 AFF30080 		.section	.text.mtx5_execute,"ax",%progbits
 1452      AFF30080 
 1453              		.align	2
 1454              		.p2align 4,,15
 1455              		.thumb
 1456              		.thumb_func
 1457              		.type	mtx5_execute, %function
 1458              	mtx5_execute:
 1459              	.LFB27:
 1460              		.loc 1 444 0
 1461              		.cfi_startproc
 1462              		@ args = 0, pretend = 0, frame = 0
 1463              		@ frame_needed = 0, uses_anonymous_args = 0
 1464 0000 F8B5     		push	{r3, r4, r5, r6, r7, lr}
 1465              		.cfi_def_cfa_offset 24
 1466              		.cfi_offset 3, -24
 1467              		.cfi_offset 4, -20
 1468              		.cfi_offset 5, -16
 1469              		.cfi_offset 6, -12
 1470              		.cfi_offset 7, -8
 1471              		.cfi_offset 14, -4
 1472              		.loc 1 448 0
 1473 0002 2B4D     		ldr	r5, .L76
 1474              		.loc 1 450 0
ARM GAS  /tmp/ccQqQCWT.s 			page 27


 1475 0004 2B4C     		ldr	r4, .L76+4
 1476              		.loc 1 448 0
 1477 0006 EB69     		ldr	r3, [r5, #28]
 1478              		.loc 1 450 0
 1479 0008 2046     		mov	r0, r4
 1480              		.loc 1 448 0
 1481 000a 9E68     		ldr	r6, [r3, #8]
 1482              	.LVL158:
 1483              		.loc 1 450 0
 1484 000c FFF7FEFF 		bl	chMtxTryLock
 1485              	.LVL159:
 1486              		.loc 1 451 0
 1487 0010 0146     		mov	r1, r0
 1488 0012 0120     		movs	r0, #1
 1489              	.LVL160:
 1490 0014 FFF7FEFF 		bl	_test_assert
 1491              	.LVL161:
 1492 0018 00B1     		cbz	r0, .L75
 1493              	.L71:
 1494 001a F8BD     		pop	{r3, r4, r5, r6, r7, pc}
 1495              	.LVL162:
 1496              	.L75:
 1497              		.loc 1 453 0
 1498 001c 2046     		mov	r0, r4
 1499 001e FFF7FEFF 		bl	chMtxTryLock
 1500              	.LVL163:
 1501              		.loc 1 454 0
 1502 0022 D0F10101 		rsbs	r1, r0, #1
 1503 0026 38BF     		it	cc
 1504 0028 0021     		movcc	r1, #0
 1505 002a 0220     		movs	r0, #2
 1506              	.LVL164:
 1507 002c FFF7FEFF 		bl	_test_assert
 1508              	.LVL165:
 1509 0030 0746     		mov	r7, r0
 1510 0032 0028     		cmp	r0, #0
 1511 0034 F1D1     		bne	.L71
 1512              	.LBB4:
 1513              		.loc 1 456 0
 1514 0036 2023     		movs	r3, #32
 1515              	@ 456 "../../test/testmtx.c" 1
 1516 0038 83F31188 		msr     BASEPRI, r3
 1517              	@ 0 "" 2
 1518              		.thumb
 1519              	.LBE4:
 1520              		.loc 1 457 0
 1521 003c FFF7FEFF 		bl	chMtxUnlockS
 1522              	.LVL166:
 1523              	.LBB5:
 1524              		.loc 1 458 0
 1525 0040 3B46     		mov	r3, r7
 1526              	@ 458 "../../test/testmtx.c" 1
 1527 0042 83F31188 		msr     BASEPRI, r3
 1528              	@ 0 "" 2
 1529              		.thumb
 1530              	.LBE5:
 1531              		.loc 1 460 0
ARM GAS  /tmp/ccQqQCWT.s 			page 28


 1532 0046 2168     		ldr	r1, [r4]
 1533 0048 0320     		movs	r0, #3
 1534 004a 0F1B     		subs	r7, r1, r4
 1535 004c 7942     		rsbs	r1, r7, #0
 1536 004e 7941     		adcs	r1, r1, r7
 1537 0050 FFF7FEFF 		bl	_test_assert
 1538              	.LVL167:
 1539 0054 0028     		cmp	r0, #0
 1540 0056 E0D1     		bne	.L71
 1541              		.loc 1 461 0
 1542 0058 A168     		ldr	r1, [r4, #8]
 1543 005a 0420     		movs	r0, #4
 1544 005c D1F10101 		rsbs	r1, r1, #1
 1545 0060 38BF     		it	cc
 1546 0062 0021     		movcc	r1, #0
 1547 0064 FFF7FEFF 		bl	_test_assert
 1548              	.LVL168:
 1549 0068 0028     		cmp	r0, #0
 1550 006a D6D1     		bne	.L71
 1551              		.loc 1 462 0
 1552 006c EB69     		ldr	r3, [r5, #28]
 1553 006e 0520     		movs	r0, #5
 1554 0070 9968     		ldr	r1, [r3, #8]
 1555 0072 8A1B     		subs	r2, r1, r6
 1556 0074 5142     		rsbs	r1, r2, #0
 1557 0076 5141     		adcs	r1, r1, r2
 1558 0078 FFF7FEFF 		bl	_test_assert
 1559              	.LVL169:
 1560 007c 0028     		cmp	r0, #0
 1561 007e CCD1     		bne	.L71
 1562              		.loc 1 464 0
 1563 0080 2046     		mov	r0, r4
 1564 0082 FFF7FEFF 		bl	chMtxLock
 1565              	.LVL170:
 1566              		.loc 1 465 0
 1567 0086 FFF7FEFF 		bl	chMtxUnlockAll
 1568              	.LVL171:
 1569              		.loc 1 466 0
 1570 008a 2168     		ldr	r1, [r4]
 1571 008c 0620     		movs	r0, #6
 1572 008e 0B1B     		subs	r3, r1, r4
 1573 0090 5942     		rsbs	r1, r3, #0
 1574 0092 5941     		adcs	r1, r1, r3
 1575 0094 FFF7FEFF 		bl	_test_assert
 1576              	.LVL172:
 1577 0098 0028     		cmp	r0, #0
 1578 009a BED1     		bne	.L71
 1579              		.loc 1 467 0
 1580 009c A168     		ldr	r1, [r4, #8]
 1581 009e 0720     		movs	r0, #7
 1582 00a0 D1F10101 		rsbs	r1, r1, #1
 1583 00a4 38BF     		it	cc
 1584 00a6 0021     		movcc	r1, #0
 1585              		.loc 1 468 0
 1586 00a8 BDE8F840 		pop	{r3, r4, r5, r6, r7, lr}
 1587              	.LVL173:
 1588              		.loc 1 467 0
ARM GAS  /tmp/ccQqQCWT.s 			page 29


 1589 00ac FFF7FEBF 		b	_test_assert
 1590              	.LVL174:
 1591              	.L77:
 1592              		.align	2
 1593              	.L76:
 1594 00b0 00000000 		.word	rlist
 1595 00b4 00000000 		.word	.LANCHOR0
 1596              		.cfi_endproc
 1597              	.LFE27:
 1598              		.size	mtx5_execute, .-mtx5_execute
 1599 00b8 AFF30080 		.section	.text.mtx6_execute,"ax",%progbits
 1599      AFF30080 
 1600              		.align	2
 1601              		.p2align 4,,15
 1602              		.thumb
 1603              		.thumb_func
 1604              		.type	mtx6_execute, %function
 1605              	mtx6_execute:
 1606              	.LFB30:
 1607              		.loc 1 504 0
 1608              		.cfi_startproc
 1609              		@ args = 0, pretend = 0, frame = 0
 1610              		@ frame_needed = 0, uses_anonymous_args = 0
 1611 0000 F0B5     		push	{r4, r5, r6, r7, lr}
 1612              		.cfi_def_cfa_offset 20
 1613              		.cfi_offset 4, -20
 1614              		.cfi_offset 5, -16
 1615              		.cfi_offset 6, -12
 1616              		.cfi_offset 7, -8
 1617              		.cfi_offset 14, -4
 1618              		.loc 1 506 0
 1619 0002 2F4B     		ldr	r3, .L79
 1620              		.loc 1 507 0
 1621 0004 2F4F     		ldr	r7, .L79+4
 1622              		.loc 1 506 0
 1623 0006 DB69     		ldr	r3, [r3, #28]
 1624              		.loc 1 507 0
 1625 0008 2F4D     		ldr	r5, .L79+8
 1626              		.loc 1 506 0
 1627 000a 9E68     		ldr	r6, [r3, #8]
 1628              	.LVL175:
 1629              		.loc 1 507 0
 1630 000c 2F49     		ldr	r1, .L79+12
 1631              		.loc 1 504 0
 1632 000e 83B0     		sub	sp, sp, #12
 1633              		.cfi_def_cfa_offset 32
 1634              		.loc 1 507 0
 1635 0010 721C     		adds	r2, r6, #1
 1636 0012 2B46     		mov	r3, r5
 1637 0014 0091     		str	r1, [sp]
 1638 0016 3868     		ldr	r0, [r7]
 1639 0018 4FF49871 		mov	r1, #304
 1640 001c FFF7FEFF 		bl	chThdCreateStatic
 1641              	.LVL176:
 1642 0020 2B4C     		ldr	r4, .L79+16
 1643              		.loc 1 508 0
 1644 0022 7B68     		ldr	r3, [r7, #4]
ARM GAS  /tmp/ccQqQCWT.s 			page 30


 1645 0024 2B49     		ldr	r1, .L79+20
 1646              		.loc 1 507 0
 1647 0026 2060     		str	r0, [r4]
 1648              		.loc 1 508 0
 1649 0028 B21C     		adds	r2, r6, #2
 1650 002a 0091     		str	r1, [sp]
 1651 002c 1846     		mov	r0, r3
 1652 002e 4FF49871 		mov	r1, #304
 1653 0032 2B46     		mov	r3, r5
 1654 0034 FFF7FEFF 		bl	chThdCreateStatic
 1655              	.LVL177:
 1656              		.loc 1 509 0
 1657 0038 BB68     		ldr	r3, [r7, #8]
 1658 003a 2749     		ldr	r1, .L79+24
 1659              		.loc 1 508 0
 1660 003c 6060     		str	r0, [r4, #4]
 1661              		.loc 1 509 0
 1662 003e F21C     		adds	r2, r6, #3
 1663 0040 0091     		str	r1, [sp]
 1664 0042 1846     		mov	r0, r3
 1665 0044 4FF49871 		mov	r1, #304
 1666 0048 2B46     		mov	r3, r5
 1667 004a FFF7FEFF 		bl	chThdCreateStatic
 1668              	.LVL178:
 1669              		.loc 1 510 0
 1670 004e FB68     		ldr	r3, [r7, #12]
 1671 0050 2249     		ldr	r1, .L79+28
 1672              		.loc 1 509 0
 1673 0052 A060     		str	r0, [r4, #8]
 1674              		.loc 1 510 0
 1675 0054 321D     		adds	r2, r6, #4
 1676 0056 0091     		str	r1, [sp]
 1677 0058 1846     		mov	r0, r3
 1678 005a 4FF49871 		mov	r1, #304
 1679 005e 2B46     		mov	r3, r5
 1680 0060 FFF7FEFF 		bl	chThdCreateStatic
 1681              	.LVL179:
 1682              		.loc 1 511 0
 1683 0064 3B69     		ldr	r3, [r7, #16]
 1684 0066 1E49     		ldr	r1, .L79+32
 1685              		.loc 1 510 0
 1686 0068 E060     		str	r0, [r4, #12]
 1687              		.loc 1 511 0
 1688 006a 721D     		adds	r2, r6, #5
 1689 006c 0091     		str	r1, [sp]
 1690 006e 1846     		mov	r0, r3
 1691 0070 4FF49871 		mov	r1, #304
 1692 0074 2B46     		mov	r3, r5
 1693 0076 FFF7FEFF 		bl	chThdCreateStatic
 1694              	.LVL180:
 1695              	.LBB6:
 1696              		.loc 1 512 0
 1697 007a 2023     		movs	r3, #32
 1698              	.LBE6:
 1699              		.loc 1 511 0
 1700 007c 2061     		str	r0, [r4, #16]
 1701              	.LBB7:
ARM GAS  /tmp/ccQqQCWT.s 			page 31


 1702              		.loc 1 512 0
 1703              	@ 512 "../../test/testmtx.c" 1
 1704 007e 83F31188 		msr     BASEPRI, r3
 1705              	@ 0 "" 2
 1706              		.thumb
 1707              	.LBE7:
 1708              		.loc 1 513 0
 1709 0082 184C     		ldr	r4, .L79+36
 1710 0084 2046     		mov	r0, r4
 1711 0086 FFF7FEFF 		bl	chCondSignalI
 1712              	.LVL181:
 1713              		.loc 1 514 0
 1714 008a 2046     		mov	r0, r4
 1715 008c FFF7FEFF 		bl	chCondSignalI
 1716              	.LVL182:
 1717              		.loc 1 515 0
 1718 0090 2046     		mov	r0, r4
 1719 0092 FFF7FEFF 		bl	chCondSignalI
 1720              	.LVL183:
 1721              		.loc 1 516 0
 1722 0096 2046     		mov	r0, r4
 1723 0098 FFF7FEFF 		bl	chCondSignalI
 1724              	.LVL184:
 1725              		.loc 1 517 0
 1726 009c 2046     		mov	r0, r4
 1727 009e FFF7FEFF 		bl	chCondSignalI
 1728              	.LVL185:
 1729              		.loc 1 518 0
 1730 00a2 FFF7FEFF 		bl	chSchRescheduleS
 1731              	.LVL186:
 1732              	.LBB8:
 1733              		.loc 1 519 0
 1734 00a6 0023     		movs	r3, #0
 1735              	@ 519 "../../test/testmtx.c" 1
 1736 00a8 83F31188 		msr     BASEPRI, r3
 1737              	@ 0 "" 2
 1738              		.thumb
 1739              	.LBE8:
 1740              		.loc 1 520 0
 1741 00ac FFF7FEFF 		bl	test_wait_threads
 1742              	.LVL187:
 1743              		.loc 1 521 0
 1744 00b0 0D49     		ldr	r1, .L79+40
 1745 00b2 0120     		movs	r0, #1
 1746              		.loc 1 522 0
 1747 00b4 03B0     		add	sp, sp, #12
 1748              		@ sp needed
 1749 00b6 BDE8F040 		pop	{r4, r5, r6, r7, lr}
 1750              	.LVL188:
 1751              		.loc 1 521 0
 1752 00ba FFF7FEBF 		b	_test_assert_sequence
 1753              	.LVL189:
 1754              	.L80:
 1755 00be 00BF     		.align	2
 1756              	.L79:
 1757 00c0 00000000 		.word	rlist
 1758 00c4 00000000 		.word	wa
ARM GAS  /tmp/ccQqQCWT.s 			page 32


 1759 00c8 00000000 		.word	thread10
 1760 00cc 00000000 		.word	.LC0
 1761 00d0 00000000 		.word	threads
 1762 00d4 04000000 		.word	.LC1
 1763 00d8 08000000 		.word	.LC2
 1764 00dc 0C000000 		.word	.LC3
 1765 00e0 10000000 		.word	.LC4
 1766 00e4 00000000 		.word	.LANCHOR2
 1767 00e8 14000000 		.word	.LC5
 1768              		.cfi_endproc
 1769              	.LFE30:
 1770              		.size	mtx6_execute, .-mtx6_execute
 1771 00ec AFF30080 		.section	.text.thread10,"ax",%progbits
 1772              		.align	2
 1773              		.p2align 4,,15
 1774              		.thumb
 1775              		.thumb_func
 1776              		.type	thread10, %function
 1777              	thread10:
 1778              	.LFB29:
 1779              		.loc 1 495 0
 1780              		.cfi_startproc
 1781              		@ args = 0, pretend = 0, frame = 0
 1782              		@ frame_needed = 0, uses_anonymous_args = 0
 1783              	.LVL190:
 1784 0000 10B5     		push	{r4, lr}
 1785              		.cfi_def_cfa_offset 8
 1786              		.cfi_offset 4, -8
 1787              		.cfi_offset 14, -4
 1788              		.loc 1 495 0
 1789 0002 0446     		mov	r4, r0
 1790              		.loc 1 497 0
 1791 0004 0648     		ldr	r0, .L82
 1792              	.LVL191:
 1793 0006 FFF7FEFF 		bl	chMtxLock
 1794              	.LVL192:
 1795              		.loc 1 498 0
 1796 000a 0648     		ldr	r0, .L82+4
 1797 000c FFF7FEFF 		bl	chCondWait
 1798              	.LVL193:
 1799              		.loc 1 499 0
 1800 0010 2078     		ldrb	r0, [r4]	@ zero_extendqisi2
 1801 0012 FFF7FEFF 		bl	test_emit_token
 1802              	.LVL194:
 1803              		.loc 1 500 0
 1804 0016 FFF7FEFF 		bl	chMtxUnlock
 1805              	.LVL195:
 1806              		.loc 1 502 0
 1807 001a 0020     		movs	r0, #0
 1808 001c 10BD     		pop	{r4, pc}
 1809              	.LVL196:
 1810              	.L83:
 1811 001e 00BF     		.align	2
 1812              	.L82:
 1813 0020 00000000 		.word	.LANCHOR0
 1814 0024 00000000 		.word	.LANCHOR2
 1815              		.cfi_endproc
ARM GAS  /tmp/ccQqQCWT.s 			page 33


 1816              	.LFE29:
 1817              		.size	thread10, .-thread10
 1818 0028 AFF30080 		.section	.text.mtx6_setup,"ax",%progbits
 1818      AFF30080 
 1819              		.align	2
 1820              		.p2align 4,,15
 1821              		.thumb
 1822              		.thumb_func
 1823              		.type	mtx6_setup, %function
 1824              	mtx6_setup:
 1825              	.LFB28:
 1826              		.loc 1 489 0
 1827              		.cfi_startproc
 1828              		@ args = 0, pretend = 0, frame = 0
 1829              		@ frame_needed = 0, uses_anonymous_args = 0
 1830 0000 08B5     		push	{r3, lr}
 1831              		.cfi_def_cfa_offset 8
 1832              		.cfi_offset 3, -8
 1833              		.cfi_offset 14, -4
 1834              		.loc 1 491 0
 1835 0002 0448     		ldr	r0, .L85
 1836 0004 FFF7FEFF 		bl	chCondInit
 1837              	.LVL197:
 1838              		.loc 1 493 0
 1839 0008 BDE80840 		pop	{r3, lr}
 1840              		.loc 1 492 0
 1841 000c 0248     		ldr	r0, .L85+4
 1842 000e FFF7FEBF 		b	chMtxInit
 1843              	.LVL198:
 1844              	.L86:
 1845 0012 00BF     		.align	2
 1846              	.L85:
 1847 0014 00000000 		.word	.LANCHOR2
 1848 0018 00000000 		.word	.LANCHOR0
 1849              		.cfi_endproc
 1850              	.LFE28:
 1851              		.size	mtx6_setup, .-mtx6_setup
 1852 001c AFF30080 		.section	.text.mtx7_setup,"ax",%progbits
 1853              		.align	2
 1854              		.p2align 4,,15
 1855              		.thumb
 1856              		.thumb_func
 1857              		.type	mtx7_setup, %function
 1858              	mtx7_setup:
 1859              	.LFB31:
 1860              		.loc 1 541 0
 1861              		.cfi_startproc
 1862              		@ args = 0, pretend = 0, frame = 0
 1863              		@ frame_needed = 0, uses_anonymous_args = 0
 1864 0000 08B5     		push	{r3, lr}
 1865              		.cfi_def_cfa_offset 8
 1866              		.cfi_offset 3, -8
 1867              		.cfi_offset 14, -4
 1868              		.loc 1 543 0
 1869 0002 0448     		ldr	r0, .L88
 1870 0004 FFF7FEFF 		bl	chCondInit
 1871              	.LVL199:
ARM GAS  /tmp/ccQqQCWT.s 			page 34


 1872              		.loc 1 545 0
 1873 0008 BDE80840 		pop	{r3, lr}
 1874              		.loc 1 544 0
 1875 000c 0248     		ldr	r0, .L88+4
 1876 000e FFF7FEBF 		b	chMtxInit
 1877              	.LVL200:
 1878              	.L89:
 1879 0012 00BF     		.align	2
 1880              	.L88:
 1881 0014 00000000 		.word	.LANCHOR2
 1882 0018 00000000 		.word	.LANCHOR0
 1883              		.cfi_endproc
 1884              	.LFE31:
 1885              		.size	mtx7_setup, .-mtx7_setup
 1886 001c AFF30080 		.section	.text.mtx8_setup,"ax",%progbits
 1887              		.align	2
 1888              		.p2align 4,,15
 1889              		.thumb
 1890              		.thumb_func
 1891              		.type	mtx8_setup, %function
 1892              	mtx8_setup:
 1893              	.LFB33:
 1894              		.loc 1 576 0
 1895              		.cfi_startproc
 1896              		@ args = 0, pretend = 0, frame = 0
 1897              		@ frame_needed = 0, uses_anonymous_args = 0
 1898 0000 08B5     		push	{r3, lr}
 1899              		.cfi_def_cfa_offset 8
 1900              		.cfi_offset 3, -8
 1901              		.cfi_offset 14, -4
 1902              		.loc 1 578 0
 1903 0002 0548     		ldr	r0, .L91
 1904 0004 FFF7FEFF 		bl	chCondInit
 1905              	.LVL201:
 1906              		.loc 1 579 0
 1907 0008 0448     		ldr	r0, .L91+4
 1908 000a FFF7FEFF 		bl	chMtxInit
 1909              	.LVL202:
 1910              		.loc 1 581 0
 1911 000e BDE80840 		pop	{r3, lr}
 1912              		.loc 1 580 0
 1913 0012 0348     		ldr	r0, .L91+8
 1914 0014 FFF7FEBF 		b	chMtxInit
 1915              	.LVL203:
 1916              	.L92:
 1917              		.align	2
 1918              	.L91:
 1919 0018 00000000 		.word	.LANCHOR2
 1920 001c 00000000 		.word	.LANCHOR0
 1921 0020 00000000 		.word	.LANCHOR1
 1922              		.cfi_endproc
 1923              	.LFE33:
 1924              		.size	mtx8_setup, .-mtx8_setup
 1925 0024 AFF30080 		.section	.text.mtx7_execute,"ax",%progbits
 1925      AFF30080 
 1925      AFF30080 
 1926              		.align	2
ARM GAS  /tmp/ccQqQCWT.s 			page 35


 1927              		.p2align 4,,15
 1928              		.thumb
 1929              		.thumb_func
 1930              		.type	mtx7_execute, %function
 1931              	mtx7_execute:
 1932              	.LFB32:
 1933              		.loc 1 547 0
 1934              		.cfi_startproc
 1935              		@ args = 0, pretend = 0, frame = 0
 1936              		@ frame_needed = 0, uses_anonymous_args = 0
 1937 0000 F0B5     		push	{r4, r5, r6, r7, lr}
 1938              		.cfi_def_cfa_offset 20
 1939              		.cfi_offset 4, -20
 1940              		.cfi_offset 5, -16
 1941              		.cfi_offset 6, -12
 1942              		.cfi_offset 7, -8
 1943              		.cfi_offset 14, -4
 1944              		.loc 1 549 0
 1945 0002 244B     		ldr	r3, .L94
 1946              		.loc 1 550 0
 1947 0004 244F     		ldr	r7, .L94+4
 1948              		.loc 1 549 0
 1949 0006 DB69     		ldr	r3, [r3, #28]
 1950              		.loc 1 550 0
 1951 0008 244D     		ldr	r5, .L94+8
 1952              		.loc 1 549 0
 1953 000a 9E68     		ldr	r6, [r3, #8]
 1954              	.LVL204:
 1955              		.loc 1 550 0
 1956 000c 2449     		ldr	r1, .L94+12
 1957              		.loc 1 547 0
 1958 000e 83B0     		sub	sp, sp, #12
 1959              		.cfi_def_cfa_offset 32
 1960              		.loc 1 550 0
 1961 0010 721C     		adds	r2, r6, #1
 1962 0012 2B46     		mov	r3, r5
 1963 0014 0091     		str	r1, [sp]
 1964 0016 3868     		ldr	r0, [r7]
 1965 0018 4FF49871 		mov	r1, #304
 1966 001c FFF7FEFF 		bl	chThdCreateStatic
 1967              	.LVL205:
 1968 0020 204C     		ldr	r4, .L94+16
 1969              		.loc 1 551 0
 1970 0022 7B68     		ldr	r3, [r7, #4]
 1971 0024 2049     		ldr	r1, .L94+20
 1972              		.loc 1 550 0
 1973 0026 2060     		str	r0, [r4]
 1974              		.loc 1 551 0
 1975 0028 B21C     		adds	r2, r6, #2
 1976 002a 0091     		str	r1, [sp]
 1977 002c 1846     		mov	r0, r3
 1978 002e 4FF49871 		mov	r1, #304
 1979 0032 2B46     		mov	r3, r5
 1980 0034 FFF7FEFF 		bl	chThdCreateStatic
 1981              	.LVL206:
 1982              		.loc 1 552 0
 1983 0038 BB68     		ldr	r3, [r7, #8]
ARM GAS  /tmp/ccQqQCWT.s 			page 36


 1984 003a 1C49     		ldr	r1, .L94+24
 1985              		.loc 1 551 0
 1986 003c 6060     		str	r0, [r4, #4]
 1987              		.loc 1 552 0
 1988 003e F21C     		adds	r2, r6, #3
 1989 0040 0091     		str	r1, [sp]
 1990 0042 1846     		mov	r0, r3
 1991 0044 4FF49871 		mov	r1, #304
 1992 0048 2B46     		mov	r3, r5
 1993 004a FFF7FEFF 		bl	chThdCreateStatic
 1994              	.LVL207:
 1995              		.loc 1 553 0
 1996 004e FB68     		ldr	r3, [r7, #12]
 1997 0050 1749     		ldr	r1, .L94+28
 1998              		.loc 1 552 0
 1999 0052 A060     		str	r0, [r4, #8]
 2000              		.loc 1 553 0
 2001 0054 321D     		adds	r2, r6, #4
 2002 0056 0091     		str	r1, [sp]
 2003 0058 1846     		mov	r0, r3
 2004 005a 4FF49871 		mov	r1, #304
 2005 005e 2B46     		mov	r3, r5
 2006 0060 FFF7FEFF 		bl	chThdCreateStatic
 2007              	.LVL208:
 2008              		.loc 1 554 0
 2009 0064 3B69     		ldr	r3, [r7, #16]
 2010 0066 1349     		ldr	r1, .L94+32
 2011 0068 721D     		adds	r2, r6, #5
 2012              		.loc 1 553 0
 2013 006a E060     		str	r0, [r4, #12]
 2014              		.loc 1 554 0
 2015 006c 0091     		str	r1, [sp]
 2016 006e 1846     		mov	r0, r3
 2017 0070 4FF49871 		mov	r1, #304
 2018 0074 2B46     		mov	r3, r5
 2019 0076 FFF7FEFF 		bl	chThdCreateStatic
 2020              	.LVL209:
 2021 007a 2061     		str	r0, [r4, #16]
 2022              		.loc 1 555 0
 2023 007c 0E48     		ldr	r0, .L94+36
 2024 007e FFF7FEFF 		bl	chCondBroadcast
 2025              	.LVL210:
 2026              		.loc 1 556 0
 2027 0082 FFF7FEFF 		bl	test_wait_threads
 2028              	.LVL211:
 2029              		.loc 1 557 0
 2030 0086 0D49     		ldr	r1, .L94+40
 2031 0088 0120     		movs	r0, #1
 2032              		.loc 1 558 0
 2033 008a 03B0     		add	sp, sp, #12
 2034              		@ sp needed
 2035 008c BDE8F040 		pop	{r4, r5, r6, r7, lr}
 2036              	.LVL212:
 2037              		.loc 1 557 0
 2038 0090 FFF7FEBF 		b	_test_assert_sequence
 2039              	.LVL213:
 2040              	.L95:
ARM GAS  /tmp/ccQqQCWT.s 			page 37


 2041              		.align	2
 2042              	.L94:
 2043 0094 00000000 		.word	rlist
 2044 0098 00000000 		.word	wa
 2045 009c 00000000 		.word	thread10
 2046 00a0 00000000 		.word	.LC0
 2047 00a4 00000000 		.word	threads
 2048 00a8 04000000 		.word	.LC1
 2049 00ac 08000000 		.word	.LC2
 2050 00b0 0C000000 		.word	.LC3
 2051 00b4 10000000 		.word	.LC4
 2052 00b8 00000000 		.word	.LANCHOR2
 2053 00bc 14000000 		.word	.LC5
 2054              		.cfi_endproc
 2055              	.LFE32:
 2056              		.size	mtx7_execute, .-mtx7_execute
 2057              		.section	.text.mtx8_execute,"ax",%progbits
 2058              		.align	2
 2059              		.p2align 4,,15
 2060              		.thumb
 2061              		.thumb_func
 2062              		.type	mtx8_execute, %function
 2063              	mtx8_execute:
 2064              	.LFB36:
 2065              		.loc 1 606 0
 2066              		.cfi_startproc
 2067              		@ args = 0, pretend = 0, frame = 0
 2068              		@ frame_needed = 0, uses_anonymous_args = 0
 2069 0000 70B5     		push	{r4, r5, r6, lr}
 2070              		.cfi_def_cfa_offset 16
 2071              		.cfi_offset 4, -16
 2072              		.cfi_offset 5, -12
 2073              		.cfi_offset 6, -8
 2074              		.cfi_offset 14, -4
 2075              		.loc 1 608 0
 2076 0002 1B4B     		ldr	r3, .L97
 2077              		.loc 1 609 0
 2078 0004 1B4E     		ldr	r6, .L97+4
 2079              		.loc 1 608 0
 2080 0006 DB69     		ldr	r3, [r3, #28]
 2081              		.loc 1 606 0
 2082 0008 82B0     		sub	sp, sp, #8
 2083              		.cfi_def_cfa_offset 24
 2084              		.loc 1 608 0
 2085 000a 9D68     		ldr	r5, [r3, #8]
 2086              	.LVL214:
 2087              		.loc 1 609 0
 2088 000c 1A4B     		ldr	r3, .L97+8
 2089 000e 6A1C     		adds	r2, r5, #1
 2090 0010 0093     		str	r3, [sp]
 2091 0012 3068     		ldr	r0, [r6]
 2092 0014 4FF49871 		mov	r1, #304
 2093 0018 184B     		ldr	r3, .L97+12
 2094 001a FFF7FEFF 		bl	chThdCreateStatic
 2095              	.LVL215:
 2096 001e 184C     		ldr	r4, .L97+16
 2097              		.loc 1 610 0
ARM GAS  /tmp/ccQqQCWT.s 			page 38


 2098 0020 7368     		ldr	r3, [r6, #4]
 2099 0022 1849     		ldr	r1, .L97+20
 2100              		.loc 1 609 0
 2101 0024 2060     		str	r0, [r4]
 2102              		.loc 1 610 0
 2103 0026 AA1C     		adds	r2, r5, #2
 2104 0028 0091     		str	r1, [sp]
 2105 002a 1846     		mov	r0, r3
 2106 002c 4FF49871 		mov	r1, #304
 2107 0030 154B     		ldr	r3, .L97+24
 2108 0032 FFF7FEFF 		bl	chThdCreateStatic
 2109              	.LVL216:
 2110              		.loc 1 611 0
 2111 0036 B168     		ldr	r1, [r6, #8]
 2112 0038 144B     		ldr	r3, .L97+28
 2113 003a EA1C     		adds	r2, r5, #3
 2114              		.loc 1 610 0
 2115 003c 6060     		str	r0, [r4, #4]
 2116              		.loc 1 611 0
 2117 003e 0093     		str	r3, [sp]
 2118 0040 0846     		mov	r0, r1
 2119 0042 134B     		ldr	r3, .L97+32
 2120 0044 4FF49871 		mov	r1, #304
 2121 0048 FFF7FEFF 		bl	chThdCreateStatic
 2122              	.LVL217:
 2123              		.loc 1 612 0
 2124 004c 114D     		ldr	r5, .L97+36
 2125              	.LVL218:
 2126              		.loc 1 611 0
 2127 004e A060     		str	r0, [r4, #8]
 2128              		.loc 1 612 0
 2129 0050 2846     		mov	r0, r5
 2130 0052 FFF7FEFF 		bl	chCondSignal
 2131              	.LVL219:
 2132              		.loc 1 613 0
 2133 0056 2846     		mov	r0, r5
 2134 0058 FFF7FEFF 		bl	chCondSignal
 2135              	.LVL220:
 2136              		.loc 1 614 0
 2137 005c FFF7FEFF 		bl	test_wait_threads
 2138              	.LVL221:
 2139              		.loc 1 615 0
 2140 0060 0D49     		ldr	r1, .L97+40
 2141 0062 0120     		movs	r0, #1
 2142              		.loc 1 616 0
 2143 0064 02B0     		add	sp, sp, #8
 2144              		@ sp needed
 2145 0066 BDE87040 		pop	{r4, r5, r6, lr}
 2146              		.loc 1 615 0
 2147 006a FFF7FEBF 		b	_test_assert_sequence
 2148              	.LVL222:
 2149              	.L98:
 2150 006e 00BF     		.align	2
 2151              	.L97:
 2152 0070 00000000 		.word	rlist
 2153 0074 00000000 		.word	wa
 2154 0078 10000000 		.word	.LC4
ARM GAS  /tmp/ccQqQCWT.s 			page 39


 2155 007c 00000000 		.word	thread11
 2156 0080 00000000 		.word	threads
 2157 0084 08000000 		.word	.LC2
 2158 0088 00000000 		.word	thread10
 2159 008c 0C000000 		.word	.LC3
 2160 0090 00000000 		.word	thread12
 2161 0094 00000000 		.word	.LANCHOR2
 2162 0098 1C000000 		.word	.LC6
 2163              		.cfi_endproc
 2164              	.LFE36:
 2165              		.size	mtx8_execute, .-mtx8_execute
 2166 009c AFF30080 		.section	.text.thread11,"ax",%progbits
 2167              		.align	2
 2168              		.p2align 4,,15
 2169              		.thumb
 2170              		.thumb_func
 2171              		.type	thread11, %function
 2172              	thread11:
 2173              	.LFB34:
 2174              		.loc 1 583 0
 2175              		.cfi_startproc
 2176              		@ args = 0, pretend = 0, frame = 0
 2177              		@ frame_needed = 0, uses_anonymous_args = 0
 2178              	.LVL223:
 2179 0000 10B5     		push	{r4, lr}
 2180              		.cfi_def_cfa_offset 8
 2181              		.cfi_offset 4, -8
 2182              		.cfi_offset 14, -4
 2183              		.loc 1 583 0
 2184 0002 0446     		mov	r4, r0
 2185              		.loc 1 585 0
 2186 0004 0948     		ldr	r0, .L100
 2187              	.LVL224:
 2188 0006 FFF7FEFF 		bl	chMtxLock
 2189              	.LVL225:
 2190              		.loc 1 586 0
 2191 000a 0948     		ldr	r0, .L100+4
 2192 000c FFF7FEFF 		bl	chMtxLock
 2193              	.LVL226:
 2194              		.loc 1 588 0
 2195 0010 4FF0FF31 		mov	r1, #-1
 2196 0014 0748     		ldr	r0, .L100+8
 2197 0016 FFF7FEFF 		bl	chCondWaitTimeout
 2198              	.LVL227:
 2199              		.loc 1 592 0
 2200 001a 2078     		ldrb	r0, [r4]	@ zero_extendqisi2
 2201 001c FFF7FEFF 		bl	test_emit_token
 2202              	.LVL228:
 2203              		.loc 1 593 0
 2204 0020 FFF7FEFF 		bl	chMtxUnlock
 2205              	.LVL229:
 2206              		.loc 1 594 0
 2207 0024 FFF7FEFF 		bl	chMtxUnlock
 2208              	.LVL230:
 2209              		.loc 1 596 0
 2210 0028 0020     		movs	r0, #0
 2211 002a 10BD     		pop	{r4, pc}
ARM GAS  /tmp/ccQqQCWT.s 			page 40


 2212              	.LVL231:
 2213              	.L101:
 2214              		.align	2
 2215              	.L100:
 2216 002c 00000000 		.word	.LANCHOR1
 2217 0030 00000000 		.word	.LANCHOR0
 2218 0034 00000000 		.word	.LANCHOR2
 2219              		.cfi_endproc
 2220              	.LFE34:
 2221              		.size	thread11, .-thread11
 2222              		.global	patternmtx
 2223              		.global	testmtx8
 2224              		.global	testmtx7
 2225              		.global	testmtx6
 2226              		.global	testmtx5
 2227              		.global	testmtx4
 2228              		.global	testmtx3
 2229              		.global	testmtx2
 2230              		.global	testmtx1
 2231 0038 AFF30080 		.section	.rodata.testmtx5,"a",%progbits
 2231      AFF30080 
 2232              		.align	2
 2233              		.type	testmtx5, %object
 2234              		.size	testmtx5, 16
 2235              	testmtx5:
 2236 0000 64000000 		.word	.LC10
 2237 0004 00000000 		.word	mtx5_setup
 2238 0008 00000000 		.word	0
 2239 000c 00000000 		.word	mtx5_execute
 2240              		.section	.rodata.testmtx6,"a",%progbits
 2241              		.align	2
 2242              		.type	testmtx6, %object
 2243              		.size	testmtx6, 16
 2244              	testmtx6:
 2245 0000 4C000000 		.word	.LC9
 2246 0004 00000000 		.word	mtx6_setup
 2247 0008 00000000 		.word	0
 2248 000c 00000000 		.word	mtx6_execute
 2249              		.section	.rodata.testmtx7,"a",%progbits
 2250              		.align	2
 2251              		.type	testmtx7, %object
 2252              		.size	testmtx7, 16
 2253              	testmtx7:
 2254 0000 34000000 		.word	.LC8
 2255 0004 00000000 		.word	mtx7_setup
 2256 0008 00000000 		.word	0
 2257 000c 00000000 		.word	mtx7_execute
 2258              		.section	.rodata.testmtx8,"a",%progbits
 2259              		.align	2
 2260              		.type	testmtx8, %object
 2261              		.size	testmtx8, 16
 2262              	testmtx8:
 2263 0000 20000000 		.word	.LC7
 2264 0004 00000000 		.word	mtx8_setup
 2265 0008 00000000 		.word	0
 2266 000c 00000000 		.word	mtx8_execute
 2267              		.section	.data.m1,"aw",%progbits
ARM GAS  /tmp/ccQqQCWT.s 			page 41


 2268              		.align	2
 2269              		.set	.LANCHOR0,. + 0
 2270              		.type	m1, %object
 2271              		.size	m1, 16
 2272              	m1:
 2273 0000 00000000 		.word	m1
 2274 0004 00000000 		.word	m1
 2275 0008 00000000 		.word	0
 2276 000c 00000000 		.word	0
 2277              		.section	.data.m2,"aw",%progbits
 2278              		.align	2
 2279              		.set	.LANCHOR1,. + 0
 2280              		.type	m2, %object
 2281              		.size	m2, 16
 2282              	m2:
 2283 0000 00000000 		.word	m2
 2284 0004 00000000 		.word	m2
 2285 0008 00000000 		.word	0
 2286 000c 00000000 		.word	0
 2287              		.section	.rodata.str1.4,"aMS",%progbits,1
 2288              		.align	2
 2289              	.LC0:
 2290 0000 4500     		.ascii	"E\000"
 2291 0002 0000     		.space	2
 2292              	.LC1:
 2293 0004 4400     		.ascii	"D\000"
 2294 0006 0000     		.space	2
 2295              	.LC2:
 2296 0008 4300     		.ascii	"C\000"
 2297 000a 0000     		.space	2
 2298              	.LC3:
 2299 000c 4200     		.ascii	"B\000"
 2300 000e 0000     		.space	2
 2301              	.LC4:
 2302 0010 4100     		.ascii	"A\000"
 2303 0012 0000     		.space	2
 2304              	.LC5:
 2305 0014 41424344 		.ascii	"ABCDE\000"
 2305      4500
 2306 001a 0000     		.space	2
 2307              	.LC6:
 2308 001c 41424300 		.ascii	"ABC\000"
 2309              	.LC7:
 2310 0020 436F6E64 		.ascii	"CondVar, boost test\000"
 2310      5661722C 
 2310      20626F6F 
 2310      73742074 
 2310      65737400 
 2311              	.LC8:
 2312 0034 436F6E64 		.ascii	"CondVar, broadcast test\000"
 2312      5661722C 
 2312      2062726F 
 2312      61646361 
 2312      73742074 
 2313              	.LC9:
 2314 004c 436F6E64 		.ascii	"CondVar, signal test\000"
 2314      5661722C 
ARM GAS  /tmp/ccQqQCWT.s 			page 42


 2314      20736967 
 2314      6E616C20 
 2314      74657374 
 2315 0061 000000   		.space	3
 2316              	.LC10:
 2317 0064 4D757465 		.ascii	"Mutexes, status\000"
 2317      7865732C 
 2317      20737461 
 2317      74757300 
 2318              	.LC11:
 2319 0074 4D757465 		.ascii	"Mutexes, priority return\000"
 2319      7865732C 
 2319      20707269 
 2319      6F726974 
 2319      79207265 
 2320 008d 000000   		.space	3
 2321              	.LC12:
 2322 0090 4D757465 		.ascii	"Mutexes, priority inheritance, complex case\000"
 2322      7865732C 
 2322      20707269 
 2322      6F726974 
 2322      7920696E 
 2323              	.LC13:
 2324 00bc 4D757465 		.ascii	"Mutexes, priority inheritance, simple case\000"
 2324      7865732C 
 2324      20707269 
 2324      6F726974 
 2324      7920696E 
 2325 00e7 00       		.space	1
 2326              	.LC14:
 2327 00e8 4D757465 		.ascii	"Mutexes, priority enqueuing test\000"
 2327      7865732C 
 2327      20707269 
 2327      6F726974 
 2327      7920656E 
 2328 0109 000000   		.section	.rodata.patternmtx,"a",%progbits
 2329              		.align	2
 2330              		.type	patternmtx, %object
 2331              		.size	patternmtx, 36
 2332              	patternmtx:
 2333 0000 00000000 		.word	testmtx1
 2334 0004 00000000 		.word	testmtx2
 2335 0008 00000000 		.word	testmtx3
 2336 000c 00000000 		.word	testmtx4
 2337 0010 00000000 		.word	testmtx5
 2338 0014 00000000 		.word	testmtx6
 2339 0018 00000000 		.word	testmtx7
 2340 001c 00000000 		.word	testmtx8
 2341 0020 00000000 		.word	0
 2342              		.section	.data.c1,"aw",%progbits
 2343              		.align	2
 2344              		.set	.LANCHOR2,. + 0
 2345              		.type	c1, %object
 2346              		.size	c1, 8
 2347              	c1:
 2348 0000 00000000 		.word	c1
 2349 0004 00000000 		.word	c1
ARM GAS  /tmp/ccQqQCWT.s 			page 43


 2350              		.section	.rodata.testmtx1,"a",%progbits
 2351              		.align	2
 2352              		.type	testmtx1, %object
 2353              		.size	testmtx1, 16
 2354              	testmtx1:
 2355 0000 E8000000 		.word	.LC14
 2356 0004 00000000 		.word	mtx1_setup
 2357 0008 00000000 		.word	0
 2358 000c 00000000 		.word	mtx1_execute
 2359              		.section	.rodata.testmtx2,"a",%progbits
 2360              		.align	2
 2361              		.type	testmtx2, %object
 2362              		.size	testmtx2, 16
 2363              	testmtx2:
 2364 0000 BC000000 		.word	.LC13
 2365 0004 00000000 		.word	mtx2_setup
 2366 0008 00000000 		.word	0
 2367 000c 00000000 		.word	mtx2_execute
 2368              		.section	.rodata.testmtx3,"a",%progbits
 2369              		.align	2
 2370              		.type	testmtx3, %object
 2371              		.size	testmtx3, 16
 2372              	testmtx3:
 2373 0000 90000000 		.word	.LC12
 2374 0004 00000000 		.word	mtx3_setup
 2375 0008 00000000 		.word	0
 2376 000c 00000000 		.word	mtx3_execute
 2377              		.section	.rodata.testmtx4,"a",%progbits
 2378              		.align	2
 2379              		.type	testmtx4, %object
 2380              		.size	testmtx4, 16
 2381              	testmtx4:
 2382 0000 74000000 		.word	.LC11
 2383 0004 00000000 		.word	mtx4_setup
 2384 0008 00000000 		.word	0
 2385 000c 00000000 		.word	mtx4_execute
 2386              		.text
 2387              	.Letext0:
 2388              		.file 2 "/usr/local/gcc-arm-none-eabi-4_8-2014q2/lib/gcc/arm-none-eabi/4.8.4/include/stddef.h"
 2389              		.file 3 "/usr/local/gcc-arm-none-eabi-4_8-2014q2/arm-none-eabi/include/machine/_default_types.h"
 2390              		.file 4 "/usr/local/gcc-arm-none-eabi-4_8-2014q2/arm-none-eabi/include/stdint.h"
 2391              		.file 5 "../../os/ports/GCC/ARMCMx/chtypes.h"
 2392              		.file 6 "../../os/kernel/include/chlists.h"
 2393              		.file 7 "../../os/kernel/include/chthreads.h"
 2394              		.file 8 "../../os/ports/GCC/ARMCMx/chcore_v7m.h"
 2395              		.file 9 "../../os/kernel/include/chvt.h"
 2396              		.file 10 "../../os/kernel/include/chschd.h"
 2397              		.file 11 "../../os/kernel/include/chmtx.h"
 2398              		.file 12 "../../os/kernel/include/chcond.h"
 2399              		.file 13 "../../test/test.h"