ARM GAS  /tmp/cc84Fohq.s 			page 1


   1              		.syntax unified
   2              		.cpu cortex-m3
   3              		.fpu softvfp
   4              		.eabi_attribute 20, 1
   5              		.eabi_attribute 21, 1
   6              		.eabi_attribute 23, 3
   7              		.eabi_attribute 24, 1
   8              		.eabi_attribute 25, 1
   9              		.eabi_attribute 26, 1
  10              		.eabi_attribute 30, 2
  11              		.eabi_attribute 34, 1
  12              		.eabi_attribute 18, 4
  13              		.thumb
  14              		.file	"test.c"
  15              		.text
  16              	.Ltext0:
  17              		.cfi_sections	.debug_frame
  18              		.section	.text.tmr,"ax",%progbits
  19              		.align	2
  20              		.p2align 4,,15
  21              		.thumb
  22              		.thumb_func
  23              		.type	tmr, %function
  24              	tmr:
  25              	.LFB50:
  26              		.file 1 "../../test/test.c"
  27              		.loc 1 273 0
  28              		.cfi_startproc
  29              		@ args = 0, pretend = 0, frame = 0
  30              		@ frame_needed = 0, uses_anonymous_args = 0
  31              		@ link register save eliminated.
  32              	.LVL0:
  33              		.loc 1 276 0
  34 0000 014B     		ldr	r3, .L2
  35 0002 0122     		movs	r2, #1
  36 0004 1A60     		str	r2, [r3]
  37 0006 7047     		bx	lr
  38              	.L3:
  39              		.align	2
  40              	.L2:
  41 0008 00000000 		.word	.LANCHOR0
  42              		.cfi_endproc
  43              	.LFE50:
  44              		.size	tmr, .-tmr
  45 000c AFF30080 		.section	.text.print_line,"ax",%progbits
  46              		.align	2
  47              		.p2align 4,,15
  48              		.thumb
  49              		.thumb_func
  50              		.type	print_line, %function
  51              	print_line:
  52              	.LFB53:
  53              		.loc 1 314 0
  54              		.cfi_startproc
  55              		@ args = 0, pretend = 0, frame = 0
  56              		@ frame_needed = 0, uses_anonymous_args = 0
  57              	.LVL1:
ARM GAS  /tmp/cc84Fohq.s 			page 2


  58 0000 70B5     		push	{r4, r5, r6, lr}
  59              		.cfi_def_cfa_offset 16
  60              		.cfi_offset 4, -16
  61              		.cfi_offset 5, -12
  62              		.cfi_offset 6, -8
  63              		.cfi_offset 14, -4
  64 0002 0D4E     		ldr	r6, .L8
  65              		.loc 1 314 0
  66 0004 4C24     		movs	r4, #76
  67              	.LVL2:
  68              	.L6:
  69              		.loc 1 318 0 discriminator 2
  70 0006 3068     		ldr	r0, [r6]
  71 0008 2D21     		movs	r1, #45
  72 000a 0368     		ldr	r3, [r0]
  73 000c 4FF0FF32 		mov	r2, #-1
  74 0010 1B69     		ldr	r3, [r3, #16]
  75 0012 9847     		blx	r3
  76              	.LVL3:
  77              		.loc 1 317 0 discriminator 2
  78 0014 013C     		subs	r4, r4, #1
  79              	.LVL4:
  80              		.loc 1 318 0 discriminator 2
  81 0016 084D     		ldr	r5, .L8
  82              		.loc 1 317 0 discriminator 2
  83 0018 F5D1     		bne	.L6
  84              		.loc 1 319 0
  85 001a 2868     		ldr	r0, [r5]
  86 001c 0D21     		movs	r1, #13
  87 001e 0368     		ldr	r3, [r0]
  88 0020 4FF0FF32 		mov	r2, #-1
  89 0024 1B69     		ldr	r3, [r3, #16]
  90 0026 9847     		blx	r3
  91              	.LVL5:
  92              		.loc 1 320 0
  93 0028 2868     		ldr	r0, [r5]
  94 002a 0A21     		movs	r1, #10
  95 002c 0368     		ldr	r3, [r0]
  96 002e 4FF0FF32 		mov	r2, #-1
  97 0032 1B69     		ldr	r3, [r3, #16]
  98 0034 9847     		blx	r3
  99              	.LVL6:
 100 0036 70BD     		pop	{r4, r5, r6, pc}
 101              	.LVL7:
 102              	.L9:
 103              		.align	2
 104              	.L8:
 105 0038 00000000 		.word	.LANCHOR1
 106              		.cfi_endproc
 107              	.LFE53:
 108              		.size	print_line, .-print_line
 109 003c AFF30080 		.section	.text.test_printn,"ax",%progbits
 110              		.align	2
 111              		.p2align 4,,15
 112              		.global	test_printn
 113              		.thumb
 114              		.thumb_func
ARM GAS  /tmp/cc84Fohq.s 			page 3


 115              		.type	test_printn, %function
 116              	test_printn:
 117              	.LFB36:
 118              		.loc 1 102 0
 119              		.cfi_startproc
 120              		@ args = 0, pretend = 0, frame = 16
 121              		@ frame_needed = 0, uses_anonymous_args = 0
 122              	.LVL8:
 123 0000 70B5     		push	{r4, r5, r6, lr}
 124              		.cfi_def_cfa_offset 16
 125              		.cfi_offset 4, -16
 126              		.cfi_offset 5, -12
 127              		.cfi_offset 6, -8
 128              		.cfi_offset 14, -4
 129 0002 84B0     		sub	sp, sp, #16
 130              		.cfi_def_cfa_offset 32
 131              		.loc 1 105 0
 132 0004 28B3     		cbz	r0, .L18
 133 0006 0DF10105 		add	r5, sp, #1
 134              		.loc 1 110 0
 135 000a 174E     		ldr	r6, .L20
 136 000c 2B46     		mov	r3, r5
 137              	.LVL9:
 138              	.L14:
 139 000e A6FB0012 		umull	r1, r2, r6, r0
 140 0012 D208     		lsrs	r2, r2, #3
 141 0014 02EB8201 		add	r1, r2, r2, lsl #2
 142 0018 A0EB4101 		sub	r1, r0, r1, lsl #1
 143 001c 3031     		adds	r1, r1, #48
 144 001e C9B2     		uxtb	r1, r1
 145 0020 03F8011C 		strb	r1, [r3, #-1]
 146 0024 1C46     		mov	r4, r3
 147              	.LVL10:
 148              		.loc 1 109 0
 149 0026 1046     		mov	r0, r2
 150 0028 0133     		adds	r3, r3, #1
 151              	.LVL11:
 152 002a 002A     		cmp	r2, #0
 153 002c EFD1     		bne	.L14
 154              		.loc 1 111 0 discriminator 1
 155 002e 6B46     		mov	r3, sp
 156 0030 9C42     		cmp	r4, r3
 157 0032 0CD9     		bls	.L10
 158 0034 0D4E     		ldr	r6, .L20+4
 159 0036 02E0     		b	.L17
 160              	.LVL12:
 161              	.L19:
 162 0038 14F8021C 		ldrb	r1, [r4, #-2]	@ zero_extendqisi2
 163 003c 013C     		subs	r4, r4, #1
 164              	.LVL13:
 165              	.L17:
 166              		.loc 1 112 0
 167 003e 3068     		ldr	r0, [r6]
 168              	.LVL14:
 169 0040 4FF0FF32 		mov	r2, #-1
 170 0044 0368     		ldr	r3, [r0]
 171 0046 1B69     		ldr	r3, [r3, #16]
ARM GAS  /tmp/cc84Fohq.s 			page 4


 172 0048 9847     		blx	r3
 173              	.LVL15:
 174              		.loc 1 111 0
 175 004a AC42     		cmp	r4, r5
 176 004c F4D1     		bne	.L19
 177              	.LVL16:
 178              	.L10:
 179              		.loc 1 114 0
 180 004e 04B0     		add	sp, sp, #16
 181              		@ sp needed
 182 0050 70BD     		pop	{r4, r5, r6, pc}
 183              	.LVL17:
 184              	.L18:
 185              	.LBB50:
 186              	.LBB51:
 187              		.loc 1 106 0
 188 0052 064B     		ldr	r3, .L20+4
 189 0054 3021     		movs	r1, #48
 190 0056 1868     		ldr	r0, [r3]
 191              	.LVL18:
 192 0058 4FF0FF32 		mov	r2, #-1
 193 005c 0368     		ldr	r3, [r0]
 194 005e 1B69     		ldr	r3, [r3, #16]
 195 0060 9847     		blx	r3
 196              	.LVL19:
 197              	.LBE51:
 198              	.LBE50:
 199              		.loc 1 114 0
 200 0062 04B0     		add	sp, sp, #16
 201              		@ sp needed
 202 0064 70BD     		pop	{r4, r5, r6, pc}
 203              	.L21:
 204 0066 00BF     		.align	2
 205              	.L20:
 206 0068 CDCCCCCC 		.word	-858993459
 207 006c 00000000 		.word	.LANCHOR1
 208              		.cfi_endproc
 209              	.LFE36:
 210              		.size	test_printn, .-test_printn
 211              		.section	.text.test_print,"ax",%progbits
 212              		.align	2
 213              		.p2align 4,,15
 214              		.global	test_print
 215              		.thumb
 216              		.thumb_func
 217              		.type	test_print, %function
 218              	test_print:
 219              	.LFB37:
 220              		.loc 1 121 0
 221              		.cfi_startproc
 222              		@ args = 0, pretend = 0, frame = 0
 223              		@ frame_needed = 0, uses_anonymous_args = 0
 224              	.LVL20:
 225 0000 38B5     		push	{r3, r4, r5, lr}
 226              		.cfi_def_cfa_offset 16
 227              		.cfi_offset 3, -16
 228              		.cfi_offset 4, -12
ARM GAS  /tmp/cc84Fohq.s 			page 5


 229              		.cfi_offset 5, -8
 230              		.cfi_offset 14, -4
 231              		.loc 1 123 0
 232 0002 0178     		ldrb	r1, [r0]	@ zero_extendqisi2
 233 0004 59B1     		cbz	r1, .L22
 234 0006 064D     		ldr	r5, .L29
 235 0008 0446     		mov	r4, r0
 236              	.LVL21:
 237              	.L25:
 238              		.loc 1 124 0
 239 000a 2868     		ldr	r0, [r5]
 240              	.LVL22:
 241 000c 4FF0FF32 		mov	r2, #-1
 242 0010 0368     		ldr	r3, [r0]
 243 0012 1B69     		ldr	r3, [r3, #16]
 244 0014 9847     		blx	r3
 245              	.LVL23:
 246              		.loc 1 123 0
 247 0016 14F8011F 		ldrb	r1, [r4, #1]!	@ zero_extendqisi2
 248              	.LVL24:
 249 001a 0029     		cmp	r1, #0
 250 001c F5D1     		bne	.L25
 251              	.LVL25:
 252              	.L22:
 253 001e 38BD     		pop	{r3, r4, r5, pc}
 254              	.L30:
 255              		.align	2
 256              	.L29:
 257 0020 00000000 		.word	.LANCHOR1
 258              		.cfi_endproc
 259              	.LFE37:
 260              		.size	test_print, .-test_print
 261 0024 AFF30080 		.section	.text.test_println,"ax",%progbits
 261      AFF30080 
 261      AFF30080 
 262              		.align	2
 263              		.p2align 4,,15
 264              		.global	test_println
 265              		.thumb
 266              		.thumb_func
 267              		.type	test_println, %function
 268              	test_println:
 269              	.LFB38:
 270              		.loc 1 132 0
 271              		.cfi_startproc
 272              		@ args = 0, pretend = 0, frame = 0
 273              		@ frame_needed = 0, uses_anonymous_args = 0
 274              	.LVL26:
 275 0000 38B5     		push	{r3, r4, r5, lr}
 276              		.cfi_def_cfa_offset 16
 277              		.cfi_offset 3, -16
 278              		.cfi_offset 4, -12
 279              		.cfi_offset 5, -8
 280              		.cfi_offset 14, -4
 281              	.LBB52:
 282              	.LBB53:
 283              		.loc 1 123 0
ARM GAS  /tmp/cc84Fohq.s 			page 6


 284 0002 0178     		ldrb	r1, [r0]	@ zero_extendqisi2
 285 0004 0D4D     		ldr	r5, .L39
 286 0006 0446     		mov	r4, r0
 287 0008 49B1     		cbz	r1, .L33
 288              	.LVL27:
 289              	.L34:
 290              		.loc 1 124 0
 291 000a 2868     		ldr	r0, [r5]
 292              	.LVL28:
 293 000c 4FF0FF32 		mov	r2, #-1
 294 0010 0368     		ldr	r3, [r0]
 295 0012 1B69     		ldr	r3, [r3, #16]
 296 0014 9847     		blx	r3
 297              	.LVL29:
 298              		.loc 1 123 0
 299 0016 14F8011F 		ldrb	r1, [r4, #1]!	@ zero_extendqisi2
 300              	.LVL30:
 301 001a 0029     		cmp	r1, #0
 302 001c F5D1     		bne	.L34
 303              	.LVL31:
 304              	.L33:
 305              	.LBE53:
 306              	.LBE52:
 307              		.loc 1 135 0
 308 001e 2868     		ldr	r0, [r5]
 309 0020 0D21     		movs	r1, #13
 310 0022 0368     		ldr	r3, [r0]
 311 0024 4FF0FF32 		mov	r2, #-1
 312 0028 1B69     		ldr	r3, [r3, #16]
 313 002a 9847     		blx	r3
 314              	.LVL32:
 315              		.loc 1 136 0
 316 002c 2868     		ldr	r0, [r5]
 317 002e 0A21     		movs	r1, #10
 318 0030 0368     		ldr	r3, [r0]
 319 0032 4FF0FF32 		mov	r2, #-1
 320 0036 1B69     		ldr	r3, [r3, #16]
 321 0038 9847     		blx	r3
 322              	.LVL33:
 323 003a 38BD     		pop	{r3, r4, r5, pc}
 324              	.L40:
 325              		.align	2
 326              	.L39:
 327 003c 00000000 		.word	.LANCHOR1
 328              		.cfi_endproc
 329              	.LFE38:
 330              		.size	test_println, .-test_println
 331              		.section	.text.test_emit_token,"ax",%progbits
 332              		.align	2
 333              		.p2align 4,,15
 334              		.global	test_emit_token
 335              		.thumb
 336              		.thumb_func
 337              		.type	test_emit_token, %function
 338              	test_emit_token:
 339              	.LFB41:
 340              		.loc 1 159 0
ARM GAS  /tmp/cc84Fohq.s 			page 7


 341              		.cfi_startproc
 342              		@ args = 0, pretend = 0, frame = 0
 343              		@ frame_needed = 0, uses_anonymous_args = 0
 344              		@ link register save eliminated.
 345              	.LVL34:
 346 0000 10B4     		push	{r4}
 347              		.cfi_def_cfa_offset 4
 348              		.cfi_offset 4, -4
 349              	.LBB54:
 350              		.loc 1 161 0
 351 0002 2023     		movs	r3, #32
 352              	@ 161 "../../test/test.c" 1
 353 0004 83F31188 		msr     BASEPRI, r3
 354              	@ 0 "" 2
 355              		.thumb
 356              	.LBE54:
 357              		.loc 1 162 0
 358 0008 054A     		ldr	r2, .L42
 359              	.LBB55:
 360              		.loc 1 163 0
 361 000a 0023     		movs	r3, #0
 362              	.LBE55:
 363              		.loc 1 162 0
 364 000c 1168     		ldr	r1, [r2]
 365 000e 4C1C     		adds	r4, r1, #1
 366 0010 0870     		strb	r0, [r1]
 367 0012 1460     		str	r4, [r2]
 368              	.LBB56:
 369              		.loc 1 163 0
 370              	@ 163 "../../test/test.c" 1
 371 0014 83F31188 		msr     BASEPRI, r3
 372              	@ 0 "" 2
 373              		.thumb
 374              	.LBE56:
 375              		.loc 1 164 0
 376 0018 5DF8044B 		ldr	r4, [sp], #4
 377 001c 7047     		bx	lr
 378              	.L43:
 379 001e 00BF     		.align	2
 380              	.L42:
 381 0020 00000000 		.word	.LANCHOR2
 382              		.cfi_endproc
 383              	.LFE41:
 384              		.size	test_emit_token, .-test_emit_token
 385 0024 AFF30080 		.section	.text._test_fail,"ax",%progbits
 385      AFF30080 
 385      AFF30080 
 386              		.align	2
 387              		.p2align 4,,15
 388              		.global	_test_fail
 389              		.thumb
 390              		.thumb_func
 391              		.type	_test_fail, %function
 392              	_test_fail:
 393              	.LFB42:
 394              		.loc 1 169 0
 395              		.cfi_startproc
ARM GAS  /tmp/cc84Fohq.s 			page 8


 396              		@ args = 0, pretend = 0, frame = 0
 397              		@ frame_needed = 0, uses_anonymous_args = 0
 398              		@ link register save eliminated.
 399              	.LVL35:
 400 0000 10B4     		push	{r4}
 401              		.cfi_def_cfa_offset 4
 402              		.cfi_offset 4, -4
 403              		.loc 1 171 0
 404 0002 0549     		ldr	r1, .L45
 405              		.loc 1 173 0
 406 0004 054C     		ldr	r4, .L45+4
 407              		.loc 1 172 0
 408 0006 064A     		ldr	r2, .L45+8
 409              		.loc 1 171 0
 410 0008 0123     		movs	r3, #1
 411              		.loc 1 173 0
 412 000a 2060     		str	r0, [r4]
 413              		.loc 1 171 0
 414 000c 0B60     		str	r3, [r1]
 415              		.loc 1 175 0
 416 000e 1846     		mov	r0, r3
 417              	.LVL36:
 418              		.loc 1 172 0
 419 0010 1360     		str	r3, [r2]
 420              		.loc 1 175 0
 421 0012 5DF8044B 		ldr	r4, [sp], #4
 422 0016 7047     		bx	lr
 423              	.L46:
 424              		.align	2
 425              	.L45:
 426 0018 00000000 		.word	.LANCHOR3
 427 001c 00000000 		.word	.LANCHOR5
 428 0020 00000000 		.word	.LANCHOR4
 429              		.cfi_endproc
 430              	.LFE42:
 431              		.size	_test_fail, .-_test_fail
 432 0024 AFF30080 		.section	.text._test_assert,"ax",%progbits
 432      AFF30080 
 432      AFF30080 
 433              		.align	2
 434              		.p2align 4,,15
 435              		.global	_test_assert
 436              		.thumb
 437              		.thumb_func
 438              		.type	_test_assert, %function
 439              	_test_assert:
 440              	.LFB43:
 441              		.loc 1 177 0
 442              		.cfi_startproc
 443              		@ args = 0, pretend = 0, frame = 0
 444              		@ frame_needed = 0, uses_anonymous_args = 0
 445              		@ link register save eliminated.
 446              	.LVL37:
 447 0000 10B4     		push	{r4}
 448              		.cfi_def_cfa_offset 4
 449              		.cfi_offset 4, -4
 450              		.loc 1 179 0
ARM GAS  /tmp/cc84Fohq.s 			page 9


 451 0002 51B9     		cbnz	r1, .L49
 452              	.LVL38:
 453              	.LBB57:
 454              	.LBB58:
 455              		.loc 1 171 0
 456 0004 074C     		ldr	r4, .L50
 457              		.loc 1 172 0
 458 0006 0849     		ldr	r1, .L50+4
 459              	.LVL39:
 460              		.loc 1 173 0
 461 0008 084A     		ldr	r2, .L50+8
 462              		.loc 1 171 0
 463 000a 0123     		movs	r3, #1
 464 000c 2360     		str	r3, [r4]
 465              		.loc 1 173 0
 466 000e 1060     		str	r0, [r2]
 467              		.loc 1 172 0
 468 0010 0B60     		str	r3, [r1]
 469              	.LBE58:
 470              	.LBE57:
 471              		.loc 1 182 0
 472 0012 1846     		mov	r0, r3
 473              	.LVL40:
 474 0014 5DF8044B 		ldr	r4, [sp], #4
 475 0018 7047     		bx	lr
 476              	.LVL41:
 477              	.L49:
 478              		.loc 1 181 0
 479 001a 0023     		movs	r3, #0
 480              		.loc 1 182 0
 481 001c 1846     		mov	r0, r3
 482              	.LVL42:
 483 001e 5DF8044B 		ldr	r4, [sp], #4
 484 0022 7047     		bx	lr
 485              	.L51:
 486              		.align	2
 487              	.L50:
 488 0024 00000000 		.word	.LANCHOR3
 489 0028 00000000 		.word	.LANCHOR4
 490 002c 00000000 		.word	.LANCHOR5
 491              		.cfi_endproc
 492              	.LFE43:
 493              		.size	_test_assert, .-_test_assert
 494              		.section	.text._test_assert_sequence,"ax",%progbits
 495              		.align	2
 496              		.p2align 4,,15
 497              		.global	_test_assert_sequence
 498              		.thumb
 499              		.thumb_func
 500              		.type	_test_assert_sequence, %function
 501              	_test_assert_sequence:
 502              	.LFB44:
 503              		.loc 1 184 0
 504              		.cfi_startproc
 505              		@ args = 0, pretend = 0, frame = 0
 506              		@ frame_needed = 0, uses_anonymous_args = 0
 507              		@ link register save eliminated.
ARM GAS  /tmp/cc84Fohq.s 			page 10


 508              	.LVL43:
 509 0000 F0B4     		push	{r4, r5, r6, r7}
 510              		.cfi_def_cfa_offset 16
 511              		.cfi_offset 4, -16
 512              		.cfi_offset 5, -12
 513              		.cfi_offset 6, -8
 514              		.cfi_offset 7, -4
 515 0002 0E4E     		ldr	r6, .L58
 516              		.loc 1 185 0
 517 0004 0E4F     		ldr	r7, .L58+4
 518 0006 3568     		ldr	r5, [r6]
 519 0008 3B46     		mov	r3, r7
 520              		.loc 1 186 0
 521 000a 05E0     		b	.L53
 522              	.LVL44:
 523              	.L56:
 524              		.loc 1 187 0
 525 000c 13F8014B 		ldrb	r4, [r3], #1	@ zero_extendqisi2
 526              	.LVL45:
 527 0010 11F8012B 		ldrb	r2, [r1], #1	@ zero_extendqisi2
 528              	.LVL46:
 529 0014 9442     		cmp	r4, r2
 530 0016 07D1     		bne	.L57
 531              	.LVL47:
 532              	.L53:
 533              		.loc 1 186 0 discriminator 1
 534 0018 AB42     		cmp	r3, r5
 535 001a F7D3     		bcc	.L56
 536              		.loc 1 190 0
 537 001c 0B78     		ldrb	r3, [r1]	@ zero_extendqisi2
 538              	.LVL48:
 539 001e 1BB9     		cbnz	r3, .L57
 540              	.LBB59:
 541              	.LBB60:
 542              		.loc 1 144 0
 543 0020 3760     		str	r7, [r6]
 544              	.LBE60:
 545              	.LBE59:
 546              		.loc 1 194 0
 547 0022 1846     		mov	r0, r3
 548              	.LVL49:
 549 0024 F0BC     		pop	{r4, r5, r6, r7}
 550 0026 7047     		bx	lr
 551              	.LVL50:
 552              	.L57:
 553              	.LBB61:
 554              	.LBB62:
 555              		.loc 1 171 0
 556 0028 064C     		ldr	r4, .L58+8
 557              		.loc 1 172 0
 558 002a 0749     		ldr	r1, .L58+12
 559              		.loc 1 173 0
 560 002c 074A     		ldr	r2, .L58+16
 561              		.loc 1 171 0
 562 002e 0123     		movs	r3, #1
 563 0030 2360     		str	r3, [r4]
 564              		.loc 1 173 0
ARM GAS  /tmp/cc84Fohq.s 			page 11


 565 0032 1060     		str	r0, [r2]
 566              		.loc 1 172 0
 567 0034 0B60     		str	r3, [r1]
 568              	.LBE62:
 569              	.LBE61:
 570              		.loc 1 194 0
 571 0036 1846     		mov	r0, r3
 572              	.LVL51:
 573 0038 F0BC     		pop	{r4, r5, r6, r7}
 574 003a 7047     		bx	lr
 575              	.L59:
 576              		.align	2
 577              	.L58:
 578 003c 00000000 		.word	.LANCHOR2
 579 0040 00000000 		.word	.LANCHOR6
 580 0044 00000000 		.word	.LANCHOR3
 581 0048 00000000 		.word	.LANCHOR4
 582 004c 00000000 		.word	.LANCHOR5
 583              		.cfi_endproc
 584              	.LFE44:
 585              		.size	_test_assert_sequence, .-_test_assert_sequence
 586              		.section	.text._test_assert_time_window,"ax",%progbits
 587              		.align	2
 588              		.p2align 4,,15
 589              		.global	_test_assert_time_window
 590              		.thumb
 591              		.thumb_func
 592              		.type	_test_assert_time_window, %function
 593              	_test_assert_time_window:
 594              	.LFB45:
 595              		.loc 1 196 0
 596              		.cfi_startproc
 597              		@ args = 0, pretend = 0, frame = 0
 598              		@ frame_needed = 0, uses_anonymous_args = 0
 599              	.LVL52:
 600 0000 10B5     		push	{r4, lr}
 601              		.cfi_def_cfa_offset 8
 602              		.cfi_offset 4, -8
 603              		.cfi_offset 14, -4
 604              		.loc 1 196 0
 605 0002 0446     		mov	r4, r0
 606              		.loc 1 198 0
 607 0004 0846     		mov	r0, r1
 608              	.LVL53:
 609 0006 1146     		mov	r1, r2
 610              	.LVL54:
 611 0008 FFF7FEFF 		bl	chTimeIsWithin
 612              	.LVL55:
 613              	.LBB63:
 614              	.LBB64:
 615              		.loc 1 179 0
 616 000c 40B9     		cbnz	r0, .L62
 617              	.LVL56:
 618              	.LBB65:
 619              	.LBB66:
 620              		.loc 1 171 0
 621 000e 0548     		ldr	r0, .L63
ARM GAS  /tmp/cc84Fohq.s 			page 12


 622              	.LVL57:
 623              		.loc 1 172 0
 624 0010 0549     		ldr	r1, .L63+4
 625              		.loc 1 173 0
 626 0012 064A     		ldr	r2, .L63+8
 627              		.loc 1 171 0
 628 0014 0123     		movs	r3, #1
 629 0016 0360     		str	r3, [r0]
 630              		.loc 1 172 0
 631 0018 0B60     		str	r3, [r1]
 632              	.LBE66:
 633              	.LBE65:
 634              		.loc 1 180 0
 635 001a 1846     		mov	r0, r3
 636              	.LBB68:
 637              	.LBB67:
 638              		.loc 1 173 0
 639 001c 1460     		str	r4, [r2]
 640 001e 10BD     		pop	{r4, pc}
 641              	.LVL58:
 642              	.L62:
 643              	.LBE67:
 644              	.LBE68:
 645              		.loc 1 181 0
 646 0020 0020     		movs	r0, #0
 647              	.LVL59:
 648              	.LBE64:
 649              	.LBE63:
 650              		.loc 1 199 0
 651 0022 10BD     		pop	{r4, pc}
 652              	.LVL60:
 653              	.L64:
 654              		.align	2
 655              	.L63:
 656 0024 00000000 		.word	.LANCHOR3
 657 0028 00000000 		.word	.LANCHOR4
 658 002c 00000000 		.word	.LANCHOR5
 659              		.cfi_endproc
 660              	.LFE45:
 661              		.size	_test_assert_time_window, .-_test_assert_time_window
 662              		.section	.text.test_terminate_threads,"ax",%progbits
 663              		.align	2
 664              		.p2align 4,,15
 665              		.global	test_terminate_threads
 666              		.thumb
 667              		.thumb_func
 668              		.type	test_terminate_threads, %function
 669              	test_terminate_threads:
 670              	.LFB46:
 671              		.loc 1 208 0
 672              		.cfi_startproc
 673              		@ args = 0, pretend = 0, frame = 0
 674              		@ frame_needed = 0, uses_anonymous_args = 0
 675              	.LVL61:
 676 0000 38B5     		push	{r3, r4, r5, lr}
 677              		.cfi_def_cfa_offset 16
 678              		.cfi_offset 3, -16
ARM GAS  /tmp/cc84Fohq.s 			page 13


 679              		.cfi_offset 4, -12
 680              		.cfi_offset 5, -8
 681              		.cfi_offset 14, -4
 682 0002 064C     		ldr	r4, .L72
 683 0004 04F11405 		add	r5, r4, #20
 684              	.LVL62:
 685              	.L68:
 686              		.loc 1 212 0
 687 0008 54F8043F 		ldr	r3, [r4, #4]!
 688              		.loc 1 213 0
 689 000c 1846     		mov	r0, r3
 690              		.loc 1 212 0
 691 000e 0BB1     		cbz	r3, .L66
 692              		.loc 1 213 0
 693 0010 FFF7FEFF 		bl	chThdTerminate
 694              	.LVL63:
 695              	.L66:
 696              		.loc 1 211 0
 697 0014 AC42     		cmp	r4, r5
 698 0016 F7D1     		bne	.L68
 699              		.loc 1 214 0
 700 0018 38BD     		pop	{r3, r4, r5, pc}
 701              	.L73:
 702 001a 00BF     		.align	2
 703              	.L72:
 704 001c FCFFFFFF 		.word	.LANCHOR7-4
 705              		.cfi_endproc
 706              	.LFE46:
 707              		.size	test_terminate_threads, .-test_terminate_threads
 708              		.section	.text.test_wait_threads,"ax",%progbits
 709              		.align	2
 710              		.p2align 4,,15
 711              		.global	test_wait_threads
 712              		.thumb
 713              		.thumb_func
 714              		.type	test_wait_threads, %function
 715              	test_wait_threads:
 716              	.LFB47:
 717              		.loc 1 219 0
 718              		.cfi_startproc
 719              		@ args = 0, pretend = 0, frame = 0
 720              		@ frame_needed = 0, uses_anonymous_args = 0
 721              	.LVL64:
 722 0000 70B5     		push	{r4, r5, r6, lr}
 723              		.cfi_def_cfa_offset 16
 724              		.cfi_offset 4, -16
 725              		.cfi_offset 5, -12
 726              		.cfi_offset 6, -8
 727              		.cfi_offset 14, -4
 728 0002 074C     		ldr	r4, .L81
 729              		.loc 1 225 0
 730 0004 0026     		movs	r6, #0
 731 0006 04F11405 		add	r5, r4, #20
 732              	.LVL65:
 733              	.L77:
 734              		.loc 1 223 0
 735 000a 54F8043B 		ldr	r3, [r4], #4
ARM GAS  /tmp/cc84Fohq.s 			page 14


 736              		.loc 1 224 0
 737 000e 1846     		mov	r0, r3
 738              		.loc 1 223 0
 739 0010 1BB1     		cbz	r3, .L75
 740              		.loc 1 224 0
 741 0012 FFF7FEFF 		bl	chThdWait
 742              	.LVL66:
 743              		.loc 1 225 0
 744 0016 44F8046C 		str	r6, [r4, #-4]
 745              	.L75:
 746              		.loc 1 222 0
 747 001a AC42     		cmp	r4, r5
 748 001c F5D1     		bne	.L77
 749              		.loc 1 227 0
 750 001e 70BD     		pop	{r4, r5, r6, pc}
 751              	.L82:
 752              		.align	2
 753              	.L81:
 754 0020 00000000 		.word	.LANCHOR7
 755              		.cfi_endproc
 756              	.LFE47:
 757              		.size	test_wait_threads, .-test_wait_threads
 758 0024 AFF30080 		.section	.text.test_cpu_pulse,"ax",%progbits
 758      AFF30080 
 758      AFF30080 
 759              		.align	2
 760              		.p2align 4,,15
 761              		.global	test_cpu_pulse
 762              		.thumb
 763              		.thumb_func
 764              		.type	test_cpu_pulse, %function
 765              	test_cpu_pulse:
 766              	.LFB48:
 767              		.loc 1 236 0
 768              		.cfi_startproc
 769              		@ args = 0, pretend = 0, frame = 0
 770              		@ frame_needed = 0, uses_anonymous_args = 0
 771              		@ link register save eliminated.
 772              	.LVL67:
 773              		.loc 1 240 0
 774 0000 4FF47A73 		mov	r3, #1000
 775 0004 03FB00F0 		mul	r0, r3, r0
 776              	.LVL68:
 777              		.loc 1 236 0
 778 0008 10B4     		push	{r4}
 779              		.cfi_def_cfa_offset 4
 780              		.cfi_offset 4, -4
 781              		.loc 1 239 0
 782 000a 114C     		ldr	r4, .L94
 783              		.loc 1 240 0
 784 000c 114A     		ldr	r2, .L94+4
 785 000e A0F57A71 		sub	r1, r0, #1000
 786              		.loc 1 239 0
 787 0012 E069     		ldr	r0, [r4, #28]
 788              		.loc 1 240 0
 789 0014 A2FB0131 		umull	r3, r1, r2, r1
 790              		.loc 1 239 0
ARM GAS  /tmp/cc84Fohq.s 			page 15


 791 0018 026A     		ldr	r2, [r0, #32]
 792              	.LVL69:
 793              		.loc 1 240 0
 794 001a 541C     		adds	r4, r2, #1
 795 001c 04EB9111 		add	r1, r4, r1, lsr #6
 796              	.LVL70:
 797              	.L89:
 798              		.loc 1 247 0
 799 0020 8A42     		cmp	r2, r1
 800              		.loc 1 242 0
 801 0022 036A     		ldr	r3, [r0, #32]
 802              	.LVL71:
 803              		.loc 1 247 0
 804 0024 0ED2     		bcs	.L84
 805              		.loc 1 247 0 is_stmt 0 discriminator 1
 806 0026 9A42     		cmp	r2, r3
 807 0028 05D9     		bls	.L92
 808 002a 0023     		movs	r3, #0
 809              	.LVL72:
 810              		.loc 1 248 0 is_stmt 1
 811 002c 002B     		cmp	r3, #0
 812 002e F7D1     		bne	.L89
 813              	.L93:
 814              		.loc 1 249 0
 815 0030 5DF8044B 		ldr	r4, [sp], #4
 816 0034 7047     		bx	lr
 817              	.LVL73:
 818              	.L92:
 819              		.loc 1 248 0 discriminator 2
 820 0036 9942     		cmp	r1, r3
 821 0038 94BF     		ite	ls
 822 003a 0023     		movls	r3, #0
 823              	.LVL74:
 824 003c 0123     		movhi	r3, #1
 825 003e 002B     		cmp	r3, #0
 826 0040 EED1     		bne	.L89
 827 0042 F5E7     		b	.L93
 828              	.LVL75:
 829              	.L84:
 830              		.loc 1 248 0 is_stmt 0
 831 0044 9A42     		cmp	r2, r3
 832 0046 F6D8     		bhi	.L92
 833 0048 0123     		movs	r3, #1
 834              	.LVL76:
 835 004a 002B     		cmp	r3, #0
 836 004c E8D1     		bne	.L89
 837 004e EFE7     		b	.L93
 838              	.L95:
 839              		.align	2
 840              	.L94:
 841 0050 00000000 		.word	rlist
 842 0054 D34D6210 		.word	274877907
 843              		.cfi_endproc
 844              	.LFE48:
 845              		.size	test_cpu_pulse, .-test_cpu_pulse
 846 0058 AFF30080 		.section	.text.test_wait_tick,"ax",%progbits
 846      AFF30080 
ARM GAS  /tmp/cc84Fohq.s 			page 16


 847              		.align	2
 848              		.p2align 4,,15
 849              		.global	test_wait_tick
 850              		.thumb
 851              		.thumb_func
 852              		.type	test_wait_tick, %function
 853              	test_wait_tick:
 854              	.LFB49:
 855              		.loc 1 257 0 is_stmt 1
 856              		.cfi_startproc
 857              		@ args = 0, pretend = 0, frame = 0
 858              		@ frame_needed = 0, uses_anonymous_args = 0
 859 0000 08B5     		push	{r3, lr}
 860              		.cfi_def_cfa_offset 8
 861              		.cfi_offset 3, -8
 862              		.cfi_offset 14, -4
 863              		.loc 1 259 0
 864 0002 0120     		movs	r0, #1
 865 0004 FFF7FEFF 		bl	chThdSleep
 866              	.LVL77:
 867              		.loc 1 260 0
 868 0008 014B     		ldr	r3, .L97
 869 000a D868     		ldr	r0, [r3, #12]
 870              		.loc 1 261 0
 871 000c 08BD     		pop	{r3, pc}
 872              	.L98:
 873 000e 00BF     		.align	2
 874              	.L97:
 875 0010 00000000 		.word	vtlist
 876              		.cfi_endproc
 877              	.LFE49:
 878              		.size	test_wait_tick, .-test_wait_tick
 879 0014 AFF30080 		.section	.text.test_start_timer,"ax",%progbits
 879      AFF30080 
 879      AFF30080 
 880              		.align	2
 881              		.p2align 4,,15
 882              		.global	test_start_timer
 883              		.thumb
 884              		.thumb_func
 885              		.type	test_start_timer, %function
 886              	test_start_timer:
 887              	.LFB51:
 888              		.loc 1 284 0
 889              		.cfi_startproc
 890              		@ args = 0, pretend = 0, frame = 0
 891              		@ frame_needed = 0, uses_anonymous_args = 0
 892              	.LVL78:
 893              		.loc 1 287 0
 894 0000 0D4B     		ldr	r3, .L100
 895              		.loc 1 284 0
 896 0002 10B5     		push	{r4, lr}
 897              		.cfi_def_cfa_offset 8
 898              		.cfi_offset 4, -8
 899              		.cfi_offset 14, -4
 900              		.loc 1 287 0
 901 0004 0024     		movs	r4, #0
ARM GAS  /tmp/cc84Fohq.s 			page 17


 902              	.LVL79:
 903 0006 1C60     		str	r4, [r3]
 904              	.LBB69:
 905              		.loc 1 288 0
 906 0008 2023     		movs	r3, #32
 907              	@ 288 "../../test/test.c" 1
 908 000a 83F31188 		msr     BASEPRI, r3
 909              	@ 0 "" 2
 910              		.thumb
 911              	.LBE69:
 912              		.loc 1 286 0
 913 000e 4FF47A71 		mov	r1, #1000
 914 0012 01FB00F1 		mul	r1, r1, r0
 915 0016 094B     		ldr	r3, .L100+4
 916 0018 A1F57A71 		sub	r1, r1, #1000
 917 001c A3FB0121 		umull	r2, r1, r3, r1
 918 0020 8909     		lsrs	r1, r1, #6
 919              		.loc 1 289 0
 920 0022 2346     		mov	r3, r4
 921 0024 0131     		adds	r1, r1, #1
 922 0026 0648     		ldr	r0, .L100+8
 923              	.LVL80:
 924 0028 064A     		ldr	r2, .L100+12
 925 002a FFF7FEFF 		bl	chVTSetI
 926              	.LVL81:
 927              	.LBB70:
 928              		.loc 1 290 0
 929 002e 2346     		mov	r3, r4
 930              	@ 290 "../../test/test.c" 1
 931 0030 83F31188 		msr     BASEPRI, r3
 932              	@ 0 "" 2
 933              		.thumb
 934 0034 10BD     		pop	{r4, pc}
 935              	.L101:
 936 0036 00BF     		.align	2
 937              	.L100:
 938 0038 00000000 		.word	.LANCHOR0
 939 003c D34D6210 		.word	274877907
 940 0040 00000000 		.word	.LANCHOR8
 941 0044 00000000 		.word	tmr
 942              	.LBE70:
 943              		.cfi_endproc
 944              	.LFE51:
 945              		.size	test_start_timer, .-test_start_timer
 946 0048 AFF30080 		.section	.text.TestThread,"ax",%progbits
 946      AFF30080 
 947              		.align	2
 948              		.p2align 4,,15
 949              		.global	TestThread
 950              		.thumb
 951              		.thumb_func
 952              		.type	TestThread, %function
 953              	TestThread:
 954              	.LFB54:
 955              		.loc 1 329 0
 956              		.cfi_startproc
 957              		@ args = 0, pretend = 0, frame = 16
ARM GAS  /tmp/cc84Fohq.s 			page 18


 958              		@ frame_needed = 0, uses_anonymous_args = 0
 959              	.LVL82:
 960 0000 2DE9F04F 		push	{r4, r5, r6, r7, r8, r9, r10, fp, lr}
 961              		.cfi_def_cfa_offset 36
 962              		.cfi_offset 4, -36
 963              		.cfi_offset 5, -32
 964              		.cfi_offset 6, -28
 965              		.cfi_offset 7, -24
 966              		.cfi_offset 8, -20
 967              		.cfi_offset 9, -16
 968              		.cfi_offset 10, -12
 969              		.cfi_offset 11, -8
 970              		.cfi_offset 14, -4
 971              		.loc 1 332 0
 972 0004 A74C     		ldr	r4, .L169
 973              		.loc 1 329 0
 974 0006 85B0     		sub	sp, sp, #20
 975              		.cfi_def_cfa_offset 56
 976              		.loc 1 332 0
 977 0008 2060     		str	r0, [r4]
 978              		.loc 1 333 0
 979 000a A748     		ldr	r0, .L169+4
 980              	.LVL83:
 981 000c FFF7FEFF 		bl	test_println
 982              	.LVL84:
 983              		.loc 1 334 0
 984 0010 A648     		ldr	r0, .L169+8
 985 0012 FFF7FEFF 		bl	test_println
 986              	.LVL85:
 987 0016 A64D     		ldr	r5, .L169+12
 988              		.loc 1 335 0
 989 0018 A648     		ldr	r0, .L169+16
 990 001a FFF7FEFF 		bl	test_println
 991              	.LVL86:
 992              	.LBB107:
 993              	.LBB108:
 994              		.loc 1 123 0
 995 001e 2A21     		movs	r1, #42
 996              	.LVL87:
 997              	.L104:
 998              		.loc 1 124 0
 999 0020 2068     		ldr	r0, [r4]
 1000              	.LVL88:
 1001 0022 4FF0FF32 		mov	r2, #-1
 1002 0026 0368     		ldr	r3, [r0]
 1003 0028 1B69     		ldr	r3, [r3, #16]
 1004 002a 9847     		blx	r3
 1005              	.LVL89:
 1006              		.loc 1 123 0
 1007 002c 15F8011F 		ldrb	r1, [r5, #1]!	@ zero_extendqisi2
 1008              	.LVL90:
 1009 0030 0029     		cmp	r1, #0
 1010 0032 F5D1     		bne	.L104
 1011              	.LBE108:
 1012              	.LBE107:
 1013              		.loc 1 337 0
 1014 0034 A048     		ldr	r0, .L169+20
ARM GAS  /tmp/cc84Fohq.s 			page 19


 1015 0036 A14D     		ldr	r5, .L169+24
 1016              	.LVL91:
 1017 0038 FFF7FEFF 		bl	test_println
 1018              	.LVL92:
 1019              	.LBB109:
 1020              	.LBB110:
 1021              		.loc 1 123 0
 1022 003c 2A21     		movs	r1, #42
 1023              	.LVL93:
 1024              	.L142:
 1025              		.loc 1 124 0
 1026 003e 2068     		ldr	r0, [r4]
 1027              	.LVL94:
 1028 0040 4FF0FF32 		mov	r2, #-1
 1029 0044 0368     		ldr	r3, [r0]
 1030 0046 1B69     		ldr	r3, [r3, #16]
 1031 0048 9847     		blx	r3
 1032              	.LVL95:
 1033              		.loc 1 123 0
 1034 004a 15F8011F 		ldrb	r1, [r5, #1]!	@ zero_extendqisi2
 1035              	.LVL96:
 1036 004e 0029     		cmp	r1, #0
 1037 0050 F5D1     		bne	.L142
 1038              	.LBE110:
 1039              	.LBE109:
 1040              		.loc 1 339 0
 1041 0052 9B48     		ldr	r0, .L169+28
 1042 0054 9B4D     		ldr	r5, .L169+32
 1043              	.LVL97:
 1044 0056 FFF7FEFF 		bl	test_println
 1045              	.LVL98:
 1046              	.LBB111:
 1047              	.LBB112:
 1048              		.loc 1 123 0
 1049 005a 2A21     		movs	r1, #42
 1050              	.LVL99:
 1051              	.L143:
 1052              		.loc 1 124 0
 1053 005c 2068     		ldr	r0, [r4]
 1054              	.LVL100:
 1055 005e 4FF0FF32 		mov	r2, #-1
 1056 0062 0368     		ldr	r3, [r0]
 1057 0064 1B69     		ldr	r3, [r3, #16]
 1058 0066 9847     		blx	r3
 1059              	.LVL101:
 1060              		.loc 1 123 0
 1061 0068 15F8011F 		ldrb	r1, [r5, #1]!	@ zero_extendqisi2
 1062              	.LVL102:
 1063 006c 0029     		cmp	r1, #0
 1064 006e F5D1     		bne	.L143
 1065              	.LBE112:
 1066              	.LBE111:
 1067              		.loc 1 342 0
 1068 0070 9548     		ldr	r0, .L169+36
 1069 0072 964D     		ldr	r5, .L169+40
 1070              	.LVL103:
 1071 0074 FFF7FEFF 		bl	test_println
ARM GAS  /tmp/cc84Fohq.s 			page 20


 1072              	.LVL104:
 1073              	.LBB113:
 1074              	.LBB114:
 1075              		.loc 1 123 0
 1076 0078 2A21     		movs	r1, #42
 1077              	.LVL105:
 1078              	.L144:
 1079              		.loc 1 124 0
 1080 007a 2068     		ldr	r0, [r4]
 1081              	.LVL106:
 1082 007c 4FF0FF32 		mov	r2, #-1
 1083 0080 0368     		ldr	r3, [r0]
 1084 0082 1B69     		ldr	r3, [r3, #16]
 1085 0084 9847     		blx	r3
 1086              	.LVL107:
 1087              		.loc 1 123 0
 1088 0086 15F8011F 		ldrb	r1, [r5, #1]!	@ zero_extendqisi2
 1089              	.LVL108:
 1090 008a 0029     		cmp	r1, #0
 1091 008c F5D1     		bne	.L144
 1092              	.LBE114:
 1093              	.LBE113:
 1094              		.loc 1 345 0
 1095 008e 9048     		ldr	r0, .L169+44
 1096 0090 904D     		ldr	r5, .L169+48
 1097              	.LVL109:
 1098 0092 FFF7FEFF 		bl	test_println
 1099              	.LVL110:
 1100              	.LBB115:
 1101              	.LBB116:
 1102              		.loc 1 123 0
 1103 0096 2A21     		movs	r1, #42
 1104              	.LVL111:
 1105              	.L145:
 1106              		.loc 1 124 0
 1107 0098 2068     		ldr	r0, [r4]
 1108              	.LVL112:
 1109 009a 4FF0FF32 		mov	r2, #-1
 1110 009e 0368     		ldr	r3, [r0]
 1111 00a0 1B69     		ldr	r3, [r3, #16]
 1112 00a2 9847     		blx	r3
 1113              	.LVL113:
 1114              		.loc 1 123 0
 1115 00a4 15F8011F 		ldrb	r1, [r5, #1]!	@ zero_extendqisi2
 1116              	.LVL114:
 1117 00a8 0029     		cmp	r1, #0
 1118 00aa F5D1     		bne	.L145
 1119              	.LBE116:
 1120              	.LBE115:
 1121              		.loc 1 348 0
 1122 00ac 8A48     		ldr	r0, .L169+52
 1123 00ae 8B4D     		ldr	r5, .L169+56
 1124              	.LVL115:
 1125 00b0 FFF7FEFF 		bl	test_println
 1126              	.LVL116:
 1127              	.LBB117:
 1128              	.LBB118:
ARM GAS  /tmp/cc84Fohq.s 			page 21


 1129              		.loc 1 123 0
 1130 00b4 2A21     		movs	r1, #42
 1131              	.LVL117:
 1132              	.L146:
 1133              		.loc 1 124 0
 1134 00b6 2068     		ldr	r0, [r4]
 1135              	.LVL118:
 1136 00b8 4FF0FF32 		mov	r2, #-1
 1137 00bc 0368     		ldr	r3, [r0]
 1138 00be 1B69     		ldr	r3, [r3, #16]
 1139 00c0 9847     		blx	r3
 1140              	.LVL119:
 1141              		.loc 1 123 0
 1142 00c2 15F8011F 		ldrb	r1, [r5, #1]!	@ zero_extendqisi2
 1143              	.LVL120:
 1144 00c6 0029     		cmp	r1, #0
 1145 00c8 F5D1     		bne	.L146
 1146              	.LBE118:
 1147              	.LBE117:
 1148              		.loc 1 352 0
 1149 00ca 8548     		ldr	r0, .L169+60
 1150 00cc 854D     		ldr	r5, .L169+64
 1151              	.LVL121:
 1152 00ce FFF7FEFF 		bl	test_println
 1153              	.LVL122:
 1154              	.LBB119:
 1155              	.LBB120:
 1156              		.loc 1 123 0
 1157 00d2 2A21     		movs	r1, #42
 1158              	.LVL123:
 1159              	.L147:
 1160              		.loc 1 124 0
 1161 00d4 2068     		ldr	r0, [r4]
 1162              	.LVL124:
 1163 00d6 4FF0FF32 		mov	r2, #-1
 1164 00da 0368     		ldr	r3, [r0]
 1165 00dc 1B69     		ldr	r3, [r3, #16]
 1166 00de 9847     		blx	r3
 1167              	.LVL125:
 1168              		.loc 1 123 0
 1169 00e0 15F8011F 		ldrb	r1, [r5, #1]!	@ zero_extendqisi2
 1170              	.LVL126:
 1171 00e4 0029     		cmp	r1, #0
 1172 00e6 F5D1     		bne	.L147
 1173              	.LBE120:
 1174              	.LBE119:
 1175              		.loc 1 356 0
 1176 00e8 7F48     		ldr	r0, .L169+68
 1177 00ea 804D     		ldr	r5, .L169+72
 1178              	.LVL127:
 1179 00ec FFF7FEFF 		bl	test_println
 1180              	.LVL128:
 1181              	.LBB121:
 1182              	.LBB122:
 1183              		.loc 1 123 0
 1184 00f0 2A21     		movs	r1, #42
 1185              	.LVL129:
ARM GAS  /tmp/cc84Fohq.s 			page 22


 1186              	.L148:
 1187              		.loc 1 124 0
 1188 00f2 2068     		ldr	r0, [r4]
 1189              	.LVL130:
 1190 00f4 4FF0FF32 		mov	r2, #-1
 1191 00f8 0368     		ldr	r3, [r0]
 1192 00fa 1B69     		ldr	r3, [r3, #16]
 1193 00fc 9847     		blx	r3
 1194              	.LVL131:
 1195              		.loc 1 123 0
 1196 00fe 15F8011F 		ldrb	r1, [r5, #1]!	@ zero_extendqisi2
 1197              	.LVL132:
 1198 0102 0029     		cmp	r1, #0
 1199 0104 F5D1     		bne	.L148
 1200              	.LBE122:
 1201              	.LBE121:
 1202              		.loc 1 360 0
 1203 0106 7A48     		ldr	r0, .L169+76
 1204 0108 0191     		str	r1, [sp, #4]
 1205 010a FFF7FEFF 		bl	test_println
 1206              	.LVL133:
 1207              		.loc 1 362 0
 1208 010e 6648     		ldr	r0, .L169+4
 1209 0110 FFF7FEFF 		bl	test_println
 1210              	.LVL134:
 1211              		.loc 1 365 0
 1212 0114 0199     		ldr	r1, [sp, #4]
 1213              		.loc 1 364 0
 1214 0116 774A     		ldr	r2, .L169+80
 1215 0118 774B     		ldr	r3, .L169+84
 1216 011a 784F     		ldr	r7, .L169+88
 1217              	.LBB123:
 1218              	.LBB124:
 1219              		.loc 1 124 0
 1220 011c DFF884B1 		ldr	fp, .L169
 1221              	.LBE124:
 1222              	.LBE123:
 1223              		.loc 1 365 0
 1224 0120 0291     		str	r1, [sp, #8]
 1225              		.loc 1 364 0
 1226 0122 1160     		str	r1, [r2]
 1227              	.LVL135:
 1228 0124 0393     		str	r3, [sp, #12]
 1229              	.LVL136:
 1230              	.L149:
 1231 0126 029B     		ldr	r3, [sp, #8]
 1232              	.LBB126:
 1233              	.LBB127:
 1234              		.loc 1 123 0 discriminator 1
 1235 0128 4FF00008 		mov	r8, #0
 1236 012c 0133     		adds	r3, r3, #1
 1237 012e 0293     		str	r3, [sp, #8]
 1238              	.LVL137:
 1239              	.L138:
 1240              	.LBE127:
 1241              	.LBE126:
 1242              		.loc 1 368 0 discriminator 1
ARM GAS  /tmp/cc84Fohq.s 			page 23


 1243 0130 57F8043B 		ldr	r3, [r7], #4
 1244 0134 002B     		cmp	r3, #0
 1245 0136 00F09880 		beq	.L167
 1246              	.L136:
 1247 013a 714D     		ldr	r5, .L169+92
 1248              		.loc 1 369 0
 1249 013c FFF7FEFF 		bl	print_line
 1250              	.LVL138:
 1251              	.LBB129:
 1252              	.LBB125:
 1253              		.loc 1 123 0
 1254 0140 2D21     		movs	r1, #45
 1255              	.LVL139:
 1256              	.L120:
 1257              		.loc 1 124 0
 1258 0142 2068     		ldr	r0, [r4]
 1259              	.LVL140:
 1260 0144 4FF0FF32 		mov	r2, #-1
 1261 0148 0368     		ldr	r3, [r0]
 1262 014a 1B69     		ldr	r3, [r3, #16]
 1263 014c 9847     		blx	r3
 1264              	.LVL141:
 1265              		.loc 1 123 0
 1266 014e 15F8011F 		ldrb	r1, [r5, #1]!	@ zero_extendqisi2
 1267              	.LVL142:
 1268 0152 0029     		cmp	r1, #0
 1269 0154 F5D1     		bne	.L120
 1270              	.LBE125:
 1271              	.LBE129:
 1272              		.loc 1 371 0
 1273 0156 0298     		ldr	r0, [sp, #8]
 1274 0158 FFF7FEFF 		bl	test_printn
 1275              	.LVL143:
 1276              	.LBB130:
 1277              	.LBB131:
 1278              		.loc 1 124 0
 1279 015c DBF80000 		ldr	r0, [fp]
 1280              	.LVL144:
 1281 0160 2E21     		movs	r1, #46
 1282 0162 0368     		ldr	r3, [r0]
 1283 0164 4FF0FF32 		mov	r2, #-1
 1284 0168 1B69     		ldr	r3, [r3, #16]
 1285              	.LBE131:
 1286              	.LBE130:
 1287              		.loc 1 373 0
 1288 016a 08F10108 		add	r8, r8, #1
 1289              	.LVL145:
 1290              	.LBB133:
 1291              	.LBB132:
 1292              		.loc 1 124 0
 1293 016e 9847     		blx	r3
 1294              	.LVL146:
 1295 0170 644D     		ldr	r5, .L169+96
 1296              	.LVL147:
 1297              	.LBE132:
 1298              	.LBE133:
 1299              		.loc 1 373 0
ARM GAS  /tmp/cc84Fohq.s 			page 24


 1300 0172 4046     		mov	r0, r8
 1301 0174 FFF7FEFF 		bl	test_printn
 1302              	.LVL148:
 1303              	.LBB134:
 1304              	.LBB135:
 1305              		.loc 1 123 0
 1306 0178 2021     		movs	r1, #32
 1307              	.LVL149:
 1308              	.L150:
 1309              		.loc 1 124 0
 1310 017a 2068     		ldr	r0, [r4]
 1311              	.LVL150:
 1312 017c 4FF0FF32 		mov	r2, #-1
 1313 0180 0368     		ldr	r3, [r0]
 1314 0182 1B69     		ldr	r3, [r3, #16]
 1315 0184 9847     		blx	r3
 1316              	.LVL151:
 1317              		.loc 1 123 0
 1318 0186 15F8011F 		ldrb	r1, [r5, #1]!	@ zero_extendqisi2
 1319              	.LVL152:
 1320 018a 0029     		cmp	r1, #0
 1321 018c F5D1     		bne	.L150
 1322              	.LBE135:
 1323              	.LBE134:
 1324              		.loc 1 375 0
 1325 018e 57F8043C 		ldr	r3, [r7, #-4]
 1326 0192 1D68     		ldr	r5, [r3]
 1327              	.LVL153:
 1328              	.LBB136:
 1329              	.LBB137:
 1330              		.loc 1 123 0
 1331 0194 2978     		ldrb	r1, [r5]	@ zero_extendqisi2
 1332 0196 49B1     		cbz	r1, .L125
 1333              	.LVL154:
 1334              	.L126:
 1335              		.loc 1 124 0
 1336 0198 2068     		ldr	r0, [r4]
 1337              	.LVL155:
 1338 019a 4FF0FF32 		mov	r2, #-1
 1339 019e 0368     		ldr	r3, [r0]
 1340 01a0 1B69     		ldr	r3, [r3, #16]
 1341 01a2 9847     		blx	r3
 1342              	.LVL156:
 1343              		.loc 1 123 0
 1344 01a4 15F8011F 		ldrb	r1, [r5, #1]!	@ zero_extendqisi2
 1345              	.LVL157:
 1346 01a8 0029     		cmp	r1, #0
 1347 01aa F5D1     		bne	.L126
 1348              	.LVL158:
 1349              	.L125:
 1350              	.LBE137:
 1351              	.LBE136:
 1352              		.loc 1 376 0
 1353 01ac 5648     		ldr	r0, .L169+100
 1354 01ae FFF7FEFF 		bl	test_println
 1355              	.LVL159:
 1356              		.loc 1 378 0
ARM GAS  /tmp/cc84Fohq.s 			page 25


 1357 01b2 C820     		movs	r0, #200
 1358 01b4 FFF7FEFF 		bl	chThdSleep
 1359              	.LVL160:
 1360              	.LBB138:
 1361              	.LBB139:
 1362              		.loc 1 303 0
 1363 01b8 544A     		ldr	r2, .L169+104
 1364              	.LBE139:
 1365              	.LBE138:
 1366              		.loc 1 380 0
 1367 01ba 57F804AC 		ldr	r10, [r7, #-4]
 1368              	.LVL161:
 1369              	.LBB145:
 1370              	.LBB144:
 1371              		.loc 1 301 0
 1372 01be 0023     		movs	r3, #0
 1373              		.loc 1 303 0
 1374 01c0 1360     		str	r3, [r2]
 1375 01c2 5360     		str	r3, [r2, #4]
 1376 01c4 9360     		str	r3, [r2, #8]
 1377 01c6 D360     		str	r3, [r2, #12]
 1378 01c8 1361     		str	r3, [r2, #16]
 1379              		.loc 1 301 0
 1380 01ca DFF85C91 		ldr	r9, .L169+132
 1381              	.LBB140:
 1382              	.LBB141:
 1383              		.loc 1 144 0
 1384 01ce 504E     		ldr	r6, .L169+108
 1385 01d0 504D     		ldr	r5, .L169+112
 1386              	.LBE141:
 1387              	.LBE140:
 1388              		.loc 1 305 0
 1389 01d2 DAF80420 		ldr	r2, [r10, #4]
 1390              		.loc 1 301 0
 1391 01d6 C9F80030 		str	r3, [r9]
 1392              	.LVL162:
 1393              	.LBB143:
 1394              	.LBB142:
 1395              		.loc 1 144 0
 1396 01da 3560     		str	r5, [r6]
 1397              	.LBE142:
 1398              	.LBE143:
 1399              		.loc 1 305 0
 1400 01dc 02B1     		cbz	r2, .L124
 1401              		.loc 1 306 0
 1402 01de 9047     		blx	r2
 1403              	.LVL163:
 1404              	.L124:
 1405              		.loc 1 307 0
 1406 01e0 DAF80C30 		ldr	r3, [r10, #12]
 1407 01e4 9847     		blx	r3
 1408              	.LVL164:
 1409              		.loc 1 308 0
 1410 01e6 DAF80830 		ldr	r3, [r10, #8]
 1411 01ea 03B1     		cbz	r3, .L127
 1412              		.loc 1 309 0
 1413 01ec 9847     		blx	r3
ARM GAS  /tmp/cc84Fohq.s 			page 26


 1414              	.LVL165:
 1415              	.L127:
 1416              		.loc 1 311 0
 1417 01ee FFF7FEFF 		bl	test_wait_threads
 1418              	.LVL166:
 1419              	.LBE144:
 1420              	.LBE145:
 1421              		.loc 1 381 0
 1422 01f2 D9F80030 		ldr	r3, [r9]
 1423 01f6 002B     		cmp	r3, #0
 1424 01f8 00F0A480 		beq	.L128
 1425 01fc DFF82C91 		ldr	r9, .L169+136
 1426              	.LBB146:
 1427              	.LBB147:
 1428              		.loc 1 123 0
 1429 0200 2D21     		movs	r1, #45
 1430              	.L130:
 1431              	.LVL167:
 1432              		.loc 1 124 0
 1433 0202 2068     		ldr	r0, [r4]
 1434              	.LVL168:
 1435 0204 4FF0FF32 		mov	r2, #-1
 1436 0208 0368     		ldr	r3, [r0]
 1437 020a 1B69     		ldr	r3, [r3, #16]
 1438 020c 9847     		blx	r3
 1439              	.LVL169:
 1440              		.loc 1 123 0
 1441 020e 19F8011F 		ldrb	r1, [r9, #1]!	@ zero_extendqisi2
 1442              	.LVL170:
 1443 0212 0029     		cmp	r1, #0
 1444 0214 F5D1     		bne	.L130
 1445              	.LBE147:
 1446              	.LBE146:
 1447              		.loc 1 383 0
 1448 0216 404B     		ldr	r3, .L169+116
 1449 0218 DFF81491 		ldr	r9, .L169+140
 1450              	.LVL171:
 1451 021c 1868     		ldr	r0, [r3]
 1452 021e FFF7FEFF 		bl	test_printn
 1453              	.LVL172:
 1454              	.LBB148:
 1455              	.LBB128:
 1456              		.loc 1 123 0
 1457 0222 2021     		movs	r1, #32
 1458              	.LVL173:
 1459              	.L151:
 1460              		.loc 1 124 0
 1461 0224 2068     		ldr	r0, [r4]
 1462              	.LVL174:
 1463 0226 4FF0FF32 		mov	r2, #-1
 1464 022a 0368     		ldr	r3, [r0]
 1465 022c 1B69     		ldr	r3, [r3, #16]
 1466 022e 9847     		blx	r3
 1467              	.LVL175:
 1468              		.loc 1 123 0
 1469 0230 19F8011F 		ldrb	r1, [r9, #1]!	@ zero_extendqisi2
 1470              	.LVL176:
ARM GAS  /tmp/cc84Fohq.s 			page 27


 1471 0234 0029     		cmp	r1, #0
 1472 0236 F5D1     		bne	.L151
 1473              	.LVL177:
 1474              	.LBE128:
 1475              	.LBE148:
 1476              	.LBB149:
 1477              	.LBB150:
 1478              		.loc 1 150 0
 1479 0238 3368     		ldr	r3, [r6]
 1480 023a AB42     		cmp	r3, r5
 1481 023c 0DD9     		bls	.L134
 1482 023e 374D     		ldr	r5, .L169+120
 1483              	.LVL178:
 1484              	.L135:
 1485              		.loc 1 151 0
 1486 0240 2068     		ldr	r0, [r4]
 1487 0242 15F8011C 		ldrb	r1, [r5, #-1]	@ zero_extendqisi2
 1488 0246 0368     		ldr	r3, [r0]
 1489 0248 4FF0FF32 		mov	r2, #-1
 1490 024c 1B69     		ldr	r3, [r3, #16]
 1491 024e 9847     		blx	r3
 1492              	.LVL179:
 1493              		.loc 1 150 0
 1494 0250 3368     		ldr	r3, [r6]
 1495              	.LVL180:
 1496 0252 9D42     		cmp	r5, r3
 1497 0254 05F10105 		add	r5, r5, #1
 1498              	.LVL181:
 1499 0258 F2D3     		bcc	.L135
 1500              	.LVL182:
 1501              	.L134:
 1502              	.LBE150:
 1503              	.LBE149:
 1504              		.loc 1 386 0
 1505 025a 3148     		ldr	r0, .L169+124
 1506 025c FFF7FEFF 		bl	test_println
 1507              	.LVL183:
 1508              		.loc 1 368 0
 1509 0260 57F8043B 		ldr	r3, [r7], #4
 1510 0264 002B     		cmp	r3, #0
 1511 0266 7FF468AF 		bne	.L136
 1512              	.LVL184:
 1513              	.L167:
 1514              		.loc 1 366 0
 1515 026a 039B     		ldr	r3, [sp, #12]
 1516 026c 53F8047F 		ldr	r7, [r3, #4]!
 1517 0270 0393     		str	r3, [sp, #12]
 1518 0272 002F     		cmp	r7, #0
 1519 0274 7FF457AF 		bne	.L149
 1520              		.loc 1 394 0
 1521 0278 FFF7FEFF 		bl	print_line
 1522              	.LVL185:
 1523 027c 294D     		ldr	r5, .L169+128
 1524              		.loc 1 395 0
 1525 027e 0A48     		ldr	r0, .L169+4
 1526 0280 FFF7FEFF 		bl	test_println
 1527              	.LVL186:
ARM GAS  /tmp/cc84Fohq.s 			page 28


 1528              	.LBB151:
 1529              	.LBB152:
 1530              		.loc 1 123 0
 1531 0284 4621     		movs	r1, #70
 1532              	.LVL187:
 1533              	.L152:
 1534              		.loc 1 124 0
 1535 0286 2068     		ldr	r0, [r4]
 1536              	.LVL188:
 1537 0288 4FF0FF32 		mov	r2, #-1
 1538 028c 0368     		ldr	r3, [r0]
 1539 028e 1B69     		ldr	r3, [r3, #16]
 1540 0290 9847     		blx	r3
 1541              	.LVL189:
 1542              		.loc 1 123 0
 1543 0292 15F8011F 		ldrb	r1, [r5, #1]!	@ zero_extendqisi2
 1544              	.LVL190:
 1545 0296 0029     		cmp	r1, #0
 1546 0298 F5D1     		bne	.L152
 1547              	.LBE152:
 1548              	.LBE151:
 1549              		.loc 1 397 0
 1550 029a 164A     		ldr	r2, .L169+80
 1551 029c 1368     		ldr	r3, [r2]
 1552 029e 002B     		cmp	r3, #0
 1553 02a0 54D1     		bne	.L168
 1554 02a2 47E0     		b	.L170
 1555              	.L171:
 1556              		.align	2
 1557              	.L169:
 1558 02a4 00000000 		.word	.LANCHOR1
 1559 02a8 00000000 		.word	.LC0
 1560 02ac 04000000 		.word	.LC1
 1561 02b0 24000000 		.word	.LC3
 1562 02b4 20000000 		.word	.LC2
 1563 02b8 8C000000 		.word	.LC11
 1564 02bc 94000000 		.word	.LC12
 1565 02c0 A8000000 		.word	.LC13
 1566 02c4 C0000000 		.word	.LC14
 1567 02c8 D4000000 		.word	.LC15
 1568 02cc 1C010000 		.word	.LC16
 1569 02d0 30010000 		.word	.LC17
 1570 02d4 38010000 		.word	.LC18
 1571 02d8 4C010000 		.word	.LC19
 1572 02dc 58010000 		.word	.LC20
 1573 02e0 6C010000 		.word	.LC21
 1574 02e4 84010000 		.word	.LC22
 1575 02e8 98010000 		.word	.LC23
 1576 02ec A0010000 		.word	.LC24
 1577 02f0 B4010000 		.word	.LC25
 1578 02f4 00000000 		.word	.LANCHOR4
 1579 02f8 00000000 		.word	.LANCHOR9
 1580 02fc 00000000 		.word	patternthd
 1581 0300 38000000 		.word	.LC4
 1582 0304 D0010000 		.word	.LC26
 1583 0308 48000000 		.word	.LC5
 1584 030c 00000000 		.word	.LANCHOR7
ARM GAS  /tmp/cc84Fohq.s 			page 29


 1585 0310 00000000 		.word	.LANCHOR2
 1586 0314 00000000 		.word	.LANCHOR6
 1587 0318 00000000 		.word	.LANCHOR5
 1588 031c 01000000 		.word	.LANCHOR6+1
 1589 0320 64000000 		.word	.LC7
 1590 0324 D8010000 		.word	.LC28
 1591 0328 00000000 		.word	.LANCHOR3
 1592 032c 4C000000 		.word	.LC6
 1593 0330 D4010000 		.word	.LC27
 1594              	.L170:
 1595              		.loc 1 400 0
 1596 0334 0948     		ldr	r0, .L172
 1597 0336 FFF7FEFF 		bl	test_println
 1598              	.LVL191:
 1599              		.loc 1 402 0
 1600 033a 094B     		ldr	r3, .L172+4
 1601 033c 1868     		ldr	r0, [r3]
 1602              		.loc 1 403 0
 1603 033e 05B0     		add	sp, sp, #20
 1604              		@ sp needed
 1605 0340 BDE8F08F 		pop	{r4, r5, r6, r7, r8, r9, r10, fp, pc}
 1606              	.LVL192:
 1607              	.L128:
 1608              		.loc 1 389 0
 1609 0344 0748     		ldr	r0, .L172+8
 1610 0346 FFF7FEFF 		bl	test_println
 1611              	.LVL193:
 1612 034a F1E6     		b	.L138
 1613              	.LVL194:
 1614              	.L168:
 1615              		.loc 1 398 0
 1616 034c 0648     		ldr	r0, .L172+12
 1617 034e FFF7FEFF 		bl	test_println
 1618              	.LVL195:
 1619              		.loc 1 402 0
 1620 0352 034B     		ldr	r3, .L172+4
 1621 0354 1868     		ldr	r0, [r3]
 1622              		.loc 1 403 0
 1623 0356 05B0     		add	sp, sp, #20
 1624              		@ sp needed
 1625 0358 BDE8F08F 		pop	{r4, r5, r6, r7, r8, r9, r10, fp, pc}
 1626              	.LVL196:
 1627              	.L173:
 1628              		.align	2
 1629              	.L172:
 1630 035c 84000000 		.word	.LC10
 1631 0360 00000000 		.word	.LANCHOR4
 1632 0364 68000000 		.word	.LC8
 1633 0368 7C000000 		.word	.LC9
 1634              		.cfi_endproc
 1635              	.LFE54:
 1636              		.size	TestThread, .-TestThread
 1637              		.global	test_timer_done
 1638              		.global	wa
 1639              		.global	threads
 1640              		.global	test
 1641 036c AFF30080 		.section	.bss.test,"aw",%nobits
ARM GAS  /tmp/cc84Fohq.s 			page 30


 1642              		.align	3
 1643              		.type	test, %object
 1644              		.size	test, 1520
 1645              	test:
 1646 0000 00000000 		.space	1520
 1646      00000000 
 1646      00000000 
 1646      00000000 
 1646      00000000 
 1647              		.section	.bss.failpoint,"aw",%nobits
 1648              		.align	2
 1649              		.set	.LANCHOR5,. + 0
 1650              		.type	failpoint, %object
 1651              		.size	failpoint, 4
 1652              	failpoint:
 1653 0000 00000000 		.space	4
 1654              		.section	.bss.local_fail,"aw",%nobits
 1655              		.align	2
 1656              		.set	.LANCHOR3,. + 0
 1657              		.type	local_fail, %object
 1658              		.size	local_fail, 4
 1659              	local_fail:
 1660 0000 00000000 		.space	4
 1661              		.section	.bss.test_timer_done,"aw",%nobits
 1662              		.align	2
 1663              		.set	.LANCHOR0,. + 0
 1664              		.type	test_timer_done, %object
 1665              		.size	test_timer_done, 4
 1666              	test_timer_done:
 1667 0000 00000000 		.space	4
 1668              		.section	.rodata.wa,"a",%progbits
 1669              		.align	2
 1670              		.type	wa, %object
 1671              		.size	wa, 20
 1672              	wa:
 1673 0000 00000000 		.word	test
 1674 0004 30010000 		.word	test+304
 1675 0008 60020000 		.word	test+608
 1676 000c 90030000 		.word	test+912
 1677 0010 C0040000 		.word	test+1216
 1678              		.section	.bss.tokp,"aw",%nobits
 1679              		.align	2
 1680              		.set	.LANCHOR2,. + 0
 1681              		.type	tokp, %object
 1682              		.size	tokp, 4
 1683              	tokp:
 1684 0000 00000000 		.space	4
 1685              		.section	.bss.global_fail,"aw",%nobits
 1686              		.align	2
 1687              		.set	.LANCHOR4,. + 0
 1688              		.type	global_fail, %object
 1689              		.size	global_fail, 4
 1690              	global_fail:
 1691 0000 00000000 		.space	4
 1692              		.section	.rodata.str1.4,"aMS",%progbits,1
 1693              		.align	2
 1694              	.LC0:
ARM GAS  /tmp/cc84Fohq.s 			page 31


 1695 0000 00       		.ascii	"\000"
 1696 0001 000000   		.space	3
 1697              	.LC1:
 1698 0004 2A2A2A20 		.ascii	"*** ChibiOS/RT test suite\000"
 1698      43686962 
 1698      694F532F 
 1698      52542074 
 1698      65737420 
 1699 001e 0000     		.space	2
 1700              	.LC2:
 1701 0020 2A2A2A00 		.ascii	"***\000"
 1702              	.LC3:
 1703 0024 2A2A2A20 		.ascii	"*** Kernel:       \000"
 1703      4B65726E 
 1703      656C3A20 
 1703      20202020 
 1703      202000
 1704 0037 00       		.space	1
 1705              	.LC4:
 1706 0038 2D2D2D20 		.ascii	"--- Test Case \000"
 1706      54657374 
 1706      20436173 
 1706      652000
 1707 0047 00       		.space	1
 1708              	.LC5:
 1709 0048 2900     		.ascii	")\000"
 1710 004a 0000     		.space	2
 1711              	.LC6:
 1712 004c 2D2D2D20 		.ascii	"--- Result: FAILURE (#\000"
 1712      52657375 
 1712      6C743A20 
 1712      4641494C 
 1712      55524520 
 1713 0063 00       		.space	1
 1714              	.LC7:
 1715 0064 5D2900   		.ascii	"])\000"
 1716 0067 00       		.space	1
 1717              	.LC8:
 1718 0068 2D2D2D20 		.ascii	"--- Result: SUCCESS\000"
 1718      52657375 
 1718      6C743A20 
 1718      53554343 
 1718      45535300 
 1719              	.LC9:
 1720 007c 4641494C 		.ascii	"FAILURE\000"
 1720      55524500 
 1721              	.LC10:
 1722 0084 53554343 		.ascii	"SUCCESS\000"
 1722      45535300 
 1723              	.LC11:
 1724 008c 322E342E 		.ascii	"2.4.2\000"
 1724      3200
 1725 0092 0000     		.space	2
 1726              	.LC12:
 1727 0094 2A2A2A20 		.ascii	"*** Compiled:     \000"
 1727      436F6D70 
 1727      696C6564 
ARM GAS  /tmp/cc84Fohq.s 			page 32


 1727      3A202020 
 1727      202000
 1728 00a7 00       		.space	1
 1729              	.LC13:
 1730 00a8 46656220 		.ascii	"Feb  2 2016 - 14:18:13\000"
 1730      20322032 
 1730      30313620 
 1730      2D203134 
 1730      3A31383A 
 1731 00bf 00       		.space	1
 1732              	.LC14:
 1733 00c0 2A2A2A20 		.ascii	"*** Compiler:     \000"
 1733      436F6D70 
 1733      696C6572 
 1733      3A202020 
 1733      202000
 1734 00d3 00       		.space	1
 1735              	.LC15:
 1736 00d4 47434320 		.ascii	"GCC 4.8.4 20140526 (release) [ARM/embedded-4_8-bran"
 1736      342E382E 
 1736      34203230 
 1736      31343035 
 1736      32362028 
 1737 0107 63682072 		.ascii	"ch revision 211358]\000"
 1737      65766973 
 1737      696F6E20 
 1737      32313133 
 1737      35385D00 
 1738 011b 00       		.space	1
 1739              	.LC16:
 1740 011c 2A2A2A20 		.ascii	"*** Architecture: \000"
 1740      41726368 
 1740      69746563 
 1740      74757265 
 1740      3A2000
 1741 012f 00       		.space	1
 1742              	.LC17:
 1743 0130 41524D76 		.ascii	"ARMv7-M\000"
 1743      372D4D00 
 1744              	.LC18:
 1745 0138 2A2A2A20 		.ascii	"*** Core Variant: \000"
 1745      436F7265 
 1745      20566172 
 1745      69616E74 
 1745      3A2000
 1746 014b 00       		.space	1
 1747              	.LC19:
 1748 014c 436F7274 		.ascii	"Cortex-M3\000"
 1748      65782D4D 
 1748      3300
 1749 0156 0000     		.space	2
 1750              	.LC20:
 1751 0158 2A2A2A20 		.ascii	"*** Port Info:    \000"
 1751      506F7274 
 1751      20496E66 
 1751      6F3A2020 
 1751      202000
ARM GAS  /tmp/cc84Fohq.s 			page 33


 1752 016b 00       		.space	1
 1753              	.LC21:
 1754 016c 41647661 		.ascii	"Advanced kernel mode\000"
 1754      6E636564 
 1754      206B6572 
 1754      6E656C20 
 1754      6D6F6465 
 1755 0181 000000   		.space	3
 1756              	.LC22:
 1757 0184 2A2A2A20 		.ascii	"*** Platform:     \000"
 1757      506C6174 
 1757      666F726D 
 1757      3A202020 
 1757      202000
 1758 0197 00       		.space	1
 1759              	.LC23:
 1760 0198 53414D33 		.ascii	"SAM3\000"
 1760      00
 1761 019d 000000   		.space	3
 1762              	.LC24:
 1763 01a0 2A2A2A20 		.ascii	"*** Test Board:   \000"
 1763      54657374 
 1763      20426F61 
 1763      72643A20 
 1763      202000
 1764 01b3 00       		.space	1
 1765              	.LC25:
 1766 01b4 41746D65 		.ascii	"Atmel SAM3S-EK (SAM3S4C)\000"
 1766      6C205341 
 1766      4D33532D 
 1766      454B2028 
 1766      53414D33 
 1767 01cd 000000   		.space	3
 1768              	.LC26:
 1769 01d0 202800   		.ascii	" (\000"
 1770 01d3 00       		.space	1
 1771              	.LC27:
 1772 01d4 205B00   		.ascii	" [\000"
 1773 01d7 00       		.space	1
 1774              	.LC28:
 1775 01d8 46696E61 		.ascii	"Final result: \000"
 1775      6C207265 
 1775      73756C74 
 1775      3A2000
 1776 01e7 00       		.section	.bss.vt,"aw",%nobits
 1777              		.align	2
 1778              		.set	.LANCHOR8,. + 0
 1779              		.type	vt, %object
 1780              		.size	vt, 20
 1781              	vt:
 1782 0000 00000000 		.space	20
 1782      00000000 
 1782      00000000 
 1782      00000000 
 1782      00000000 
 1783              		.section	.bss.threads,"aw",%nobits
 1784              		.align	2
ARM GAS  /tmp/cc84Fohq.s 			page 34


 1785              		.set	.LANCHOR7,. + 0
 1786              		.type	threads, %object
 1787              		.size	threads, 20
 1788              	threads:
 1789 0000 00000000 		.space	20
 1789      00000000 
 1789      00000000 
 1789      00000000 
 1789      00000000 
 1790              		.section	.rodata.patterns,"a",%progbits
 1791              		.align	2
 1792              		.set	.LANCHOR9,. + 0
 1793              		.type	patterns, %object
 1794              		.size	patterns, 48
 1795              	patterns:
 1796 0000 00000000 		.word	patternthd
 1797 0004 00000000 		.word	patternsem
 1798 0008 00000000 		.word	patternmtx
 1799 000c 00000000 		.word	patternmsg
 1800 0010 00000000 		.word	patternmbox
 1801 0014 00000000 		.word	patternevt
 1802 0018 00000000 		.word	patternheap
 1803 001c 00000000 		.word	patternpools
 1804 0020 00000000 		.word	patterndyn
 1805 0024 00000000 		.word	patternqueues
 1806 0028 00000000 		.word	patternbmk
 1807 002c 00000000 		.word	0
 1808              		.section	.bss.chp,"aw",%nobits
 1809              		.align	2
 1810              		.set	.LANCHOR1,. + 0
 1811              		.type	chp, %object
 1812              		.size	chp, 4
 1813              	chp:
 1814 0000 00000000 		.space	4
 1815              		.section	.bss.tokens_buffer,"aw",%nobits
 1816              		.align	2
 1817              		.set	.LANCHOR6,. + 0
 1818              		.type	tokens_buffer, %object
 1819              		.size	tokens_buffer, 16
 1820              	tokens_buffer:
 1821 0000 00000000 		.space	16
 1821      00000000 
 1821      00000000 
 1821      00000000 
 1822              		.text
 1823              	.Letext0:
 1824              		.file 2 "/usr/local/gcc-arm-none-eabi-4_8-2014q2/lib/gcc/arm-none-eabi/4.8.4/include/stddef.h"
 1825              		.file 3 "/usr/local/gcc-arm-none-eabi-4_8-2014q2/arm-none-eabi/include/machine/_default_types.h"
 1826              		.file 4 "/usr/local/gcc-arm-none-eabi-4_8-2014q2/arm-none-eabi/include/stdint.h"
 1827              		.file 5 "../../os/ports/GCC/ARMCMx/chtypes.h"
 1828              		.file 6 "../../os/kernel/include/chlists.h"
 1829              		.file 7 "../../os/kernel/include/chthreads.h"
 1830              		.file 8 "../../os/ports/GCC/ARMCMx/chcore_v7m.h"
 1831              		.file 9 "../../os/kernel/include/chvt.h"
 1832              		.file 10 "../../os/kernel/include/chschd.h"
 1833              		.file 11 "../../os/kernel/include/chmtx.h"
 1834              		.file 12 "../../os/kernel/include/chioch.h"
ARM GAS  /tmp/cc84Fohq.s 			page 35


 1835              		.file 13 "../../test/test.h"
 1836              		.file 14 "../../os/hal/platforms/AT91SAM3S/core_cm3.h"
 1837              		.file 15 "../../test/testthd.h"
 1838              		.file 16 "../../test/testsem.h"
 1839              		.file 17 "../../test/testmtx.h"
 1840              		.file 18 "../../test/testmsg.h"
 1841              		.file 19 "../../test/testmbox.h"
 1842              		.file 20 "../../test/testevt.h"
 1843              		.file 21 "../../test/testheap.h"
 1844              		.file 22 "../../test/testpools.h"
 1845              		.file 23 "../../test/testdyn.h"
 1846              		.file 24 "../../test/testqueues.h"
 1847              		.file 25 "../../test/testbmk.h"