ARM GAS  /tmp/cchhB1FD.s 			page 1


   1              		.syntax unified
   2              		.cpu cortex-m3
   3              		.fpu softvfp
   4              		.eabi_attribute 20, 1
   5              		.eabi_attribute 21, 1
   6              		.eabi_attribute 23, 3
   7              		.eabi_attribute 24, 1
   8              		.eabi_attribute 25, 1
   9              		.eabi_attribute 26, 1
  10              		.eabi_attribute 30, 2
  11              		.eabi_attribute 34, 1
  12              		.eabi_attribute 18, 4
  13              		.thumb
  14              		.file	"testthd.c"
  15              		.text
  16              	.Ltext0:
  17              		.cfi_sections	.debug_frame
  18              		.section	.text.thd1_execute,"ax",%progbits
  19              		.align	2
  20              		.p2align 4,,15
  21              		.thumb
  22              		.thumb_func
  23              		.type	thd1_execute, %function
  24              	thd1_execute:
  25              	.LFB8:
  26              		.file 1 "ChibiOS//test/testthd.c"
  27              		.loc 1 77 0
  28              		.cfi_startproc
  29              		@ args = 0, pretend = 0, frame = 0
  30              		@ frame_needed = 0, uses_anonymous_args = 0
  31 0000 F0B5     		push	{r4, r5, r6, r7, lr}
  32              		.cfi_def_cfa_offset 20
  33              		.cfi_offset 4, -20
  34              		.cfi_offset 5, -16
  35              		.cfi_offset 6, -12
  36              		.cfi_offset 7, -8
  37              		.cfi_offset 14, -4
  38              		.loc 1 79 0
  39 0002 274F     		ldr	r7, .L3
  40 0004 274E     		ldr	r6, .L3+4
  41 0006 FB69     		ldr	r3, [r7, #28]
  42 0008 274D     		ldr	r5, .L3+8
  43 000a 9A68     		ldr	r2, [r3, #8]
  44 000c 2749     		ldr	r1, .L3+12
  45              		.loc 1 77 0
  46 000e 83B0     		sub	sp, sp, #12
  47              		.cfi_def_cfa_offset 32
  48              		.loc 1 79 0
  49 0010 2B46     		mov	r3, r5
  50 0012 0091     		str	r1, [sp]
  51 0014 3068     		ldr	r0, [r6]
  52 0016 053A     		subs	r2, r2, #5
  53 0018 4FF49871 		mov	r1, #304
  54 001c FFF7FEFF 		bl	chThdCreateStatic
  55              	.LVL0:
  56              		.loc 1 80 0
  57 0020 FB69     		ldr	r3, [r7, #28]
ARM GAS  /tmp/cchhB1FD.s 			page 2


  58              		.loc 1 79 0
  59 0022 234C     		ldr	r4, .L3+16
  60              		.loc 1 80 0
  61 0024 9A68     		ldr	r2, [r3, #8]
  62 0026 2349     		ldr	r1, .L3+20
  63 0028 7368     		ldr	r3, [r6, #4]
  64              		.loc 1 79 0
  65 002a 2060     		str	r0, [r4]
  66              		.loc 1 80 0
  67 002c 0091     		str	r1, [sp]
  68 002e 043A     		subs	r2, r2, #4
  69 0030 1846     		mov	r0, r3
  70 0032 4FF49871 		mov	r1, #304
  71 0036 2B46     		mov	r3, r5
  72 0038 FFF7FEFF 		bl	chThdCreateStatic
  73              	.LVL1:
  74              		.loc 1 81 0
  75 003c FA69     		ldr	r2, [r7, #28]
  76 003e B368     		ldr	r3, [r6, #8]
  77 0040 9268     		ldr	r2, [r2, #8]
  78 0042 1D49     		ldr	r1, .L3+24
  79              		.loc 1 80 0
  80 0044 6060     		str	r0, [r4, #4]
  81              		.loc 1 81 0
  82 0046 0091     		str	r1, [sp]
  83 0048 033A     		subs	r2, r2, #3
  84 004a 1846     		mov	r0, r3
  85 004c 4FF49871 		mov	r1, #304
  86 0050 2B46     		mov	r3, r5
  87 0052 FFF7FEFF 		bl	chThdCreateStatic
  88              	.LVL2:
  89              		.loc 1 82 0
  90 0056 FA69     		ldr	r2, [r7, #28]
  91 0058 F368     		ldr	r3, [r6, #12]
  92 005a 9268     		ldr	r2, [r2, #8]
  93 005c 1749     		ldr	r1, .L3+28
  94              		.loc 1 81 0
  95 005e A060     		str	r0, [r4, #8]
  96              		.loc 1 82 0
  97 0060 0091     		str	r1, [sp]
  98 0062 023A     		subs	r2, r2, #2
  99 0064 1846     		mov	r0, r3
 100 0066 4FF49871 		mov	r1, #304
 101 006a 2B46     		mov	r3, r5
 102 006c FFF7FEFF 		bl	chThdCreateStatic
 103              	.LVL3:
 104              		.loc 1 83 0
 105 0070 FA69     		ldr	r2, [r7, #28]
 106 0072 3369     		ldr	r3, [r6, #16]
 107 0074 9268     		ldr	r2, [r2, #8]
 108 0076 1249     		ldr	r1, .L3+32
 109              		.loc 1 82 0
 110 0078 E060     		str	r0, [r4, #12]
 111              		.loc 1 83 0
 112 007a 013A     		subs	r2, r2, #1
 113 007c 0091     		str	r1, [sp]
 114 007e 1846     		mov	r0, r3
ARM GAS  /tmp/cchhB1FD.s 			page 3


 115 0080 4FF49871 		mov	r1, #304
 116 0084 2B46     		mov	r3, r5
 117 0086 FFF7FEFF 		bl	chThdCreateStatic
 118              	.LVL4:
 119 008a 2061     		str	r0, [r4, #16]
 120              		.loc 1 84 0
 121 008c FFF7FEFF 		bl	test_wait_threads
 122              	.LVL5:
 123              		.loc 1 85 0
 124 0090 0C49     		ldr	r1, .L3+36
 125 0092 0120     		movs	r0, #1
 126              		.loc 1 86 0
 127 0094 03B0     		add	sp, sp, #12
 128              		.cfi_def_cfa_offset 20
 129              		@ sp needed
 130 0096 BDE8F040 		pop	{r4, r5, r6, r7, lr}
 131              		.cfi_restore 14
 132              		.cfi_restore 7
 133              		.cfi_restore 6
 134              		.cfi_restore 5
 135              		.cfi_restore 4
 136              		.cfi_def_cfa_offset 0
 137              		.loc 1 85 0
 138 009a FFF7FEBF 		b	_test_assert_sequence
 139              	.LVL6:
 140              	.L4:
 141 009e 00BF     		.align	2
 142              	.L3:
 143 00a0 00000000 		.word	rlist
 144 00a4 00000000 		.word	wa
 145 00a8 00000000 		.word	thread
 146 00ac 00000000 		.word	.LC0
 147 00b0 00000000 		.word	threads
 148 00b4 04000000 		.word	.LC1
 149 00b8 08000000 		.word	.LC2
 150 00bc 0C000000 		.word	.LC3
 151 00c0 10000000 		.word	.LC4
 152 00c4 14000000 		.word	.LC5
 153              		.cfi_endproc
 154              	.LFE8:
 155              		.size	thd1_execute, .-thd1_execute
 156              		.section	.text.thread,"ax",%progbits
 157              		.align	2
 158              		.p2align 4,,15
 159              		.thumb
 160              		.thumb_func
 161              		.type	thread, %function
 162              	thread:
 163              	.LFB7:
 164              		.loc 1 71 0
 165              		.cfi_startproc
 166              		@ args = 0, pretend = 0, frame = 0
 167              		@ frame_needed = 0, uses_anonymous_args = 0
 168              	.LVL7:
 169 0000 08B5     		push	{r3, lr}
 170              		.cfi_def_cfa_offset 8
 171              		.cfi_offset 3, -8
ARM GAS  /tmp/cchhB1FD.s 			page 4


 172              		.cfi_offset 14, -4
 173              		.loc 1 73 0
 174 0002 0078     		ldrb	r0, [r0]	@ zero_extendqisi2
 175              	.LVL8:
 176 0004 FFF7FEFF 		bl	test_emit_token
 177              	.LVL9:
 178              		.loc 1 75 0
 179 0008 0020     		movs	r0, #0
 180 000a 08BD     		pop	{r3, pc}
 181              		.cfi_endproc
 182              	.LFE7:
 183              		.size	thread, .-thread
 184              		.section	.text.thd2_execute,"ax",%progbits
 185              		.align	2
 186              		.p2align 4,,15
 187              		.thumb
 188              		.thumb_func
 189              		.type	thd2_execute, %function
 190              	thd2_execute:
 191              	.LFB9:
 192              		.loc 1 105 0
 193              		.cfi_startproc
 194              		@ args = 0, pretend = 0, frame = 0
 195              		@ frame_needed = 0, uses_anonymous_args = 0
 196 0000 F0B5     		push	{r4, r5, r6, r7, lr}
 197              		.cfi_def_cfa_offset 20
 198              		.cfi_offset 4, -20
 199              		.cfi_offset 5, -16
 200              		.cfi_offset 6, -12
 201              		.cfi_offset 7, -8
 202              		.cfi_offset 14, -4
 203              		.loc 1 107 0
 204 0002 2B4F     		ldr	r7, .L9
 205 0004 2B4E     		ldr	r6, .L9+4
 206 0006 FB69     		ldr	r3, [r7, #28]
 207 0008 2B4D     		ldr	r5, .L9+8
 208 000a 9A68     		ldr	r2, [r3, #8]
 209 000c 2B49     		ldr	r1, .L9+12
 210              		.loc 1 105 0
 211 000e 83B0     		sub	sp, sp, #12
 212              		.cfi_def_cfa_offset 32
 213              		.loc 1 107 0
 214 0010 2B46     		mov	r3, r5
 215 0012 0091     		str	r1, [sp]
 216 0014 7068     		ldr	r0, [r6, #4]
 217 0016 043A     		subs	r2, r2, #4
 218 0018 4FF49871 		mov	r1, #304
 219 001c FFF7FEFF 		bl	chThdCreateStatic
 220              	.LVL10:
 221              		.loc 1 108 0
 222 0020 FB69     		ldr	r3, [r7, #28]
 223              		.loc 1 107 0
 224 0022 274C     		ldr	r4, .L9+16
 225              		.loc 1 108 0
 226 0024 9A68     		ldr	r2, [r3, #8]
 227 0026 2749     		ldr	r1, .L9+20
 228 0028 3368     		ldr	r3, [r6]
ARM GAS  /tmp/cchhB1FD.s 			page 5


 229              		.loc 1 107 0
 230 002a 6060     		str	r0, [r4, #4]
 231              		.loc 1 108 0
 232 002c 0091     		str	r1, [sp]
 233 002e 053A     		subs	r2, r2, #5
 234 0030 1846     		mov	r0, r3
 235 0032 4FF49871 		mov	r1, #304
 236 0036 2B46     		mov	r3, r5
 237 0038 FFF7FEFF 		bl	chThdCreateStatic
 238              	.LVL11:
 239              		.loc 1 109 0
 240 003c FA69     		ldr	r2, [r7, #28]
 241 003e 3369     		ldr	r3, [r6, #16]
 242 0040 9268     		ldr	r2, [r2, #8]
 243 0042 2149     		ldr	r1, .L9+24
 244              		.loc 1 108 0
 245 0044 2060     		str	r0, [r4]
 246              		.loc 1 109 0
 247 0046 0091     		str	r1, [sp]
 248 0048 013A     		subs	r2, r2, #1
 249 004a 1846     		mov	r0, r3
 250 004c 4FF49871 		mov	r1, #304
 251 0050 2B46     		mov	r3, r5
 252 0052 FFF7FEFF 		bl	chThdCreateStatic
 253              	.LVL12:
 254              		.loc 1 110 0
 255 0056 FA69     		ldr	r2, [r7, #28]
 256 0058 F368     		ldr	r3, [r6, #12]
 257 005a 9268     		ldr	r2, [r2, #8]
 258 005c 1B49     		ldr	r1, .L9+28
 259              		.loc 1 109 0
 260 005e 2061     		str	r0, [r4, #16]
 261              		.loc 1 110 0
 262 0060 0091     		str	r1, [sp]
 263 0062 023A     		subs	r2, r2, #2
 264 0064 1846     		mov	r0, r3
 265 0066 4FF49871 		mov	r1, #304
 266 006a 2B46     		mov	r3, r5
 267 006c FFF7FEFF 		bl	chThdCreateStatic
 268              	.LVL13:
 269              	.LBB2:
 270              		.loc 1 112 0
 271 0070 2023     		movs	r3, #32
 272              	.LBE2:
 273              		.loc 1 110 0
 274 0072 E060     		str	r0, [r4, #12]
 275              	.LBB3:
 276              		.loc 1 112 0
 277              	@ 112 "ChibiOS//test/testthd.c" 1
 278 0074 83F31188 		msr     BASEPRI, r3
 279              	@ 0 "" 2
 280              		.thumb
 281              	.LBE3:
 282              		.loc 1 113 0
 283 0078 FB69     		ldr	r3, [r7, #28]
 284 007a 1549     		ldr	r1, .L9+32
 285 007c 9A68     		ldr	r2, [r3, #8]
ARM GAS  /tmp/cchhB1FD.s 			page 6


 286 007e B068     		ldr	r0, [r6, #8]
 287 0080 2B46     		mov	r3, r5
 288 0082 0091     		str	r1, [sp]
 289 0084 033A     		subs	r2, r2, #3
 290 0086 4FF49871 		mov	r1, #304
 291 008a FFF7FEFF 		bl	chThdCreateI
 292              	.LVL14:
 293              	.LBB4:
 294              		.loc 1 114 0
 295 008e 0023     		movs	r3, #0
 296              	.LBE4:
 297              		.loc 1 113 0
 298 0090 A060     		str	r0, [r4, #8]
 299              	.LBB5:
 300              		.loc 1 114 0
 301              	@ 114 "ChibiOS//test/testthd.c" 1
 302 0092 83F31188 		msr     BASEPRI, r3
 303              	@ 0 "" 2
 304              		.thumb
 305              	.LBE5:
 306              		.loc 1 115 0
 307 0096 A068     		ldr	r0, [r4, #8]
 308 0098 FFF7FEFF 		bl	chThdResume
 309              	.LVL15:
 310              		.loc 1 116 0
 311 009c FFF7FEFF 		bl	test_wait_threads
 312              	.LVL16:
 313              		.loc 1 117 0
 314 00a0 0C49     		ldr	r1, .L9+36
 315 00a2 0120     		movs	r0, #1
 316              		.loc 1 118 0
 317 00a4 03B0     		add	sp, sp, #12
 318              		.cfi_def_cfa_offset 20
 319              		@ sp needed
 320 00a6 BDE8F040 		pop	{r4, r5, r6, r7, lr}
 321              		.cfi_restore 14
 322              		.cfi_restore 7
 323              		.cfi_restore 6
 324              		.cfi_restore 5
 325              		.cfi_restore 4
 326              		.cfi_def_cfa_offset 0
 327              		.loc 1 117 0
 328 00aa FFF7FEBF 		b	_test_assert_sequence
 329              	.LVL17:
 330              	.L10:
 331 00ae 00BF     		.align	2
 332              	.L9:
 333 00b0 00000000 		.word	rlist
 334 00b4 00000000 		.word	wa
 335 00b8 00000000 		.word	thread
 336 00bc 04000000 		.word	.LC1
 337 00c0 00000000 		.word	threads
 338 00c4 00000000 		.word	.LC0
 339 00c8 10000000 		.word	.LC4
 340 00cc 0C000000 		.word	.LC3
 341 00d0 08000000 		.word	.LC2
 342 00d4 14000000 		.word	.LC5
ARM GAS  /tmp/cchhB1FD.s 			page 7


 343              		.cfi_endproc
 344              	.LFE9:
 345              		.size	thd2_execute, .-thd2_execute
 346              		.section	.text.thd3_execute,"ax",%progbits
 347              		.align	2
 348              		.p2align 4,,15
 349              		.thumb
 350              		.thumb_func
 351              		.type	thd3_execute, %function
 352              	thd3_execute:
 353              	.LFB10:
 354              		.loc 1 137 0
 355              		.cfi_startproc
 356              		@ args = 0, pretend = 0, frame = 0
 357              		@ frame_needed = 0, uses_anonymous_args = 0
 358 0000 F8B5     		push	{r3, r4, r5, r6, r7, lr}
 359              		.cfi_def_cfa_offset 24
 360              		.cfi_offset 3, -24
 361              		.cfi_offset 4, -20
 362              		.cfi_offset 5, -16
 363              		.cfi_offset 6, -12
 364              		.cfi_offset 7, -8
 365              		.cfi_offset 14, -4
 366              		.loc 1 140 0
 367 0002 4A4E     		ldr	r6, .L18
 368 0004 F369     		ldr	r3, [r6, #28]
 369 0006 9C68     		ldr	r4, [r3, #8]
 370              	.LVL18:
 371              		.loc 1 141 0
 372 0008 651C     		adds	r5, r4, #1
 373 000a 2846     		mov	r0, r5
 374 000c FFF7FEFF 		bl	chThdSetPriority
 375              	.LVL19:
 376 0010 0746     		mov	r7, r0
 377              	.LVL20:
 378              		.loc 1 142 0
 379 0012 391B     		subs	r1, r7, r4
 380 0014 B1FA81F1 		clz	r1, r1
 381 0018 0120     		movs	r0, #1
 382              	.LVL21:
 383 001a 4909     		lsrs	r1, r1, #5
 384 001c FFF7FEFF 		bl	_test_assert
 385              	.LVL22:
 386 0020 00B1     		cbz	r0, .L17
 387              	.LVL23:
 388              	.L11:
 389 0022 F8BD     		pop	{r3, r4, r5, r6, r7, pc}
 390              	.LVL24:
 391              	.L17:
 392              		.loc 1 144 0
 393 0024 F369     		ldr	r3, [r6, #28]
 394 0026 0220     		movs	r0, #2
 395 0028 9968     		ldr	r1, [r3, #8]
 396 002a 691A     		subs	r1, r5, r1
 397 002c B1FA81F1 		clz	r1, r1
 398 0030 4909     		lsrs	r1, r1, #5
 399 0032 FFF7FEFF 		bl	_test_assert
ARM GAS  /tmp/cchhB1FD.s 			page 8


 400              	.LVL25:
 401 0036 0028     		cmp	r0, #0
 402 0038 F3D1     		bne	.L11
 403              		.loc 1 146 0
 404 003a 3846     		mov	r0, r7
 405 003c FFF7FEFF 		bl	chThdSetPriority
 406              	.LVL26:
 407              		.loc 1 147 0
 408 0040 291A     		subs	r1, r5, r0
 409 0042 B1FA81F1 		clz	r1, r1
 410 0046 0320     		movs	r0, #3
 411              	.LVL27:
 412 0048 4909     		lsrs	r1, r1, #5
 413 004a FFF7FEFF 		bl	_test_assert
 414              	.LVL28:
 415 004e 0028     		cmp	r0, #0
 416 0050 E7D1     		bne	.L11
 417              		.loc 1 149 0
 418 0052 F369     		ldr	r3, [r6, #28]
 419 0054 0420     		movs	r0, #4
 420 0056 9968     		ldr	r1, [r3, #8]
 421 0058 091B     		subs	r1, r1, r4
 422 005a B1FA81F1 		clz	r1, r1
 423 005e 4909     		lsrs	r1, r1, #5
 424 0060 FFF7FEFF 		bl	_test_assert
 425              	.LVL29:
 426 0064 0028     		cmp	r0, #0
 427 0066 DCD1     		bne	.L11
 428              	.LBB6:
 429              		.loc 1 154 0
 430 0068 2023     		movs	r3, #32
 431              	@ 154 "ChibiOS//test/testthd.c" 1
 432 006a 83F31188 		msr     BASEPRI, r3
 433              	@ 0 "" 2
 434              		.thumb
 435              	.LBE6:
 436              		.loc 1 155 0
 437 006e F169     		ldr	r1, [r6, #28]
 438              	.LBB7:
 439              		.loc 1 156 0
 440 0070 0346     		mov	r3, r0
 441              	.LBE7:
 442              		.loc 1 155 0
 443 0072 8A68     		ldr	r2, [r1, #8]
 444 0074 0232     		adds	r2, r2, #2
 445 0076 8A60     		str	r2, [r1, #8]
 446              	.LBB8:
 447              		.loc 1 156 0
 448              	@ 156 "ChibiOS//test/testthd.c" 1
 449 0078 83F31188 		msr     BASEPRI, r3
 450              	@ 0 "" 2
 451              		.thumb
 452              	.LBE8:
 453              		.loc 1 157 0
 454 007c F369     		ldr	r3, [r6, #28]
 455 007e A71C     		adds	r7, r4, #2
 456 0080 9968     		ldr	r1, [r3, #8]
ARM GAS  /tmp/cchhB1FD.s 			page 9


 457 0082 0520     		movs	r0, #5
 458 0084 C91B     		subs	r1, r1, r7
 459 0086 B1FA81F1 		clz	r1, r1
 460 008a 4909     		lsrs	r1, r1, #5
 461 008c FFF7FEFF 		bl	_test_assert
 462              	.LVL30:
 463 0090 0028     		cmp	r0, #0
 464 0092 C6D1     		bne	.L11
 465              		.loc 1 161 0
 466 0094 2846     		mov	r0, r5
 467 0096 FFF7FEFF 		bl	chThdSetPriority
 468              	.LVL31:
 469              		.loc 1 162 0
 470 009a 011B     		subs	r1, r0, r4
 471 009c B1FA81F1 		clz	r1, r1
 472 00a0 0620     		movs	r0, #6
 473              	.LVL32:
 474 00a2 4909     		lsrs	r1, r1, #5
 475 00a4 FFF7FEFF 		bl	_test_assert
 476              	.LVL33:
 477 00a8 0028     		cmp	r0, #0
 478 00aa BAD1     		bne	.L11
 479              		.loc 1 164 0
 480 00ac F369     		ldr	r3, [r6, #28]
 481 00ae 0720     		movs	r0, #7
 482 00b0 9968     		ldr	r1, [r3, #8]
 483 00b2 791A     		subs	r1, r7, r1
 484 00b4 B1FA81F1 		clz	r1, r1
 485 00b8 4909     		lsrs	r1, r1, #5
 486 00ba FFF7FEFF 		bl	_test_assert
 487              	.LVL34:
 488 00be 0028     		cmp	r0, #0
 489 00c0 AFD1     		bne	.L11
 490              		.loc 1 166 0
 491 00c2 F369     		ldr	r3, [r6, #28]
 492 00c4 0820     		movs	r0, #8
 493 00c6 196C     		ldr	r1, [r3, #64]
 494 00c8 691A     		subs	r1, r5, r1
 495 00ca B1FA81F1 		clz	r1, r1
 496 00ce 4909     		lsrs	r1, r1, #5
 497 00d0 FFF7FEFF 		bl	_test_assert
 498              	.LVL35:
 499 00d4 0028     		cmp	r0, #0
 500 00d6 A4D1     		bne	.L11
 501              		.loc 1 170 0
 502 00d8 E71C     		adds	r7, r4, #3
 503 00da 3846     		mov	r0, r7
 504 00dc FFF7FEFF 		bl	chThdSetPriority
 505              	.LVL36:
 506              		.loc 1 171 0
 507 00e0 281A     		subs	r0, r5, r0
 508              	.LVL37:
 509 00e2 4142     		rsbs	r1, r0, #0
 510 00e4 4141     		adcs	r1, r1, r0
 511 00e6 0920     		movs	r0, #9
 512 00e8 FFF7FEFF 		bl	_test_assert
 513              	.LVL38:
ARM GAS  /tmp/cchhB1FD.s 			page 10


 514 00ec 0028     		cmp	r0, #0
 515 00ee 98D1     		bne	.L11
 516              		.loc 1 173 0
 517 00f0 F369     		ldr	r3, [r6, #28]
 518 00f2 0A20     		movs	r0, #10
 519 00f4 9968     		ldr	r1, [r3, #8]
 520 00f6 7A1A     		subs	r2, r7, r1
 521 00f8 5142     		rsbs	r1, r2, #0
 522 00fa 5141     		adcs	r1, r1, r2
 523 00fc FFF7FEFF 		bl	_test_assert
 524              	.LVL39:
 525 0100 0028     		cmp	r0, #0
 526 0102 8ED1     		bne	.L11
 527              		.loc 1 175 0
 528 0104 F369     		ldr	r3, [r6, #28]
 529 0106 0B20     		movs	r0, #11
 530 0108 196C     		ldr	r1, [r3, #64]
 531 010a 7B1A     		subs	r3, r7, r1
 532 010c 5942     		rsbs	r1, r3, #0
 533 010e 5941     		adcs	r1, r1, r3
 534 0110 FFF7FEFF 		bl	_test_assert
 535              	.LVL40:
 536 0114 0028     		cmp	r0, #0
 537 0116 84D1     		bne	.L11
 538              	.LBB9:
 539              		.loc 1 178 0
 540 0118 2023     		movs	r3, #32
 541              	@ 178 "ChibiOS//test/testthd.c" 1
 542 011a 83F31188 		msr     BASEPRI, r3
 543              	@ 0 "" 2
 544              		.thumb
 545              	.LBE9:
 546              		.loc 1 179 0
 547 011e F269     		ldr	r2, [r6, #28]
 548              	.LBB10:
 549              		.loc 1 181 0
 550 0120 0346     		mov	r3, r0
 551              	.LBE10:
 552              		.loc 1 179 0
 553 0122 9460     		str	r4, [r2, #8]
 554              		.loc 1 180 0
 555 0124 1464     		str	r4, [r2, #64]
 556              	.LBB11:
 557              		.loc 1 181 0
 558              	@ 181 "ChibiOS//test/testthd.c" 1
 559 0126 83F31188 		msr     BASEPRI, r3
 560              	@ 0 "" 2
 561              		.thumb
 562 012a 7AE7     		b	.L11
 563              	.L19:
 564              		.align	2
 565              	.L18:
 566 012c 00000000 		.word	rlist
 567              	.LBE11:
 568              		.cfi_endproc
 569              	.LFE10:
 570              		.size	thd3_execute, .-thd3_execute
ARM GAS  /tmp/cchhB1FD.s 			page 11


 571              		.section	.text.thd4_execute,"ax",%progbits
 572              		.align	2
 573              		.p2align 4,,15
 574              		.thumb
 575              		.thumb_func
 576              		.type	thd4_execute, %function
 577              	thd4_execute:
 578              	.LFB11:
 579              		.loc 1 200 0
 580              		.cfi_startproc
 581              		@ args = 0, pretend = 0, frame = 0
 582              		@ frame_needed = 0, uses_anonymous_args = 0
 583 0000 38B5     		push	{r3, r4, r5, lr}
 584              		.cfi_def_cfa_offset 16
 585              		.cfi_offset 3, -16
 586              		.cfi_offset 4, -12
 587              		.cfi_offset 5, -8
 588              		.cfi_offset 14, -4
 589              		.loc 1 206 0
 590 0002 1C4D     		ldr	r5, .L26
 591              		.loc 1 203 0
 592 0004 FFF7FEFF 		bl	test_wait_tick
 593              	.LVL41:
 594              		.loc 1 206 0
 595 0008 EC68     		ldr	r4, [r5, #12]
 596              	.LVL42:
 597              		.loc 1 207 0
 598 000a 6420     		movs	r0, #100
 599 000c FFF7FEFF 		bl	chThdSleep
 600              	.LVL43:
 601              		.loc 1 208 0
 602 0010 04F16401 		add	r1, r4, #100
 603 0014 04F16502 		add	r2, r4, #101
 604 0018 0120     		movs	r0, #1
 605 001a FFF7FEFF 		bl	_test_assert_time_window
 606              	.LVL44:
 607 001e 00B1     		cbz	r0, .L25
 608              	.LVL45:
 609              	.L20:
 610 0020 38BD     		pop	{r3, r4, r5, pc}
 611              	.LVL46:
 612              	.L25:
 613              		.loc 1 211 0
 614 0022 EC68     		ldr	r4, [r5, #12]
 615              	.LVL47:
 616              		.loc 1 212 0
 617 0024 6420     		movs	r0, #100
 618 0026 FFF7FEFF 		bl	chThdSleep
 619              	.LVL48:
 620              		.loc 1 213 0
 621 002a 04F16401 		add	r1, r4, #100
 622 002e 04F16502 		add	r2, r4, #101
 623 0032 0220     		movs	r0, #2
 624 0034 FFF7FEFF 		bl	_test_assert_time_window
 625              	.LVL49:
 626 0038 0028     		cmp	r0, #0
 627 003a F1D1     		bne	.L20
ARM GAS  /tmp/cchhB1FD.s 			page 12


 628              	.LBB14:
 629              	.LBB15:
 630              		.loc 1 216 0
 631 003c EC68     		ldr	r4, [r5, #12]
 632              	.LVL50:
 633              		.loc 1 217 0
 634 003e 4FF47A70 		mov	r0, #1000
 635 0042 FFF7FEFF 		bl	chThdSleep
 636              	.LVL51:
 637              		.loc 1 218 0
 638 0046 04F57A71 		add	r1, r4, #1000
 639 004a 04F2E932 		addw	r2, r4, #1001
 640 004e 0320     		movs	r0, #3
 641 0050 FFF7FEFF 		bl	_test_assert_time_window
 642              	.LVL52:
 643 0054 0028     		cmp	r0, #0
 644 0056 E3D1     		bne	.L20
 645              		.loc 1 221 0
 646 0058 EC68     		ldr	r4, [r5, #12]
 647              	.LVL53:
 648 005a 04F16405 		add	r5, r4, #100
 649              	.LVL54:
 650              		.loc 1 222 0
 651 005e 2846     		mov	r0, r5
 652 0060 FFF7FEFF 		bl	chThdSleepUntil
 653              	.LVL55:
 654              		.loc 1 223 0
 655 0064 2946     		mov	r1, r5
 656 0066 04F16502 		add	r2, r4, #101
 657 006a 0420     		movs	r0, #4
 658              	.LBE15:
 659              	.LBE14:
 660              		.loc 1 224 0
 661 006c BDE83840 		pop	{r3, r4, r5, lr}
 662              		.cfi_restore 14
 663              		.cfi_restore 5
 664              		.cfi_restore 4
 665              		.cfi_restore 3
 666              		.cfi_def_cfa_offset 0
 667              	.LVL56:
 668              	.LBB17:
 669              	.LBB16:
 670              		.loc 1 223 0
 671 0070 FFF7FEBF 		b	_test_assert_time_window
 672              	.LVL57:
 673              	.L27:
 674              		.align	2
 675              	.L26:
 676 0074 00000000 		.word	vtlist
 677              	.LBE16:
 678              	.LBE17:
 679              		.cfi_endproc
 680              	.LFE11:
 681              		.size	thd4_execute, .-thd4_execute
 682              		.global	patternthd
 683              		.global	testthd4
 684              		.global	testthd3
ARM GAS  /tmp/cchhB1FD.s 			page 13


 685              		.global	testthd2
 686              		.global	testthd1
 687              		.section	.rodata.testthd1,"a",%progbits
 688              		.align	2
 689              		.type	testthd1, %object
 690              		.size	testthd1, 16
 691              	testthd1:
 692 0000 64000000 		.word	.LC9
 693 0004 00000000 		.word	0
 694 0008 00000000 		.word	0
 695 000c 00000000 		.word	thd1_execute
 696              		.section	.rodata.testthd2,"a",%progbits
 697              		.align	2
 698              		.type	testthd2, %object
 699              		.size	testthd2, 16
 700              	testthd2:
 701 0000 48000000 		.word	.LC8
 702 0004 00000000 		.word	0
 703 0008 00000000 		.word	0
 704 000c 00000000 		.word	thd2_execute
 705              		.section	.rodata.testthd3,"a",%progbits
 706              		.align	2
 707              		.type	testthd3, %object
 708              		.size	testthd3, 16
 709              	testthd3:
 710 0000 2C000000 		.word	.LC7
 711 0004 00000000 		.word	0
 712 0008 00000000 		.word	0
 713 000c 00000000 		.word	thd3_execute
 714              		.section	.rodata.testthd4,"a",%progbits
 715              		.align	2
 716              		.type	testthd4, %object
 717              		.size	testthd4, 16
 718              	testthd4:
 719 0000 1C000000 		.word	.LC6
 720 0004 00000000 		.word	0
 721 0008 00000000 		.word	0
 722 000c 00000000 		.word	thd4_execute
 723              		.section	.rodata.patternthd,"a",%progbits
 724              		.align	2
 725              		.type	patternthd, %object
 726              		.size	patternthd, 20
 727              	patternthd:
 728 0000 00000000 		.word	testthd1
 729 0004 00000000 		.word	testthd2
 730 0008 00000000 		.word	testthd3
 731 000c 00000000 		.word	testthd4
 732 0010 00000000 		.word	0
 733              		.section	.rodata.str1.4,"aMS",%progbits,1
 734              		.align	2
 735              	.LC0:
 736 0000 4500     		.ascii	"E\000"
 737 0002 0000     		.space	2
 738              	.LC1:
 739 0004 4400     		.ascii	"D\000"
 740 0006 0000     		.space	2
 741              	.LC2:
ARM GAS  /tmp/cchhB1FD.s 			page 14


 742 0008 4300     		.ascii	"C\000"
 743 000a 0000     		.space	2
 744              	.LC3:
 745 000c 4200     		.ascii	"B\000"
 746 000e 0000     		.space	2
 747              	.LC4:
 748 0010 4100     		.ascii	"A\000"
 749 0012 0000     		.space	2
 750              	.LC5:
 751 0014 41424344 		.ascii	"ABCDE\000"
 751      4500
 752 001a 0000     		.space	2
 753              	.LC6:
 754 001c 54687265 		.ascii	"Threads, delays\000"
 754      6164732C 
 754      2064656C 
 754      61797300 
 755              	.LC7:
 756 002c 54687265 		.ascii	"Threads, priority change\000"
 756      6164732C 
 756      20707269 
 756      6F726974 
 756      79206368 
 757 0045 000000   		.space	3
 758              	.LC8:
 759 0048 54687265 		.ascii	"Threads, enqueuing test #2\000"
 759      6164732C 
 759      20656E71 
 759      75657569 
 759      6E672074 
 760 0063 00       		.space	1
 761              	.LC9:
 762 0064 54687265 		.ascii	"Threads, enqueuing test #1\000"
 762      6164732C 
 762      20656E71 
 762      75657569 
 762      6E672074 
 763              		.text
 764              	.Letext0:
 765              		.file 2 "/usr/lib/gcc/arm-none-eabi/4.9.3/include/stddef.h"
 766              		.file 3 "/usr/include/newlib/machine/_default_types.h"
 767              		.file 4 "/usr/include/newlib/sys/_stdint.h"
 768              		.file 5 "ChibiOS//os/ports/GCC/ARMCMx/chtypes.h"
 769              		.file 6 "ChibiOS//os/kernel/include/chlists.h"
 770              		.file 7 "ChibiOS//os/kernel/include/chthreads.h"
 771              		.file 8 "ChibiOS//os/ports/GCC/ARMCMx/chcore_v7m.h"
 772              		.file 9 "ChibiOS//os/kernel/include/chvt.h"
 773              		.file 10 "ChibiOS//os/kernel/include/chschd.h"
 774              		.file 11 "ChibiOS//os/kernel/include/chmtx.h"
 775              		.file 12 "ChibiOS//test/test.h"