ARM GAS  /tmp/cc56bn3e.s 			page 1


   1              		.syntax unified
   2              		.cpu cortex-m3
   3              		.fpu softvfp
   4              		.eabi_attribute 20, 1
   5              		.eabi_attribute 21, 1
   6              		.eabi_attribute 23, 3
   7              		.eabi_attribute 24, 1
   8              		.eabi_attribute 25, 1
   9              		.eabi_attribute 26, 1
  10              		.eabi_attribute 30, 2
  11              		.eabi_attribute 34, 1
  12              		.eabi_attribute 18, 4
  13              		.thumb
  14              		.file	"testbmk.c"
  15              		.text
  16              	.Ltext0:
  17              		.cfi_sections	.debug_frame
  18              		.section	.text.thread2,"ax",%progbits
  19              		.align	2
  20              		.p2align 4,,15
  21              		.thumb
  22              		.thumb_func
  23              		.type	thread2, %function
  24              	thread2:
  25              	.LFB11:
  26              		.file 1 "../../test/testbmk.c"
  27              		.loc 1 165 0
  28              		.cfi_startproc
  29              		@ args = 0, pretend = 0, frame = 0
  30              		@ frame_needed = 0, uses_anonymous_args = 0
  31              		@ link register save eliminated.
  32              	.LVL0:
  33              		.loc 1 168 0
  34 0000 7047     		bx	lr
  35              		.cfi_endproc
  36              	.LFE11:
  37              		.size	thread2, .-thread2
  38 0002 00BFAFF3 		.section	.text.tmo,"ax",%progbits
  38      0080AFF3 
  38      0080AFF3 
  38      0080
  39              		.align	2
  40              		.p2align 4,,15
  41              		.thumb
  42              		.thumb_func
  43              		.type	tmo, %function
  44              	tmo:
  45              	.LFB23:
  46              		.loc 1 511 0
  47              		.cfi_startproc
  48              		@ args = 0, pretend = 0, frame = 0
  49              		@ frame_needed = 0, uses_anonymous_args = 0
  50              		@ link register save eliminated.
  51              	.LVL1:
  52 0000 7047     		bx	lr
  53              		.cfi_endproc
  54              	.LFE23:
ARM GAS  /tmp/cc56bn3e.s 			page 2


  55              		.size	tmo, .-tmo
  56 0002 00BFAFF3 		.section	.text.bmk13_execute,"ax",%progbits
  56      0080AFF3 
  56      0080AFF3 
  56      0080
  57              		.align	2
  58              		.p2align 4,,15
  59              		.thumb
  60              		.thumb_func
  61              		.type	bmk13_execute, %function
  62              	bmk13_execute:
  63              	.LFB29:
  64              		.loc 1 644 0
  65              		.cfi_startproc
  66              		@ args = 0, pretend = 0, frame = 0
  67              		@ frame_needed = 0, uses_anonymous_args = 0
  68              		.loc 1 644 0
  69 0000 10B5     		push	{r4, lr}
  70              		.cfi_def_cfa_offset 8
  71              		.cfi_offset 4, -8
  72              		.cfi_offset 14, -4
  73              		.loc 1 646 0
  74 0002 2F48     		ldr	r0, .L4
  75              		.loc 1 652 0
  76 0004 2F4C     		ldr	r4, .L4+4
  77              		.loc 1 646 0
  78 0006 FFF7FEFF 		bl	test_print
  79              	.LVL2:
  80              		.loc 1 647 0
  81 000a 4FF4CC70 		mov	r0, #408
  82 000e FFF7FEFF 		bl	test_printn
  83              	.LVL3:
  84              		.loc 1 652 0
  85 0012 2046     		mov	r0, r4
  86 0014 FFF7FEFF 		bl	test_println
  87              	.LVL4:
  88              		.loc 1 653 0
  89 0018 2B48     		ldr	r0, .L4+8
  90 001a FFF7FEFF 		bl	test_print
  91              	.LVL5:
  92              		.loc 1 654 0
  93 001e 4820     		movs	r0, #72
  94 0020 FFF7FEFF 		bl	test_printn
  95              	.LVL6:
  96              		.loc 1 655 0
  97 0024 2046     		mov	r0, r4
  98 0026 FFF7FEFF 		bl	test_println
  99              	.LVL7:
 100              		.loc 1 656 0
 101 002a 2848     		ldr	r0, .L4+12
 102 002c FFF7FEFF 		bl	test_print
 103              	.LVL8:
 104              		.loc 1 657 0
 105 0030 1420     		movs	r0, #20
 106 0032 FFF7FEFF 		bl	test_printn
 107              	.LVL9:
 108              		.loc 1 658 0
ARM GAS  /tmp/cc56bn3e.s 			page 3


 109 0036 2046     		mov	r0, r4
 110 0038 FFF7FEFF 		bl	test_println
 111              	.LVL10:
 112              		.loc 1 659 0
 113 003c 2448     		ldr	r0, .L4+16
 114 003e FFF7FEFF 		bl	test_print
 115              	.LVL11:
 116              		.loc 1 660 0
 117 0042 0C20     		movs	r0, #12
 118 0044 FFF7FEFF 		bl	test_printn
 119              	.LVL12:
 120              		.loc 1 661 0
 121 0048 2046     		mov	r0, r4
 122 004a FFF7FEFF 		bl	test_println
 123              	.LVL13:
 124              		.loc 1 663 0
 125 004e 2148     		ldr	r0, .L4+20
 126 0050 FFF7FEFF 		bl	test_print
 127              	.LVL14:
 128              		.loc 1 664 0
 129 0054 0420     		movs	r0, #4
 130 0056 FFF7FEFF 		bl	test_printn
 131              	.LVL15:
 132              		.loc 1 665 0
 133 005a 2046     		mov	r0, r4
 134 005c FFF7FEFF 		bl	test_println
 135              	.LVL16:
 136              		.loc 1 666 0
 137 0060 1D48     		ldr	r0, .L4+24
 138 0062 FFF7FEFF 		bl	test_print
 139              	.LVL17:
 140              		.loc 1 667 0
 141 0066 0C20     		movs	r0, #12
 142 0068 FFF7FEFF 		bl	test_printn
 143              	.LVL18:
 144              		.loc 1 668 0
 145 006c 2046     		mov	r0, r4
 146 006e FFF7FEFF 		bl	test_println
 147              	.LVL19:
 148              		.loc 1 671 0
 149 0072 1A48     		ldr	r0, .L4+28
 150 0074 FFF7FEFF 		bl	test_print
 151              	.LVL20:
 152              		.loc 1 672 0
 153 0078 1020     		movs	r0, #16
 154 007a FFF7FEFF 		bl	test_printn
 155              	.LVL21:
 156              		.loc 1 673 0
 157 007e 2046     		mov	r0, r4
 158 0080 FFF7FEFF 		bl	test_println
 159              	.LVL22:
 160              		.loc 1 676 0
 161 0084 1648     		ldr	r0, .L4+32
 162 0086 FFF7FEFF 		bl	test_print
 163              	.LVL23:
 164              		.loc 1 677 0
 165 008a 0820     		movs	r0, #8
ARM GAS  /tmp/cc56bn3e.s 			page 4


 166 008c FFF7FEFF 		bl	test_printn
 167              	.LVL24:
 168              		.loc 1 678 0
 169 0090 2046     		mov	r0, r4
 170 0092 FFF7FEFF 		bl	test_println
 171              	.LVL25:
 172              		.loc 1 681 0
 173 0096 1348     		ldr	r0, .L4+36
 174 0098 FFF7FEFF 		bl	test_print
 175              	.LVL26:
 176              		.loc 1 682 0
 177 009c 2020     		movs	r0, #32
 178 009e FFF7FEFF 		bl	test_printn
 179              	.LVL27:
 180              		.loc 1 683 0
 181 00a2 2046     		mov	r0, r4
 182 00a4 FFF7FEFF 		bl	test_println
 183              	.LVL28:
 184              		.loc 1 686 0
 185 00a8 0F48     		ldr	r0, .L4+40
 186 00aa FFF7FEFF 		bl	test_print
 187              	.LVL29:
 188              		.loc 1 687 0
 189 00ae 2820     		movs	r0, #40
 190 00b0 FFF7FEFF 		bl	test_printn
 191              	.LVL30:
 192              		.loc 1 688 0
 193 00b4 2046     		mov	r0, r4
 194              		.loc 1 690 0
 195 00b6 BDE81040 		pop	{r4, lr}
 196              		.loc 1 688 0
 197 00ba FFF7FEBF 		b	test_println
 198              	.LVL31:
 199              	.L5:
 200 00be 00BF     		.align	2
 201              	.L4:
 202 00c0 00000000 		.word	.LC0
 203 00c4 10000000 		.word	.LC1
 204 00c8 18000000 		.word	.LC2
 205 00cc 28000000 		.word	.LC3
 206 00d0 38000000 		.word	.LC4
 207 00d4 48000000 		.word	.LC5
 208 00d8 58000000 		.word	.LC6
 209 00dc 68000000 		.word	.LC7
 210 00e0 78000000 		.word	.LC8
 211 00e4 88000000 		.word	.LC9
 212 00e8 98000000 		.word	.LC10
 213              		.cfi_endproc
 214              	.LFE29:
 215              		.size	bmk13_execute, .-bmk13_execute
 216 00ec AFF30080 		.section	.text.thread1,"ax",%progbits
 217              		.align	2
 218              		.p2align 4,,15
 219              		.thumb
 220              		.thumb_func
 221              		.type	thread1, %function
 222              	thread1:
ARM GAS  /tmp/cc56bn3e.s 			page 5


 223              	.LFB7:
 224              		.loc 1 75 0
 225              		.cfi_startproc
 226              		@ args = 0, pretend = 0, frame = 0
 227              		@ frame_needed = 0, uses_anonymous_args = 0
 228              	.LVL32:
 229 0000 10B5     		push	{r4, lr}
 230              		.cfi_def_cfa_offset 8
 231              		.cfi_offset 4, -8
 232              		.cfi_offset 14, -4
 233              	.LVL33:
 234              	.L8:
 235              		.loc 1 81 0 discriminator 1
 236 0002 FFF7FEFF 		bl	chMsgWait
 237              	.LVL34:
 238              		.loc 1 82 0 discriminator 1
 239 0006 446B     		ldr	r4, [r0, #52]
 240              	.LVL35:
 241              		.loc 1 83 0 discriminator 1
 242 0008 2146     		mov	r1, r4
 243 000a FFF7FEFF 		bl	chMsgRelease
 244              	.LVL36:
 245              		.loc 1 84 0 discriminator 1
 246 000e 002C     		cmp	r4, #0
 247 0010 F7D1     		bne	.L8
 248              		.loc 1 86 0
 249 0012 2046     		mov	r0, r4
 250 0014 10BD     		pop	{r4, pc}
 251              		.cfi_endproc
 252              	.LFE7:
 253              		.size	thread1, .-thread1
 254 0016 00BFAFF3 		.section	.text.bmk6_execute,"ax",%progbits
 254      0080AFF3 
 254      0080
 255              		.align	2
 256              		.p2align 4,,15
 257              		.thumb
 258              		.thumb_func
 259              		.type	bmk6_execute, %function
 260              	bmk6_execute:
 261              	.LFB16:
 262              		.loc 1 315 0
 263              		.cfi_startproc
 264              		@ args = 0, pretend = 0, frame = 0
 265              		@ frame_needed = 0, uses_anonymous_args = 0
 266              	.LVL37:
 267 0000 2DE9F041 		push	{r4, r5, r6, r7, r8, lr}
 268              		.cfi_def_cfa_offset 24
 269              		.cfi_offset 4, -24
 270              		.cfi_offset 5, -20
 271              		.cfi_offset 6, -16
 272              		.cfi_offset 7, -12
 273              		.cfi_offset 8, -8
 274              		.cfi_offset 14, -4
 275              		.loc 1 319 0
 276 0004 144B     		ldr	r3, .L13
 277              		.loc 1 318 0
ARM GAS  /tmp/cc56bn3e.s 			page 6


 278 0006 154A     		ldr	r2, .L13+4
 279              		.loc 1 319 0
 280 0008 DB69     		ldr	r3, [r3, #28]
 281              		.loc 1 315 0
 282 000a 82B0     		sub	sp, sp, #8
 283              		.cfi_def_cfa_offset 32
 284              		.loc 1 319 0
 285 000c 9E68     		ldr	r6, [r3, #8]
 286              		.loc 1 318 0
 287 000e 1768     		ldr	r7, [r2]
 288              	.LVL38:
 289              		.loc 1 320 0
 290 0010 FFF7FEFF 		bl	test_wait_tick
 291              	.LVL39:
 292              		.loc 1 321 0
 293 0014 4FF47A70 		mov	r0, #1000
 294 0018 FFF7FEFF 		bl	test_start_timer
 295              	.LVL40:
 296              		.loc 1 317 0
 297 001c 0024     		movs	r4, #0
 298 001e DFF84C80 		ldr	r8, .L13+20
 299              		.loc 1 319 0
 300 0022 0136     		adds	r6, r6, #1
 301              	.LVL41:
 302              		.loc 1 323 0
 303 0024 2546     		mov	r5, r4
 304              	.LVL42:
 305              	.L12:
 306              		.loc 1 323 0 is_stmt 0 discriminator 1
 307 0026 0E4B     		ldr	r3, .L13+8
 308 0028 0095     		str	r5, [sp]
 309 002a 3846     		mov	r0, r7
 310 002c 4FF49871 		mov	r1, #304
 311 0030 3246     		mov	r2, r6
 312 0032 FFF7FEFF 		bl	chThdCreateStatic
 313              	.LVL43:
 314              		.loc 1 328 0 is_stmt 1 discriminator 1
 315 0036 D8F80030 		ldr	r3, [r8]
 316              		.loc 1 324 0 discriminator 1
 317 003a 0134     		adds	r4, r4, #1
 318              	.LVL44:
 319              		.loc 1 328 0 discriminator 1
 320 003c 002B     		cmp	r3, #0
 321 003e F2D0     		beq	.L12
 322              		.loc 1 329 0
 323 0040 0848     		ldr	r0, .L13+12
 324 0042 FFF7FEFF 		bl	test_print
 325              	.LVL45:
 326              		.loc 1 330 0
 327 0046 2046     		mov	r0, r4
 328 0048 FFF7FEFF 		bl	test_printn
 329              	.LVL46:
 330              		.loc 1 331 0
 331 004c 0648     		ldr	r0, .L13+16
 332              		.loc 1 332 0
 333 004e 02B0     		add	sp, sp, #8
 334              		@ sp needed
ARM GAS  /tmp/cc56bn3e.s 			page 7


 335 0050 BDE8F041 		pop	{r4, r5, r6, r7, r8, lr}
 336              	.LVL47:
 337              		.loc 1 331 0
 338 0054 FFF7FEBF 		b	test_println
 339              	.LVL48:
 340              	.L14:
 341              		.align	2
 342              	.L13:
 343 0058 00000000 		.word	rlist
 344 005c 00000000 		.word	wa
 345 0060 00000000 		.word	thread2
 346 0064 A8000000 		.word	.LC11
 347 0068 B8000000 		.word	.LC12
 348 006c 00000000 		.word	test_timer_done
 349              		.cfi_endproc
 350              	.LFE16:
 351              		.size	bmk6_execute, .-bmk6_execute
 352              		.section	.text.msg_loop_test,"ax",%progbits
 353              		.align	2
 354              		.p2align 4,,15
 355              		.thumb
 356              		.thumb_func
 357              		.type	msg_loop_test, %function
 358              	msg_loop_test:
 359              	.LFB8:
 360              		.loc 1 91 0
 361              		.cfi_startproc
 362              		@ args = 0, pretend = 0, frame = 0
 363              		@ frame_needed = 0, uses_anonymous_args = 0
 364              	.LVL49:
 365 0000 70B5     		push	{r4, r5, r6, lr}
 366              		.cfi_def_cfa_offset 16
 367              		.cfi_offset 4, -16
 368              		.cfi_offset 5, -12
 369              		.cfi_offset 6, -8
 370              		.cfi_offset 14, -4
 371              		.loc 1 91 0
 372 0002 0546     		mov	r5, r0
 373              		.loc 1 94 0
 374 0004 FFF7FEFF 		bl	test_wait_tick
 375              	.LVL50:
 376              		.loc 1 95 0
 377 0008 4FF47A70 		mov	r0, #1000
 378 000c FFF7FEFF 		bl	test_start_timer
 379              	.LVL51:
 380 0010 074E     		ldr	r6, .L18
 381              		.loc 1 93 0
 382 0012 0024     		movs	r4, #0
 383              	.LVL52:
 384              	.L17:
 385              		.loc 1 97 0 discriminator 1
 386 0014 2846     		mov	r0, r5
 387 0016 0121     		movs	r1, #1
 388 0018 FFF7FEFF 		bl	chMsgSend
 389              	.LVL53:
 390              		.loc 1 102 0 discriminator 1
 391 001c 3368     		ldr	r3, [r6]
ARM GAS  /tmp/cc56bn3e.s 			page 8


 392              		.loc 1 98 0 discriminator 1
 393 001e 0134     		adds	r4, r4, #1
 394              	.LVL54:
 395              		.loc 1 102 0 discriminator 1
 396 0020 002B     		cmp	r3, #0
 397 0022 F7D0     		beq	.L17
 398              		.loc 1 103 0
 399 0024 2846     		mov	r0, r5
 400 0026 0021     		movs	r1, #0
 401 0028 FFF7FEFF 		bl	chMsgSend
 402              	.LVL55:
 403              		.loc 1 105 0
 404 002c 2046     		mov	r0, r4
 405 002e 70BD     		pop	{r4, r5, r6, pc}
 406              	.LVL56:
 407              	.L19:
 408              		.align	2
 409              	.L18:
 410 0030 00000000 		.word	test_timer_done
 411              		.cfi_endproc
 412              	.LFE8:
 413              		.size	msg_loop_test, .-msg_loop_test
 414 0034 AFF30080 		.section	.text.bmk1_execute,"ax",%progbits
 414      AFF30080 
 414      AFF30080 
 415              		.align	2
 416              		.p2align 4,,15
 417              		.thumb
 418              		.thumb_func
 419              		.type	bmk1_execute, %function
 420              	bmk1_execute:
 421              	.LFB9:
 422              		.loc 1 116 0
 423              		.cfi_startproc
 424              		@ args = 0, pretend = 0, frame = 0
 425              		@ frame_needed = 0, uses_anonymous_args = 0
 426 0000 10B5     		push	{r4, lr}
 427              		.cfi_def_cfa_offset 8
 428              		.cfi_offset 4, -8
 429              		.cfi_offset 14, -4
 430              		.loc 1 119 0
 431 0002 134B     		ldr	r3, .L21
 432 0004 134A     		ldr	r2, .L21+4
 433 0006 DB69     		ldr	r3, [r3, #28]
 434 0008 1068     		ldr	r0, [r2]
 435 000a 9A68     		ldr	r2, [r3, #8]
 436              		.loc 1 116 0
 437 000c 82B0     		sub	sp, sp, #8
 438              		.cfi_def_cfa_offset 16
 439              		.loc 1 119 0
 440 000e 0023     		movs	r3, #0
 441 0010 013A     		subs	r2, r2, #1
 442 0012 4FF49871 		mov	r1, #304
 443 0016 0093     		str	r3, [sp]
 444 0018 0F4B     		ldr	r3, .L21+8
 445 001a FFF7FEFF 		bl	chThdCreateStatic
 446              	.LVL57:
ARM GAS  /tmp/cc56bn3e.s 			page 9


 447 001e 0F4B     		ldr	r3, .L21+12
 448 0020 1860     		str	r0, [r3]
 449              		.loc 1 120 0
 450 0022 FFF7FEFF 		bl	msg_loop_test
 451              	.LVL58:
 452 0026 0446     		mov	r4, r0
 453              	.LVL59:
 454              		.loc 1 121 0
 455 0028 FFF7FEFF 		bl	test_wait_threads
 456              	.LVL60:
 457              		.loc 1 122 0
 458 002c 0C48     		ldr	r0, .L21+16
 459 002e FFF7FEFF 		bl	test_print
 460              	.LVL61:
 461              		.loc 1 123 0
 462 0032 2046     		mov	r0, r4
 463 0034 FFF7FEFF 		bl	test_printn
 464              	.LVL62:
 465              		.loc 1 124 0
 466 0038 0A48     		ldr	r0, .L21+20
 467 003a FFF7FEFF 		bl	test_print
 468              	.LVL63:
 469              		.loc 1 125 0
 470 003e 6000     		lsls	r0, r4, #1
 471 0040 FFF7FEFF 		bl	test_printn
 472              	.LVL64:
 473              		.loc 1 126 0
 474 0044 0848     		ldr	r0, .L21+24
 475              		.loc 1 127 0
 476 0046 02B0     		add	sp, sp, #8
 477              		@ sp needed
 478 0048 BDE81040 		pop	{r4, lr}
 479              	.LVL65:
 480              		.loc 1 126 0
 481 004c FFF7FEBF 		b	test_println
 482              	.LVL66:
 483              	.L22:
 484              		.align	2
 485              	.L21:
 486 0050 00000000 		.word	rlist
 487 0054 00000000 		.word	wa
 488 0058 00000000 		.word	thread1
 489 005c 00000000 		.word	threads
 490 0060 A8000000 		.word	.LC11
 491 0064 C4000000 		.word	.LC13
 492 0068 D0000000 		.word	.LC14
 493              		.cfi_endproc
 494              	.LFE9:
 495              		.size	bmk1_execute, .-bmk1_execute
 496 006c AFF30080 		.section	.text.bmk2_execute,"ax",%progbits
 497              		.align	2
 498              		.p2align 4,,15
 499              		.thumb
 500              		.thumb_func
 501              		.type	bmk2_execute, %function
 502              	bmk2_execute:
 503              	.LFB10:
ARM GAS  /tmp/cc56bn3e.s 			page 10


 504              		.loc 1 145 0
 505              		.cfi_startproc
 506              		@ args = 0, pretend = 0, frame = 0
 507              		@ frame_needed = 0, uses_anonymous_args = 0
 508 0000 10B5     		push	{r4, lr}
 509              		.cfi_def_cfa_offset 8
 510              		.cfi_offset 4, -8
 511              		.cfi_offset 14, -4
 512              		.loc 1 148 0
 513 0002 134B     		ldr	r3, .L24
 514 0004 134A     		ldr	r2, .L24+4
 515 0006 DB69     		ldr	r3, [r3, #28]
 516 0008 1068     		ldr	r0, [r2]
 517 000a 9A68     		ldr	r2, [r3, #8]
 518              		.loc 1 145 0
 519 000c 82B0     		sub	sp, sp, #8
 520              		.cfi_def_cfa_offset 16
 521              		.loc 1 148 0
 522 000e 0023     		movs	r3, #0
 523 0010 0132     		adds	r2, r2, #1
 524 0012 4FF49871 		mov	r1, #304
 525 0016 0093     		str	r3, [sp]
 526 0018 0F4B     		ldr	r3, .L24+8
 527 001a FFF7FEFF 		bl	chThdCreateStatic
 528              	.LVL67:
 529 001e 0F4B     		ldr	r3, .L24+12
 530 0020 1860     		str	r0, [r3]
 531              		.loc 1 149 0
 532 0022 FFF7FEFF 		bl	msg_loop_test
 533              	.LVL68:
 534 0026 0446     		mov	r4, r0
 535              	.LVL69:
 536              		.loc 1 150 0
 537 0028 FFF7FEFF 		bl	test_wait_threads
 538              	.LVL70:
 539              		.loc 1 151 0
 540 002c 0C48     		ldr	r0, .L24+16
 541 002e FFF7FEFF 		bl	test_print
 542              	.LVL71:
 543              		.loc 1 152 0
 544 0032 2046     		mov	r0, r4
 545 0034 FFF7FEFF 		bl	test_printn
 546              	.LVL72:
 547              		.loc 1 153 0
 548 0038 0A48     		ldr	r0, .L24+20
 549 003a FFF7FEFF 		bl	test_print
 550              	.LVL73:
 551              		.loc 1 154 0
 552 003e 6000     		lsls	r0, r4, #1
 553 0040 FFF7FEFF 		bl	test_printn
 554              	.LVL74:
 555              		.loc 1 155 0
 556 0044 0848     		ldr	r0, .L24+24
 557              		.loc 1 156 0
 558 0046 02B0     		add	sp, sp, #8
 559              		@ sp needed
 560 0048 BDE81040 		pop	{r4, lr}
ARM GAS  /tmp/cc56bn3e.s 			page 11


 561              	.LVL75:
 562              		.loc 1 155 0
 563 004c FFF7FEBF 		b	test_println
 564              	.LVL76:
 565              	.L25:
 566              		.align	2
 567              	.L24:
 568 0050 00000000 		.word	rlist
 569 0054 00000000 		.word	wa
 570 0058 00000000 		.word	thread1
 571 005c 00000000 		.word	threads
 572 0060 A8000000 		.word	.LC11
 573 0064 C4000000 		.word	.LC13
 574 0068 D0000000 		.word	.LC14
 575              		.cfi_endproc
 576              	.LFE10:
 577              		.size	bmk2_execute, .-bmk2_execute
 578 006c AFF30080 		.section	.text.bmk3_execute,"ax",%progbits
 579              		.align	2
 580              		.p2align 4,,15
 581              		.thumb
 582              		.thumb_func
 583              		.type	bmk3_execute, %function
 584              	bmk3_execute:
 585              	.LFB12:
 586              		.loc 1 180 0
 587              		.cfi_startproc
 588              		@ args = 0, pretend = 0, frame = 0
 589              		@ frame_needed = 0, uses_anonymous_args = 0
 590 0000 2DE9F041 		push	{r4, r5, r6, r7, r8, lr}
 591              		.cfi_def_cfa_offset 24
 592              		.cfi_offset 4, -24
 593              		.cfi_offset 5, -20
 594              		.cfi_offset 6, -16
 595              		.cfi_offset 7, -12
 596              		.cfi_offset 8, -8
 597              		.cfi_offset 14, -4
 598              		.loc 1 183 0
 599 0004 2C4F     		ldr	r7, .L27
 600 0006 2D4E     		ldr	r6, .L27+4
 601 0008 FB69     		ldr	r3, [r7, #28]
 602              		.loc 1 180 0
 603 000a 82B0     		sub	sp, sp, #8
 604              		.cfi_def_cfa_offset 32
 605              		.loc 1 183 0
 606 000c 9A68     		ldr	r2, [r3, #8]
 607 000e 0025     		movs	r5, #0
 608 0010 3068     		ldr	r0, [r6]
 609 0012 0132     		adds	r2, r2, #1
 610 0014 0095     		str	r5, [sp]
 611 0016 4FF49871 		mov	r1, #304
 612 001a 294B     		ldr	r3, .L27+8
 613 001c FFF7FEFF 		bl	chThdCreateStatic
 614              	.LVL77:
 615              		.loc 1 184 0
 616 0020 FB69     		ldr	r3, [r7, #28]
 617              		.loc 1 183 0
ARM GAS  /tmp/cc56bn3e.s 			page 12


 618 0022 284C     		ldr	r4, .L27+12
 619              		.loc 1 184 0
 620 0024 9A68     		ldr	r2, [r3, #8]
 621 0026 DFF8AC80 		ldr	r8, .L27+28
 622 002a 7368     		ldr	r3, [r6, #4]
 623              		.loc 1 183 0
 624 002c 2060     		str	r0, [r4]
 625              		.loc 1 184 0
 626 002e 023A     		subs	r2, r2, #2
 627 0030 0095     		str	r5, [sp]
 628 0032 1846     		mov	r0, r3
 629 0034 4FF49871 		mov	r1, #304
 630 0038 4346     		mov	r3, r8
 631 003a FFF7FEFF 		bl	chThdCreateStatic
 632              	.LVL78:
 633              		.loc 1 185 0
 634 003e FA69     		ldr	r2, [r7, #28]
 635 0040 B368     		ldr	r3, [r6, #8]
 636 0042 9268     		ldr	r2, [r2, #8]
 637 0044 4FF49871 		mov	r1, #304
 638              		.loc 1 184 0
 639 0048 6060     		str	r0, [r4, #4]
 640              		.loc 1 185 0
 641 004a 033A     		subs	r2, r2, #3
 642 004c 0095     		str	r5, [sp]
 643 004e 1846     		mov	r0, r3
 644 0050 4346     		mov	r3, r8
 645 0052 FFF7FEFF 		bl	chThdCreateStatic
 646              	.LVL79:
 647              		.loc 1 186 0
 648 0056 FA69     		ldr	r2, [r7, #28]
 649 0058 F368     		ldr	r3, [r6, #12]
 650 005a 9268     		ldr	r2, [r2, #8]
 651 005c 4FF49871 		mov	r1, #304
 652              		.loc 1 185 0
 653 0060 A060     		str	r0, [r4, #8]
 654              		.loc 1 186 0
 655 0062 043A     		subs	r2, r2, #4
 656 0064 0095     		str	r5, [sp]
 657 0066 1846     		mov	r0, r3
 658 0068 4346     		mov	r3, r8
 659 006a FFF7FEFF 		bl	chThdCreateStatic
 660              	.LVL80:
 661              		.loc 1 187 0
 662 006e FA69     		ldr	r2, [r7, #28]
 663 0070 3369     		ldr	r3, [r6, #16]
 664 0072 9268     		ldr	r2, [r2, #8]
 665 0074 4FF49871 		mov	r1, #304
 666 0078 053A     		subs	r2, r2, #5
 667              		.loc 1 186 0
 668 007a E060     		str	r0, [r4, #12]
 669              		.loc 1 187 0
 670 007c 1846     		mov	r0, r3
 671 007e 0095     		str	r5, [sp]
 672 0080 4346     		mov	r3, r8
 673 0082 FFF7FEFF 		bl	chThdCreateStatic
 674              	.LVL81:
ARM GAS  /tmp/cc56bn3e.s 			page 13


 675 0086 2061     		str	r0, [r4, #16]
 676              		.loc 1 188 0
 677 0088 2068     		ldr	r0, [r4]
 678 008a FFF7FEFF 		bl	msg_loop_test
 679              	.LVL82:
 680 008e 0446     		mov	r4, r0
 681              	.LVL83:
 682              		.loc 1 189 0
 683 0090 FFF7FEFF 		bl	test_wait_threads
 684              	.LVL84:
 685              		.loc 1 190 0
 686 0094 0C48     		ldr	r0, .L27+16
 687 0096 FFF7FEFF 		bl	test_print
 688              	.LVL85:
 689              		.loc 1 191 0
 690 009a 2046     		mov	r0, r4
 691 009c FFF7FEFF 		bl	test_printn
 692              	.LVL86:
 693              		.loc 1 192 0
 694 00a0 0A48     		ldr	r0, .L27+20
 695 00a2 FFF7FEFF 		bl	test_print
 696              	.LVL87:
 697              		.loc 1 193 0
 698 00a6 6000     		lsls	r0, r4, #1
 699 00a8 FFF7FEFF 		bl	test_printn
 700              	.LVL88:
 701              		.loc 1 194 0
 702 00ac 0848     		ldr	r0, .L27+24
 703              		.loc 1 195 0
 704 00ae 02B0     		add	sp, sp, #8
 705              		@ sp needed
 706 00b0 BDE8F041 		pop	{r4, r5, r6, r7, r8, lr}
 707              	.LVL89:
 708              		.loc 1 194 0
 709 00b4 FFF7FEBF 		b	test_println
 710              	.LVL90:
 711              	.L28:
 712              		.align	2
 713              	.L27:
 714 00b8 00000000 		.word	rlist
 715 00bc 00000000 		.word	wa
 716 00c0 00000000 		.word	thread1
 717 00c4 00000000 		.word	threads
 718 00c8 A8000000 		.word	.LC11
 719 00cc C4000000 		.word	.LC13
 720 00d0 D0000000 		.word	.LC14
 721 00d4 00000000 		.word	thread2
 722              		.cfi_endproc
 723              	.LFE12:
 724              		.size	bmk3_execute, .-bmk3_execute
 725 00d8 AFF30080 		.section	.text.thread4,"ax",%progbits
 725      AFF30080 
 726              		.align	2
 727              		.p2align 4,,15
 728              		.global	thread4
 729              		.thumb
 730              		.thumb_func
ARM GAS  /tmp/cc56bn3e.s 			page 14


 731              		.type	thread4, %function
 732              	thread4:
 733              	.LFB13:
 734              		.loc 1 214 0
 735              		.cfi_startproc
 736              		@ args = 0, pretend = 0, frame = 0
 737              		@ frame_needed = 0, uses_anonymous_args = 0
 738              	.LVL91:
 739              		.loc 1 216 0
 740 0000 084A     		ldr	r2, .L32
 741              		.loc 1 214 0
 742 0002 10B5     		push	{r4, lr}
 743              		.cfi_def_cfa_offset 8
 744              		.cfi_offset 4, -8
 745              		.cfi_offset 14, -4
 746              	.LBB2:
 747              		.loc 1 219 0
 748 0004 2023     		movs	r3, #32
 749              	.LBE2:
 750              		.loc 1 216 0
 751 0006 D469     		ldr	r4, [r2, #28]
 752              	.LVL92:
 753              	.LBB3:
 754              		.loc 1 219 0
 755              	@ 219 "../../test/testbmk.c" 1
 756 0008 83F31188 		msr     BASEPRI, r3
 757              	@ 0 "" 2
 758              	.LVL93:
 759              		.thumb
 760              	.L31:
 761              	.LBE3:
 762              		.loc 1 221 0 discriminator 1
 763 000c 0220     		movs	r0, #2
 764 000e FFF7FEFF 		bl	chSchGoSleepS
 765              	.LVL94:
 766              		.loc 1 223 0 discriminator 1
 767 0012 636A     		ldr	r3, [r4, #36]
 768 0014 002B     		cmp	r3, #0
 769 0016 F9D0     		beq	.L31
 770              	.LBB4:
 771              		.loc 1 224 0
 772 0018 0023     		movs	r3, #0
 773              	@ 224 "../../test/testbmk.c" 1
 774 001a 83F31188 		msr     BASEPRI, r3
 775              	@ 0 "" 2
 776              		.thumb
 777              	.LBE4:
 778              		.loc 1 226 0
 779 001e 1846     		mov	r0, r3
 780 0020 10BD     		pop	{r4, pc}
 781              	.LVL95:
 782              	.L33:
 783 0022 00BF     		.align	2
 784              	.L32:
 785 0024 00000000 		.word	rlist
 786              		.cfi_endproc
 787              	.LFE13:
ARM GAS  /tmp/cc56bn3e.s 			page 15


 788              		.size	thread4, .-thread4
 789 0028 AFF30080 		.section	.text.bmk4_execute,"ax",%progbits
 789      AFF30080 
 790              		.align	2
 791              		.p2align 4,,15
 792              		.thumb
 793              		.thumb_func
 794              		.type	bmk4_execute, %function
 795              	bmk4_execute:
 796              	.LFB14:
 797              		.loc 1 228 0
 798              		.cfi_startproc
 799              		@ args = 0, pretend = 0, frame = 0
 800              		@ frame_needed = 0, uses_anonymous_args = 0
 801 0000 70B5     		push	{r4, r5, r6, lr}
 802              		.cfi_def_cfa_offset 16
 803              		.cfi_offset 4, -16
 804              		.cfi_offset 5, -12
 805              		.cfi_offset 6, -8
 806              		.cfi_offset 14, -4
 807              		.loc 1 232 0
 808 0002 254B     		ldr	r3, .L37
 809 0004 254A     		ldr	r2, .L37+4
 810 0006 DB69     		ldr	r3, [r3, #28]
 811 0008 1068     		ldr	r0, [r2]
 812 000a 9A68     		ldr	r2, [r3, #8]
 813              		.loc 1 228 0
 814 000c 82B0     		sub	sp, sp, #8
 815              		.cfi_def_cfa_offset 24
 816              		.loc 1 232 0
 817 000e 0025     		movs	r5, #0
 818 0010 0132     		adds	r2, r2, #1
 819 0012 4FF49871 		mov	r1, #304
 820 0016 224B     		ldr	r3, .L37+8
 821 0018 0095     		str	r5, [sp]
 822 001a FFF7FEFF 		bl	chThdCreateStatic
 823              	.LVL96:
 824 001e 214B     		ldr	r3, .L37+12
 825 0020 0446     		mov	r4, r0
 826 0022 1860     		str	r0, [r3]
 827              	.LVL97:
 828              		.loc 1 234 0
 829 0024 FFF7FEFF 		bl	test_wait_tick
 830              	.LVL98:
 831              		.loc 1 235 0
 832 0028 4FF47A70 		mov	r0, #1000
 833 002c 1E4E     		ldr	r6, .L37+16
 834 002e FFF7FEFF 		bl	test_start_timer
 835              	.LVL99:
 836              	.L36:
 837              	.LBB5:
 838              		.loc 1 237 0 discriminator 1
 839 0032 2023     		movs	r3, #32
 840              	@ 237 "../../test/testbmk.c" 1
 841 0034 83F31188 		msr     BASEPRI, r3
 842              	@ 0 "" 2
 843              		.thumb
ARM GAS  /tmp/cc56bn3e.s 			page 16


 844              	.LBE5:
 845              		.loc 1 238 0 discriminator 1
 846 0038 0021     		movs	r1, #0
 847 003a 2046     		mov	r0, r4
 848 003c FFF7FEFF 		bl	chSchWakeupS
 849              	.LVL100:
 850              		.loc 1 239 0 discriminator 1
 851 0040 2046     		mov	r0, r4
 852 0042 0021     		movs	r1, #0
 853 0044 FFF7FEFF 		bl	chSchWakeupS
 854              	.LVL101:
 855              		.loc 1 240 0 discriminator 1
 856 0048 2046     		mov	r0, r4
 857 004a 0021     		movs	r1, #0
 858 004c FFF7FEFF 		bl	chSchWakeupS
 859              	.LVL102:
 860              		.loc 1 241 0 discriminator 1
 861 0050 2046     		mov	r0, r4
 862 0052 0021     		movs	r1, #0
 863 0054 FFF7FEFF 		bl	chSchWakeupS
 864              	.LVL103:
 865              	.LBB6:
 866              		.loc 1 242 0 discriminator 1
 867 0058 0023     		movs	r3, #0
 868              	@ 242 "../../test/testbmk.c" 1
 869 005a 83F31188 		msr     BASEPRI, r3
 870              	@ 0 "" 2
 871              		.thumb
 872              	.LBE6:
 873              		.loc 1 247 0 discriminator 1
 874 005e 3368     		ldr	r3, [r6]
 875              		.loc 1 243 0 discriminator 1
 876 0060 0435     		adds	r5, r5, #4
 877              	.LVL104:
 878              		.loc 1 247 0 discriminator 1
 879 0062 002B     		cmp	r3, #0
 880 0064 E5D0     		beq	.L36
 881              	.LBB7:
 882              		.loc 1 248 0
 883 0066 2023     		movs	r3, #32
 884              	@ 248 "../../test/testbmk.c" 1
 885 0068 83F31188 		msr     BASEPRI, r3
 886              	@ 0 "" 2
 887              		.thumb
 888              	.LBE7:
 889              		.loc 1 249 0
 890 006c 4FF0FF31 		mov	r1, #-1
 891 0070 2046     		mov	r0, r4
 892 0072 FFF7FEFF 		bl	chSchWakeupS
 893              	.LVL105:
 894              	.LBB8:
 895              		.loc 1 250 0
 896 0076 0023     		movs	r3, #0
 897              	@ 250 "../../test/testbmk.c" 1
 898 0078 83F31188 		msr     BASEPRI, r3
 899              	@ 0 "" 2
 900              		.thumb
ARM GAS  /tmp/cc56bn3e.s 			page 17


 901              	.LBE8:
 902              		.loc 1 252 0
 903 007c FFF7FEFF 		bl	test_wait_threads
 904              	.LVL106:
 905              		.loc 1 253 0
 906 0080 0A48     		ldr	r0, .L37+20
 907 0082 FFF7FEFF 		bl	test_print
 908              	.LVL107:
 909              		.loc 1 254 0
 910 0086 6800     		lsls	r0, r5, #1
 911 0088 FFF7FEFF 		bl	test_printn
 912              	.LVL108:
 913              		.loc 1 255 0
 914 008c 0848     		ldr	r0, .L37+24
 915              		.loc 1 256 0
 916 008e 02B0     		add	sp, sp, #8
 917              		@ sp needed
 918 0090 BDE87040 		pop	{r4, r5, r6, lr}
 919              	.LVL109:
 920              		.loc 1 255 0
 921 0094 FFF7FEBF 		b	test_println
 922              	.LVL110:
 923              	.L38:
 924              		.align	2
 925              	.L37:
 926 0098 00000000 		.word	rlist
 927 009c 00000000 		.word	wa
 928 00a0 00000000 		.word	thread4
 929 00a4 00000000 		.word	threads
 930 00a8 00000000 		.word	test_timer_done
 931 00ac A8000000 		.word	.LC11
 932 00b0 D0000000 		.word	.LC14
 933              		.cfi_endproc
 934              	.LFE14:
 935              		.size	bmk4_execute, .-bmk4_execute
 936 00b4 AFF30080 		.section	.text.bmk5_execute,"ax",%progbits
 936      AFF30080 
 936      AFF30080 
 937              		.align	2
 938              		.p2align 4,,15
 939              		.thumb
 940              		.thumb_func
 941              		.type	bmk5_execute, %function
 942              	bmk5_execute:
 943              	.LFB15:
 944              		.loc 1 276 0
 945              		.cfi_startproc
 946              		@ args = 0, pretend = 0, frame = 0
 947              		@ frame_needed = 0, uses_anonymous_args = 0
 948              	.LVL111:
 949 0000 2DE9F041 		push	{r4, r5, r6, r7, r8, lr}
 950              		.cfi_def_cfa_offset 24
 951              		.cfi_offset 4, -24
 952              		.cfi_offset 5, -20
 953              		.cfi_offset 6, -16
 954              		.cfi_offset 7, -12
 955              		.cfi_offset 8, -8
ARM GAS  /tmp/cc56bn3e.s 			page 18


 956              		.cfi_offset 14, -4
 957              		.loc 1 280 0
 958 0004 154B     		ldr	r3, .L42
 959              		.loc 1 279 0
 960 0006 164A     		ldr	r2, .L42+4
 961              		.loc 1 280 0
 962 0008 DB69     		ldr	r3, [r3, #28]
 963              		.loc 1 276 0
 964 000a 82B0     		sub	sp, sp, #8
 965              		.cfi_def_cfa_offset 32
 966              		.loc 1 280 0
 967 000c 9E68     		ldr	r6, [r3, #8]
 968              		.loc 1 279 0
 969 000e 1768     		ldr	r7, [r2]
 970              	.LVL112:
 971              		.loc 1 281 0
 972 0010 FFF7FEFF 		bl	test_wait_tick
 973              	.LVL113:
 974              		.loc 1 282 0
 975 0014 4FF47A70 		mov	r0, #1000
 976 0018 FFF7FEFF 		bl	test_start_timer
 977              	.LVL114:
 978              		.loc 1 278 0
 979 001c 0024     		movs	r4, #0
 980 001e DFF85080 		ldr	r8, .L42+20
 981              		.loc 1 280 0
 982 0022 013E     		subs	r6, r6, #1
 983              	.LVL115:
 984              		.loc 1 284 0
 985 0024 2546     		mov	r5, r4
 986              	.LVL116:
 987              	.L41:
 988              		.loc 1 284 0 is_stmt 0 discriminator 1
 989 0026 0F4B     		ldr	r3, .L42+8
 990 0028 4FF49871 		mov	r1, #304
 991 002c 3246     		mov	r2, r6
 992 002e 0095     		str	r5, [sp]
 993 0030 3846     		mov	r0, r7
 994 0032 FFF7FEFF 		bl	chThdCreateStatic
 995              	.LVL117:
 996 0036 FFF7FEFF 		bl	chThdWait
 997              	.LVL118:
 998              		.loc 1 289 0 is_stmt 1 discriminator 1
 999 003a D8F80030 		ldr	r3, [r8]
 1000              		.loc 1 285 0 discriminator 1
 1001 003e 0134     		adds	r4, r4, #1
 1002              	.LVL119:
 1003              		.loc 1 289 0 discriminator 1
 1004 0040 002B     		cmp	r3, #0
 1005 0042 F0D0     		beq	.L41
 1006              		.loc 1 290 0
 1007 0044 0848     		ldr	r0, .L42+12
 1008 0046 FFF7FEFF 		bl	test_print
 1009              	.LVL120:
 1010              		.loc 1 291 0
 1011 004a 2046     		mov	r0, r4
 1012 004c FFF7FEFF 		bl	test_printn
ARM GAS  /tmp/cc56bn3e.s 			page 19


 1013              	.LVL121:
 1014              		.loc 1 292 0
 1015 0050 0648     		ldr	r0, .L42+16
 1016              		.loc 1 293 0
 1017 0052 02B0     		add	sp, sp, #8
 1018              		@ sp needed
 1019 0054 BDE8F041 		pop	{r4, r5, r6, r7, r8, lr}
 1020              	.LVL122:
 1021              		.loc 1 292 0
 1022 0058 FFF7FEBF 		b	test_println
 1023              	.LVL123:
 1024              	.L43:
 1025              		.align	2
 1026              	.L42:
 1027 005c 00000000 		.word	rlist
 1028 0060 00000000 		.word	wa
 1029 0064 00000000 		.word	thread2
 1030 0068 A8000000 		.word	.LC11
 1031 006c B8000000 		.word	.LC12
 1032 0070 00000000 		.word	test_timer_done
 1033              		.cfi_endproc
 1034              	.LFE15:
 1035              		.size	bmk5_execute, .-bmk5_execute
 1036 0074 AFF30080 		.section	.text.bmk7_execute,"ax",%progbits
 1036      AFF30080 
 1036      AFF30080 
 1037              		.align	2
 1038              		.p2align 4,,15
 1039              		.thumb
 1040              		.thumb_func
 1041              		.type	bmk7_execute, %function
 1042              	bmk7_execute:
 1043              	.LFB19:
 1044              		.loc 1 365 0
 1045              		.cfi_startproc
 1046              		@ args = 0, pretend = 0, frame = 0
 1047              		@ frame_needed = 0, uses_anonymous_args = 0
 1048 0000 F0B5     		push	{r4, r5, r6, r7, lr}
 1049              		.cfi_def_cfa_offset 20
 1050              		.cfi_offset 4, -20
 1051              		.cfi_offset 5, -16
 1052              		.cfi_offset 6, -12
 1053              		.cfi_offset 7, -8
 1054              		.cfi_offset 14, -4
 1055              		.loc 1 368 0
 1056 0002 354F     		ldr	r7, .L47
 1057 0004 354E     		ldr	r6, .L47+4
 1058 0006 FB69     		ldr	r3, [r7, #28]
 1059              		.loc 1 365 0
 1060 0008 83B0     		sub	sp, sp, #12
 1061              		.cfi_def_cfa_offset 32
 1062              		.loc 1 368 0
 1063 000a 9A68     		ldr	r2, [r3, #8]
 1064 000c 0024     		movs	r4, #0
 1065 000e 0532     		adds	r2, r2, #5
 1066 0010 4FF49871 		mov	r1, #304
 1067 0014 324B     		ldr	r3, .L47+8
ARM GAS  /tmp/cc56bn3e.s 			page 20


 1068 0016 3068     		ldr	r0, [r6]
 1069 0018 0094     		str	r4, [sp]
 1070 001a FFF7FEFF 		bl	chThdCreateStatic
 1071              	.LVL124:
 1072              		.loc 1 369 0
 1073 001e FB69     		ldr	r3, [r7, #28]
 1074              		.loc 1 368 0
 1075 0020 304D     		ldr	r5, .L47+12
 1076              		.loc 1 369 0
 1077 0022 9A68     		ldr	r2, [r3, #8]
 1078 0024 7368     		ldr	r3, [r6, #4]
 1079              		.loc 1 368 0
 1080 0026 2860     		str	r0, [r5]
 1081              		.loc 1 369 0
 1082 0028 0432     		adds	r2, r2, #4
 1083 002a 1846     		mov	r0, r3
 1084 002c 4FF49871 		mov	r1, #304
 1085 0030 2B4B     		ldr	r3, .L47+8
 1086 0032 0094     		str	r4, [sp]
 1087 0034 FFF7FEFF 		bl	chThdCreateStatic
 1088              	.LVL125:
 1089              		.loc 1 370 0
 1090 0038 FA69     		ldr	r2, [r7, #28]
 1091 003a B368     		ldr	r3, [r6, #8]
 1092 003c 9268     		ldr	r2, [r2, #8]
 1093 003e 4FF49871 		mov	r1, #304
 1094              		.loc 1 369 0
 1095 0042 6860     		str	r0, [r5, #4]
 1096              		.loc 1 370 0
 1097 0044 0332     		adds	r2, r2, #3
 1098 0046 1846     		mov	r0, r3
 1099 0048 0094     		str	r4, [sp]
 1100 004a 254B     		ldr	r3, .L47+8
 1101 004c FFF7FEFF 		bl	chThdCreateStatic
 1102              	.LVL126:
 1103              		.loc 1 371 0
 1104 0050 FA69     		ldr	r2, [r7, #28]
 1105 0052 F368     		ldr	r3, [r6, #12]
 1106 0054 9268     		ldr	r2, [r2, #8]
 1107 0056 4FF49871 		mov	r1, #304
 1108              		.loc 1 370 0
 1109 005a A860     		str	r0, [r5, #8]
 1110              		.loc 1 371 0
 1111 005c 0232     		adds	r2, r2, #2
 1112 005e 1846     		mov	r0, r3
 1113 0060 0094     		str	r4, [sp]
 1114 0062 1F4B     		ldr	r3, .L47+8
 1115 0064 FFF7FEFF 		bl	chThdCreateStatic
 1116              	.LVL127:
 1117              		.loc 1 372 0
 1118 0068 FA69     		ldr	r2, [r7, #28]
 1119 006a 3369     		ldr	r3, [r6, #16]
 1120 006c 9268     		ldr	r2, [r2, #8]
 1121 006e 4FF49871 		mov	r1, #304
 1122              		.loc 1 371 0
 1123 0072 E860     		str	r0, [r5, #12]
 1124              		.loc 1 372 0
ARM GAS  /tmp/cc56bn3e.s 			page 21


 1125 0074 0132     		adds	r2, r2, #1
 1126 0076 1846     		mov	r0, r3
 1127 0078 0094     		str	r4, [sp]
 1128 007a 194B     		ldr	r3, .L47+8
 1129 007c FFF7FEFF 		bl	chThdCreateStatic
 1130              	.LVL128:
 1131 0080 2861     		str	r0, [r5, #16]
 1132              	.LVL129:
 1133              		.loc 1 375 0
 1134 0082 FFF7FEFF 		bl	test_wait_tick
 1135              	.LVL130:
 1136              		.loc 1 376 0
 1137 0086 4FF47A70 		mov	r0, #1000
 1138 008a FFF7FEFF 		bl	test_start_timer
 1139              	.LVL131:
 1140 008e 164D     		ldr	r5, .L47+16
 1141              	.LVL132:
 1142              	.L46:
 1143              		.loc 1 378 0 discriminator 1
 1144 0090 1648     		ldr	r0, .L47+20
 1145 0092 0021     		movs	r1, #0
 1146 0094 FFF7FEFF 		bl	chSemReset
 1147              	.LVL133:
 1148              		.loc 1 383 0 discriminator 1
 1149 0098 2B68     		ldr	r3, [r5]
 1150              		.loc 1 379 0 discriminator 1
 1151 009a 0134     		adds	r4, r4, #1
 1152              	.LVL134:
 1153              		.loc 1 383 0 discriminator 1
 1154 009c 002B     		cmp	r3, #0
 1155 009e F7D0     		beq	.L46
 1156              		.loc 1 384 0
 1157 00a0 FFF7FEFF 		bl	test_terminate_threads
 1158              	.LVL135:
 1159              		.loc 1 385 0
 1160 00a4 0021     		movs	r1, #0
 1161 00a6 1148     		ldr	r0, .L47+20
 1162 00a8 FFF7FEFF 		bl	chSemReset
 1163              	.LVL136:
 1164              		.loc 1 386 0
 1165 00ac FFF7FEFF 		bl	test_wait_threads
 1166              	.LVL137:
 1167              		.loc 1 388 0
 1168 00b0 0F48     		ldr	r0, .L47+24
 1169 00b2 FFF7FEFF 		bl	test_print
 1170              	.LVL138:
 1171              		.loc 1 389 0
 1172 00b6 2046     		mov	r0, r4
 1173 00b8 FFF7FEFF 		bl	test_printn
 1174              	.LVL139:
 1175              		.loc 1 390 0
 1176 00bc 0D48     		ldr	r0, .L47+28
 1177 00be FFF7FEFF 		bl	test_print
 1178              	.LVL140:
 1179              		.loc 1 391 0
 1180 00c2 04EB4400 		add	r0, r4, r4, lsl #1
 1181 00c6 4000     		lsls	r0, r0, #1
ARM GAS  /tmp/cc56bn3e.s 			page 22


 1182 00c8 FFF7FEFF 		bl	test_printn
 1183              	.LVL141:
 1184              		.loc 1 392 0
 1185 00cc 0A48     		ldr	r0, .L47+32
 1186              		.loc 1 393 0
 1187 00ce 03B0     		add	sp, sp, #12
 1188              		@ sp needed
 1189 00d0 BDE8F040 		pop	{r4, r5, r6, r7, lr}
 1190              	.LVL142:
 1191              		.loc 1 392 0
 1192 00d4 FFF7FEBF 		b	test_println
 1193              	.LVL143:
 1194              	.L48:
 1195              		.align	2
 1196              	.L47:
 1197 00d8 00000000 		.word	rlist
 1198 00dc 00000000 		.word	wa
 1199 00e0 00000000 		.word	thread3
 1200 00e4 00000000 		.word	threads
 1201 00e8 00000000 		.word	test_timer_done
 1202 00ec 00000000 		.word	.LANCHOR0
 1203 00f0 A8000000 		.word	.LC11
 1204 00f4 DC000000 		.word	.LC15
 1205 00f8 D0000000 		.word	.LC14
 1206              		.cfi_endproc
 1207              	.LFE19:
 1208              		.size	bmk7_execute, .-bmk7_execute
 1209 00fc AFF30080 		.section	.text.thread3,"ax",%progbits
 1210              		.align	2
 1211              		.p2align 4,,15
 1212              		.thumb
 1213              		.thumb_func
 1214              		.type	thread3, %function
 1215              	thread3:
 1216              	.LFB17:
 1217              		.loc 1 352 0
 1218              		.cfi_startproc
 1219              		@ args = 0, pretend = 0, frame = 0
 1220              		@ frame_needed = 0, uses_anonymous_args = 0
 1221              	.LVL144:
 1222 0000 10B5     		push	{r4, lr}
 1223              		.cfi_def_cfa_offset 8
 1224              		.cfi_offset 4, -8
 1225              		.cfi_offset 14, -4
 1226              		.loc 1 355 0
 1227 0002 074C     		ldr	r4, .L54
 1228 0004 E369     		ldr	r3, [r4, #28]
 1229 0006 5B7F     		ldrb	r3, [r3, #29]	@ zero_extendqisi2
 1230 0008 5A07     		lsls	r2, r3, #29
 1231 000a 06D4     		bmi	.L53
 1232              	.LVL145:
 1233              	.L52:
 1234              		.loc 1 356 0
 1235 000c 0548     		ldr	r0, .L54+4
 1236 000e FFF7FEFF 		bl	chSemWait
 1237              	.LVL146:
 1238              		.loc 1 355 0
ARM GAS  /tmp/cc56bn3e.s 			page 23


 1239 0012 E369     		ldr	r3, [r4, #28]
 1240 0014 5B7F     		ldrb	r3, [r3, #29]	@ zero_extendqisi2
 1241 0016 5B07     		lsls	r3, r3, #29
 1242 0018 F8D5     		bpl	.L52
 1243              	.L53:
 1244              		.loc 1 358 0
 1245 001a 0020     		movs	r0, #0
 1246 001c 10BD     		pop	{r4, pc}
 1247              	.L55:
 1248 001e 00BF     		.align	2
 1249              	.L54:
 1250 0020 00000000 		.word	rlist
 1251 0024 00000000 		.word	.LANCHOR0
 1252              		.cfi_endproc
 1253              	.LFE17:
 1254              		.size	thread3, .-thread3
 1255              		.section	.text.bmk7_setup,"ax",%progbits
 1256              		.align	2
 1257              		.p2align 4,,15
 1258              		.thumb
 1259              		.thumb_func
 1260              		.type	bmk7_setup, %function
 1261              	bmk7_setup:
 1262              	.LFB18:
 1263              		.loc 1 360 0
 1264              		.cfi_startproc
 1265              		@ args = 0, pretend = 0, frame = 0
 1266              		@ frame_needed = 0, uses_anonymous_args = 0
 1267              		@ link register save eliminated.
 1268              		.loc 1 362 0
 1269 0000 0148     		ldr	r0, .L57
 1270 0002 0021     		movs	r1, #0
 1271 0004 FFF7FEBF 		b	chSemInit
 1272              	.LVL147:
 1273              	.L58:
 1274              		.align	2
 1275              	.L57:
 1276 0008 00000000 		.word	.LANCHOR0
 1277              		.cfi_endproc
 1278              	.LFE18:
 1279              		.size	bmk7_setup, .-bmk7_setup
 1280 000c AFF30080 		.section	.text.bmk11_setup,"ax",%progbits
 1281              		.align	2
 1282              		.p2align 4,,15
 1283              		.thumb
 1284              		.thumb_func
 1285              		.type	bmk11_setup, %function
 1286              	bmk11_setup:
 1287              	.LFB25:
 1288              		.loc 1 553 0
 1289              		.cfi_startproc
 1290              		@ args = 0, pretend = 0, frame = 0
 1291              		@ frame_needed = 0, uses_anonymous_args = 0
 1292              		@ link register save eliminated.
 1293              		.loc 1 555 0
 1294 0000 0148     		ldr	r0, .L60
 1295 0002 0121     		movs	r1, #1
ARM GAS  /tmp/cc56bn3e.s 			page 24


 1296 0004 FFF7FEBF 		b	chSemInit
 1297              	.LVL148:
 1298              	.L61:
 1299              		.align	2
 1300              	.L60:
 1301 0008 00000000 		.word	.LANCHOR0
 1302              		.cfi_endproc
 1303              	.LFE25:
 1304              		.size	bmk11_setup, .-bmk11_setup
 1305 000c AFF30080 		.section	.text.bmk8_execute,"ax",%progbits
 1306              		.align	2
 1307              		.p2align 4,,15
 1308              		.thumb
 1309              		.thumb_func
 1310              		.type	bmk8_execute, %function
 1311              	bmk8_execute:
 1312              	.LFB21:
 1313              		.loc 1 427 0
 1314              		.cfi_startproc
 1315              		@ args = 0, pretend = 0, frame = 8
 1316              		@ frame_needed = 0, uses_anonymous_args = 0
 1317 0000 2DE9F041 		push	{r4, r5, r6, r7, r8, lr}
 1318              		.cfi_def_cfa_offset 24
 1319              		.cfi_offset 4, -24
 1320              		.cfi_offset 5, -20
 1321              		.cfi_offset 6, -16
 1322              		.cfi_offset 7, -12
 1323              		.cfi_offset 8, -8
 1324              		.cfi_offset 14, -4
 1325              		.loc 1 433 0
 1326 0004 DFF8D080 		ldr	r8, .L63+20
 1327              		.loc 1 427 0
 1328 0008 84B0     		sub	sp, sp, #16
 1329              		.cfi_def_cfa_offset 40
 1330              		.loc 1 430 0
 1331 000a 04AC     		add	r4, sp, #16
 1332 000c 0023     		movs	r3, #0
 1333 000e 44F8043D 		str	r3, [r4, #-4]!
 1334              		.loc 1 431 0
 1335 0012 FFF7FEFF 		bl	test_wait_tick
 1336              	.LVL149:
 1337              		.loc 1 433 0
 1338 0016 D8F81C30 		ldr	r3, [r8, #28]
 1339 001a 2A4F     		ldr	r7, .L63
 1340 001c 2A4E     		ldr	r6, .L63+4
 1341 001e 9A68     		ldr	r2, [r3, #8]
 1342 0020 3868     		ldr	r0, [r7]
 1343 0022 3346     		mov	r3, r6
 1344 0024 013A     		subs	r2, r2, #1
 1345 0026 0094     		str	r4, [sp]
 1346 0028 4FF49871 		mov	r1, #304
 1347 002c FFF7FEFF 		bl	chThdCreateStatic
 1348              	.LVL150:
 1349              		.loc 1 434 0
 1350 0030 D8F81C30 		ldr	r3, [r8, #28]
 1351              		.loc 1 433 0
 1352 0034 254D     		ldr	r5, .L63+8
ARM GAS  /tmp/cc56bn3e.s 			page 25


 1353              		.loc 1 434 0
 1354 0036 9A68     		ldr	r2, [r3, #8]
 1355 0038 7B68     		ldr	r3, [r7, #4]
 1356              		.loc 1 433 0
 1357 003a 2860     		str	r0, [r5]
 1358              		.loc 1 434 0
 1359 003c 013A     		subs	r2, r2, #1
 1360 003e 0094     		str	r4, [sp]
 1361 0040 1846     		mov	r0, r3
 1362 0042 4FF49871 		mov	r1, #304
 1363 0046 3346     		mov	r3, r6
 1364 0048 FFF7FEFF 		bl	chThdCreateStatic
 1365              	.LVL151:
 1366              		.loc 1 435 0
 1367 004c D8F81C20 		ldr	r2, [r8, #28]
 1368 0050 BB68     		ldr	r3, [r7, #8]
 1369 0052 9268     		ldr	r2, [r2, #8]
 1370 0054 4FF49871 		mov	r1, #304
 1371              		.loc 1 434 0
 1372 0058 6860     		str	r0, [r5, #4]
 1373              		.loc 1 435 0
 1374 005a 013A     		subs	r2, r2, #1
 1375 005c 0094     		str	r4, [sp]
 1376 005e 1846     		mov	r0, r3
 1377 0060 3346     		mov	r3, r6
 1378 0062 FFF7FEFF 		bl	chThdCreateStatic
 1379              	.LVL152:
 1380              		.loc 1 436 0
 1381 0066 D8F81C20 		ldr	r2, [r8, #28]
 1382 006a FB68     		ldr	r3, [r7, #12]
 1383 006c 9268     		ldr	r2, [r2, #8]
 1384 006e 4FF49871 		mov	r1, #304
 1385              		.loc 1 435 0
 1386 0072 A860     		str	r0, [r5, #8]
 1387              		.loc 1 436 0
 1388 0074 013A     		subs	r2, r2, #1
 1389 0076 0094     		str	r4, [sp]
 1390 0078 1846     		mov	r0, r3
 1391 007a 3346     		mov	r3, r6
 1392 007c FFF7FEFF 		bl	chThdCreateStatic
 1393              	.LVL153:
 1394              		.loc 1 437 0
 1395 0080 D8F81C20 		ldr	r2, [r8, #28]
 1396 0084 3B69     		ldr	r3, [r7, #16]
 1397 0086 9268     		ldr	r2, [r2, #8]
 1398 0088 4FF49871 		mov	r1, #304
 1399 008c 013A     		subs	r2, r2, #1
 1400              		.loc 1 436 0
 1401 008e E860     		str	r0, [r5, #12]
 1402              		.loc 1 437 0
 1403 0090 0094     		str	r4, [sp]
 1404 0092 1846     		mov	r0, r3
 1405 0094 3346     		mov	r3, r6
 1406 0096 FFF7FEFF 		bl	chThdCreateStatic
 1407              	.LVL154:
 1408 009a 2861     		str	r0, [r5, #16]
 1409              		.loc 1 439 0
ARM GAS  /tmp/cc56bn3e.s 			page 26


 1410 009c 4FF47A70 		mov	r0, #1000
 1411 00a0 FFF7FEFF 		bl	chThdSleep
 1412              	.LVL155:
 1413              		.loc 1 440 0
 1414 00a4 FFF7FEFF 		bl	test_terminate_threads
 1415              	.LVL156:
 1416              		.loc 1 441 0
 1417 00a8 FFF7FEFF 		bl	test_wait_threads
 1418              	.LVL157:
 1419              		.loc 1 443 0
 1420 00ac 0848     		ldr	r0, .L63+12
 1421 00ae FFF7FEFF 		bl	test_print
 1422              	.LVL158:
 1423              		.loc 1 444 0
 1424 00b2 0398     		ldr	r0, [sp, #12]
 1425 00b4 FFF7FEFF 		bl	test_printn
 1426              	.LVL159:
 1427              		.loc 1 445 0
 1428 00b8 0648     		ldr	r0, .L63+16
 1429 00ba FFF7FEFF 		bl	test_println
 1430              	.LVL160:
 1431              		.loc 1 446 0
 1432 00be 04B0     		add	sp, sp, #16
 1433              		@ sp needed
 1434 00c0 BDE8F081 		pop	{r4, r5, r6, r7, r8, pc}
 1435              	.L64:
 1436              		.align	2
 1437              	.L63:
 1438 00c4 00000000 		.word	wa
 1439 00c8 00000000 		.word	thread8
 1440 00cc 00000000 		.word	threads
 1441 00d0 A8000000 		.word	.LC11
 1442 00d4 D0000000 		.word	.LC14
 1443 00d8 00000000 		.word	rlist
 1444              		.cfi_endproc
 1445              	.LFE21:
 1446              		.size	bmk8_execute, .-bmk8_execute
 1447 00dc AFF30080 		.section	.text.thread8,"ax",%progbits
 1448              		.align	2
 1449              		.p2align 4,,15
 1450              		.thumb
 1451              		.thumb_func
 1452              		.type	thread8, %function
 1453              	thread8:
 1454              	.LFB20:
 1455              		.loc 1 412 0
 1456              		.cfi_startproc
 1457              		@ args = 0, pretend = 0, frame = 0
 1458              		@ frame_needed = 0, uses_anonymous_args = 0
 1459              	.LVL161:
 1460 0000 38B5     		push	{r3, r4, r5, lr}
 1461              		.cfi_def_cfa_offset 16
 1462              		.cfi_offset 3, -16
 1463              		.cfi_offset 4, -12
 1464              		.cfi_offset 5, -8
 1465              		.cfi_offset 14, -4
 1466 0002 094D     		ldr	r5, .L68
ARM GAS  /tmp/cc56bn3e.s 			page 27


 1467              		.loc 1 412 0
 1468 0004 0446     		mov	r4, r0
 1469              	.LVL162:
 1470              	.L67:
 1471              		.loc 1 415 0 discriminator 1
 1472 0006 FFF7FEFF 		bl	chThdYield
 1473              	.LVL163:
 1474              		.loc 1 416 0 discriminator 1
 1475 000a FFF7FEFF 		bl	chThdYield
 1476              	.LVL164:
 1477              		.loc 1 417 0 discriminator 1
 1478 000e FFF7FEFF 		bl	chThdYield
 1479              	.LVL165:
 1480              		.loc 1 418 0 discriminator 1
 1481 0012 FFF7FEFF 		bl	chThdYield
 1482              	.LVL166:
 1483              		.loc 1 419 0 discriminator 1
 1484 0016 2368     		ldr	r3, [r4]
 1485              		.loc 1 423 0 discriminator 1
 1486 0018 EA69     		ldr	r2, [r5, #28]
 1487              		.loc 1 419 0 discriminator 1
 1488 001a 0433     		adds	r3, r3, #4
 1489 001c 2360     		str	r3, [r4]
 1490              		.loc 1 423 0 discriminator 1
 1491 001e 537F     		ldrb	r3, [r2, #29]	@ zero_extendqisi2
 1492 0020 5B07     		lsls	r3, r3, #29
 1493 0022 F0D5     		bpl	.L67
 1494              		.loc 1 425 0
 1495 0024 0020     		movs	r0, #0
 1496 0026 38BD     		pop	{r3, r4, r5, pc}
 1497              	.LVL167:
 1498              	.L69:
 1499              		.align	2
 1500              	.L68:
 1501 0028 00000000 		.word	rlist
 1502              		.cfi_endproc
 1503              	.LFE20:
 1504              		.size	thread8, .-thread8
 1505 002c AFF30080 		.section	.text.bmk9_execute,"ax",%progbits
 1506              		.align	2
 1507              		.p2align 4,,15
 1508              		.thumb
 1509              		.thumb_func
 1510              		.type	bmk9_execute, %function
 1511              	bmk9_execute:
 1512              	.LFB22:
 1513              		.loc 1 465 0
 1514              		.cfi_startproc
 1515              		@ args = 0, pretend = 0, frame = 0
 1516              		@ frame_needed = 0, uses_anonymous_args = 0
 1517 0000 38B5     		push	{r3, r4, r5, lr}
 1518              		.cfi_def_cfa_offset 16
 1519              		.cfi_offset 3, -16
 1520              		.cfi_offset 4, -12
 1521              		.cfi_offset 5, -8
 1522              		.cfi_offset 14, -4
 1523              		.loc 1 470 0
ARM GAS  /tmp/cc56bn3e.s 			page 28


 1524 0002 2349     		ldr	r1, .L73
 1525 0004 1022     		movs	r2, #16
 1526 0006 0023     		movs	r3, #0
 1527 0008 2248     		ldr	r0, .L73+4
 1528 000a FFF7FEFF 		bl	chIQInit
 1529              	.LVL168:
 1530              		.loc 1 472 0
 1531 000e FFF7FEFF 		bl	test_wait_tick
 1532              	.LVL169:
 1533              		.loc 1 473 0
 1534 0012 4FF47A70 		mov	r0, #1000
 1535 0016 FFF7FEFF 		bl	test_start_timer
 1536              	.LVL170:
 1537 001a 1F4D     		ldr	r5, .L73+8
 1538              		.loc 1 471 0
 1539 001c 0024     		movs	r4, #0
 1540              	.LVL171:
 1541              	.L72:
 1542              	.LBB9:
 1543              		.loc 1 475 0 discriminator 1
 1544 001e 2023     		movs	r3, #32
 1545              	@ 475 "../../test/testbmk.c" 1
 1546 0020 83F31188 		msr     BASEPRI, r3
 1547              	@ 0 "" 2
 1548              		.thumb
 1549              	.LBE9:
 1550              		.loc 1 476 0 discriminator 1
 1551 0024 0021     		movs	r1, #0
 1552 0026 1B48     		ldr	r0, .L73+4
 1553 0028 FFF7FEFF 		bl	chIQPutI
 1554              	.LVL172:
 1555              		.loc 1 477 0 discriminator 1
 1556 002c 0121     		movs	r1, #1
 1557 002e 1948     		ldr	r0, .L73+4
 1558 0030 FFF7FEFF 		bl	chIQPutI
 1559              	.LVL173:
 1560              		.loc 1 478 0 discriminator 1
 1561 0034 0221     		movs	r1, #2
 1562 0036 1748     		ldr	r0, .L73+4
 1563 0038 FFF7FEFF 		bl	chIQPutI
 1564              	.LVL174:
 1565              		.loc 1 479 0 discriminator 1
 1566 003c 0321     		movs	r1, #3
 1567 003e 1548     		ldr	r0, .L73+4
 1568 0040 FFF7FEFF 		bl	chIQPutI
 1569              	.LVL175:
 1570              	.LBB10:
 1571              		.loc 1 480 0 discriminator 1
 1572 0044 0023     		movs	r3, #0
 1573              	@ 480 "../../test/testbmk.c" 1
 1574 0046 83F31188 		msr     BASEPRI, r3
 1575              	@ 0 "" 2
 1576              		.thumb
 1577              	.LBE10:
 1578              		.loc 1 481 0 discriminator 1
 1579 004a 4FF0FF31 		mov	r1, #-1
 1580 004e 1148     		ldr	r0, .L73+4
ARM GAS  /tmp/cc56bn3e.s 			page 29


 1581 0050 FFF7FEFF 		bl	chIQGetTimeout
 1582              	.LVL176:
 1583              		.loc 1 482 0 discriminator 1
 1584 0054 4FF0FF31 		mov	r1, #-1
 1585 0058 0E48     		ldr	r0, .L73+4
 1586 005a FFF7FEFF 		bl	chIQGetTimeout
 1587              	.LVL177:
 1588              		.loc 1 483 0 discriminator 1
 1589 005e 4FF0FF31 		mov	r1, #-1
 1590 0062 0C48     		ldr	r0, .L73+4
 1591 0064 FFF7FEFF 		bl	chIQGetTimeout
 1592              	.LVL178:
 1593              		.loc 1 484 0 discriminator 1
 1594 0068 0A48     		ldr	r0, .L73+4
 1595 006a 4FF0FF31 		mov	r1, #-1
 1596 006e FFF7FEFF 		bl	chIQGetTimeout
 1597              	.LVL179:
 1598              		.loc 1 489 0 discriminator 1
 1599 0072 2B68     		ldr	r3, [r5]
 1600              		.loc 1 485 0 discriminator 1
 1601 0074 0134     		adds	r4, r4, #1
 1602              	.LVL180:
 1603              		.loc 1 489 0 discriminator 1
 1604 0076 002B     		cmp	r3, #0
 1605 0078 D1D0     		beq	.L72
 1606              		.loc 1 490 0
 1607 007a 0848     		ldr	r0, .L73+12
 1608 007c FFF7FEFF 		bl	test_print
 1609              	.LVL181:
 1610              		.loc 1 491 0
 1611 0080 A000     		lsls	r0, r4, #2
 1612 0082 FFF7FEFF 		bl	test_printn
 1613              	.LVL182:
 1614              		.loc 1 493 0
 1615 0086 BDE83840 		pop	{r3, r4, r5, lr}
 1616              	.LVL183:
 1617              		.loc 1 492 0
 1618 008a 0548     		ldr	r0, .L73+16
 1619 008c FFF7FEBF 		b	test_println
 1620              	.LVL184:
 1621              	.L74:
 1622              		.align	2
 1623              	.L73:
 1624 0090 00000000 		.word	.LANCHOR2
 1625 0094 00000000 		.word	.LANCHOR1
 1626 0098 00000000 		.word	test_timer_done
 1627 009c A8000000 		.word	.LC11
 1628 00a0 F0000000 		.word	.LC16
 1629              		.cfi_endproc
 1630              	.LFE22:
 1631              		.size	bmk9_execute, .-bmk9_execute
 1632 00a4 AFF30080 		.section	.text.bmk10_execute,"ax",%progbits
 1632      AFF30080 
 1632      AFF30080 
 1633              		.align	2
 1634              		.p2align 4,,15
 1635              		.thumb
ARM GAS  /tmp/cc56bn3e.s 			page 30


 1636              		.thumb_func
 1637              		.type	bmk10_execute, %function
 1638              	bmk10_execute:
 1639              	.LFB24:
 1640              		.loc 1 513 0
 1641              		.cfi_startproc
 1642              		@ args = 0, pretend = 0, frame = 0
 1643              		@ frame_needed = 0, uses_anonymous_args = 0
 1644              	.LVL185:
 1645 0000 38B5     		push	{r3, r4, r5, lr}
 1646              		.cfi_def_cfa_offset 16
 1647              		.cfi_offset 3, -16
 1648              		.cfi_offset 4, -12
 1649              		.cfi_offset 5, -8
 1650              		.cfi_offset 14, -4
 1651              		.loc 1 517 0
 1652 0002 FFF7FEFF 		bl	test_wait_tick
 1653              	.LVL186:
 1654              		.loc 1 518 0
 1655 0006 4FF47A70 		mov	r0, #1000
 1656 000a FFF7FEFF 		bl	test_start_timer
 1657              	.LVL187:
 1658 000e 154D     		ldr	r5, .L78
 1659              		.loc 1 515 0
 1660 0010 0024     		movs	r4, #0
 1661              	.LVL188:
 1662              	.L77:
 1663              	.LBB11:
 1664              		.loc 1 520 0 discriminator 1
 1665 0012 2023     		movs	r3, #32
 1666              	@ 520 "../../test/testbmk.c" 1
 1667 0014 83F31188 		msr     BASEPRI, r3
 1668              	@ 0 "" 2
 1669              		.thumb
 1670              	.LBE11:
 1671              		.loc 1 521 0 discriminator 1
 1672 0018 1348     		ldr	r0, .L78+4
 1673 001a 0121     		movs	r1, #1
 1674 001c 134A     		ldr	r2, .L78+8
 1675 001e 0023     		movs	r3, #0
 1676 0020 FFF7FEFF 		bl	chVTSetI
 1677              	.LVL189:
 1678              		.loc 1 522 0 discriminator 1
 1679 0024 42F21071 		movw	r1, #10000
 1680 0028 104A     		ldr	r2, .L78+8
 1681 002a 0023     		movs	r3, #0
 1682 002c 1048     		ldr	r0, .L78+12
 1683 002e FFF7FEFF 		bl	chVTSetI
 1684              	.LVL190:
 1685              		.loc 1 523 0 discriminator 1
 1686 0032 0D48     		ldr	r0, .L78+4
 1687 0034 FFF7FEFF 		bl	chVTResetI
 1688              	.LVL191:
 1689              		.loc 1 524 0 discriminator 1
 1690 0038 0D48     		ldr	r0, .L78+12
 1691 003a FFF7FEFF 		bl	chVTResetI
 1692              	.LVL192:
ARM GAS  /tmp/cc56bn3e.s 			page 31


 1693              	.LBB12:
 1694              		.loc 1 525 0 discriminator 1
 1695 003e 0023     		movs	r3, #0
 1696              	@ 525 "../../test/testbmk.c" 1
 1697 0040 83F31188 		msr     BASEPRI, r3
 1698              	@ 0 "" 2
 1699              		.thumb
 1700              	.LBE12:
 1701              		.loc 1 530 0 discriminator 1
 1702 0044 2B68     		ldr	r3, [r5]
 1703              		.loc 1 526 0 discriminator 1
 1704 0046 0134     		adds	r4, r4, #1
 1705              	.LVL193:
 1706              		.loc 1 530 0 discriminator 1
 1707 0048 002B     		cmp	r3, #0
 1708 004a E2D0     		beq	.L77
 1709              		.loc 1 531 0
 1710 004c 0948     		ldr	r0, .L78+16
 1711 004e FFF7FEFF 		bl	test_print
 1712              	.LVL194:
 1713              		.loc 1 532 0
 1714 0052 6000     		lsls	r0, r4, #1
 1715 0054 FFF7FEFF 		bl	test_printn
 1716              	.LVL195:
 1717              		.loc 1 534 0
 1718 0058 BDE83840 		pop	{r3, r4, r5, lr}
 1719              	.LVL196:
 1720              		.loc 1 533 0
 1721 005c 0648     		ldr	r0, .L78+20
 1722 005e FFF7FEBF 		b	test_println
 1723              	.LVL197:
 1724              	.L79:
 1725 0062 00BF     		.align	2
 1726              	.L78:
 1727 0064 00000000 		.word	test_timer_done
 1728 0068 00000000 		.word	.LANCHOR3
 1729 006c 00000000 		.word	tmo
 1730 0070 00000000 		.word	.LANCHOR4
 1731 0074 A8000000 		.word	.LC11
 1732 0078 FC000000 		.word	.LC17
 1733              		.cfi_endproc
 1734              	.LFE24:
 1735              		.size	bmk10_execute, .-bmk10_execute
 1736 007c AFF30080 		.section	.text.bmk11_execute,"ax",%progbits
 1737              		.align	2
 1738              		.p2align 4,,15
 1739              		.thumb
 1740              		.thumb_func
 1741              		.type	bmk11_execute, %function
 1742              	bmk11_execute:
 1743              	.LFB26:
 1744              		.loc 1 558 0
 1745              		.cfi_startproc
 1746              		@ args = 0, pretend = 0, frame = 0
 1747              		@ frame_needed = 0, uses_anonymous_args = 0
 1748              	.LVL198:
 1749 0000 38B5     		push	{r3, r4, r5, lr}
ARM GAS  /tmp/cc56bn3e.s 			page 32


 1750              		.cfi_def_cfa_offset 16
 1751              		.cfi_offset 3, -16
 1752              		.cfi_offset 4, -12
 1753              		.cfi_offset 5, -8
 1754              		.cfi_offset 14, -4
 1755              		.loc 1 561 0
 1756 0002 FFF7FEFF 		bl	test_wait_tick
 1757              	.LVL199:
 1758              		.loc 1 562 0
 1759 0006 4FF47A70 		mov	r0, #1000
 1760 000a FFF7FEFF 		bl	test_start_timer
 1761              	.LVL200:
 1762 000e 144D     		ldr	r5, .L83
 1763              		.loc 1 559 0
 1764 0010 0024     		movs	r4, #0
 1765              	.LVL201:
 1766              	.L82:
 1767              		.loc 1 564 0 discriminator 1
 1768 0012 1448     		ldr	r0, .L83+4
 1769 0014 FFF7FEFF 		bl	chSemWait
 1770              	.LVL202:
 1771              		.loc 1 565 0 discriminator 1
 1772 0018 1248     		ldr	r0, .L83+4
 1773 001a FFF7FEFF 		bl	chSemSignal
 1774              	.LVL203:
 1775              		.loc 1 566 0 discriminator 1
 1776 001e 1148     		ldr	r0, .L83+4
 1777 0020 FFF7FEFF 		bl	chSemWait
 1778              	.LVL204:
 1779              		.loc 1 567 0 discriminator 1
 1780 0024 0F48     		ldr	r0, .L83+4
 1781 0026 FFF7FEFF 		bl	chSemSignal
 1782              	.LVL205:
 1783              		.loc 1 568 0 discriminator 1
 1784 002a 0E48     		ldr	r0, .L83+4
 1785 002c FFF7FEFF 		bl	chSemWait
 1786              	.LVL206:
 1787              		.loc 1 569 0 discriminator 1
 1788 0030 0C48     		ldr	r0, .L83+4
 1789 0032 FFF7FEFF 		bl	chSemSignal
 1790              	.LVL207:
 1791              		.loc 1 570 0 discriminator 1
 1792 0036 0B48     		ldr	r0, .L83+4
 1793 0038 FFF7FEFF 		bl	chSemWait
 1794              	.LVL208:
 1795              		.loc 1 571 0 discriminator 1
 1796 003c 0948     		ldr	r0, .L83+4
 1797 003e FFF7FEFF 		bl	chSemSignal
 1798              	.LVL209:
 1799              		.loc 1 576 0 discriminator 1
 1800 0042 2B68     		ldr	r3, [r5]
 1801              		.loc 1 572 0 discriminator 1
 1802 0044 0134     		adds	r4, r4, #1
 1803              	.LVL210:
 1804              		.loc 1 576 0 discriminator 1
 1805 0046 002B     		cmp	r3, #0
 1806 0048 E3D0     		beq	.L82
ARM GAS  /tmp/cc56bn3e.s 			page 33


 1807              		.loc 1 577 0
 1808 004a 0748     		ldr	r0, .L83+8
 1809 004c FFF7FEFF 		bl	test_print
 1810              	.LVL211:
 1811              		.loc 1 578 0
 1812 0050 A000     		lsls	r0, r4, #2
 1813 0052 FFF7FEFF 		bl	test_printn
 1814              	.LVL212:
 1815              		.loc 1 580 0
 1816 0056 BDE83840 		pop	{r3, r4, r5, lr}
 1817              	.LVL213:
 1818              		.loc 1 579 0
 1819 005a 0448     		ldr	r0, .L83+12
 1820 005c FFF7FEBF 		b	test_println
 1821              	.LVL214:
 1822              	.L84:
 1823              		.align	2
 1824              	.L83:
 1825 0060 00000000 		.word	test_timer_done
 1826 0064 00000000 		.word	.LANCHOR0
 1827 0068 A8000000 		.word	.LC11
 1828 006c 08010000 		.word	.LC18
 1829              		.cfi_endproc
 1830              	.LFE26:
 1831              		.size	bmk11_execute, .-bmk11_execute
 1832              		.section	.text.bmk12_execute,"ax",%progbits
 1833              		.align	2
 1834              		.p2align 4,,15
 1835              		.thumb
 1836              		.thumb_func
 1837              		.type	bmk12_execute, %function
 1838              	bmk12_execute:
 1839              	.LFB28:
 1840              		.loc 1 605 0
 1841              		.cfi_startproc
 1842              		@ args = 0, pretend = 0, frame = 0
 1843              		@ frame_needed = 0, uses_anonymous_args = 0
 1844              	.LVL215:
 1845 0000 38B5     		push	{r3, r4, r5, lr}
 1846              		.cfi_def_cfa_offset 16
 1847              		.cfi_offset 3, -16
 1848              		.cfi_offset 4, -12
 1849              		.cfi_offset 5, -8
 1850              		.cfi_offset 14, -4
 1851              		.loc 1 608 0
 1852 0002 FFF7FEFF 		bl	test_wait_tick
 1853              	.LVL216:
 1854              		.loc 1 609 0
 1855 0006 4FF47A70 		mov	r0, #1000
 1856 000a FFF7FEFF 		bl	test_start_timer
 1857              	.LVL217:
 1858 000e 124D     		ldr	r5, .L88
 1859              		.loc 1 606 0
 1860 0010 0024     		movs	r4, #0
 1861              	.LVL218:
 1862              	.L87:
 1863              		.loc 1 611 0 discriminator 1
ARM GAS  /tmp/cc56bn3e.s 			page 34


 1864 0012 1248     		ldr	r0, .L88+4
 1865 0014 FFF7FEFF 		bl	chMtxLock
 1866              	.LVL219:
 1867              		.loc 1 612 0 discriminator 1
 1868 0018 FFF7FEFF 		bl	chMtxUnlock
 1869              	.LVL220:
 1870              		.loc 1 613 0 discriminator 1
 1871 001c 0F48     		ldr	r0, .L88+4
 1872 001e FFF7FEFF 		bl	chMtxLock
 1873              	.LVL221:
 1874              		.loc 1 614 0 discriminator 1
 1875 0022 FFF7FEFF 		bl	chMtxUnlock
 1876              	.LVL222:
 1877              		.loc 1 615 0 discriminator 1
 1878 0026 0D48     		ldr	r0, .L88+4
 1879 0028 FFF7FEFF 		bl	chMtxLock
 1880              	.LVL223:
 1881              		.loc 1 616 0 discriminator 1
 1882 002c FFF7FEFF 		bl	chMtxUnlock
 1883              	.LVL224:
 1884              		.loc 1 617 0 discriminator 1
 1885 0030 0A48     		ldr	r0, .L88+4
 1886 0032 FFF7FEFF 		bl	chMtxLock
 1887              	.LVL225:
 1888              		.loc 1 618 0 discriminator 1
 1889 0036 FFF7FEFF 		bl	chMtxUnlock
 1890              	.LVL226:
 1891              		.loc 1 623 0 discriminator 1
 1892 003a 2B68     		ldr	r3, [r5]
 1893              		.loc 1 619 0 discriminator 1
 1894 003c 0134     		adds	r4, r4, #1
 1895              	.LVL227:
 1896              		.loc 1 623 0 discriminator 1
 1897 003e 002B     		cmp	r3, #0
 1898 0040 E7D0     		beq	.L87
 1899              		.loc 1 624 0
 1900 0042 0748     		ldr	r0, .L88+8
 1901 0044 FFF7FEFF 		bl	test_print
 1902              	.LVL228:
 1903              		.loc 1 625 0
 1904 0048 A000     		lsls	r0, r4, #2
 1905 004a FFF7FEFF 		bl	test_printn
 1906              	.LVL229:
 1907              		.loc 1 627 0
 1908 004e BDE83840 		pop	{r3, r4, r5, lr}
 1909              	.LVL230:
 1910              		.loc 1 626 0
 1911 0052 0448     		ldr	r0, .L88+12
 1912 0054 FFF7FEBF 		b	test_println
 1913              	.LVL231:
 1914              	.L89:
 1915              		.align	2
 1916              	.L88:
 1917 0058 00000000 		.word	test_timer_done
 1918 005c 00000000 		.word	.LANCHOR5
 1919 0060 A8000000 		.word	.LC11
 1920 0064 18010000 		.word	.LC19
ARM GAS  /tmp/cc56bn3e.s 			page 35


 1921              		.cfi_endproc
 1922              	.LFE28:
 1923              		.size	bmk12_execute, .-bmk12_execute
 1924 0068 AFF30080 		.section	.text.bmk12_setup,"ax",%progbits
 1924      AFF30080 
 1925              		.align	2
 1926              		.p2align 4,,15
 1927              		.thumb
 1928              		.thumb_func
 1929              		.type	bmk12_setup, %function
 1930              	bmk12_setup:
 1931              	.LFB27:
 1932              		.loc 1 600 0
 1933              		.cfi_startproc
 1934              		@ args = 0, pretend = 0, frame = 0
 1935              		@ frame_needed = 0, uses_anonymous_args = 0
 1936              		@ link register save eliminated.
 1937              		.loc 1 602 0
 1938 0000 0148     		ldr	r0, .L91
 1939 0002 FFF7FEBF 		b	chMtxInit
 1940              	.LVL232:
 1941              	.L92:
 1942 0006 00BF     		.align	2
 1943              	.L91:
 1944 0008 00000000 		.word	.LANCHOR5
 1945              		.cfi_endproc
 1946              	.LFE27:
 1947              		.size	bmk12_setup, .-bmk12_setup
 1948              		.global	patternbmk
 1949              		.global	testbmk13
 1950              		.global	testbmk12
 1951              		.global	testbmk11
 1952              		.global	testbmk10
 1953              		.global	testbmk9
 1954              		.global	testbmk8
 1955              		.global	testbmk7
 1956              		.global	testbmk6
 1957              		.global	testbmk5
 1958              		.global	testbmk4
 1959              		.global	testbmk3
 1960              		.global	testbmk2
 1961              		.global	testbmk1
 1962 000c AFF30080 		.section	.rodata.testbmk8,"a",%progbits
 1963              		.align	2
 1964              		.type	testbmk8, %object
 1965              		.size	testbmk8, 16
 1966              	testbmk8:
 1967 0000 D0010000 		.word	.LC25
 1968 0004 00000000 		.word	0
 1969 0008 00000000 		.word	0
 1970 000c 00000000 		.word	bmk8_execute
 1971              		.section	.rodata.patternbmk,"a",%progbits
 1972              		.align	2
 1973              		.type	patternbmk, %object
 1974              		.size	patternbmk, 56
 1975              	patternbmk:
 1976 0000 00000000 		.word	testbmk1
ARM GAS  /tmp/cc56bn3e.s 			page 36


 1977 0004 00000000 		.word	testbmk2
 1978 0008 00000000 		.word	testbmk3
 1979 000c 00000000 		.word	testbmk4
 1980 0010 00000000 		.word	testbmk5
 1981 0014 00000000 		.word	testbmk6
 1982 0018 00000000 		.word	testbmk7
 1983 001c 00000000 		.word	testbmk8
 1984 0020 00000000 		.word	testbmk9
 1985 0024 00000000 		.word	testbmk10
 1986 0028 00000000 		.word	testbmk11
 1987 002c 00000000 		.word	testbmk12
 1988 0030 00000000 		.word	testbmk13
 1989 0034 00000000 		.word	0
 1990              		.section	.bss.vt1.4982,"aw",%nobits
 1991              		.align	2
 1992              		.set	.LANCHOR3,. + 0
 1993              		.type	vt1.4982, %object
 1994              		.size	vt1.4982, 20
 1995              	vt1.4982:
 1996 0000 00000000 		.space	20
 1996      00000000 
 1996      00000000 
 1996      00000000 
 1996      00000000 
 1997              		.section	.rodata.testbmk2,"a",%progbits
 1998              		.align	2
 1999              		.type	testbmk2, %object
 2000              		.size	testbmk2, 16
 2001              	testbmk2:
 2002 0000 98020000 		.word	.LC31
 2003 0004 00000000 		.word	0
 2004 0008 00000000 		.word	0
 2005 000c 00000000 		.word	bmk2_execute
 2006              		.section	.rodata.testbmk9,"a",%progbits
 2007              		.align	2
 2008              		.type	testbmk9, %object
 2009              		.size	testbmk9, 16
 2010              	testbmk9:
 2011 0000 AC010000 		.word	.LC24
 2012 0004 00000000 		.word	0
 2013 0008 00000000 		.word	0
 2014 000c 00000000 		.word	bmk9_execute
 2015              		.section	.rodata.testbmk10,"a",%progbits
 2016              		.align	2
 2017              		.type	testbmk10, %object
 2018              		.size	testbmk10, 16
 2019              	testbmk10:
 2020 0000 88010000 		.word	.LC23
 2021 0004 00000000 		.word	0
 2022 0008 00000000 		.word	0
 2023 000c 00000000 		.word	bmk10_execute
 2024              		.section	.rodata.testbmk4,"a",%progbits
 2025              		.align	2
 2026              		.type	testbmk4, %object
 2027              		.size	testbmk4, 16
 2028              	testbmk4:
 2029 0000 64020000 		.word	.LC29
ARM GAS  /tmp/cc56bn3e.s 			page 37


 2030 0004 00000000 		.word	0
 2031 0008 00000000 		.word	0
 2032 000c 00000000 		.word	bmk4_execute
 2033              		.section	.bss.mtx1,"aw",%nobits
 2034              		.align	2
 2035              		.set	.LANCHOR5,. + 0
 2036              		.type	mtx1, %object
 2037              		.size	mtx1, 16
 2038              	mtx1:
 2039 0000 00000000 		.space	16
 2039      00000000 
 2039      00000000 
 2039      00000000 
 2040              		.section	.rodata.testbmk3,"a",%progbits
 2041              		.align	2
 2042              		.type	testbmk3, %object
 2043              		.size	testbmk3, 16
 2044              	testbmk3:
 2045 0000 80020000 		.word	.LC30
 2046 0004 00000000 		.word	0
 2047 0008 00000000 		.word	0
 2048 000c 00000000 		.word	bmk3_execute
 2049              		.section	.rodata.testbmk6,"a",%progbits
 2050              		.align	2
 2051              		.type	testbmk6, %object
 2052              		.size	testbmk6, 16
 2053              	testbmk6:
 2054 0000 24020000 		.word	.LC27
 2055 0004 00000000 		.word	0
 2056 0008 00000000 		.word	0
 2057 000c 00000000 		.word	bmk6_execute
 2058              		.section	.bss.vt2.4983,"aw",%nobits
 2059              		.align	2
 2060              		.set	.LANCHOR4,. + 0
 2061              		.type	vt2.4983, %object
 2062              		.size	vt2.4983, 20
 2063              	vt2.4983:
 2064 0000 00000000 		.space	20
 2064      00000000 
 2064      00000000 
 2064      00000000 
 2064      00000000 
 2065              		.section	.rodata.str1.4,"aMS",%progbits,1
 2066              		.align	2
 2067              	.LC0:
 2068 0000 2D2D2D20 		.ascii	"--- System: \000"
 2068      53797374 
 2068      656D3A20 
 2068      00
 2069 000d 000000   		.space	3
 2070              	.LC1:
 2071 0010 20627974 		.ascii	" bytes\000"
 2071      657300
 2072 0017 00       		.space	1
 2073              	.LC2:
 2074 0018 2D2D2D20 		.ascii	"--- Thread: \000"
 2074      54687265 
ARM GAS  /tmp/cc56bn3e.s 			page 38


 2074      61643A20 
 2074      00
 2075 0025 000000   		.space	3
 2076              	.LC3:
 2077 0028 2D2D2D20 		.ascii	"--- Timer : \000"
 2077      54696D65 
 2077      72203A20 
 2077      00
 2078 0035 000000   		.space	3
 2079              	.LC4:
 2080 0038 2D2D2D20 		.ascii	"--- Semaph: \000"
 2080      53656D61 
 2080      70683A20 
 2080      00
 2081 0045 000000   		.space	3
 2082              	.LC5:
 2083 0048 2D2D2D20 		.ascii	"--- EventS: \000"
 2083      4576656E 
 2083      74533A20 
 2083      00
 2084 0055 000000   		.space	3
 2085              	.LC6:
 2086 0058 2D2D2D20 		.ascii	"--- EventL: \000"
 2086      4576656E 
 2086      744C3A20 
 2086      00
 2087 0065 000000   		.space	3
 2088              	.LC7:
 2089 0068 2D2D2D20 		.ascii	"--- Mutex : \000"
 2089      4D757465 
 2089      78203A20 
 2089      00
 2090 0075 000000   		.space	3
 2091              	.LC8:
 2092 0078 2D2D2D20 		.ascii	"--- CondV.: \000"
 2092      436F6E64 
 2092      562E3A20 
 2092      00
 2093 0085 000000   		.space	3
 2094              	.LC9:
 2095 0088 2D2D2D20 		.ascii	"--- Queue : \000"
 2095      51756575 
 2095      65203A20 
 2095      00
 2096 0095 000000   		.space	3
 2097              	.LC10:
 2098 0098 2D2D2D20 		.ascii	"--- MailB.: \000"
 2098      4D61696C 
 2098      422E3A20 
 2098      00
 2099 00a5 000000   		.space	3
 2100              	.LC11:
 2101 00a8 2D2D2D20 		.ascii	"--- Score : \000"
 2101      53636F72 
 2101      65203A20 
 2101      00
 2102 00b5 000000   		.space	3
ARM GAS  /tmp/cc56bn3e.s 			page 39


 2103              	.LC12:
 2104 00b8 20746872 		.ascii	" threads/S\000"
 2104      65616473 
 2104      2F5300
 2105 00c3 00       		.space	1
 2106              	.LC13:
 2107 00c4 206D7367 		.ascii	" msgs/S, \000"
 2107      732F532C 
 2107      2000
 2108 00ce 0000     		.space	2
 2109              	.LC14:
 2110 00d0 20637478 		.ascii	" ctxswc/S\000"
 2110      7377632F 
 2110      5300
 2111 00da 0000     		.space	2
 2112              	.LC15:
 2113 00dc 20726573 		.ascii	" reschedules/S, \000"
 2113      63686564 
 2113      756C6573 
 2113      2F532C20 
 2113      00
 2114 00ed 000000   		.space	3
 2115              	.LC16:
 2116 00f0 20627974 		.ascii	" bytes/S\000"
 2116      65732F53 
 2116      00
 2117 00f9 000000   		.space	3
 2118              	.LC17:
 2119 00fc 2074696D 		.ascii	" timers/S\000"
 2119      6572732F 
 2119      5300
 2120 0106 0000     		.space	2
 2121              	.LC18:
 2122 0108 20776169 		.ascii	" wait+signal/S\000"
 2122      742B7369 
 2122      676E616C 
 2122      2F5300
 2123 0117 00       		.space	1
 2124              	.LC19:
 2125 0118 206C6F63 		.ascii	" lock+unlock/S\000"
 2125      6B2B756E 
 2125      6C6F636B 
 2125      2F5300
 2126 0127 00       		.space	1
 2127              	.LC20:
 2128 0128 42656E63 		.ascii	"Benchmark, RAM footprint\000"
 2128      686D6172 
 2128      6B2C2052 
 2128      414D2066 
 2128      6F6F7470 
 2129 0141 000000   		.space	3
 2130              	.LC21:
 2131 0144 42656E63 		.ascii	"Benchmark, mutexes lock/unlock\000"
 2131      686D6172 
 2131      6B2C206D 
 2131      75746578 
 2131      6573206C 
ARM GAS  /tmp/cc56bn3e.s 			page 40


 2132 0163 00       		.space	1
 2133              	.LC22:
 2134 0164 42656E63 		.ascii	"Benchmark, semaphores wait/signal\000"
 2134      686D6172 
 2134      6B2C2073 
 2134      656D6170 
 2134      686F7265 
 2135 0186 0000     		.space	2
 2136              	.LC23:
 2137 0188 42656E63 		.ascii	"Benchmark, virtual timers set/reset\000"
 2137      686D6172 
 2137      6B2C2076 
 2137      69727475 
 2137      616C2074 
 2138              	.LC24:
 2139 01ac 42656E63 		.ascii	"Benchmark, I/O Queues throughput\000"
 2139      686D6172 
 2139      6B2C2049 
 2139      2F4F2051 
 2139      75657565 
 2140 01cd 000000   		.space	3
 2141              	.LC25:
 2142 01d0 42656E63 		.ascii	"Benchmark, round robin context switching\000"
 2142      686D6172 
 2142      6B2C2072 
 2142      6F756E64 
 2142      20726F62 
 2143 01f9 000000   		.space	3
 2144              	.LC26:
 2145 01fc 42656E63 		.ascii	"Benchmark, mass reschedule, 5 threads\000"
 2145      686D6172 
 2145      6B2C206D 
 2145      61737320 
 2145      72657363 
 2146 0222 0000     		.space	2
 2147              	.LC27:
 2148 0224 42656E63 		.ascii	"Benchmark, threads, create only\000"
 2148      686D6172 
 2148      6B2C2074 
 2148      68726561 
 2148      64732C20 
 2149              	.LC28:
 2150 0244 42656E63 		.ascii	"Benchmark, threads, full cycle\000"
 2150      686D6172 
 2150      6B2C2074 
 2150      68726561 
 2150      64732C20 
 2151 0263 00       		.space	1
 2152              	.LC29:
 2153 0264 42656E63 		.ascii	"Benchmark, context switch\000"
 2153      686D6172 
 2153      6B2C2063 
 2153      6F6E7465 
 2153      78742073 
 2154 027e 0000     		.space	2
 2155              	.LC30:
 2156 0280 42656E63 		.ascii	"Benchmark, messages #3\000"
ARM GAS  /tmp/cc56bn3e.s 			page 41


 2156      686D6172 
 2156      6B2C206D 
 2156      65737361 
 2156      67657320 
 2157 0297 00       		.space	1
 2158              	.LC31:
 2159 0298 42656E63 		.ascii	"Benchmark, messages #2\000"
 2159      686D6172 
 2159      6B2C206D 
 2159      65737361 
 2159      67657320 
 2160 02af 00       		.space	1
 2161              	.LC32:
 2162 02b0 42656E63 		.ascii	"Benchmark, messages #1\000"
 2162      686D6172 
 2162      6B2C206D 
 2162      65737361 
 2162      67657320 
 2163 02c7 00       		.section	.bss.ib.4969,"aw",%nobits
 2164              		.align	2
 2165              		.set	.LANCHOR2,. + 0
 2166              		.type	ib.4969, %object
 2167              		.size	ib.4969, 16
 2168              	ib.4969:
 2169 0000 00000000 		.space	16
 2169      00000000 
 2169      00000000 
 2169      00000000 
 2170              		.section	.bss.sem1,"aw",%nobits
 2171              		.align	2
 2172              		.set	.LANCHOR0,. + 0
 2173              		.type	sem1, %object
 2174              		.size	sem1, 12
 2175              	sem1:
 2176 0000 00000000 		.space	12
 2176      00000000 
 2176      00000000 
 2177              		.section	.rodata.testbmk1,"a",%progbits
 2178              		.align	2
 2179              		.type	testbmk1, %object
 2180              		.size	testbmk1, 16
 2181              	testbmk1:
 2182 0000 B0020000 		.word	.LC32
 2183 0004 00000000 		.word	0
 2184 0008 00000000 		.word	0
 2185 000c 00000000 		.word	bmk1_execute
 2186              		.section	.rodata.testbmk11,"a",%progbits
 2187              		.align	2
 2188              		.type	testbmk11, %object
 2189              		.size	testbmk11, 16
 2190              	testbmk11:
 2191 0000 64010000 		.word	.LC22
 2192 0004 00000000 		.word	bmk11_setup
 2193 0008 00000000 		.word	0
 2194 000c 00000000 		.word	bmk11_execute
 2195              		.section	.rodata.testbmk12,"a",%progbits
 2196              		.align	2
ARM GAS  /tmp/cc56bn3e.s 			page 42


 2197              		.type	testbmk12, %object
 2198              		.size	testbmk12, 16
 2199              	testbmk12:
 2200 0000 44010000 		.word	.LC21
 2201 0004 00000000 		.word	bmk12_setup
 2202 0008 00000000 		.word	0
 2203 000c 00000000 		.word	bmk12_execute
 2204              		.section	.rodata.testbmk13,"a",%progbits
 2205              		.align	2
 2206              		.type	testbmk13, %object
 2207              		.size	testbmk13, 16
 2208              	testbmk13:
 2209 0000 28010000 		.word	.LC20
 2210 0004 00000000 		.word	0
 2211 0008 00000000 		.word	0
 2212 000c 00000000 		.word	bmk13_execute
 2213              		.section	.rodata.testbmk5,"a",%progbits
 2214              		.align	2
 2215              		.type	testbmk5, %object
 2216              		.size	testbmk5, 16
 2217              	testbmk5:
 2218 0000 44020000 		.word	.LC28
 2219 0004 00000000 		.word	0
 2220 0008 00000000 		.word	0
 2221 000c 00000000 		.word	bmk5_execute
 2222              		.section	.bss.iq.4970,"aw",%nobits
 2223              		.align	2
 2224              		.set	.LANCHOR1,. + 0
 2225              		.type	iq.4970, %object
 2226              		.size	iq.4970, 32
 2227              	iq.4970:
 2228 0000 00000000 		.space	32
 2228      00000000 
 2228      00000000 
 2228      00000000 
 2228      00000000 
 2229              		.section	.rodata.testbmk7,"a",%progbits
 2230              		.align	2
 2231              		.type	testbmk7, %object
 2232              		.size	testbmk7, 16
 2233              	testbmk7:
 2234 0000 FC010000 		.word	.LC26
 2235 0004 00000000 		.word	bmk7_setup
 2236 0008 00000000 		.word	0
 2237 000c 00000000 		.word	bmk7_execute
 2238              		.text
 2239              	.Letext0:
 2240              		.file 2 "/usr/local/gcc-arm-none-eabi-4_8-2014q2/lib/gcc/arm-none-eabi/4.8.4/include/stddef.h"
 2241              		.file 3 "/usr/local/gcc-arm-none-eabi-4_8-2014q2/arm-none-eabi/include/machine/_default_types.h"
 2242              		.file 4 "/usr/local/gcc-arm-none-eabi-4_8-2014q2/arm-none-eabi/include/stdint.h"
 2243              		.file 5 "../../os/ports/GCC/ARMCMx/chtypes.h"
 2244              		.file 6 "../../os/kernel/include/chlists.h"
 2245              		.file 7 "../../os/kernel/include/chthreads.h"
 2246              		.file 8 "../../os/ports/GCC/ARMCMx/chcore_v7m.h"
 2247              		.file 9 "../../os/kernel/include/chvt.h"
 2248              		.file 10 "../../os/kernel/include/chschd.h"
 2249              		.file 11 "../../os/kernel/include/chsem.h"
ARM GAS  /tmp/cc56bn3e.s 			page 43


 2250              		.file 12 "../../os/kernel/include/chmtx.h"
 2251              		.file 13 "../../os/kernel/include/chqueues.h"
 2252              		.file 14 "../../test/test.h"
 2253              		.file 15 "../../os/kernel/include/chmsg.h"