ARM GAS  /tmp/ccv2Tjpl.s 			page 1


   1              		.syntax unified
   2              		.cpu cortex-m3
   3              		.fpu softvfp
   4              		.eabi_attribute 20, 1
   5              		.eabi_attribute 21, 1
   6              		.eabi_attribute 23, 3
   7              		.eabi_attribute 24, 1
   8              		.eabi_attribute 25, 1
   9              		.eabi_attribute 26, 1
  10              		.eabi_attribute 30, 2
  11              		.eabi_attribute 34, 1
  12              		.eabi_attribute 18, 4
  13              		.thumb
  14              		.file	"testevt.c"
  15              		.text
  16              	.Ltext0:
  17              		.cfi_sections	.debug_frame
  18              		.section	.text.evt1_execute,"ax",%progbits
  19              		.align	2
  20              		.p2align 4,,15
  21              		.thumb
  22              		.thumb_func
  23              		.type	evt1_execute, %function
  24              	evt1_execute:
  25              	.LFB11:
  26              		.file 1 "../../test/testevt.c"
  27              		.loc 1 96 0
  28              		.cfi_startproc
  29              		@ args = 0, pretend = 0, frame = 24
  30              		@ frame_needed = 0, uses_anonymous_args = 0
  31 0000 10B5     		push	{r4, lr}
  32              		.cfi_def_cfa_offset 8
  33              		.cfi_offset 4, -8
  34              		.cfi_offset 14, -4
  35              		.loc 1 102 0
  36 0002 1D4C     		ldr	r4, .L6
  37              		.loc 1 96 0
  38 0004 86B0     		sub	sp, sp, #24
  39              		.cfi_def_cfa_offset 32
  40              		.loc 1 103 0
  41 0006 2046     		mov	r0, r4
  42 0008 6946     		mov	r1, sp
  43 000a 0122     		movs	r2, #1
  44              		.loc 1 102 0
  45 000c 2460     		str	r4, [r4]
  46              		.loc 1 103 0
  47 000e FFF7FEFF 		bl	chEvtRegisterMask
  48              	.LVL0:
  49              		.loc 1 104 0
  50 0012 2046     		mov	r0, r4
  51 0014 03A9     		add	r1, sp, #12
  52 0016 0222     		movs	r2, #2
  53 0018 FFF7FEFF 		bl	chEvtRegisterMask
  54              	.LVL1:
  55              		.loc 1 105 0
  56 001c 2168     		ldr	r1, [r4]
  57 001e 0120     		movs	r0, #1
ARM GAS  /tmp/ccv2Tjpl.s 			page 2


  58 0020 091B     		subs	r1, r1, r4
  59 0022 18BF     		it	ne
  60 0024 0121     		movne	r1, #1
  61 0026 FFF7FEFF 		bl	_test_assert
  62              	.LVL2:
  63 002a 08B1     		cbz	r0, .L5
  64              	.L1:
  65              		.loc 1 116 0
  66 002c 06B0     		add	sp, sp, #24
  67              		@ sp needed
  68 002e 10BD     		pop	{r4, pc}
  69              	.L5:
  70              		.loc 1 106 0
  71 0030 6946     		mov	r1, sp
  72 0032 2046     		mov	r0, r4
  73 0034 FFF7FEFF 		bl	chEvtUnregister
  74              	.LVL3:
  75              		.loc 1 107 0
  76 0038 2168     		ldr	r1, [r4]
  77 003a 0220     		movs	r0, #2
  78 003c 091B     		subs	r1, r1, r4
  79 003e 18BF     		it	ne
  80 0040 0121     		movne	r1, #1
  81 0042 FFF7FEFF 		bl	_test_assert
  82              	.LVL4:
  83 0046 0028     		cmp	r0, #0
  84 0048 F0D1     		bne	.L1
  85              		.loc 1 108 0
  86 004a 03A9     		add	r1, sp, #12
  87 004c 2046     		mov	r0, r4
  88 004e FFF7FEFF 		bl	chEvtUnregister
  89              	.LVL5:
  90              		.loc 1 109 0
  91 0052 2168     		ldr	r1, [r4]
  92 0054 0320     		movs	r0, #3
  93 0056 0B1B     		subs	r3, r1, r4
  94 0058 5942     		rsbs	r1, r3, #0
  95 005a 5941     		adcs	r1, r1, r3
  96 005c FFF7FEFF 		bl	_test_assert
  97              	.LVL6:
  98 0060 0028     		cmp	r0, #0
  99 0062 E3D1     		bne	.L1
 100              		.loc 1 114 0
 101 0064 0548     		ldr	r0, .L6+4
 102 0066 0721     		movs	r1, #7
 103 0068 FFF7FEFF 		bl	chEvtDispatch
 104              	.LVL7:
 105              		.loc 1 115 0
 106 006c 0449     		ldr	r1, .L6+8
 107 006e 0420     		movs	r0, #4
 108 0070 FFF7FEFF 		bl	_test_assert_sequence
 109              	.LVL8:
 110 0074 DAE7     		b	.L1
 111              	.L7:
 112 0076 00BF     		.align	2
 113              	.L6:
 114 0078 00000000 		.word	.LANCHOR0
ARM GAS  /tmp/ccv2Tjpl.s 			page 3


 115 007c 00000000 		.word	.LANCHOR1
 116 0080 00000000 		.word	.LC0
 117              		.cfi_endproc
 118              	.LFE11:
 119              		.size	evt1_execute, .-evt1_execute
 120 0084 AFF30080 		.section	.text.h3,"ax",%progbits
 120      AFF30080 
 120      AFF30080 
 121              		.align	2
 122              		.p2align 4,,15
 123              		.thumb
 124              		.thumb_func
 125              		.type	h3, %function
 126              	h3:
 127              	.LFB10:
 128              		.loc 1 93 0
 129              		.cfi_startproc
 130              		@ args = 0, pretend = 0, frame = 0
 131              		@ frame_needed = 0, uses_anonymous_args = 0
 132              		@ link register save eliminated.
 133              	.LVL9:
 134              		.loc 1 93 0
 135 0000 4320     		movs	r0, #67
 136              	.LVL10:
 137 0002 FFF7FEBF 		b	test_emit_token
 138              	.LVL11:
 139              		.cfi_endproc
 140              	.LFE10:
 141              		.size	h3, .-h3
 142 0006 00BFAFF3 		.section	.text.h2,"ax",%progbits
 142      0080AFF3 
 142      0080
 143              		.align	2
 144              		.p2align 4,,15
 145              		.thumb
 146              		.thumb_func
 147              		.type	h2, %function
 148              	h2:
 149              	.LFB9:
 150              		.loc 1 92 0
 151              		.cfi_startproc
 152              		@ args = 0, pretend = 0, frame = 0
 153              		@ frame_needed = 0, uses_anonymous_args = 0
 154              		@ link register save eliminated.
 155              	.LVL12:
 156              		.loc 1 92 0
 157 0000 4220     		movs	r0, #66
 158              	.LVL13:
 159 0002 FFF7FEBF 		b	test_emit_token
 160              	.LVL14:
 161              		.cfi_endproc
 162              	.LFE9:
 163              		.size	h2, .-h2
 164 0006 00BFAFF3 		.section	.text.h1,"ax",%progbits
 164      0080AFF3 
 164      0080
 165              		.align	2
ARM GAS  /tmp/ccv2Tjpl.s 			page 4


 166              		.p2align 4,,15
 167              		.thumb
 168              		.thumb_func
 169              		.type	h1, %function
 170              	h1:
 171              	.LFB8:
 172              		.loc 1 91 0
 173              		.cfi_startproc
 174              		@ args = 0, pretend = 0, frame = 0
 175              		@ frame_needed = 0, uses_anonymous_args = 0
 176              		@ link register save eliminated.
 177              	.LVL15:
 178              		.loc 1 91 0
 179 0000 4120     		movs	r0, #65
 180              	.LVL16:
 181 0002 FFF7FEBF 		b	test_emit_token
 182              	.LVL17:
 183              		.cfi_endproc
 184              	.LFE8:
 185              		.size	h1, .-h1
 186 0006 00BFAFF3 		.section	.text.evt1_setup,"ax",%progbits
 186      0080AFF3 
 186      0080
 187              		.align	2
 188              		.p2align 4,,15
 189              		.thumb
 190              		.thumb_func
 191              		.type	evt1_setup, %function
 192              	evt1_setup:
 193              	.LFB7:
 194              		.loc 1 86 0
 195              		.cfi_startproc
 196              		@ args = 0, pretend = 0, frame = 0
 197              		@ frame_needed = 0, uses_anonymous_args = 0
 198              		@ link register save eliminated.
 199              		.loc 1 88 0
 200 0000 4FF0FF30 		mov	r0, #-1
 201 0004 FFF7FEBF 		b	chEvtClearFlags
 202              	.LVL18:
 203              		.cfi_endproc
 204              	.LFE7:
 205              		.size	evt1_setup, .-evt1_setup
 206 0008 AFF30080 		.section	.text.evt2_setup,"ax",%progbits
 206      AFF30080 
 207              		.align	2
 208              		.p2align 4,,15
 209              		.thumb
 210              		.thumb_func
 211              		.type	evt2_setup, %function
 212              	evt2_setup:
 213              	.LFB12:
 214              		.loc 1 139 0
 215              		.cfi_startproc
 216              		@ args = 0, pretend = 0, frame = 0
 217              		@ frame_needed = 0, uses_anonymous_args = 0
 218              		@ link register save eliminated.
 219              		.loc 1 141 0
ARM GAS  /tmp/ccv2Tjpl.s 			page 5


 220 0000 4FF0FF30 		mov	r0, #-1
 221 0004 FFF7FEBF 		b	chEvtClearFlags
 222              	.LVL19:
 223              		.cfi_endproc
 224              	.LFE12:
 225              		.size	evt2_setup, .-evt2_setup
 226 0008 AFF30080 		.section	.text.evt3_setup,"ax",%progbits
 226      AFF30080 
 227              		.align	2
 228              		.p2align 4,,15
 229              		.thumb
 230              		.thumb_func
 231              		.type	evt3_setup, %function
 232              	evt3_setup:
 233              	.LFB16:
 234              		.loc 1 258 0
 235              		.cfi_startproc
 236              		@ args = 0, pretend = 0, frame = 0
 237              		@ frame_needed = 0, uses_anonymous_args = 0
 238              		@ link register save eliminated.
 239              		.loc 1 260 0
 240 0000 4FF0FF30 		mov	r0, #-1
 241 0004 FFF7FEBF 		b	chEvtClearFlags
 242              	.LVL20:
 243              		.cfi_endproc
 244              	.LFE16:
 245              		.size	evt3_setup, .-evt3_setup
 246 0008 AFF30080 		.section	.text.evt2_execute,"ax",%progbits
 246      AFF30080 
 247              		.align	2
 248              		.p2align 4,,15
 249              		.thumb
 250              		.thumb_func
 251              		.type	evt2_execute, %function
 252              	evt2_execute:
 253              	.LFB15:
 254              		.loc 1 160 0
 255              		.cfi_startproc
 256              		@ args = 0, pretend = 0, frame = 32
 257              		@ frame_needed = 0, uses_anonymous_args = 0
 258 0000 2DE9F042 		push	{r4, r5, r6, r7, r9, lr}
 259              		.cfi_def_cfa_offset 24
 260              		.cfi_offset 4, -24
 261              		.cfi_offset 5, -20
 262              		.cfi_offset 6, -16
 263              		.cfi_offset 7, -12
 264              		.cfi_offset 9, -8
 265              		.cfi_offset 14, -4
 266              		.loc 1 168 0
 267 0004 0520     		movs	r0, #5
 268              		.loc 1 160 0
 269 0006 8AB0     		sub	sp, sp, #40
 270              		.cfi_def_cfa_offset 64
 271              		.loc 1 168 0
 272 0008 FFF7FEFF 		bl	chEvtAddFlags
 273              	.LVL21:
 274              		.loc 1 169 0
ARM GAS  /tmp/ccv2Tjpl.s 			page 6


 275 000c 4FF0FF30 		mov	r0, #-1
 276 0010 FFF7FEFF 		bl	chEvtWaitOne
 277              	.LVL22:
 278              		.loc 1 170 0
 279 0014 B0F10109 		subs	r9, r0, #1
 280 0018 D9F10001 		rsbs	r1, r9, #0
 281 001c 51EB0901 		adcs	r1, r1, r9
 282 0020 0120     		movs	r0, #1
 283              	.LVL23:
 284 0022 FFF7FEFF 		bl	_test_assert
 285              	.LVL24:
 286 0026 10B1     		cbz	r0, .L17
 287              	.LVL25:
 288              	.L14:
 289              		.loc 1 233 0
 290 0028 0AB0     		add	sp, sp, #40
 291              		@ sp needed
 292 002a BDE8F082 		pop	{r4, r5, r6, r7, r9, pc}
 293              	.LVL26:
 294              	.L17:
 295              		.loc 1 171 0
 296 002e 4FF0FF30 		mov	r0, #-1
 297 0032 FFF7FEFF 		bl	chEvtWaitOne
 298              	.LVL27:
 299              		.loc 1 172 0
 300 0036 B0F1040C 		subs	ip, r0, #4
 301 003a DCF10001 		rsbs	r1, ip, #0
 302 003e 51EB0C01 		adcs	r1, r1, ip
 303 0042 0220     		movs	r0, #2
 304              	.LVL28:
 305 0044 FFF7FEFF 		bl	_test_assert
 306              	.LVL29:
 307 0048 0028     		cmp	r0, #0
 308 004a EDD1     		bne	.L14
 309              		.loc 1 173 0
 310 004c 4FF0FF30 		mov	r0, #-1
 311 0050 FFF7FEFF 		bl	chEvtClearFlags
 312              	.LVL30:
 313              		.loc 1 174 0
 314 0054 D0F10101 		rsbs	r1, r0, #1
 315 0058 38BF     		it	cc
 316 005a 0021     		movcc	r1, #0
 317 005c 0320     		movs	r0, #3
 318              	.LVL31:
 319 005e FFF7FEFF 		bl	_test_assert
 320              	.LVL32:
 321 0062 0028     		cmp	r0, #0
 322 0064 E0D1     		bne	.L14
 323              		.loc 1 181 0
 324 0066 734D     		ldr	r5, .L18
 325              		.loc 1 179 0
 326 0068 FFF7FEFF 		bl	test_wait_tick
 327              	.LVL33:
 328              		.loc 1 181 0
 329 006c EB69     		ldr	r3, [r5, #28]
 330 006e 7249     		ldr	r1, .L18+4
 331 0070 9A68     		ldr	r2, [r3, #8]
ARM GAS  /tmp/ccv2Tjpl.s 			page 7


 332 0072 0968     		ldr	r1, [r1]
 333              		.loc 1 180 0
 334 0074 714F     		ldr	r7, .L18+8
 335              		.loc 1 181 0
 336 0076 013A     		subs	r2, r2, #1
 337 0078 0093     		str	r3, [sp]
 338 007a 0391     		str	r1, [sp, #12]
 339 007c 0846     		mov	r0, r1
 340 007e 704B     		ldr	r3, .L18+12
 341 0080 4FF49871 		mov	r1, #304
 342              		.loc 1 180 0
 343 0084 FC68     		ldr	r4, [r7, #12]
 344              	.LVL34:
 345              		.loc 1 181 0
 346 0086 FFF7FEFF 		bl	chThdCreateStatic
 347              	.LVL35:
 348 008a 6E4E     		ldr	r6, .L18+16
 349 008c 3060     		str	r0, [r6]
 350              		.loc 1 183 0
 351 008e 4FF0FF30 		mov	r0, #-1
 352 0092 FFF7FEFF 		bl	chEvtWaitOne
 353              	.LVL36:
 354              		.loc 1 184 0
 355 0096 04F13201 		add	r1, r4, #50
 356              	.LVL37:
 357              		.loc 1 183 0
 358 009a 8146     		mov	r9, r0
 359              	.LVL38:
 360              		.loc 1 184 0
 361 009c 04F13702 		add	r2, r4, #55
 362 00a0 0420     		movs	r0, #4
 363              	.LVL39:
 364 00a2 FFF7FEFF 		bl	_test_assert_time_window
 365              	.LVL40:
 366 00a6 0028     		cmp	r0, #0
 367 00a8 BED1     		bne	.L14
 368              		.loc 1 185 0
 369 00aa B9F1010E 		subs	lr, r9, #1
 370 00ae DEF10001 		rsbs	r1, lr, #0
 371 00b2 51EB0E01 		adcs	r1, r1, lr
 372 00b6 0520     		movs	r0, #5
 373 00b8 FFF7FEFF 		bl	_test_assert
 374              	.LVL41:
 375 00bc 0028     		cmp	r0, #0
 376 00be B3D1     		bne	.L14
 377              		.loc 1 186 0
 378 00c0 4FF0FF30 		mov	r0, #-1
 379 00c4 FFF7FEFF 		bl	chEvtClearFlags
 380              	.LVL42:
 381              		.loc 1 187 0
 382 00c8 D0F10101 		rsbs	r1, r0, #1
 383 00cc 38BF     		it	cc
 384 00ce 0021     		movcc	r1, #0
 385 00d0 0620     		movs	r0, #6
 386              	.LVL43:
 387 00d2 FFF7FEFF 		bl	_test_assert
 388              	.LVL44:
ARM GAS  /tmp/ccv2Tjpl.s 			page 8


 389 00d6 0028     		cmp	r0, #0
 390 00d8 A6D1     		bne	.L14
 391              		.loc 1 188 0
 392 00da FFF7FEFF 		bl	test_wait_threads
 393              	.LVL45:
 394              		.loc 1 193 0
 395 00de 0520     		movs	r0, #5
 396 00e0 FFF7FEFF 		bl	chEvtAddFlags
 397              	.LVL46:
 398              		.loc 1 194 0
 399 00e4 4FF0FF30 		mov	r0, #-1
 400 00e8 FFF7FEFF 		bl	chEvtWaitAny
 401              	.LVL47:
 402              		.loc 1 195 0
 403 00ec 441F     		subs	r4, r0, #5
 404              	.LVL48:
 405 00ee 6142     		rsbs	r1, r4, #0
 406 00f0 6141     		adcs	r1, r1, r4
 407 00f2 0720     		movs	r0, #7
 408              	.LVL49:
 409 00f4 FFF7FEFF 		bl	_test_assert
 410              	.LVL50:
 411 00f8 0028     		cmp	r0, #0
 412 00fa 95D1     		bne	.L14
 413              		.loc 1 196 0
 414 00fc 4FF0FF30 		mov	r0, #-1
 415 0100 FFF7FEFF 		bl	chEvtClearFlags
 416              	.LVL51:
 417              		.loc 1 197 0
 418 0104 D0F10101 		rsbs	r1, r0, #1
 419 0108 38BF     		it	cc
 420 010a 0021     		movcc	r1, #0
 421 010c 0820     		movs	r0, #8
 422              	.LVL52:
 423 010e FFF7FEFF 		bl	_test_assert
 424              	.LVL53:
 425 0112 0028     		cmp	r0, #0
 426 0114 88D1     		bne	.L14
 427              		.loc 1 202 0
 428 0116 FFF7FEFF 		bl	test_wait_tick
 429              	.LVL54:
 430              		.loc 1 204 0
 431 011a EB69     		ldr	r3, [r5, #28]
 432 011c 4FF49871 		mov	r1, #304
 433 0120 9A68     		ldr	r2, [r3, #8]
 434 0122 0398     		ldr	r0, [sp, #12]
 435 0124 013A     		subs	r2, r2, #1
 436 0126 0093     		str	r3, [sp]
 437 0128 454B     		ldr	r3, .L18+12
 438              		.loc 1 203 0
 439 012a FC68     		ldr	r4, [r7, #12]
 440              	.LVL55:
 441              		.loc 1 204 0
 442 012c FFF7FEFF 		bl	chThdCreateStatic
 443              	.LVL56:
 444 0130 3060     		str	r0, [r6]
 445              		.loc 1 206 0
ARM GAS  /tmp/ccv2Tjpl.s 			page 9


 446 0132 4FF0FF30 		mov	r0, #-1
 447 0136 FFF7FEFF 		bl	chEvtWaitAny
 448              	.LVL57:
 449              		.loc 1 207 0
 450 013a 04F13201 		add	r1, r4, #50
 451              	.LVL58:
 452              		.loc 1 206 0
 453 013e 8146     		mov	r9, r0
 454              	.LVL59:
 455              		.loc 1 207 0
 456 0140 04F13702 		add	r2, r4, #55
 457 0144 0920     		movs	r0, #9
 458              	.LVL60:
 459 0146 FFF7FEFF 		bl	_test_assert_time_window
 460              	.LVL61:
 461 014a 0028     		cmp	r0, #0
 462 014c 7FF46CAF 		bne	.L14
 463              		.loc 1 208 0
 464 0150 B9F10100 		subs	r0, r9, #1
 465 0154 4142     		rsbs	r1, r0, #0
 466 0156 4141     		adcs	r1, r1, r0
 467 0158 0A20     		movs	r0, #10
 468 015a FFF7FEFF 		bl	_test_assert
 469              	.LVL62:
 470 015e 0028     		cmp	r0, #0
 471 0160 7FF462AF 		bne	.L14
 472              		.loc 1 209 0
 473 0164 4FF0FF30 		mov	r0, #-1
 474 0168 FFF7FEFF 		bl	chEvtClearFlags
 475              	.LVL63:
 476              		.loc 1 210 0
 477 016c D0F10101 		rsbs	r1, r0, #1
 478 0170 38BF     		it	cc
 479 0172 0021     		movcc	r1, #0
 480 0174 0B20     		movs	r0, #11
 481              	.LVL64:
 482 0176 FFF7FEFF 		bl	_test_assert
 483              	.LVL65:
 484 017a 0028     		cmp	r0, #0
 485 017c 7FF454AF 		bne	.L14
 486              		.loc 1 216 0
 487 0180 DFF8D090 		ldr	r9, .L18+32
 488              		.loc 1 217 0
 489 0184 304C     		ldr	r4, .L18+20
 490              	.LVL66:
 491              		.loc 1 211 0
 492 0186 FFF7FEFF 		bl	test_wait_threads
 493              	.LVL67:
 494              		.loc 1 218 0
 495 018a 4846     		mov	r0, r9
 496 018c 04A9     		add	r1, sp, #16
 497 018e 0122     		movs	r2, #1
 498              		.loc 1 216 0
 499 0190 C9F80090 		str	r9, [r9]
 500              		.loc 1 217 0
 501 0194 2460     		str	r4, [r4]
 502              		.loc 1 218 0
ARM GAS  /tmp/ccv2Tjpl.s 			page 10


 503 0196 FFF7FEFF 		bl	chEvtRegisterMask
 504              	.LVL68:
 505              		.loc 1 219 0
 506 019a 07A9     		add	r1, sp, #28
 507 019c 0422     		movs	r2, #4
 508 019e 2046     		mov	r0, r4
 509 01a0 FFF7FEFF 		bl	chEvtRegisterMask
 510              	.LVL69:
 511              		.loc 1 220 0
 512 01a4 FFF7FEFF 		bl	test_wait_tick
 513              	.LVL70:
 514              		.loc 1 222 0
 515 01a8 EA69     		ldr	r2, [r5, #28]
 516 01aa 284B     		ldr	r3, .L18+24
 517 01ac 9268     		ldr	r2, [r2, #8]
 518 01ae 4FF49871 		mov	r1, #304
 519 01b2 013A     		subs	r2, r2, #1
 520 01b4 0093     		str	r3, [sp]
 521 01b6 0398     		ldr	r0, [sp, #12]
 522 01b8 254B     		ldr	r3, .L18+28
 523              		.loc 1 221 0
 524 01ba FD68     		ldr	r5, [r7, #12]
 525              	.LVL71:
 526              		.loc 1 222 0
 527 01bc FFF7FEFF 		bl	chThdCreateStatic
 528              	.LVL72:
 529 01c0 3060     		str	r0, [r6]
 530              		.loc 1 224 0
 531 01c2 0520     		movs	r0, #5
 532 01c4 FFF7FEFF 		bl	chEvtWaitAll
 533              	.LVL73:
 534              		.loc 1 225 0
 535 01c8 05F13201 		add	r1, r5, #50
 536              	.LVL74:
 537 01cc 05F13702 		add	r2, r5, #55
 538 01d0 0C20     		movs	r0, #12
 539 01d2 FFF7FEFF 		bl	_test_assert_time_window
 540              	.LVL75:
 541 01d6 0028     		cmp	r0, #0
 542 01d8 7FF426AF 		bne	.L14
 543              		.loc 1 226 0
 544 01dc 4FF0FF30 		mov	r0, #-1
 545 01e0 FFF7FEFF 		bl	chEvtClearFlags
 546              	.LVL76:
 547              		.loc 1 227 0
 548 01e4 D0F10101 		rsbs	r1, r0, #1
 549 01e8 38BF     		it	cc
 550 01ea 0021     		movcc	r1, #0
 551 01ec 0D20     		movs	r0, #13
 552              	.LVL77:
 553 01ee FFF7FEFF 		bl	_test_assert
 554              	.LVL78:
 555 01f2 0028     		cmp	r0, #0
 556 01f4 7FF418AF 		bne	.L14
 557              		.loc 1 228 0
 558 01f8 FFF7FEFF 		bl	test_wait_threads
 559              	.LVL79:
ARM GAS  /tmp/ccv2Tjpl.s 			page 11


 560              		.loc 1 229 0
 561 01fc 4846     		mov	r0, r9
 562 01fe 04A9     		add	r1, sp, #16
 563 0200 FFF7FEFF 		bl	chEvtUnregister
 564              	.LVL80:
 565              		.loc 1 230 0
 566 0204 2046     		mov	r0, r4
 567 0206 07A9     		add	r1, sp, #28
 568 0208 FFF7FEFF 		bl	chEvtUnregister
 569              	.LVL81:
 570              		.loc 1 231 0
 571 020c D9F80010 		ldr	r1, [r9]
 572 0210 0E20     		movs	r0, #14
 573 0212 B1EB0902 		subs	r2, r1, r9
 574 0216 5142     		rsbs	r1, r2, #0
 575 0218 5141     		adcs	r1, r1, r2
 576 021a FFF7FEFF 		bl	_test_assert
 577              	.LVL82:
 578 021e 0028     		cmp	r0, #0
 579 0220 7FF402AF 		bne	.L14
 580              		.loc 1 232 0
 581 0224 2168     		ldr	r1, [r4]
 582 0226 0F20     		movs	r0, #15
 583 0228 0B1B     		subs	r3, r1, r4
 584 022a 5942     		rsbs	r1, r3, #0
 585 022c 5941     		adcs	r1, r1, r3
 586 022e FFF7FEFF 		bl	_test_assert
 587              	.LVL83:
 588 0232 F9E6     		b	.L14
 589              	.L19:
 590              		.align	2
 591              	.L18:
 592 0234 00000000 		.word	rlist
 593 0238 00000000 		.word	wa
 594 023c 00000000 		.word	vtlist
 595 0240 00000000 		.word	thread1
 596 0244 00000000 		.word	threads
 597 0248 00000000 		.word	.LANCHOR2
 598 024c 04000000 		.word	.LC1
 599 0250 00000000 		.word	thread2
 600 0254 00000000 		.word	.LANCHOR0
 601              		.cfi_endproc
 602              	.LFE15:
 603              		.size	evt2_execute, .-evt2_execute
 604 0258 AFF30080 		.section	.text.thread2,"ax",%progbits
 604      AFF30080 
 605              		.align	2
 606              		.p2align 4,,15
 607              		.thumb
 608              		.thumb_func
 609              		.type	thread2, %function
 610              	thread2:
 611              	.LFB14:
 612              		.loc 1 151 0
 613              		.cfi_startproc
 614              		@ args = 0, pretend = 0, frame = 0
 615              		@ frame_needed = 0, uses_anonymous_args = 0
ARM GAS  /tmp/ccv2Tjpl.s 			page 12


 616              	.LVL84:
 617 0000 08B5     		push	{r3, lr}
 618              		.cfi_def_cfa_offset 8
 619              		.cfi_offset 3, -8
 620              		.cfi_offset 14, -4
 621              		.loc 1 154 0
 622 0002 0021     		movs	r1, #0
 623 0004 0548     		ldr	r0, .L21
 624              	.LVL85:
 625 0006 FFF7FEFF 		bl	chEvtBroadcastFlags
 626              	.LVL86:
 627              		.loc 1 155 0
 628 000a 3220     		movs	r0, #50
 629 000c FFF7FEFF 		bl	chThdSleep
 630              	.LVL87:
 631              		.loc 1 156 0
 632 0010 0348     		ldr	r0, .L21+4
 633 0012 0021     		movs	r1, #0
 634 0014 FFF7FEFF 		bl	chEvtBroadcastFlags
 635              	.LVL88:
 636              		.loc 1 158 0
 637 0018 0020     		movs	r0, #0
 638 001a 08BD     		pop	{r3, pc}
 639              	.L22:
 640              		.align	2
 641              	.L21:
 642 001c 00000000 		.word	.LANCHOR0
 643 0020 00000000 		.word	.LANCHOR2
 644              		.cfi_endproc
 645              	.LFE14:
 646              		.size	thread2, .-thread2
 647 0024 AFF30080 		.section	.text.thread1,"ax",%progbits
 647      AFF30080 
 647      AFF30080 
 648              		.align	2
 649              		.p2align 4,,15
 650              		.thumb
 651              		.thumb_func
 652              		.type	thread1, %function
 653              	thread1:
 654              	.LFB13:
 655              		.loc 1 144 0
 656              		.cfi_startproc
 657              		@ args = 0, pretend = 0, frame = 0
 658              		@ frame_needed = 0, uses_anonymous_args = 0
 659              	.LVL89:
 660 0000 10B5     		push	{r4, lr}
 661              		.cfi_def_cfa_offset 8
 662              		.cfi_offset 4, -8
 663              		.cfi_offset 14, -4
 664              		.loc 1 144 0
 665 0002 0446     		mov	r4, r0
 666              		.loc 1 146 0
 667 0004 3220     		movs	r0, #50
 668              	.LVL90:
 669 0006 FFF7FEFF 		bl	chThdSleep
 670              	.LVL91:
ARM GAS  /tmp/ccv2Tjpl.s 			page 13


 671              		.loc 1 147 0
 672 000a 2046     		mov	r0, r4
 673 000c 0121     		movs	r1, #1
 674 000e FFF7FEFF 		bl	chEvtSignalFlags
 675              	.LVL92:
 676              		.loc 1 149 0
 677 0012 0020     		movs	r0, #0
 678 0014 10BD     		pop	{r4, pc}
 679              		.cfi_endproc
 680              	.LFE13:
 681              		.size	thread1, .-thread1
 682 0016 00BFAFF3 		.section	.text.evt3_execute,"ax",%progbits
 682      0080AFF3 
 682      0080
 683              		.align	2
 684              		.p2align 4,,15
 685              		.thumb
 686              		.thumb_func
 687              		.type	evt3_execute, %function
 688              	evt3_execute:
 689              	.LFB17:
 690              		.loc 1 263 0
 691              		.cfi_startproc
 692              		@ args = 0, pretend = 0, frame = 0
 693              		@ frame_needed = 0, uses_anonymous_args = 0
 694 0000 08B5     		push	{r3, lr}
 695              		.cfi_def_cfa_offset 8
 696              		.cfi_offset 3, -8
 697              		.cfi_offset 14, -4
 698              		.loc 1 269 0
 699 0002 0021     		movs	r1, #0
 700 0004 4FF0FF30 		mov	r0, #-1
 701 0008 FFF7FEFF 		bl	chEvtWaitOneTimeout
 702              	.LVL93:
 703              		.loc 1 270 0
 704 000c D0F10101 		rsbs	r1, r0, #1
 705 0010 38BF     		it	cc
 706 0012 0021     		movcc	r1, #0
 707 0014 0120     		movs	r0, #1
 708              	.LVL94:
 709 0016 FFF7FEFF 		bl	_test_assert
 710              	.LVL95:
 711 001a 00B1     		cbz	r0, .L28
 712              	.L24:
 713 001c 08BD     		pop	{r3, pc}
 714              	.L28:
 715              		.loc 1 271 0
 716 001e 0146     		mov	r1, r0
 717 0020 4FF0FF30 		mov	r0, #-1
 718 0024 FFF7FEFF 		bl	chEvtWaitAnyTimeout
 719              	.LVL96:
 720              		.loc 1 272 0
 721 0028 D0F10101 		rsbs	r1, r0, #1
 722 002c 38BF     		it	cc
 723 002e 0021     		movcc	r1, #0
 724 0030 0220     		movs	r0, #2
 725              	.LVL97:
ARM GAS  /tmp/ccv2Tjpl.s 			page 14


 726 0032 FFF7FEFF 		bl	_test_assert
 727              	.LVL98:
 728 0036 0028     		cmp	r0, #0
 729 0038 F0D1     		bne	.L24
 730              		.loc 1 273 0
 731 003a 0146     		mov	r1, r0
 732 003c 4FF0FF30 		mov	r0, #-1
 733 0040 FFF7FEFF 		bl	chEvtWaitAllTimeout
 734              	.LVL99:
 735              		.loc 1 274 0
 736 0044 D0F10101 		rsbs	r1, r0, #1
 737 0048 38BF     		it	cc
 738 004a 0021     		movcc	r1, #0
 739 004c 0320     		movs	r0, #3
 740              	.LVL100:
 741 004e FFF7FEFF 		bl	_test_assert
 742              	.LVL101:
 743 0052 0028     		cmp	r0, #0
 744 0054 E2D1     		bne	.L24
 745              	.LBB4:
 746              	.LBB5:
 747              		.loc 1 275 0
 748 0056 0A21     		movs	r1, #10
 749 0058 4FF0FF30 		mov	r0, #-1
 750 005c FFF7FEFF 		bl	chEvtWaitOneTimeout
 751              	.LVL102:
 752              		.loc 1 276 0
 753 0060 D0F10101 		rsbs	r1, r0, #1
 754 0064 38BF     		it	cc
 755 0066 0021     		movcc	r1, #0
 756 0068 0420     		movs	r0, #4
 757              	.LVL103:
 758 006a FFF7FEFF 		bl	_test_assert
 759              	.LVL104:
 760 006e 0028     		cmp	r0, #0
 761 0070 D4D1     		bne	.L24
 762              		.loc 1 277 0
 763 0072 0A21     		movs	r1, #10
 764 0074 4FF0FF30 		mov	r0, #-1
 765 0078 FFF7FEFF 		bl	chEvtWaitAnyTimeout
 766              	.LVL105:
 767              		.loc 1 278 0
 768 007c D0F10101 		rsbs	r1, r0, #1
 769 0080 38BF     		it	cc
 770 0082 0021     		movcc	r1, #0
 771 0084 0520     		movs	r0, #5
 772              	.LVL106:
 773 0086 FFF7FEFF 		bl	_test_assert
 774              	.LVL107:
 775 008a 0028     		cmp	r0, #0
 776 008c C6D1     		bne	.L24
 777              		.loc 1 279 0
 778 008e 0A21     		movs	r1, #10
 779 0090 4FF0FF30 		mov	r0, #-1
 780 0094 FFF7FEFF 		bl	chEvtWaitAllTimeout
 781              	.LVL108:
 782              	.LBE5:
ARM GAS  /tmp/ccv2Tjpl.s 			page 15


 783              	.LBE4:
 784              		.loc 1 281 0
 785 0098 BDE80840 		pop	{r3, lr}
 786              	.LBB7:
 787              	.LBB6:
 788              		.loc 1 280 0
 789 009c D0F10101 		rsbs	r1, r0, #1
 790 00a0 38BF     		it	cc
 791 00a2 0021     		movcc	r1, #0
 792 00a4 0620     		movs	r0, #6
 793              	.LVL109:
 794 00a6 FFF7FEBF 		b	_test_assert
 795              	.LVL110:
 796              	.LBE6:
 797              	.LBE7:
 798              		.cfi_endproc
 799              	.LFE17:
 800              		.size	evt3_execute, .-evt3_execute
 801              		.global	patternevt
 802              		.global	testevt3
 803              		.global	testevt2
 804              		.global	testevt1
 805 00aa 00BFAFF3 		.section	.rodata.patternevt,"a",%progbits
 805      0080
 806              		.align	2
 807              		.type	patternevt, %object
 808              		.size	patternevt, 16
 809              	patternevt:
 810 0000 00000000 		.word	testevt1
 811 0004 00000000 		.word	testevt2
 812 0008 00000000 		.word	testevt3
 813 000c 00000000 		.word	0
 814              		.section	.rodata.testevt2,"a",%progbits
 815              		.align	2
 816              		.type	testevt2, %object
 817              		.size	testevt2, 16
 818              	testevt2:
 819 0000 1C000000 		.word	.LC3
 820 0004 00000000 		.word	evt2_setup
 821 0008 00000000 		.word	0
 822 000c 00000000 		.word	evt2_execute
 823              		.section	.rodata.str1.4,"aMS",%progbits,1
 824              		.align	2
 825              	.LC0:
 826 0000 41424300 		.ascii	"ABC\000"
 827              	.LC1:
 828 0004 4100     		.ascii	"A\000"
 829 0006 0000     		.space	2
 830              	.LC2:
 831 0008 4576656E 		.ascii	"Events, timeouts\000"
 831      74732C20 
 831      74696D65 
 831      6F757473 
 831      00
 832 0019 000000   		.space	3
 833              	.LC3:
 834 001c 4576656E 		.ascii	"Events, wait and broadcast\000"
ARM GAS  /tmp/ccv2Tjpl.s 			page 16


 834      74732C20 
 834      77616974 
 834      20616E64 
 834      2062726F 
 835 0037 00       		.space	1
 836              	.LC4:
 837 0038 4576656E 		.ascii	"Events, registration and dispatch\000"
 837      74732C20 
 837      72656769 
 837      73747261 
 837      74696F6E 
 838 005a 0000     		.section	.rodata.testevt1,"a",%progbits
 839              		.align	2
 840              		.type	testevt1, %object
 841              		.size	testevt1, 16
 842              	testevt1:
 843 0000 38000000 		.word	.LC4
 844 0004 00000000 		.word	evt1_setup
 845 0008 00000000 		.word	0
 846 000c 00000000 		.word	evt1_execute
 847              		.section	.rodata.evhndl,"a",%progbits
 848              		.align	2
 849              		.set	.LANCHOR1,. + 0
 850              		.type	evhndl, %object
 851              		.size	evhndl, 12
 852              	evhndl:
 853 0000 00000000 		.word	h1
 854 0004 00000000 		.word	h2
 855 0008 00000000 		.word	h3
 856              		.section	.rodata.testevt3,"a",%progbits
 857              		.align	2
 858              		.type	testevt3, %object
 859              		.size	testevt3, 16
 860              	testevt3:
 861 0000 08000000 		.word	.LC2
 862 0004 00000000 		.word	evt3_setup
 863 0008 00000000 		.word	0
 864 000c 00000000 		.word	evt3_execute
 865              		.section	.data.es1,"aw",%progbits
 866              		.align	2
 867              		.set	.LANCHOR0,. + 0
 868              		.type	es1, %object
 869              		.size	es1, 4
 870              	es1:
 871 0000 00000000 		.word	es1
 872              		.section	.data.es2,"aw",%progbits
 873              		.align	2
 874              		.set	.LANCHOR2,. + 0
 875              		.type	es2, %object
 876              		.size	es2, 4
 877              	es2:
 878 0000 00000000 		.word	es2
 879              		.text
 880              	.Letext0:
 881              		.file 2 "/usr/local/gcc-arm-none-eabi-4_8-2014q2/lib/gcc/arm-none-eabi/4.8.4/include/stddef.h"
 882              		.file 3 "/usr/local/gcc-arm-none-eabi-4_8-2014q2/arm-none-eabi/include/machine/_default_types.h"
 883              		.file 4 "/usr/local/gcc-arm-none-eabi-4_8-2014q2/arm-none-eabi/include/stdint.h"
ARM GAS  /tmp/ccv2Tjpl.s 			page 17


 884              		.file 5 "../../os/ports/GCC/ARMCMx/chtypes.h"
 885              		.file 6 "../../os/kernel/include/chlists.h"
 886              		.file 7 "../../os/kernel/include/chthreads.h"
 887              		.file 8 "../../os/ports/GCC/ARMCMx/chcore_v7m.h"
 888              		.file 9 "../../os/kernel/include/chvt.h"
 889              		.file 10 "../../os/kernel/include/chschd.h"
 890              		.file 11 "../../os/kernel/include/chmtx.h"
 891              		.file 12 "../../os/kernel/include/chevents.h"
 892              		.file 13 "../../test/test.h"