ARM GAS  /tmp/ccPwPlGL.s 			page 1


   1              		.syntax unified
   2              		.cpu cortex-m3
   3              		.fpu softvfp
   4              		.eabi_attribute 20, 1
   5              		.eabi_attribute 21, 1
   6              		.eabi_attribute 23, 3
   7              		.eabi_attribute 24, 1
   8              		.eabi_attribute 25, 1
   9              		.eabi_attribute 26, 1
  10              		.eabi_attribute 30, 2
  11              		.eabi_attribute 34, 1
  12              		.eabi_attribute 18, 4
  13              		.thumb
  14              		.file	"testdyn.c"
  15              		.text
  16              	.Ltext0:
  17              		.cfi_sections	.debug_frame
  18              		.section	.text.dyn1_execute,"ax",%progbits
  19              		.align	2
  20              		.p2align 4,,15
  21              		.thumb
  22              		.thumb_func
  23              		.type	dyn1_execute, %function
  24              	dyn1_execute:
  25              	.LFB9:
  26              		.file 1 "../../test/testdyn.c"
  27              		.loc 1 94 0
  28              		.cfi_startproc
  29              		@ args = 0, pretend = 0, frame = 8
  30              		@ frame_needed = 0, uses_anonymous_args = 0
  31 0000 70B5     		push	{r4, r5, r6, lr}
  32              		.cfi_def_cfa_offset 16
  33              		.cfi_offset 4, -16
  34              		.cfi_offset 5, -12
  35              		.cfi_offset 6, -8
  36              		.cfi_offset 14, -4
  37              		.loc 1 97 0
  38 0002 334B     		ldr	r3, .L12
  39              		.loc 1 94 0
  40 0004 84B0     		sub	sp, sp, #16
  41              		.cfi_def_cfa_offset 32
  42              		.loc 1 97 0
  43 0006 DB69     		ldr	r3, [r3, #28]
  44              		.loc 1 99 0
  45 0008 03A9     		add	r1, sp, #12
  46 000a 3248     		ldr	r0, .L12+4
  47              		.loc 1 97 0
  48 000c 9D68     		ldr	r5, [r3, #8]
  49              	.LVL0:
  50              		.loc 1 99 0
  51 000e FFF7FEFF 		bl	chHeapStatus
  52              	.LVL1:
  53              		.loc 1 101 0
  54 0012 314B     		ldr	r3, .L12+8
  55 0014 6A1E     		subs	r2, r5, #1
  56 0016 0093     		str	r3, [sp]
  57 0018 4FF49871 		mov	r1, #304
ARM GAS  /tmp/ccPwPlGL.s 			page 2


  58 001c 2F4B     		ldr	r3, .L12+12
  59 001e 2D48     		ldr	r0, .L12+4
  60 0020 FFF7FEFF 		bl	chThdCreateFromHeap
  61              	.LVL2:
  62 0024 2E4C     		ldr	r4, .L12+16
  63              		.loc 1 103 0
  64 0026 2F4B     		ldr	r3, .L12+20
  65 0028 AA1E     		subs	r2, r5, #2
  66              		.loc 1 101 0
  67 002a 2060     		str	r0, [r4]
  68              		.loc 1 103 0
  69 002c 0093     		str	r3, [sp]
  70 002e 4FF49871 		mov	r1, #304
  71 0032 2A4B     		ldr	r3, .L12+12
  72 0034 2748     		ldr	r0, .L12+4
  73 0036 FFF7FEFF 		bl	chThdCreateFromHeap
  74              	.LVL3:
  75              		.loc 1 106 0
  76 003a 02A9     		add	r1, sp, #8
  77              		.loc 1 103 0
  78 003c 6060     		str	r0, [r4, #4]
  79              		.loc 1 106 0
  80 003e 2548     		ldr	r0, .L12+4
  81 0040 FFF7FEFF 		bl	chHeapStatus
  82              	.LVL4:
  83              		.loc 1 107 0
  84 0044 0299     		ldr	r1, [sp, #8]
  85 0046 2348     		ldr	r0, .L12+4
  86 0048 FFF7FEFF 		bl	chHeapAlloc
  87              	.LVL5:
  88              		.loc 1 108 0
  89 004c 264B     		ldr	r3, .L12+24
  90 004e 4FF49871 		mov	r1, #304
  91              		.loc 1 107 0
  92 0052 0646     		mov	r6, r0
  93              	.LVL6:
  94              		.loc 1 108 0
  95 0054 EA1E     		subs	r2, r5, #3
  96 0056 0093     		str	r3, [sp]
  97 0058 1E48     		ldr	r0, .L12+4
  98              	.LVL7:
  99 005a 204B     		ldr	r3, .L12+12
 100 005c FFF7FEFF 		bl	chThdCreateFromHeap
 101              	.LVL8:
 102 0060 A060     		str	r0, [r4, #8]
 103              		.loc 1 110 0
 104 0062 3046     		mov	r0, r6
 105 0064 FFF7FEFF 		bl	chHeapFree
 106              	.LVL9:
 107              		.loc 1 112 0
 108 0068 2168     		ldr	r1, [r4]
 109 006a 21B1     		cbz	r1, .L2
 110              		.loc 1 112 0 is_stmt 0 discriminator 1
 111 006c 6168     		ldr	r1, [r4, #4]
 112 006e 11B1     		cbz	r1, .L2
 113 0070 A168     		ldr	r1, [r4, #8]
 114 0072 19B3     		cbz	r1, .L10
ARM GAS  /tmp/ccPwPlGL.s 			page 3


 115              		.loc 1 112 0
 116 0074 0021     		movs	r1, #0
 117              	.L2:
 118              		.loc 1 112 0 discriminator 3
 119 0076 0120     		movs	r0, #1
 120 0078 FFF7FEFF 		bl	_test_assert
 121              	.LVL10:
 122 007c 08B1     		cbz	r0, .L11
 123              	.L1:
 124              		.loc 1 126 0 is_stmt 1
 125 007e 04B0     		add	sp, sp, #16
 126              		@ sp needed
 127 0080 70BD     		pop	{r4, r5, r6, pc}
 128              	.LVL11:
 129              	.L11:
 130              		.loc 1 120 0
 131 0082 FFF7FEFF 		bl	test_wait_threads
 132              	.LVL12:
 133              		.loc 1 121 0
 134 0086 0220     		movs	r0, #2
 135 0088 1849     		ldr	r1, .L12+28
 136 008a FFF7FEFF 		bl	_test_assert_sequence
 137              	.LVL13:
 138 008e 0028     		cmp	r0, #0
 139 0090 F5D1     		bne	.L1
 140              		.loc 1 124 0
 141 0092 02A9     		add	r1, sp, #8
 142 0094 0F48     		ldr	r0, .L12+4
 143 0096 FFF7FEFF 		bl	chHeapStatus
 144              	.LVL14:
 145 009a 421E     		subs	r2, r0, #1
 146 009c 5142     		rsbs	r1, r2, #0
 147 009e 5141     		adcs	r1, r1, r2
 148 00a0 0320     		movs	r0, #3
 149 00a2 FFF7FEFF 		bl	_test_assert
 150              	.LVL15:
 151 00a6 0028     		cmp	r0, #0
 152 00a8 E9D1     		bne	.L1
 153              		.loc 1 125 0
 154 00aa 0299     		ldr	r1, [sp, #8]
 155 00ac 039B     		ldr	r3, [sp, #12]
 156 00ae 0420     		movs	r0, #4
 157 00b0 CB1A     		subs	r3, r1, r3
 158 00b2 5942     		rsbs	r1, r3, #0
 159 00b4 5941     		adcs	r1, r1, r3
 160 00b6 FFF7FEFF 		bl	_test_assert
 161              	.LVL16:
 162 00ba E0E7     		b	.L1
 163              	.L10:
 164              		.loc 1 112 0 discriminator 1
 165 00bc E368     		ldr	r3, [r4, #12]
 166 00be 002B     		cmp	r3, #0
 167 00c0 D9D1     		bne	.L2
 168 00c2 2169     		ldr	r1, [r4, #16]
 169 00c4 D1F10101 		rsbs	r1, r1, #1
 170 00c8 38BF     		it	cc
 171 00ca 0021     		movcc	r1, #0
ARM GAS  /tmp/ccPwPlGL.s 			page 4


 172 00cc D3E7     		b	.L2
 173              	.L13:
 174 00ce 00BF     		.align	2
 175              	.L12:
 176 00d0 00000000 		.word	rlist
 177 00d4 00000000 		.word	.LANCHOR0
 178 00d8 00000000 		.word	.LC0
 179 00dc 00000000 		.word	thread
 180 00e0 00000000 		.word	threads
 181 00e4 04000000 		.word	.LC1
 182 00e8 08000000 		.word	.LC2
 183 00ec 0C000000 		.word	.LC3
 184              		.cfi_endproc
 185              	.LFE9:
 186              		.size	dyn1_execute, .-dyn1_execute
 187              		.section	.text.thread,"ax",%progbits
 188              		.align	2
 189              		.p2align 4,,15
 190              		.thumb
 191              		.thumb_func
 192              		.type	thread, %function
 193              	thread:
 194              	.LFB7:
 195              		.loc 1 82 0
 196              		.cfi_startproc
 197              		@ args = 0, pretend = 0, frame = 0
 198              		@ frame_needed = 0, uses_anonymous_args = 0
 199              	.LVL17:
 200 0000 08B5     		push	{r3, lr}
 201              		.cfi_def_cfa_offset 8
 202              		.cfi_offset 3, -8
 203              		.cfi_offset 14, -4
 204              		.loc 1 84 0
 205 0002 0078     		ldrb	r0, [r0]	@ zero_extendqisi2
 206              	.LVL18:
 207 0004 FFF7FEFF 		bl	test_emit_token
 208              	.LVL19:
 209              		.loc 1 86 0
 210 0008 0020     		movs	r0, #0
 211 000a 08BD     		pop	{r3, pc}
 212              		.cfi_endproc
 213              	.LFE7:
 214              		.size	thread, .-thread
 215 000c AFF30080 		.section	.text.dyn1_setup,"ax",%progbits
 216              		.align	2
 217              		.p2align 4,,15
 218              		.thumb
 219              		.thumb_func
 220              		.type	dyn1_setup, %function
 221              	dyn1_setup:
 222              	.LFB8:
 223              		.loc 1 89 0
 224              		.cfi_startproc
 225              		@ args = 0, pretend = 0, frame = 0
 226              		@ frame_needed = 0, uses_anonymous_args = 0
 227              		@ link register save eliminated.
 228              		.loc 1 91 0
ARM GAS  /tmp/ccPwPlGL.s 			page 5


 229 0000 0248     		ldr	r0, .L16
 230 0002 0349     		ldr	r1, .L16+4
 231 0004 4FF4BE62 		mov	r2, #1520
 232 0008 FFF7FEBF 		b	chHeapInit
 233              	.LVL20:
 234              	.L17:
 235              		.align	2
 236              	.L16:
 237 000c 00000000 		.word	.LANCHOR0
 238 0010 00000000 		.word	test
 239              		.cfi_endproc
 240              	.LFE8:
 241              		.size	dyn1_setup, .-dyn1_setup
 242 0014 AFF30080 		.section	.text.dyn3_setup,"ax",%progbits
 242      AFF30080 
 242      AFF30080 
 243              		.align	2
 244              		.p2align 4,,15
 245              		.thumb
 246              		.thumb_func
 247              		.type	dyn3_setup, %function
 248              	dyn3_setup:
 249              	.LFB13:
 250              		.loc 1 214 0
 251              		.cfi_startproc
 252              		@ args = 0, pretend = 0, frame = 0
 253              		@ frame_needed = 0, uses_anonymous_args = 0
 254              		@ link register save eliminated.
 255              		.loc 1 216 0
 256 0000 0248     		ldr	r0, .L19
 257 0002 0349     		ldr	r1, .L19+4
 258 0004 4FF4BE62 		mov	r2, #1520
 259 0008 FFF7FEBF 		b	chHeapInit
 260              	.LVL21:
 261              	.L20:
 262              		.align	2
 263              	.L19:
 264 000c 00000000 		.word	.LANCHOR0
 265 0010 00000000 		.word	test
 266              		.cfi_endproc
 267              	.LFE13:
 268              		.size	dyn3_setup, .-dyn3_setup
 269 0014 AFF30080 		.section	.text.dyn2_execute,"ax",%progbits
 269      AFF30080 
 269      AFF30080 
 270              		.align	2
 271              		.p2align 4,,15
 272              		.thumb
 273              		.thumb_func
 274              		.type	dyn2_execute, %function
 275              	dyn2_execute:
 276              	.LFB11:
 277              		.loc 1 152 0
 278              		.cfi_startproc
 279              		@ args = 0, pretend = 0, frame = 0
 280              		@ frame_needed = 0, uses_anonymous_args = 0
 281              		.loc 1 154 0
ARM GAS  /tmp/ccPwPlGL.s 			page 6


 282 0000 324B     		ldr	r3, .L35
 283              		.loc 1 152 0
 284 0002 70B5     		push	{r4, r5, r6, lr}
 285              		.cfi_def_cfa_offset 16
 286              		.cfi_offset 4, -16
 287              		.cfi_offset 5, -12
 288              		.cfi_offset 6, -8
 289              		.cfi_offset 14, -4
 290              		.loc 1 154 0
 291 0004 DB69     		ldr	r3, [r3, #28]
 292 0006 324C     		ldr	r4, .L35+4
 293 0008 9D68     		ldr	r5, [r3, #8]
 294              	.LVL22:
 295 000a 04F11006 		add	r6, r4, #16
 296              	.LVL23:
 297              	.L23:
 298              		.loc 1 158 0 discriminator 2
 299 000e 54F8041F 		ldr	r1, [r4, #4]!
 300 0012 3048     		ldr	r0, .L35+8
 301 0014 FFF7FEFF 		bl	chPoolFree
 302              	.LVL24:
 303              		.loc 1 157 0 discriminator 2
 304 0018 B442     		cmp	r4, r6
 305 001a F8D1     		bne	.L23
 306              		.loc 1 161 0
 307 001c 691E     		subs	r1, r5, #1
 308 001e 2E4A     		ldr	r2, .L35+12
 309 0020 2E4B     		ldr	r3, .L35+16
 310 0022 2C48     		ldr	r0, .L35+8
 311 0024 FFF7FEFF 		bl	chThdCreateFromMemoryPool
 312              	.LVL25:
 313 0028 2D4C     		ldr	r4, .L35+20
 314              		.loc 1 162 0
 315 002a A91E     		subs	r1, r5, #2
 316              		.loc 1 161 0
 317 002c 2060     		str	r0, [r4]
 318              		.loc 1 162 0
 319 002e 2A4A     		ldr	r2, .L35+12
 320 0030 2C4B     		ldr	r3, .L35+24
 321 0032 2848     		ldr	r0, .L35+8
 322 0034 FFF7FEFF 		bl	chThdCreateFromMemoryPool
 323              	.LVL26:
 324              		.loc 1 163 0
 325 0038 E91E     		subs	r1, r5, #3
 326              		.loc 1 162 0
 327 003a 6060     		str	r0, [r4, #4]
 328              		.loc 1 163 0
 329 003c 264A     		ldr	r2, .L35+12
 330 003e 2A4B     		ldr	r3, .L35+28
 331 0040 2448     		ldr	r0, .L35+8
 332 0042 FFF7FEFF 		bl	chThdCreateFromMemoryPool
 333              	.LVL27:
 334              		.loc 1 164 0
 335 0046 291F     		subs	r1, r5, #4
 336              		.loc 1 163 0
 337 0048 A060     		str	r0, [r4, #8]
 338              		.loc 1 164 0
ARM GAS  /tmp/ccPwPlGL.s 			page 7


 339 004a 234A     		ldr	r2, .L35+12
 340 004c 274B     		ldr	r3, .L35+32
 341 004e 2148     		ldr	r0, .L35+8
 342 0050 FFF7FEFF 		bl	chThdCreateFromMemoryPool
 343              	.LVL28:
 344              		.loc 1 165 0
 345 0054 691F     		subs	r1, r5, #5
 346              		.loc 1 164 0
 347 0056 E060     		str	r0, [r4, #12]
 348              		.loc 1 165 0
 349 0058 1F4A     		ldr	r2, .L35+12
 350 005a 1E48     		ldr	r0, .L35+8
 351 005c 244B     		ldr	r3, .L35+36
 352 005e FFF7FEFF 		bl	chThdCreateFromMemoryPool
 353              	.LVL29:
 354              		.loc 1 167 0
 355 0062 2168     		ldr	r1, [r4]
 356              		.loc 1 165 0
 357 0064 2061     		str	r0, [r4, #16]
 358              		.loc 1 167 0
 359 0066 49B1     		cbz	r1, .L24
 360              		.loc 1 167 0 is_stmt 0 discriminator 1
 361 0068 6168     		ldr	r1, [r4, #4]
 362 006a 39B1     		cbz	r1, .L24
 363 006c A168     		ldr	r1, [r4, #8]
 364 006e 29B1     		cbz	r1, .L24
 365 0070 E168     		ldr	r1, [r4, #12]
 366 0072 19B1     		cbz	r1, .L24
 367 0074 D0F10101 		rsbs	r1, r0, #1
 368 0078 38BF     		it	cc
 369 007a 0021     		movcc	r1, #0
 370              	.L24:
 371              		.loc 1 167 0 discriminator 3
 372 007c 0120     		movs	r0, #1
 373 007e FFF7FEFF 		bl	_test_assert
 374              	.LVL30:
 375 0082 00B1     		cbz	r0, .L34
 376              	.L21:
 377 0084 70BD     		pop	{r4, r5, r6, pc}
 378              	.LVL31:
 379              	.L34:
 380              		.loc 1 175 0 is_stmt 1
 381 0086 FFF7FEFF 		bl	test_wait_threads
 382              	.LVL32:
 383              		.loc 1 176 0
 384 008a 0220     		movs	r0, #2
 385 008c 1949     		ldr	r1, .L35+40
 386 008e FFF7FEFF 		bl	_test_assert_sequence
 387              	.LVL33:
 388 0092 0028     		cmp	r0, #0
 389 0094 F6D1     		bne	.L21
 390 0096 0424     		movs	r4, #4
 391              	.L29:
 392              	.LVL34:
 393              		.loc 1 180 0
 394 0098 0E48     		ldr	r0, .L35+8
 395 009a FFF7FEFF 		bl	chPoolAlloc
ARM GAS  /tmp/ccPwPlGL.s 			page 8


 396              	.LVL35:
 397 009e 011C     		adds	r1, r0, #0
 398 00a0 18BF     		it	ne
 399 00a2 0121     		movne	r1, #1
 400 00a4 0320     		movs	r0, #3
 401 00a6 FFF7FEFF 		bl	_test_assert
 402              	.LVL36:
 403 00aa 0028     		cmp	r0, #0
 404 00ac EAD1     		bne	.L21
 405              		.loc 1 179 0
 406 00ae 013C     		subs	r4, r4, #1
 407              	.LVL37:
 408 00b0 F2D1     		bne	.L29
 409              		.loc 1 181 0
 410 00b2 0848     		ldr	r0, .L35+8
 411 00b4 FFF7FEFF 		bl	chPoolAlloc
 412              	.LVL38:
 413              		.loc 1 182 0
 414 00b8 BDE87040 		pop	{r4, r5, r6, lr}
 415              	.LVL39:
 416              		.loc 1 181 0
 417 00bc D0F10101 		rsbs	r1, r0, #1
 418 00c0 38BF     		it	cc
 419 00c2 0021     		movcc	r1, #0
 420 00c4 0420     		movs	r0, #4
 421 00c6 FFF7FEBF 		b	_test_assert
 422              	.LVL40:
 423              	.L36:
 424 00ca 00BF     		.align	2
 425              	.L35:
 426 00cc 00000000 		.word	rlist
 427 00d0 FCFFFFFF 		.word	wa-4
 428 00d4 00000000 		.word	.LANCHOR1
 429 00d8 00000000 		.word	thread
 430 00dc 00000000 		.word	.LC0
 431 00e0 00000000 		.word	threads
 432 00e4 04000000 		.word	.LC1
 433 00e8 08000000 		.word	.LC2
 434 00ec 10000000 		.word	.LC4
 435 00f0 14000000 		.word	.LC5
 436 00f4 18000000 		.word	.LC6
 437              		.cfi_endproc
 438              	.LFE11:
 439              		.size	dyn2_execute, .-dyn2_execute
 440 00f8 AFF30080 		.section	.text.dyn2_setup,"ax",%progbits
 440      AFF30080 
 441              		.align	2
 442              		.p2align 4,,15
 443              		.thumb
 444              		.thumb_func
 445              		.type	dyn2_setup, %function
 446              	dyn2_setup:
 447              	.LFB10:
 448              		.loc 1 147 0
 449              		.cfi_startproc
 450              		@ args = 0, pretend = 0, frame = 0
 451              		@ frame_needed = 0, uses_anonymous_args = 0
ARM GAS  /tmp/ccPwPlGL.s 			page 9


 452              		@ link register save eliminated.
 453              		.loc 1 149 0
 454 0000 0248     		ldr	r0, .L38
 455 0002 4FF49871 		mov	r1, #304
 456 0006 0022     		movs	r2, #0
 457 0008 FFF7FEBF 		b	chPoolInit
 458              	.LVL41:
 459              	.L39:
 460              		.align	2
 461              	.L38:
 462 000c 00000000 		.word	.LANCHOR1
 463              		.cfi_endproc
 464              	.LFE10:
 465              		.size	dyn2_setup, .-dyn2_setup
 466              		.section	.text.regfind,"ax",%progbits
 467              		.align	2
 468              		.p2align 4,,15
 469              		.thumb
 470              		.thumb_func
 471              		.type	regfind, %function
 472              	regfind:
 473              	.LFB12:
 474              		.loc 1 202 0
 475              		.cfi_startproc
 476              		@ args = 0, pretend = 0, frame = 0
 477              		@ frame_needed = 0, uses_anonymous_args = 0
 478              	.LVL42:
 479 0000 38B5     		push	{r3, r4, r5, lr}
 480              		.cfi_def_cfa_offset 16
 481              		.cfi_offset 3, -16
 482              		.cfi_offset 4, -12
 483              		.cfi_offset 5, -8
 484              		.cfi_offset 14, -4
 485              		.loc 1 202 0
 486 0002 0546     		mov	r5, r0
 487              		.loc 1 206 0
 488 0004 FFF7FEFF 		bl	chRegFirstThread
 489              	.LVL43:
 490              		.loc 1 204 0
 491 0008 0024     		movs	r4, #0
 492              		.loc 1 206 0
 493 000a 0346     		mov	r3, r0
 494              	.LVL44:
 495              	.L42:
 496              		.loc 1 209 0 discriminator 1
 497 000c 1846     		mov	r0, r3
 498              		.loc 1 208 0 discriminator 1
 499 000e AB42     		cmp	r3, r5
 500 0010 08BF     		it	eq
 501 0012 44F00104 		orreq	r4, r4, #1
 502              	.LVL45:
 503              		.loc 1 209 0 discriminator 1
 504 0016 FFF7FEFF 		bl	chRegNextThread
 505              	.LVL46:
 506              		.loc 1 210 0 discriminator 1
 507 001a 0346     		mov	r3, r0
 508 001c 0028     		cmp	r0, #0
ARM GAS  /tmp/ccPwPlGL.s 			page 10


 509 001e F5D1     		bne	.L42
 510              		.loc 1 212 0
 511 0020 2046     		mov	r0, r4
 512              	.LVL47:
 513 0022 38BD     		pop	{r3, r4, r5, pc}
 514              		.cfi_endproc
 515              	.LFE12:
 516              		.size	regfind, .-regfind
 517 0024 AFF30080 		.section	.text.dyn3_execute,"ax",%progbits
 517      AFF30080 
 517      AFF30080 
 518              		.align	2
 519              		.p2align 4,,15
 520              		.thumb
 521              		.thumb_func
 522              		.type	dyn3_execute, %function
 523              	dyn3_execute:
 524              	.LFB14:
 525              		.loc 1 219 0
 526              		.cfi_startproc
 527              		@ args = 0, pretend = 0, frame = 0
 528              		@ frame_needed = 0, uses_anonymous_args = 0
 529              	.LVL48:
 530 0000 10B5     		push	{r4, lr}
 531              		.cfi_def_cfa_offset 8
 532              		.cfi_offset 4, -8
 533              		.cfi_offset 14, -4
 534              		.loc 1 221 0
 535 0002 4A4A     		ldr	r2, .L48
 536              		.loc 1 224 0
 537 0004 4A4B     		ldr	r3, .L48+4
 538              		.loc 1 221 0
 539 0006 D269     		ldr	r2, [r2, #28]
 540              		.loc 1 219 0
 541 0008 82B0     		sub	sp, sp, #8
 542              		.cfi_def_cfa_offset 16
 543              		.loc 1 224 0
 544 000a 9268     		ldr	r2, [r2, #8]
 545 000c 4FF49871 		mov	r1, #304
 546 0010 0093     		str	r3, [sp]
 547              	.LVL49:
 548 0012 4848     		ldr	r0, .L48+8
 549 0014 013A     		subs	r2, r2, #1
 550 0016 484B     		ldr	r3, .L48+12
 551 0018 FFF7FEFF 		bl	chThdCreateFromHeap
 552              	.LVL50:
 553              		.loc 1 225 0
 554 001c 817F     		ldrb	r1, [r0, #30]	@ zero_extendqisi2
 555              		.loc 1 224 0
 556 001e 0446     		mov	r4, r0
 557              	.LVL51:
 558              		.loc 1 225 0
 559 0020 0120     		movs	r0, #1
 560              	.LVL52:
 561 0022 B1EB000C 		subs	ip, r1, r0
 562 0026 DCF10001 		rsbs	r1, ip, #0
 563 002a 51EB0C01 		adcs	r1, r1, ip
ARM GAS  /tmp/ccPwPlGL.s 			page 11


 564 002e FFF7FEFF 		bl	_test_assert
 565              	.LVL53:
 566 0032 08B1     		cbz	r0, .L47
 567              	.L43:
 568              		.loc 1 247 0
 569 0034 02B0     		add	sp, sp, #8
 570              		@ sp needed
 571 0036 10BD     		pop	{r4, pc}
 572              	.LVL54:
 573              	.L47:
 574              		.loc 1 226 0
 575 0038 2046     		mov	r0, r4
 576 003a FFF7FEFF 		bl	chThdAddRef
 577              	.LVL55:
 578              		.loc 1 227 0
 579 003e A17F     		ldrb	r1, [r4, #30]	@ zero_extendqisi2
 580 0040 0220     		movs	r0, #2
 581 0042 B1EB000E 		subs	lr, r1, r0
 582 0046 DEF10001 		rsbs	r1, lr, #0
 583 004a 51EB0E01 		adcs	r1, r1, lr
 584 004e FFF7FEFF 		bl	_test_assert
 585              	.LVL56:
 586 0052 0028     		cmp	r0, #0
 587 0054 EED1     		bne	.L43
 588              		.loc 1 228 0
 589 0056 2046     		mov	r0, r4
 590 0058 FFF7FEFF 		bl	chThdRelease
 591              	.LVL57:
 592              		.loc 1 229 0
 593 005c A17F     		ldrb	r1, [r4, #30]	@ zero_extendqisi2
 594 005e 0320     		movs	r0, #3
 595 0060 4A1E     		subs	r2, r1, #1
 596 0062 5142     		rsbs	r1, r2, #0
 597 0064 5141     		adcs	r1, r1, r2
 598 0066 FFF7FEFF 		bl	_test_assert
 599              	.LVL58:
 600 006a 0028     		cmp	r0, #0
 601 006c E2D1     		bne	.L43
 602              		.loc 1 232 0
 603 006e 2046     		mov	r0, r4
 604 0070 FFF7FEFF 		bl	regfind
 605              	.LVL59:
 606 0074 0146     		mov	r1, r0
 607 0076 0420     		movs	r0, #4
 608 0078 FFF7FEFF 		bl	_test_assert
 609              	.LVL60:
 610 007c 0028     		cmp	r0, #0
 611 007e D9D1     		bne	.L43
 612              		.loc 1 233 0
 613 0080 2046     		mov	r0, r4
 614 0082 FFF7FEFF 		bl	regfind
 615              	.LVL61:
 616 0086 0146     		mov	r1, r0
 617 0088 0520     		movs	r0, #5
 618 008a FFF7FEFF 		bl	_test_assert
 619              	.LVL62:
 620 008e 0028     		cmp	r0, #0
ARM GAS  /tmp/ccPwPlGL.s 			page 12


 621 0090 D0D1     		bne	.L43
 622              		.loc 1 236 0
 623 0092 2046     		mov	r0, r4
 624 0094 FFF7FEFF 		bl	chThdRelease
 625              	.LVL63:
 626              		.loc 1 237 0
 627 0098 A17F     		ldrb	r1, [r4, #30]	@ zero_extendqisi2
 628 009a 0620     		movs	r0, #6
 629 009c D1F10101 		rsbs	r1, r1, #1
 630 00a0 38BF     		it	cc
 631 00a2 0021     		movcc	r1, #0
 632 00a4 FFF7FEFF 		bl	_test_assert
 633              	.LVL64:
 634 00a8 0028     		cmp	r0, #0
 635 00aa C3D1     		bne	.L43
 636              		.loc 1 238 0
 637 00ac 217F     		ldrb	r1, [r4, #28]	@ zero_extendqisi2
 638 00ae 0720     		movs	r0, #7
 639 00b0 D1F10101 		rsbs	r1, r1, #1
 640 00b4 38BF     		it	cc
 641 00b6 0021     		movcc	r1, #0
 642 00b8 FFF7FEFF 		bl	_test_assert
 643              	.LVL65:
 644 00bc 0028     		cmp	r0, #0
 645 00be B9D1     		bne	.L43
 646              		.loc 1 239 0
 647 00c0 2046     		mov	r0, r4
 648 00c2 FFF7FEFF 		bl	regfind
 649              	.LVL66:
 650 00c6 0146     		mov	r1, r0
 651 00c8 0820     		movs	r0, #8
 652 00ca FFF7FEFF 		bl	_test_assert
 653              	.LVL67:
 654 00ce 0028     		cmp	r0, #0
 655 00d0 B0D1     		bne	.L43
 656              		.loc 1 240 0
 657 00d2 2046     		mov	r0, r4
 658 00d4 FFF7FEFF 		bl	regfind
 659              	.LVL68:
 660 00d8 0146     		mov	r1, r0
 661 00da 0920     		movs	r0, #9
 662 00dc FFF7FEFF 		bl	_test_assert
 663              	.LVL69:
 664 00e0 0028     		cmp	r0, #0
 665 00e2 A7D1     		bne	.L43
 666              		.loc 1 241 0
 667 00e4 3220     		movs	r0, #50
 668 00e6 FFF7FEFF 		bl	chThdSleep
 669              	.LVL70:
 670              		.loc 1 242 0
 671 00ea 217F     		ldrb	r1, [r4, #28]	@ zero_extendqisi2
 672 00ec 0A20     		movs	r0, #10
 673 00ee B1F10E03 		subs	r3, r1, #14
 674 00f2 5942     		rsbs	r1, r3, #0
 675 00f4 5941     		adcs	r1, r1, r3
 676 00f6 FFF7FEFF 		bl	_test_assert
 677              	.LVL71:
ARM GAS  /tmp/ccPwPlGL.s 			page 13


 678 00fa 0028     		cmp	r0, #0
 679 00fc 9AD1     		bne	.L43
 680              		.loc 1 245 0
 681 00fe 2046     		mov	r0, r4
 682 0100 FFF7FEFF 		bl	regfind
 683              	.LVL72:
 684 0104 0146     		mov	r1, r0
 685 0106 0B20     		movs	r0, #11
 686 0108 FFF7FEFF 		bl	_test_assert
 687              	.LVL73:
 688 010c 0028     		cmp	r0, #0
 689 010e 91D1     		bne	.L43
 690              		.loc 1 246 0
 691 0110 2046     		mov	r0, r4
 692 0112 FFF7FEFF 		bl	regfind
 693              	.LVL74:
 694 0116 D0F10101 		rsbs	r1, r0, #1
 695 011a 38BF     		it	cc
 696 011c 0021     		movcc	r1, #0
 697 011e 0C20     		movs	r0, #12
 698              		.loc 1 247 0
 699 0120 02B0     		add	sp, sp, #8
 700              		@ sp needed
 701 0122 BDE81040 		pop	{r4, lr}
 702              	.LVL75:
 703              		.loc 1 246 0
 704 0126 FFF7FEBF 		b	_test_assert
 705              	.LVL76:
 706              	.L49:
 707 012a 00BF     		.align	2
 708              	.L48:
 709 012c 00000000 		.word	rlist
 710 0130 00000000 		.word	.LC0
 711 0134 00000000 		.word	.LANCHOR0
 712 0138 00000000 		.word	thread
 713              		.cfi_endproc
 714              	.LFE14:
 715              		.size	dyn3_execute, .-dyn3_execute
 716              		.global	patterndyn
 717              		.global	testdyn3
 718              		.global	testdyn2
 719              		.global	testdyn1
 720 013c AFF30080 		.section	.rodata.testdyn1,"a",%progbits
 721              		.align	2
 722              		.type	testdyn1, %object
 723              		.size	testdyn1, 16
 724              	testdyn1:
 725 0000 78000000 		.word	.LC9
 726 0004 00000000 		.word	dyn1_setup
 727 0008 00000000 		.word	0
 728 000c 00000000 		.word	dyn1_execute
 729              		.section	.rodata.testdyn2,"a",%progbits
 730              		.align	2
 731              		.type	testdyn2, %object
 732              		.size	testdyn2, 16
 733              	testdyn2:
 734 0000 48000000 		.word	.LC8
ARM GAS  /tmp/ccPwPlGL.s 			page 14


 735 0004 00000000 		.word	dyn2_setup
 736 0008 00000000 		.word	0
 737 000c 00000000 		.word	dyn2_execute
 738              		.section	.rodata.testdyn3,"a",%progbits
 739              		.align	2
 740              		.type	testdyn3, %object
 741              		.size	testdyn3, 16
 742              	testdyn3:
 743 0000 20000000 		.word	.LC7
 744 0004 00000000 		.word	dyn3_setup
 745 0008 00000000 		.word	0
 746 000c 00000000 		.word	dyn3_execute
 747              		.section	.bss.mp1,"aw",%nobits
 748              		.align	2
 749              		.set	.LANCHOR1,. + 0
 750              		.type	mp1, %object
 751              		.size	mp1, 12
 752              	mp1:
 753 0000 00000000 		.space	12
 753      00000000 
 753      00000000 
 754              		.section	.rodata.str1.4,"aMS",%progbits,1
 755              		.align	2
 756              	.LC0:
 757 0000 4100     		.ascii	"A\000"
 758 0002 0000     		.space	2
 759              	.LC1:
 760 0004 4200     		.ascii	"B\000"
 761 0006 0000     		.space	2
 762              	.LC2:
 763 0008 4300     		.ascii	"C\000"
 764 000a 0000     		.space	2
 765              	.LC3:
 766 000c 414200   		.ascii	"AB\000"
 767 000f 00       		.space	1
 768              	.LC4:
 769 0010 4400     		.ascii	"D\000"
 770 0012 0000     		.space	2
 771              	.LC5:
 772 0014 4500     		.ascii	"E\000"
 773 0016 0000     		.space	2
 774              	.LC6:
 775 0018 41424344 		.ascii	"ABCD\000"
 775      00
 776 001d 000000   		.space	3
 777              	.LC7:
 778 0020 44796E61 		.ascii	"Dynamic APIs, registry and references\000"
 778      6D696320 
 778      41504973 
 778      2C207265 
 778      67697374 
 779 0046 0000     		.space	2
 780              	.LC8:
 781 0048 44796E61 		.ascii	"Dynamic APIs, threads creation from memory pool\000"
 781      6D696320 
 781      41504973 
 781      2C207468 
ARM GAS  /tmp/ccPwPlGL.s 			page 15


 781      72656164 
 782              	.LC9:
 783 0078 44796E61 		.ascii	"Dynamic APIs, threads creation from heap\000"
 783      6D696320 
 783      41504973 
 783      2C207468 
 783      72656164 
 784 00a1 000000   		.section	.rodata.patterndyn,"a",%progbits
 785              		.align	2
 786              		.type	patterndyn, %object
 787              		.size	patterndyn, 16
 788              	patterndyn:
 789 0000 00000000 		.word	testdyn1
 790 0004 00000000 		.word	testdyn2
 791 0008 00000000 		.word	testdyn3
 792 000c 00000000 		.word	0
 793              		.section	.bss.heap1,"aw",%nobits
 794              		.align	3
 795              		.set	.LANCHOR0,. + 0
 796              		.type	heap1, %object
 797              		.size	heap1, 32
 798              	heap1:
 799 0000 00000000 		.space	32
 799      00000000 
 799      00000000 
 799      00000000 
 799      00000000 
 800              		.text
 801              	.Letext0:
 802              		.file 2 "/usr/local/gcc-arm-none-eabi-4_8-2014q2/lib/gcc/arm-none-eabi/4.8.4/include/stddef.h"
 803              		.file 3 "/usr/local/gcc-arm-none-eabi-4_8-2014q2/arm-none-eabi/include/machine/_default_types.h"
 804              		.file 4 "/usr/local/gcc-arm-none-eabi-4_8-2014q2/arm-none-eabi/include/stdint.h"
 805              		.file 5 "../../os/ports/GCC/ARMCMx/chtypes.h"
 806              		.file 6 "../../os/kernel/include/chlists.h"
 807              		.file 7 "../../os/kernel/include/chthreads.h"
 808              		.file 8 "../../os/ports/GCC/ARMCMx/chcore_v7m.h"
 809              		.file 9 "../../os/kernel/include/chschd.h"
 810              		.file 10 "../../os/kernel/include/chmtx.h"
 811              		.file 11 "../../os/kernel/include/chmemcore.h"
 812              		.file 12 "../../os/kernel/include/chheap.h"
 813              		.file 13 "../../os/kernel/include/chmempools.h"
 814              		.file 14 "../../test/test.h"
 815              		.file 15 "../../os/kernel/include/chdynamic.h"
 816              		.file 16 "../../os/kernel/include/chregistry.h"
 817              		.section	.debug_info,"",%progbits
 818              	.Ldebug_info0:
 819 0000 610F0000 		.4byte	0xf61
 820 0004 0400     		.2byte	0x4
 821 0006 00000000 		.4byte	.Ldebug_abbrev0
 822 000a 04       		.byte	0x4
 823 000b 01       		.uleb128 0x1
 824 000c 29020000 		.4byte	.LASF128
 825 0010 01       		.byte	0x1
 826 0011 72050000 		.4byte	.LASF129
 827 0015 8C010000 		.4byte	.LASF130
 828 0019 00000000 		.4byte	.Ldebug_ranges0+0
 829 001d 00000000 		.4byte	0
ARM GAS  /tmp/ccPwPlGL.s 			page 16


 830 0021 00000000 		.4byte	.Ldebug_line0
 831 0025 02       		.uleb128 0x2
 832 0026 04       		.byte	0x4
 833 0027 05       		.byte	0x5
 834 0028 696E7400 		.ascii	"int\000"
 835 002c 03       		.uleb128 0x3
 836 002d 0E000000 		.4byte	.LASF2
 837 0031 02       		.byte	0x2
 838 0032 D4       		.byte	0xd4
 839 0033 37000000 		.4byte	0x37
 840 0037 04       		.uleb128 0x4
 841 0038 04       		.byte	0x4
 842 0039 07       		.byte	0x7
 843 003a C4010000 		.4byte	.LASF0
 844 003e 04       		.uleb128 0x4
 845 003f 01       		.byte	0x1
 846 0040 06       		.byte	0x6
 847 0041 C4000000 		.4byte	.LASF1
 848 0045 03       		.uleb128 0x3
 849 0046 2A000000 		.4byte	.LASF3
 850 004a 03       		.byte	0x3
 851 004b 1C       		.byte	0x1c
 852 004c 50000000 		.4byte	0x50
 853 0050 04       		.uleb128 0x4
 854 0051 01       		.byte	0x1
 855 0052 08       		.byte	0x8
 856 0053 2E040000 		.4byte	.LASF4
 857 0057 04       		.uleb128 0x4
 858 0058 02       		.byte	0x2
 859 0059 05       		.byte	0x5
 860 005a 51040000 		.4byte	.LASF5
 861 005e 04       		.uleb128 0x4
 862 005f 02       		.byte	0x2
 863 0060 07       		.byte	0x7
 864 0061 09020000 		.4byte	.LASF6
 865 0065 03       		.uleb128 0x3
 866 0066 44050000 		.4byte	.LASF7
 867 006a 03       		.byte	0x3
 868 006b 37       		.byte	0x37
 869 006c 70000000 		.4byte	0x70
 870 0070 04       		.uleb128 0x4
 871 0071 04       		.byte	0x4
 872 0072 05       		.byte	0x5
 873 0073 08010000 		.4byte	.LASF8
 874 0077 03       		.uleb128 0x3
 875 0078 6C010000 		.4byte	.LASF9
 876 007c 03       		.byte	0x3
 877 007d 38       		.byte	0x38
 878 007e 82000000 		.4byte	0x82
 879 0082 04       		.uleb128 0x4
 880 0083 04       		.byte	0x4
 881 0084 07       		.byte	0x7
 882 0085 D1010000 		.4byte	.LASF10
 883 0089 04       		.uleb128 0x4
 884 008a 08       		.byte	0x8
 885 008b 05       		.byte	0x5
 886 008c B6000000 		.4byte	.LASF11
ARM GAS  /tmp/ccPwPlGL.s 			page 17


 887 0090 03       		.uleb128 0x3
 888 0091 ED030000 		.4byte	.LASF12
 889 0095 03       		.byte	0x3
 890 0096 4E       		.byte	0x4e
 891 0097 9B000000 		.4byte	0x9b
 892 009b 04       		.uleb128 0x4
 893 009c 08       		.byte	0x8
 894 009d 07       		.byte	0x7
 895 009e 4C000000 		.4byte	.LASF13
 896 00a2 03       		.uleb128 0x3
 897 00a3 C5050000 		.4byte	.LASF14
 898 00a7 04       		.byte	0x4
 899 00a8 2A       		.byte	0x2a
 900 00a9 45000000 		.4byte	0x45
 901 00ad 03       		.uleb128 0x3
 902 00ae 26040000 		.4byte	.LASF15
 903 00b2 04       		.byte	0x4
 904 00b3 41       		.byte	0x41
 905 00b4 65000000 		.4byte	0x65
 906 00b8 03       		.uleb128 0x3
 907 00b9 D3040000 		.4byte	.LASF16
 908 00bd 04       		.byte	0x4
 909 00be 42       		.byte	0x42
 910 00bf 77000000 		.4byte	0x77
 911 00c3 03       		.uleb128 0x3
 912 00c4 21000000 		.4byte	.LASF17
 913 00c8 04       		.byte	0x4
 914 00c9 4E       		.byte	0x4e
 915 00ca 90000000 		.4byte	0x90
 916 00ce 03       		.uleb128 0x3
 917 00cf DE000000 		.4byte	.LASF18
 918 00d3 05       		.byte	0x5
 919 00d4 2E       		.byte	0x2e
 920 00d5 AD000000 		.4byte	0xad
 921 00d9 03       		.uleb128 0x3
 922 00da 1C030000 		.4byte	.LASF19
 923 00de 05       		.byte	0x5
 924 00df 2F       		.byte	0x2f
 925 00e0 A2000000 		.4byte	0xa2
 926 00e4 03       		.uleb128 0x3
 927 00e5 25010000 		.4byte	.LASF20
 928 00e9 05       		.byte	0x5
 929 00ea 30       		.byte	0x30
 930 00eb A2000000 		.4byte	0xa2
 931 00ef 03       		.uleb128 0x3
 932 00f0 00040000 		.4byte	.LASF21
 933 00f4 05       		.byte	0x5
 934 00f5 31       		.byte	0x31
 935 00f6 A2000000 		.4byte	0xa2
 936 00fa 03       		.uleb128 0x3
 937 00fb 17040000 		.4byte	.LASF22
 938 00ff 05       		.byte	0x5
 939 0100 32       		.byte	0x32
 940 0101 B8000000 		.4byte	0xb8
 941 0105 03       		.uleb128 0x3
 942 0106 0E030000 		.4byte	.LASF23
 943 010a 05       		.byte	0x5
ARM GAS  /tmp/ccPwPlGL.s 			page 18


 944 010b 33       		.byte	0x33
 945 010c AD000000 		.4byte	0xad
 946 0110 03       		.uleb128 0x3
 947 0111 30030000 		.4byte	.LASF24
 948 0115 05       		.byte	0x5
 949 0116 35       		.byte	0x35
 950 0117 B8000000 		.4byte	0xb8
 951 011b 03       		.uleb128 0x3
 952 011c 2F050000 		.4byte	.LASF25
 953 0120 05       		.byte	0x5
 954 0121 36       		.byte	0x36
 955 0122 B8000000 		.4byte	0xb8
 956 0126 03       		.uleb128 0x3
 957 0127 BE010000 		.4byte	.LASF26
 958 012b 05       		.byte	0x5
 959 012c 37       		.byte	0x37
 960 012d AD000000 		.4byte	0xad
 961 0131 03       		.uleb128 0x3
 962 0132 A1040000 		.4byte	.LASF27
 963 0136 06       		.byte	0x6
 964 0137 2A       		.byte	0x2a
 965 0138 3C010000 		.4byte	0x13c
 966 013c 05       		.uleb128 0x5
 967 013d A1040000 		.4byte	.LASF27
 968 0141 48       		.byte	0x48
 969 0142 07       		.byte	0x7
 970 0143 5E       		.byte	0x5e
 971 0144 2D020000 		.4byte	0x22d
 972 0148 06       		.uleb128 0x6
 973 0149 85040000 		.4byte	.LASF28
 974 014d 07       		.byte	0x7
 975 014e 5F       		.byte	0x5f
 976 014f 4E020000 		.4byte	0x24e
 977 0153 00       		.byte	0
 978 0154 06       		.uleb128 0x6
 979 0155 08040000 		.4byte	.LASF29
 980 0159 07       		.byte	0x7
 981 015a 61       		.byte	0x61
 982 015b 4E020000 		.4byte	0x24e
 983 015f 04       		.byte	0x4
 984 0160 06       		.uleb128 0x6
 985 0161 A4000000 		.4byte	.LASF30
 986 0165 07       		.byte	0x7
 987 0166 63       		.byte	0x63
 988 0167 FA000000 		.4byte	0xfa
 989 016b 08       		.byte	0x8
 990 016c 06       		.uleb128 0x6
 991 016d 11060000 		.4byte	.LASF31
 992 0171 07       		.byte	0x7
 993 0172 64       		.byte	0x64
 994 0173 12030000 		.4byte	0x312
 995 0177 0C       		.byte	0xc
 996 0178 06       		.uleb128 0x6
 997 0179 4A010000 		.4byte	.LASF32
 998 017d 07       		.byte	0x7
 999 017e 66       		.byte	0x66
 1000 017f 4E020000 		.4byte	0x24e
ARM GAS  /tmp/ccPwPlGL.s 			page 19


 1001 0183 10       		.byte	0x10
 1002 0184 06       		.uleb128 0x6
 1003 0185 8A030000 		.4byte	.LASF33
 1004 0189 07       		.byte	0x7
 1005 018a 67       		.byte	0x67
 1006 018b 4E020000 		.4byte	0x24e
 1007 018f 14       		.byte	0x14
 1008 0190 06       		.uleb128 0x6
 1009 0191 EB050000 		.4byte	.LASF34
 1010 0195 07       		.byte	0x7
 1011 0196 6E       		.byte	0x6e
 1012 0197 3C050000 		.4byte	0x53c
 1013 019b 18       		.byte	0x18
 1014 019c 06       		.uleb128 0x6
 1015 019d 5B040000 		.4byte	.LASF35
 1016 01a1 07       		.byte	0x7
 1017 01a2 79       		.byte	0x79
 1018 01a3 E4000000 		.4byte	0xe4
 1019 01a7 1C       		.byte	0x1c
 1020 01a8 06       		.uleb128 0x6
 1021 01a9 8C040000 		.4byte	.LASF36
 1022 01ad 07       		.byte	0x7
 1023 01ae 7D       		.byte	0x7d
 1024 01af D9000000 		.4byte	0xd9
 1025 01b3 1D       		.byte	0x1d
 1026 01b4 06       		.uleb128 0x6
 1027 01b5 A6050000 		.4byte	.LASF37
 1028 01b9 07       		.byte	0x7
 1029 01ba 82       		.byte	0x82
 1030 01bb EF000000 		.4byte	0xef
 1031 01bf 1E       		.byte	0x1e
 1032 01c0 06       		.uleb128 0x6
 1033 01c1 59050000 		.4byte	.LASF38
 1034 01c5 07       		.byte	0x7
 1035 01c6 89       		.byte	0x89
 1036 01c7 3A030000 		.4byte	0x33a
 1037 01cb 20       		.byte	0x20
 1038 01cc 07       		.uleb128 0x7
 1039 01cd 705F7500 		.ascii	"p_u\000"
 1040 01d1 07       		.byte	0x7
 1041 01d2 AE       		.byte	0xae
 1042 01d3 07050000 		.4byte	0x507
 1043 01d7 24       		.byte	0x24
 1044 01d8 06       		.uleb128 0x6
 1045 01d9 17060000 		.4byte	.LASF39
 1046 01dd 07       		.byte	0x7
 1047 01de B3       		.byte	0xb3
 1048 01df 74020000 		.4byte	0x274
 1049 01e3 28       		.byte	0x28
 1050 01e4 06       		.uleb128 0x6
 1051 01e5 67050000 		.4byte	.LASF40
 1052 01e9 07       		.byte	0x7
 1053 01ea B9       		.byte	0xb9
 1054 01eb 54020000 		.4byte	0x254
 1055 01ef 2C       		.byte	0x2c
 1056 01f0 06       		.uleb128 0x6
 1057 01f1 08000000 		.4byte	.LASF41
ARM GAS  /tmp/ccPwPlGL.s 			page 20


 1058 01f5 07       		.byte	0x7
 1059 01f6 BD       		.byte	0xbd
 1060 01f7 05010000 		.4byte	0x105
 1061 01fb 34       		.byte	0x34
 1062 01fc 06       		.uleb128 0x6
 1063 01fd BD040000 		.4byte	.LASF42
 1064 0201 07       		.byte	0x7
 1065 0202 C3       		.byte	0xc3
 1066 0203 10010000 		.4byte	0x110
 1067 0207 38       		.byte	0x38
 1068 0208 06       		.uleb128 0x6
 1069 0209 47040000 		.4byte	.LASF43
 1070 020d 07       		.byte	0x7
 1071 020e CA       		.byte	0xca
 1072 020f 4E050000 		.4byte	0x54e
 1073 0213 3C       		.byte	0x3c
 1074 0214 06       		.uleb128 0x6
 1075 0215 39050000 		.4byte	.LASF44
 1076 0219 07       		.byte	0x7
 1077 021a CE       		.byte	0xce
 1078 021b FA000000 		.4byte	0xfa
 1079 021f 40       		.byte	0x40
 1080 0220 06       		.uleb128 0x6
 1081 0221 D6000000 		.4byte	.LASF45
 1082 0225 07       		.byte	0x7
 1083 0226 D4       		.byte	0xd4
 1084 0227 8A020000 		.4byte	0x28a
 1085 022b 44       		.byte	0x44
 1086 022c 00       		.byte	0
 1087 022d 08       		.uleb128 0x8
 1088 022e 08       		.byte	0x8
 1089 022f 06       		.byte	0x6
 1090 0230 61       		.byte	0x61
 1091 0231 4E020000 		.4byte	0x24e
 1092 0235 06       		.uleb128 0x6
 1093 0236 85040000 		.4byte	.LASF28
 1094 023a 06       		.byte	0x6
 1095 023b 62       		.byte	0x62
 1096 023c 4E020000 		.4byte	0x24e
 1097 0240 00       		.byte	0
 1098 0241 06       		.uleb128 0x6
 1099 0242 08040000 		.4byte	.LASF29
 1100 0246 06       		.byte	0x6
 1101 0247 64       		.byte	0x64
 1102 0248 4E020000 		.4byte	0x24e
 1103 024c 04       		.byte	0x4
 1104 024d 00       		.byte	0
 1105 024e 09       		.uleb128 0x9
 1106 024f 04       		.byte	0x4
 1107 0250 31010000 		.4byte	0x131
 1108 0254 03       		.uleb128 0x3
 1109 0255 98030000 		.4byte	.LASF46
 1110 0259 06       		.byte	0x6
 1111 025a 66       		.byte	0x66
 1112 025b 2D020000 		.4byte	0x22d
 1113 025f 08       		.uleb128 0x8
 1114 0260 04       		.byte	0x4
ARM GAS  /tmp/ccPwPlGL.s 			page 21


 1115 0261 06       		.byte	0x6
 1116 0262 6B       		.byte	0x6b
 1117 0263 74020000 		.4byte	0x274
 1118 0267 06       		.uleb128 0x6
 1119 0268 85040000 		.4byte	.LASF28
 1120 026c 06       		.byte	0x6
 1121 026d 6D       		.byte	0x6d
 1122 026e 4E020000 		.4byte	0x24e
 1123 0272 00       		.byte	0
 1124 0273 00       		.byte	0
 1125 0274 03       		.uleb128 0x3
 1126 0275 24030000 		.4byte	.LASF47
 1127 0279 06       		.byte	0x6
 1128 027a 70       		.byte	0x70
 1129 027b 5F020000 		.4byte	0x25f
 1130 027f 03       		.uleb128 0x3
 1131 0280 83010000 		.4byte	.LASF48
 1132 0284 08       		.byte	0x8
 1133 0285 D7       		.byte	0xd7
 1134 0286 8A020000 		.4byte	0x28a
 1135 028a 0A       		.uleb128 0xa
 1136 028b 04       		.byte	0x4
 1137 028c 03       		.uleb128 0x3
 1138 028d 4E030000 		.4byte	.LASF49
 1139 0291 08       		.byte	0x8
 1140 0292 DD       		.byte	0xdd
 1141 0293 C3000000 		.4byte	0xc3
 1142 0297 05       		.uleb128 0x5
 1143 0298 60050000 		.4byte	.LASF50
 1144 029c 24       		.byte	0x24
 1145 029d 08       		.byte	0x8
 1146 029e FE       		.byte	0xfe
 1147 029f 12030000 		.4byte	0x312
 1148 02a3 0B       		.uleb128 0xb
 1149 02a4 723400   		.ascii	"r4\000"
 1150 02a7 08       		.byte	0x8
 1151 02a8 1101     		.2byte	0x111
 1152 02aa 7F020000 		.4byte	0x27f
 1153 02ae 00       		.byte	0
 1154 02af 0B       		.uleb128 0xb
 1155 02b0 723500   		.ascii	"r5\000"
 1156 02b3 08       		.byte	0x8
 1157 02b4 1201     		.2byte	0x112
 1158 02b6 7F020000 		.4byte	0x27f
 1159 02ba 04       		.byte	0x4
 1160 02bb 0B       		.uleb128 0xb
 1161 02bc 723600   		.ascii	"r6\000"
 1162 02bf 08       		.byte	0x8
 1163 02c0 1301     		.2byte	0x113
 1164 02c2 7F020000 		.4byte	0x27f
 1165 02c6 08       		.byte	0x8
 1166 02c7 0B       		.uleb128 0xb
 1167 02c8 723700   		.ascii	"r7\000"
 1168 02cb 08       		.byte	0x8
 1169 02cc 1401     		.2byte	0x114
 1170 02ce 7F020000 		.4byte	0x27f
 1171 02d2 0C       		.byte	0xc
ARM GAS  /tmp/ccPwPlGL.s 			page 22


 1172 02d3 0B       		.uleb128 0xb
 1173 02d4 723800   		.ascii	"r8\000"
 1174 02d7 08       		.byte	0x8
 1175 02d8 1501     		.2byte	0x115
 1176 02da 7F020000 		.4byte	0x27f
 1177 02de 10       		.byte	0x10
 1178 02df 0B       		.uleb128 0xb
 1179 02e0 723900   		.ascii	"r9\000"
 1180 02e3 08       		.byte	0x8
 1181 02e4 1601     		.2byte	0x116
 1182 02e6 7F020000 		.4byte	0x27f
 1183 02ea 14       		.byte	0x14
 1184 02eb 0B       		.uleb128 0xb
 1185 02ec 72313000 		.ascii	"r10\000"
 1186 02f0 08       		.byte	0x8
 1187 02f1 1701     		.2byte	0x117
 1188 02f3 7F020000 		.4byte	0x27f
 1189 02f7 18       		.byte	0x18
 1190 02f8 0B       		.uleb128 0xb
 1191 02f9 72313100 		.ascii	"r11\000"
 1192 02fd 08       		.byte	0x8
 1193 02fe 1801     		.2byte	0x118
 1194 0300 7F020000 		.4byte	0x27f
 1195 0304 1C       		.byte	0x1c
 1196 0305 0B       		.uleb128 0xb
 1197 0306 6C7200   		.ascii	"lr\000"
 1198 0309 08       		.byte	0x8
 1199 030a 1901     		.2byte	0x119
 1200 030c 7F020000 		.4byte	0x27f
 1201 0310 20       		.byte	0x20
 1202 0311 00       		.byte	0
 1203 0312 0C       		.uleb128 0xc
 1204 0313 FC010000 		.4byte	.LASF51
 1205 0317 04       		.byte	0x4
 1206 0318 08       		.byte	0x8
 1207 0319 2301     		.2byte	0x123
 1208 031b 2D030000 		.4byte	0x32d
 1209 031f 0B       		.uleb128 0xb
 1210 0320 72313300 		.ascii	"r13\000"
 1211 0324 08       		.byte	0x8
 1212 0325 2401     		.2byte	0x124
 1213 0327 2D030000 		.4byte	0x32d
 1214 032b 00       		.byte	0
 1215 032c 00       		.byte	0
 1216 032d 09       		.uleb128 0x9
 1217 032e 04       		.byte	0x4
 1218 032f 97020000 		.4byte	0x297
 1219 0333 04       		.uleb128 0x4
 1220 0334 04       		.byte	0x4
 1221 0335 07       		.byte	0x7
 1222 0336 59030000 		.4byte	.LASF52
 1223 033a 0D       		.uleb128 0xd
 1224 033b 1B010000 		.4byte	0x11b
 1225 033f 08       		.uleb128 0x8
 1226 0340 20       		.byte	0x20
 1227 0341 09       		.byte	0x9
 1228 0342 5E       		.byte	0x5e
ARM GAS  /tmp/ccPwPlGL.s 			page 23


 1229 0343 9C030000 		.4byte	0x39c
 1230 0347 06       		.uleb128 0x6
 1231 0348 DC040000 		.4byte	.LASF53
 1232 034c 09       		.byte	0x9
 1233 034d 5F       		.byte	0x5f
 1234 034e 54020000 		.4byte	0x254
 1235 0352 00       		.byte	0
 1236 0353 06       		.uleb128 0x6
 1237 0354 6B040000 		.4byte	.LASF54
 1238 0358 09       		.byte	0x9
 1239 0359 60       		.byte	0x60
 1240 035a FA000000 		.4byte	0xfa
 1241 035e 08       		.byte	0x8
 1242 035f 06       		.uleb128 0x6
 1243 0360 92030000 		.4byte	.LASF55
 1244 0364 09       		.byte	0x9
 1245 0365 62       		.byte	0x62
 1246 0366 12030000 		.4byte	0x312
 1247 036a 0C       		.byte	0xc
 1248 036b 06       		.uleb128 0x6
 1249 036c 14030000 		.4byte	.LASF56
 1250 0370 09       		.byte	0x9
 1251 0371 65       		.byte	0x65
 1252 0372 4E020000 		.4byte	0x24e
 1253 0376 10       		.byte	0x10
 1254 0377 06       		.uleb128 0x6
 1255 0378 DA030000 		.4byte	.LASF57
 1256 037c 09       		.byte	0x9
 1257 037d 66       		.byte	0x66
 1258 037e 4E020000 		.4byte	0x24e
 1259 0382 14       		.byte	0x14
 1260 0383 06       		.uleb128 0x6
 1261 0384 FF050000 		.4byte	.LASF58
 1262 0388 09       		.byte	0x9
 1263 0389 6A       		.byte	0x6a
 1264 038a 26010000 		.4byte	0x126
 1265 038e 18       		.byte	0x18
 1266 038f 06       		.uleb128 0x6
 1267 0390 D0030000 		.4byte	.LASF59
 1268 0394 09       		.byte	0x9
 1269 0395 6C       		.byte	0x6c
 1270 0396 4E020000 		.4byte	0x24e
 1271 039a 1C       		.byte	0x1c
 1272 039b 00       		.byte	0
 1273 039c 03       		.uleb128 0x3
 1274 039d AD050000 		.4byte	.LASF60
 1275 03a1 09       		.byte	0x9
 1276 03a2 6E       		.byte	0x6e
 1277 03a3 3F030000 		.4byte	0x33f
 1278 03a7 05       		.uleb128 0x5
 1279 03a8 3C030000 		.4byte	.LASF61
 1280 03ac 10       		.byte	0x10
 1281 03ad 0A       		.byte	0xa
 1282 03ae 2C       		.byte	0x2c
 1283 03af D8030000 		.4byte	0x3d8
 1284 03b3 06       		.uleb128 0x6
 1285 03b4 E5000000 		.4byte	.LASF62
ARM GAS  /tmp/ccPwPlGL.s 			page 24


 1286 03b8 0A       		.byte	0xa
 1287 03b9 2D       		.byte	0x2d
 1288 03ba 54020000 		.4byte	0x254
 1289 03be 00       		.byte	0
 1290 03bf 06       		.uleb128 0x6
 1291 03c0 09060000 		.4byte	.LASF63
 1292 03c4 0A       		.byte	0xa
 1293 03c5 2F       		.byte	0x2f
 1294 03c6 4E020000 		.4byte	0x24e
 1295 03ca 08       		.byte	0x8
 1296 03cb 06       		.uleb128 0x6
 1297 03cc 28050000 		.4byte	.LASF64
 1298 03d0 0A       		.byte	0xa
 1299 03d1 31       		.byte	0x31
 1300 03d2 D8030000 		.4byte	0x3d8
 1301 03d6 0C       		.byte	0xc
 1302 03d7 00       		.byte	0
 1303 03d8 09       		.uleb128 0x9
 1304 03d9 04       		.byte	0x4
 1305 03da A7030000 		.4byte	0x3a7
 1306 03de 03       		.uleb128 0x3
 1307 03df 3C030000 		.4byte	.LASF61
 1308 03e3 0A       		.byte	0xa
 1309 03e4 33       		.byte	0x33
 1310 03e5 A7030000 		.4byte	0x3a7
 1311 03e9 03       		.uleb128 0x3
 1312 03ea 3F000000 		.4byte	.LASF65
 1313 03ee 0B       		.byte	0xb
 1314 03ef 2C       		.byte	0x2c
 1315 03f0 F4030000 		.4byte	0x3f4
 1316 03f4 09       		.uleb128 0x9
 1317 03f5 04       		.byte	0x4
 1318 03f6 FA030000 		.4byte	0x3fa
 1319 03fa 0E       		.uleb128 0xe
 1320 03fb 8A020000 		.4byte	0x28a
 1321 03ff 09040000 		.4byte	0x409
 1322 0403 0F       		.uleb128 0xf
 1323 0404 2C000000 		.4byte	0x2c
 1324 0408 00       		.byte	0
 1325 0409 03       		.uleb128 0x3
 1326 040a E2030000 		.4byte	.LASF66
 1327 040e 0C       		.byte	0xc
 1328 040f 34       		.byte	0x34
 1329 0410 14040000 		.4byte	0x414
 1330 0414 05       		.uleb128 0x5
 1331 0415 27060000 		.4byte	.LASF67
 1332 0419 20       		.byte	0x20
 1333 041a 0C       		.byte	0xc
 1334 041b 47       		.byte	0x47
 1335 041c 45040000 		.4byte	0x445
 1336 0420 06       		.uleb128 0x6
 1337 0421 3C040000 		.4byte	.LASF68
 1338 0425 0C       		.byte	0xc
 1339 0426 48       		.byte	0x48
 1340 0427 E9030000 		.4byte	0x3e9
 1341 042b 00       		.byte	0
 1342 042c 06       		.uleb128 0x6
ARM GAS  /tmp/ccPwPlGL.s 			page 25


 1343 042d 6C000000 		.4byte	.LASF69
 1344 0431 0C       		.byte	0xc
 1345 0432 4A       		.byte	0x4a
 1346 0433 64040000 		.4byte	0x464
 1347 0437 08       		.byte	0x8
 1348 0438 06       		.uleb128 0x6
 1349 0439 D0000000 		.4byte	.LASF70
 1350 043d 0C       		.byte	0xc
 1351 043e 4C       		.byte	0x4c
 1352 043f DE030000 		.4byte	0x3de
 1353 0443 10       		.byte	0x10
 1354 0444 00       		.byte	0
 1355 0445 10       		.uleb128 0x10
 1356 0446 04       		.byte	0x4
 1357 0447 0C       		.byte	0xc
 1358 0448 3C       		.byte	0x3c
 1359 0449 64040000 		.4byte	0x464
 1360 044d 11       		.uleb128 0x11
 1361 044e 9F000000 		.4byte	.LASF71
 1362 0452 0C       		.byte	0xc
 1363 0453 3D       		.byte	0x3d
 1364 0454 85040000 		.4byte	0x485
 1365 0458 11       		.uleb128 0x11
 1366 0459 E4040000 		.4byte	.LASF72
 1367 045d 0C       		.byte	0xc
 1368 045e 3E       		.byte	0x3e
 1369 045f 8B040000 		.4byte	0x48b
 1370 0463 00       		.byte	0
 1371 0464 12       		.uleb128 0x12
 1372 0465 72040000 		.4byte	.LASF92
 1373 0469 08       		.byte	0x8
 1374 046a 0C       		.byte	0xc
 1375 046b 39       		.byte	0x39
 1376 046c 85040000 		.4byte	0x485
 1377 0470 11       		.uleb128 0x11
 1378 0471 B8010000 		.4byte	.LASF73
 1379 0475 0C       		.byte	0xc
 1380 0476 3A       		.byte	0x3a
 1381 0477 8C020000 		.4byte	0x28c
 1382 047b 13       		.uleb128 0x13
 1383 047c 6800     		.ascii	"h\000"
 1384 047e 0C       		.byte	0xc
 1385 047f 41       		.byte	0x41
 1386 0480 91040000 		.4byte	0x491
 1387 0484 00       		.byte	0
 1388 0485 09       		.uleb128 0x9
 1389 0486 04       		.byte	0x4
 1390 0487 64040000 		.4byte	0x464
 1391 048b 09       		.uleb128 0x9
 1392 048c 04       		.byte	0x4
 1393 048d 09040000 		.4byte	0x409
 1394 0491 08       		.uleb128 0x8
 1395 0492 08       		.byte	0x8
 1396 0493 0C       		.byte	0xc
 1397 0494 3B       		.byte	0x3b
 1398 0495 B0040000 		.4byte	0x4b0
 1399 0499 07       		.uleb128 0x7
ARM GAS  /tmp/ccPwPlGL.s 			page 26


 1400 049a 7500     		.ascii	"u\000"
 1401 049c 0C       		.byte	0xc
 1402 049d 3F       		.byte	0x3f
 1403 049e 45040000 		.4byte	0x445
 1404 04a2 00       		.byte	0
 1405 04a3 06       		.uleb128 0x6
 1406 04a4 04020000 		.4byte	.LASF74
 1407 04a8 0C       		.byte	0xc
 1408 04a9 40       		.byte	0x40
 1409 04aa 2C000000 		.4byte	0x2c
 1410 04ae 04       		.byte	0x4
 1411 04af 00       		.byte	0
 1412 04b0 05       		.uleb128 0x5
 1413 04b1 9A050000 		.4byte	.LASF75
 1414 04b5 04       		.byte	0x4
 1415 04b6 0D       		.byte	0xd
 1416 04b7 2C       		.byte	0x2c
 1417 04b8 C9040000 		.4byte	0x4c9
 1418 04bc 06       		.uleb128 0x6
 1419 04bd F8030000 		.4byte	.LASF76
 1420 04c1 0D       		.byte	0xd
 1421 04c2 2D       		.byte	0x2d
 1422 04c3 C9040000 		.4byte	0x4c9
 1423 04c7 00       		.byte	0
 1424 04c8 00       		.byte	0
 1425 04c9 09       		.uleb128 0x9
 1426 04ca 04       		.byte	0x4
 1427 04cb B0040000 		.4byte	0x4b0
 1428 04cf 08       		.uleb128 0x8
 1429 04d0 0C       		.byte	0xc
 1430 04d1 0D       		.byte	0xd
 1431 04d2 34       		.byte	0x34
 1432 04d3 FC040000 		.4byte	0x4fc
 1433 04d7 06       		.uleb128 0x6
 1434 04d8 2E010000 		.4byte	.LASF77
 1435 04dc 0D       		.byte	0xd
 1436 04dd 35       		.byte	0x35
 1437 04de C9040000 		.4byte	0x4c9
 1438 04e2 00       		.byte	0
 1439 04e3 06       		.uleb128 0x6
 1440 04e4 A5030000 		.4byte	.LASF78
 1441 04e8 0D       		.byte	0xd
 1442 04e9 36       		.byte	0x36
 1443 04ea 2C000000 		.4byte	0x2c
 1444 04ee 04       		.byte	0x4
 1445 04ef 06       		.uleb128 0x6
 1446 04f0 77010000 		.4byte	.LASF79
 1447 04f4 0D       		.byte	0xd
 1448 04f5 38       		.byte	0x38
 1449 04f6 E9030000 		.4byte	0x3e9
 1450 04fa 08       		.byte	0x8
 1451 04fb 00       		.byte	0
 1452 04fc 03       		.uleb128 0x3
 1453 04fd 34000000 		.4byte	.LASF80
 1454 0501 0D       		.byte	0xd
 1455 0502 3A       		.byte	0x3a
 1456 0503 CF040000 		.4byte	0x4cf
ARM GAS  /tmp/ccPwPlGL.s 			page 27


 1457 0507 10       		.uleb128 0x10
 1458 0508 04       		.byte	0x4
 1459 0509 07       		.byte	0x7
 1460 050a 90       		.byte	0x90
 1461 050b 3C050000 		.4byte	0x53c
 1462 050f 11       		.uleb128 0x11
 1463 0510 1A000000 		.4byte	.LASF81
 1464 0514 07       		.byte	0x7
 1465 0515 97       		.byte	0x97
 1466 0516 05010000 		.4byte	0x105
 1467 051a 11       		.uleb128 0x11
 1468 051b 63000000 		.4byte	.LASF82
 1469 051f 07       		.byte	0x7
 1470 0520 9E       		.byte	0x9e
 1471 0521 05010000 		.4byte	0x105
 1472 0525 11       		.uleb128 0x11
 1473 0526 E4050000 		.4byte	.LASF83
 1474 052a 07       		.byte	0x7
 1475 052b A5       		.byte	0xa5
 1476 052c 8A020000 		.4byte	0x28a
 1477 0530 11       		.uleb128 0x11
 1478 0531 7E040000 		.4byte	.LASF84
 1479 0535 07       		.byte	0x7
 1480 0536 AC       		.byte	0xac
 1481 0537 10010000 		.4byte	0x110
 1482 053b 00       		.byte	0
 1483 053c 09       		.uleb128 0x9
 1484 053d 04       		.byte	0x4
 1485 053e 42050000 		.4byte	0x542
 1486 0542 14       		.uleb128 0x14
 1487 0543 47050000 		.4byte	0x547
 1488 0547 04       		.uleb128 0x4
 1489 0548 01       		.byte	0x1
 1490 0549 08       		.byte	0x8
 1491 054a E9040000 		.4byte	.LASF85
 1492 054e 09       		.uleb128 0x9
 1493 054f 04       		.byte	0x4
 1494 0550 DE030000 		.4byte	0x3de
 1495 0554 03       		.uleb128 0x3
 1496 0555 00000000 		.4byte	.LASF86
 1497 0559 07       		.byte	0x7
 1498 055a DF       		.byte	0xdf
 1499 055b 5F050000 		.4byte	0x55f
 1500 055f 09       		.uleb128 0x9
 1501 0560 04       		.byte	0x4
 1502 0561 65050000 		.4byte	0x565
 1503 0565 0E       		.uleb128 0xe
 1504 0566 05010000 		.4byte	0x105
 1505 056a 74050000 		.4byte	0x574
 1506 056e 0F       		.uleb128 0xf
 1507 056f 8A020000 		.4byte	0x28a
 1508 0573 00       		.byte	0
 1509 0574 05       		.uleb128 0x5
 1510 0575 B4040000 		.4byte	.LASF87
 1511 0579 10       		.byte	0x10
 1512 057a 0E       		.byte	0xe
 1513 057b 46       		.byte	0x46
ARM GAS  /tmp/ccPwPlGL.s 			page 28


 1514 057c B1050000 		.4byte	0x5b1
 1515 0580 06       		.uleb128 0x6
 1516 0581 F7010000 		.4byte	.LASF88
 1517 0585 0E       		.byte	0xe
 1518 0586 47       		.byte	0x47
 1519 0587 3C050000 		.4byte	0x53c
 1520 058b 00       		.byte	0
 1521 058c 06       		.uleb128 0x6
 1522 058d B4030000 		.4byte	.LASF89
 1523 0591 0E       		.byte	0xe
 1524 0592 48       		.byte	0x48
 1525 0593 B2050000 		.4byte	0x5b2
 1526 0597 04       		.byte	0x4
 1527 0598 06       		.uleb128 0x6
 1528 0599 E3010000 		.4byte	.LASF90
 1529 059d 0E       		.byte	0xe
 1530 059e 49       		.byte	0x49
 1531 059f B2050000 		.4byte	0x5b2
 1532 05a3 08       		.byte	0x8
 1533 05a4 06       		.uleb128 0x6
 1534 05a5 0F040000 		.4byte	.LASF91
 1535 05a9 0E       		.byte	0xe
 1536 05aa 4A       		.byte	0x4a
 1537 05ab B2050000 		.4byte	0x5b2
 1538 05af 0C       		.byte	0xc
 1539 05b0 00       		.byte	0
 1540 05b1 15       		.uleb128 0x15
 1541 05b2 09       		.uleb128 0x9
 1542 05b3 04       		.byte	0x4
 1543 05b4 B1050000 		.4byte	0x5b1
 1544 05b8 16       		.uleb128 0x16
 1545 05b9 F005     		.2byte	0x5f0
 1546 05bb 0E       		.byte	0xe
 1547 05bc 4F       		.byte	0x4f
 1548 05bd FD050000 		.4byte	0x5fd
 1549 05c1 07       		.uleb128 0x7
 1550 05c2 543000   		.ascii	"T0\000"
 1551 05c5 0E       		.byte	0xe
 1552 05c6 50       		.byte	0x50
 1553 05c7 FD050000 		.4byte	0x5fd
 1554 05cb 00       		.byte	0
 1555 05cc 17       		.uleb128 0x17
 1556 05cd 543100   		.ascii	"T1\000"
 1557 05d0 0E       		.byte	0xe
 1558 05d1 51       		.byte	0x51
 1559 05d2 FD050000 		.4byte	0x5fd
 1560 05d6 3001     		.2byte	0x130
 1561 05d8 17       		.uleb128 0x17
 1562 05d9 543200   		.ascii	"T2\000"
 1563 05dc 0E       		.byte	0xe
 1564 05dd 52       		.byte	0x52
 1565 05de FD050000 		.4byte	0x5fd
 1566 05e2 6002     		.2byte	0x260
 1567 05e4 17       		.uleb128 0x17
 1568 05e5 543300   		.ascii	"T3\000"
 1569 05e8 0E       		.byte	0xe
 1570 05e9 53       		.byte	0x53
ARM GAS  /tmp/ccPwPlGL.s 			page 29


 1571 05ea FD050000 		.4byte	0x5fd
 1572 05ee 9003     		.2byte	0x390
 1573 05f0 17       		.uleb128 0x17
 1574 05f1 543400   		.ascii	"T4\000"
 1575 05f4 0E       		.byte	0xe
 1576 05f5 54       		.byte	0x54
 1577 05f6 FD050000 		.4byte	0x5fd
 1578 05fa C004     		.2byte	0x4c0
 1579 05fc 00       		.byte	0
 1580 05fd 18       		.uleb128 0x18
 1581 05fe 8C020000 		.4byte	0x28c
 1582 0602 0D060000 		.4byte	0x60d
 1583 0606 19       		.uleb128 0x19
 1584 0607 33030000 		.4byte	0x333
 1585 060b 25       		.byte	0x25
 1586 060c 00       		.byte	0
 1587 060d 1A       		.uleb128 0x1a
 1588 060e 8D050000 		.4byte	.LASF93
 1589 0612 F005     		.2byte	0x5f0
 1590 0614 0E       		.byte	0xe
 1591 0615 4E       		.byte	0x4e
 1592 0616 30060000 		.4byte	0x630
 1593 061a 13       		.uleb128 0x13
 1594 061b 776100   		.ascii	"wa\000"
 1595 061e 0E       		.byte	0xe
 1596 061f 55       		.byte	0x55
 1597 0620 B8050000 		.4byte	0x5b8
 1598 0624 11       		.uleb128 0x11
 1599 0625 43010000 		.4byte	.LASF94
 1600 0629 0E       		.byte	0xe
 1601 062a 56       		.byte	0x56
 1602 062b 30060000 		.4byte	0x630
 1603 062f 00       		.byte	0
 1604 0630 18       		.uleb128 0x18
 1605 0631 A2000000 		.4byte	0xa2
 1606 0635 41060000 		.4byte	0x641
 1607 0639 1B       		.uleb128 0x1b
 1608 063a 33030000 		.4byte	0x333
 1609 063e EF05     		.2byte	0x5ef
 1610 0640 00       		.byte	0
 1611 0641 1C       		.uleb128 0x1c
 1612 0642 36010000 		.4byte	.LASF96
 1613 0646 01       		.byte	0x1
 1614 0647 5E       		.byte	0x5e
 1615 0648 00000000 		.4byte	.LFB9
 1616 064c F0000000 		.4byte	.LFE9-.LFB9
 1617 0650 01       		.uleb128 0x1
 1618 0651 9C       		.byte	0x9c
 1619 0652 0C080000 		.4byte	0x80c
 1620 0656 1D       		.uleb128 0x1d
 1621 0657 6E00     		.ascii	"n\000"
 1622 0659 01       		.byte	0x1
 1623 065a 5F       		.byte	0x5f
 1624 065b 2C000000 		.4byte	0x2c
 1625 065f 02       		.uleb128 0x2
 1626 0660 91       		.byte	0x91
 1627 0661 68       		.sleb128 -24
ARM GAS  /tmp/ccPwPlGL.s 			page 30


 1628 0662 1D       		.uleb128 0x1d
 1629 0663 737A00   		.ascii	"sz\000"
 1630 0666 01       		.byte	0x1
 1631 0667 5F       		.byte	0x5f
 1632 0668 2C000000 		.4byte	0x2c
 1633 066c 02       		.uleb128 0x2
 1634 066d 91       		.byte	0x91
 1635 066e 6C       		.sleb128 -20
 1636 066f 1E       		.uleb128 0x1e
 1637 0670 703100   		.ascii	"p1\000"
 1638 0673 01       		.byte	0x1
 1639 0674 60       		.byte	0x60
 1640 0675 8A020000 		.4byte	0x28a
 1641 0679 00000000 		.4byte	.LLST0
 1642 067d 1F       		.uleb128 0x1f
 1643 067e 15000000 		.4byte	.LASF95
 1644 0682 01       		.byte	0x1
 1645 0683 61       		.byte	0x61
 1646 0684 FA000000 		.4byte	0xfa
 1647 0688 01       		.uleb128 0x1
 1648 0689 55       		.byte	0x55
 1649 068a 20       		.uleb128 0x20
 1650 068b 12000000 		.4byte	.LVL1
 1651 068f BF0D0000 		.4byte	0xdbf
 1652 0693 A7060000 		.4byte	0x6a7
 1653 0697 21       		.uleb128 0x21
 1654 0698 01       		.uleb128 0x1
 1655 0699 51       		.byte	0x51
 1656 069a 02       		.uleb128 0x2
 1657 069b 91       		.byte	0x91
 1658 069c 6C       		.sleb128 -20
 1659 069d 21       		.uleb128 0x21
 1660 069e 01       		.uleb128 0x1
 1661 069f 50       		.byte	0x50
 1662 06a0 05       		.uleb128 0x5
 1663 06a1 03       		.byte	0x3
 1664 06a2 00000000 		.4byte	.LANCHOR0
 1665 06a6 00       		.byte	0
 1666 06a7 20       		.uleb128 0x20
 1667 06a8 24000000 		.4byte	.LVL2
 1668 06ac DF0D0000 		.4byte	0xddf
 1669 06b0 DE060000 		.4byte	0x6de
 1670 06b4 21       		.uleb128 0x21
 1671 06b5 01       		.uleb128 0x1
 1672 06b6 53       		.byte	0x53
 1673 06b7 05       		.uleb128 0x5
 1674 06b8 03       		.byte	0x3
 1675 06b9 00000000 		.4byte	thread
 1676 06bd 21       		.uleb128 0x21
 1677 06be 01       		.uleb128 0x1
 1678 06bf 52       		.byte	0x52
 1679 06c0 02       		.uleb128 0x2
 1680 06c1 75       		.byte	0x75
 1681 06c2 7F       		.sleb128 -1
 1682 06c3 21       		.uleb128 0x21
 1683 06c4 01       		.uleb128 0x1
 1684 06c5 51       		.byte	0x51
ARM GAS  /tmp/ccPwPlGL.s 			page 31


 1685 06c6 03       		.uleb128 0x3
 1686 06c7 0A       		.byte	0xa
 1687 06c8 3001     		.2byte	0x130
 1688 06ca 21       		.uleb128 0x21
 1689 06cb 01       		.uleb128 0x1
 1690 06cc 50       		.byte	0x50
 1691 06cd 05       		.uleb128 0x5
 1692 06ce 03       		.byte	0x3
 1693 06cf 00000000 		.4byte	.LANCHOR0
 1694 06d3 21       		.uleb128 0x21
 1695 06d4 02       		.uleb128 0x2
 1696 06d5 7D       		.byte	0x7d
 1697 06d6 00       		.sleb128 0
 1698 06d7 05       		.uleb128 0x5
 1699 06d8 03       		.byte	0x3
 1700 06d9 00000000 		.4byte	.LC0
 1701 06dd 00       		.byte	0
 1702 06de 20       		.uleb128 0x20
 1703 06df 3A000000 		.4byte	.LVL3
 1704 06e3 DF0D0000 		.4byte	0xddf
 1705 06e7 15070000 		.4byte	0x715
 1706 06eb 21       		.uleb128 0x21
 1707 06ec 01       		.uleb128 0x1
 1708 06ed 53       		.byte	0x53
 1709 06ee 05       		.uleb128 0x5
 1710 06ef 03       		.byte	0x3
 1711 06f0 00000000 		.4byte	thread
 1712 06f4 21       		.uleb128 0x21
 1713 06f5 01       		.uleb128 0x1
 1714 06f6 52       		.byte	0x52
 1715 06f7 02       		.uleb128 0x2
 1716 06f8 75       		.byte	0x75
 1717 06f9 7E       		.sleb128 -2
 1718 06fa 21       		.uleb128 0x21
 1719 06fb 01       		.uleb128 0x1
 1720 06fc 51       		.byte	0x51
 1721 06fd 03       		.uleb128 0x3
 1722 06fe 0A       		.byte	0xa
 1723 06ff 3001     		.2byte	0x130
 1724 0701 21       		.uleb128 0x21
 1725 0702 01       		.uleb128 0x1
 1726 0703 50       		.byte	0x50
 1727 0704 05       		.uleb128 0x5
 1728 0705 03       		.byte	0x3
 1729 0706 00000000 		.4byte	.LANCHOR0
 1730 070a 21       		.uleb128 0x21
 1731 070b 02       		.uleb128 0x2
 1732 070c 7D       		.byte	0x7d
 1733 070d 00       		.sleb128 0
 1734 070e 05       		.uleb128 0x5
 1735 070f 03       		.byte	0x3
 1736 0710 04000000 		.4byte	.LC1
 1737 0714 00       		.byte	0
 1738 0715 20       		.uleb128 0x20
 1739 0716 44000000 		.4byte	.LVL4
 1740 071a BF0D0000 		.4byte	0xdbf
 1741 071e 32070000 		.4byte	0x732
ARM GAS  /tmp/ccPwPlGL.s 			page 32


 1742 0722 21       		.uleb128 0x21
 1743 0723 01       		.uleb128 0x1
 1744 0724 51       		.byte	0x51
 1745 0725 02       		.uleb128 0x2
 1746 0726 91       		.byte	0x91
 1747 0727 68       		.sleb128 -24
 1748 0728 21       		.uleb128 0x21
 1749 0729 01       		.uleb128 0x1
 1750 072a 50       		.byte	0x50
 1751 072b 05       		.uleb128 0x5
 1752 072c 03       		.byte	0x3
 1753 072d 00000000 		.4byte	.LANCHOR0
 1754 0731 00       		.byte	0
 1755 0732 20       		.uleb128 0x20
 1756 0733 4C000000 		.4byte	.LVL5
 1757 0737 080E0000 		.4byte	0xe08
 1758 073b 49070000 		.4byte	0x749
 1759 073f 21       		.uleb128 0x21
 1760 0740 01       		.uleb128 0x1
 1761 0741 50       		.byte	0x50
 1762 0742 05       		.uleb128 0x5
 1763 0743 03       		.byte	0x3
 1764 0744 00000000 		.4byte	.LANCHOR0
 1765 0748 00       		.byte	0
 1766 0749 20       		.uleb128 0x20
 1767 074a 60000000 		.4byte	.LVL8
 1768 074e DF0D0000 		.4byte	0xddf
 1769 0752 80070000 		.4byte	0x780
 1770 0756 21       		.uleb128 0x21
 1771 0757 01       		.uleb128 0x1
 1772 0758 53       		.byte	0x53
 1773 0759 05       		.uleb128 0x5
 1774 075a 03       		.byte	0x3
 1775 075b 00000000 		.4byte	thread
 1776 075f 21       		.uleb128 0x21
 1777 0760 01       		.uleb128 0x1
 1778 0761 52       		.byte	0x52
 1779 0762 02       		.uleb128 0x2
 1780 0763 75       		.byte	0x75
 1781 0764 7D       		.sleb128 -3
 1782 0765 21       		.uleb128 0x21
 1783 0766 01       		.uleb128 0x1
 1784 0767 51       		.byte	0x51
 1785 0768 03       		.uleb128 0x3
 1786 0769 0A       		.byte	0xa
 1787 076a 3001     		.2byte	0x130
 1788 076c 21       		.uleb128 0x21
 1789 076d 01       		.uleb128 0x1
 1790 076e 50       		.byte	0x50
 1791 076f 05       		.uleb128 0x5
 1792 0770 03       		.byte	0x3
 1793 0771 00000000 		.4byte	.LANCHOR0
 1794 0775 21       		.uleb128 0x21
 1795 0776 02       		.uleb128 0x2
 1796 0777 7D       		.byte	0x7d
 1797 0778 00       		.sleb128 0
 1798 0779 05       		.uleb128 0x5
ARM GAS  /tmp/ccPwPlGL.s 			page 33


 1799 077a 03       		.byte	0x3
 1800 077b 08000000 		.4byte	.LC2
 1801 077f 00       		.byte	0
 1802 0780 20       		.uleb128 0x20
 1803 0781 68000000 		.4byte	.LVL9
 1804 0785 220E0000 		.4byte	0xe22
 1805 0789 94070000 		.4byte	0x794
 1806 078d 21       		.uleb128 0x21
 1807 078e 01       		.uleb128 0x1
 1808 078f 50       		.byte	0x50
 1809 0790 02       		.uleb128 0x2
 1810 0791 76       		.byte	0x76
 1811 0792 00       		.sleb128 0
 1812 0793 00       		.byte	0
 1813 0794 20       		.uleb128 0x20
 1814 0795 7C000000 		.4byte	.LVL10
 1815 0799 330E0000 		.4byte	0xe33
 1816 079d A7070000 		.4byte	0x7a7
 1817 07a1 21       		.uleb128 0x21
 1818 07a2 01       		.uleb128 0x1
 1819 07a3 50       		.byte	0x50
 1820 07a4 01       		.uleb128 0x1
 1821 07a5 31       		.byte	0x31
 1822 07a6 00       		.byte	0
 1823 07a7 22       		.uleb128 0x22
 1824 07a8 86000000 		.4byte	.LVL12
 1825 07ac 4D0E0000 		.4byte	0xe4d
 1826 07b0 20       		.uleb128 0x20
 1827 07b1 8E000000 		.4byte	.LVL13
 1828 07b5 540E0000 		.4byte	0xe54
 1829 07b9 CC070000 		.4byte	0x7cc
 1830 07bd 21       		.uleb128 0x21
 1831 07be 01       		.uleb128 0x1
 1832 07bf 51       		.byte	0x51
 1833 07c0 05       		.uleb128 0x5
 1834 07c1 03       		.byte	0x3
 1835 07c2 0C000000 		.4byte	.LC3
 1836 07c6 21       		.uleb128 0x21
 1837 07c7 01       		.uleb128 0x1
 1838 07c8 50       		.byte	0x50
 1839 07c9 01       		.uleb128 0x1
 1840 07ca 32       		.byte	0x32
 1841 07cb 00       		.byte	0
 1842 07cc 20       		.uleb128 0x20
 1843 07cd 9A000000 		.4byte	.LVL14
 1844 07d1 BF0D0000 		.4byte	0xdbf
 1845 07d5 E9070000 		.4byte	0x7e9
 1846 07d9 21       		.uleb128 0x21
 1847 07da 01       		.uleb128 0x1
 1848 07db 51       		.byte	0x51
 1849 07dc 02       		.uleb128 0x2
 1850 07dd 91       		.byte	0x91
 1851 07de 68       		.sleb128 -24
 1852 07df 21       		.uleb128 0x21
 1853 07e0 01       		.uleb128 0x1
 1854 07e1 50       		.byte	0x50
 1855 07e2 05       		.uleb128 0x5
ARM GAS  /tmp/ccPwPlGL.s 			page 34


 1856 07e3 03       		.byte	0x3
 1857 07e4 00000000 		.4byte	.LANCHOR0
 1858 07e8 00       		.byte	0
 1859 07e9 20       		.uleb128 0x20
 1860 07ea A6000000 		.4byte	.LVL15
 1861 07ee 330E0000 		.4byte	0xe33
 1862 07f2 FC070000 		.4byte	0x7fc
 1863 07f6 21       		.uleb128 0x21
 1864 07f7 01       		.uleb128 0x1
 1865 07f8 50       		.byte	0x50
 1866 07f9 01       		.uleb128 0x1
 1867 07fa 33       		.byte	0x33
 1868 07fb 00       		.byte	0
 1869 07fc 23       		.uleb128 0x23
 1870 07fd BA000000 		.4byte	.LVL16
 1871 0801 330E0000 		.4byte	0xe33
 1872 0805 21       		.uleb128 0x21
 1873 0806 01       		.uleb128 0x1
 1874 0807 50       		.byte	0x50
 1875 0808 01       		.uleb128 0x1
 1876 0809 34       		.byte	0x34
 1877 080a 00       		.byte	0
 1878 080b 00       		.byte	0
 1879 080c 24       		.uleb128 0x24
 1880 080d 1F040000 		.4byte	.LASF101
 1881 0811 01       		.byte	0x1
 1882 0812 52       		.byte	0x52
 1883 0813 05010000 		.4byte	0x105
 1884 0817 00000000 		.4byte	.LFB7
 1885 081b 0C000000 		.4byte	.LFE7-.LFB7
 1886 081f 01       		.uleb128 0x1
 1887 0820 9C       		.byte	0x9c
 1888 0821 3C080000 		.4byte	0x83c
 1889 0825 25       		.uleb128 0x25
 1890 0826 7000     		.ascii	"p\000"
 1891 0828 01       		.byte	0x1
 1892 0829 52       		.byte	0x52
 1893 082a 8A020000 		.4byte	0x28a
 1894 082e 1E000000 		.4byte	.LLST1
 1895 0832 22       		.uleb128 0x22
 1896 0833 08000000 		.4byte	.LVL19
 1897 0837 740E0000 		.4byte	0xe74
 1898 083b 00       		.byte	0
 1899 083c 1C       		.uleb128 0x1c
 1900 083d EC010000 		.4byte	.LASF97
 1901 0841 01       		.byte	0x1
 1902 0842 59       		.byte	0x59
 1903 0843 00000000 		.4byte	.LFB8
 1904 0847 14000000 		.4byte	.LFE8-.LFB8
 1905 084b 01       		.uleb128 0x1
 1906 084c 9C       		.byte	0x9c
 1907 084d 6C080000 		.4byte	0x86c
 1908 0851 26       		.uleb128 0x26
 1909 0852 0C000000 		.4byte	.LVL20
 1910 0856 850E0000 		.4byte	0xe85
 1911 085a 21       		.uleb128 0x21
 1912 085b 01       		.uleb128 0x1
ARM GAS  /tmp/ccPwPlGL.s 			page 35


 1913 085c 52       		.byte	0x52
 1914 085d 03       		.uleb128 0x3
 1915 085e 0A       		.byte	0xa
 1916 085f F005     		.2byte	0x5f0
 1917 0861 21       		.uleb128 0x21
 1918 0862 01       		.uleb128 0x1
 1919 0863 50       		.byte	0x50
 1920 0864 05       		.uleb128 0x5
 1921 0865 03       		.byte	0x3
 1922 0866 00000000 		.4byte	.LANCHOR0
 1923 086a 00       		.byte	0
 1924 086b 00       		.byte	0
 1925 086c 1C       		.uleb128 0x1c
 1926 086d FE040000 		.4byte	.LASF98
 1927 0871 01       		.byte	0x1
 1928 0872 D6       		.byte	0xd6
 1929 0873 00000000 		.4byte	.LFB13
 1930 0877 14000000 		.4byte	.LFE13-.LFB13
 1931 087b 01       		.uleb128 0x1
 1932 087c 9C       		.byte	0x9c
 1933 087d 9C080000 		.4byte	0x89c
 1934 0881 26       		.uleb128 0x26
 1935 0882 0C000000 		.4byte	.LVL21
 1936 0886 850E0000 		.4byte	0xe85
 1937 088a 21       		.uleb128 0x21
 1938 088b 01       		.uleb128 0x1
 1939 088c 52       		.byte	0x52
 1940 088d 03       		.uleb128 0x3
 1941 088e 0A       		.byte	0xa
 1942 088f F005     		.2byte	0x5f0
 1943 0891 21       		.uleb128 0x21
 1944 0892 01       		.uleb128 0x1
 1945 0893 50       		.byte	0x50
 1946 0894 05       		.uleb128 0x5
 1947 0895 03       		.byte	0x3
 1948 0896 00000000 		.4byte	.LANCHOR0
 1949 089a 00       		.byte	0
 1950 089b 00       		.byte	0
 1951 089c 1C       		.uleb128 0x1c
 1952 089d 1C020000 		.4byte	.LASF99
 1953 08a1 01       		.byte	0x1
 1954 08a2 98       		.byte	0x98
 1955 08a3 00000000 		.4byte	.LFB11
 1956 08a7 F8000000 		.4byte	.LFE11-.LFB11
 1957 08ab 01       		.uleb128 0x1
 1958 08ac 9C       		.byte	0x9c
 1959 08ad 580A0000 		.4byte	0xa58
 1960 08b1 1E       		.uleb128 0x1e
 1961 08b2 6900     		.ascii	"i\000"
 1962 08b4 01       		.byte	0x1
 1963 08b5 99       		.byte	0x99
 1964 08b6 25000000 		.4byte	0x25
 1965 08ba 3F000000 		.4byte	.LLST2
 1966 08be 27       		.uleb128 0x27
 1967 08bf 15000000 		.4byte	.LASF95
 1968 08c3 01       		.byte	0x1
 1969 08c4 9A       		.byte	0x9a
ARM GAS  /tmp/ccPwPlGL.s 			page 36


 1970 08c5 FA000000 		.4byte	0xfa
 1971 08c9 80000000 		.4byte	.LLST3
 1972 08cd 20       		.uleb128 0x20
 1973 08ce 18000000 		.4byte	.LVL24
 1974 08d2 A00E0000 		.4byte	0xea0
 1975 08d6 E4080000 		.4byte	0x8e4
 1976 08da 21       		.uleb128 0x21
 1977 08db 01       		.uleb128 0x1
 1978 08dc 50       		.byte	0x50
 1979 08dd 05       		.uleb128 0x5
 1980 08de 03       		.byte	0x3
 1981 08df 00000000 		.4byte	.LANCHOR1
 1982 08e3 00       		.byte	0
 1983 08e4 20       		.uleb128 0x20
 1984 08e5 28000000 		.4byte	.LVL25
 1985 08e9 BC0E0000 		.4byte	0xebc
 1986 08ed 13090000 		.4byte	0x913
 1987 08f1 21       		.uleb128 0x21
 1988 08f2 01       		.uleb128 0x1
 1989 08f3 53       		.byte	0x53
 1990 08f4 05       		.uleb128 0x5
 1991 08f5 03       		.byte	0x3
 1992 08f6 00000000 		.4byte	.LC0
 1993 08fa 21       		.uleb128 0x21
 1994 08fb 01       		.uleb128 0x1
 1995 08fc 52       		.byte	0x52
 1996 08fd 05       		.uleb128 0x5
 1997 08fe 03       		.byte	0x3
 1998 08ff 00000000 		.4byte	thread
 1999 0903 21       		.uleb128 0x21
 2000 0904 01       		.uleb128 0x1
 2001 0905 51       		.byte	0x51
 2002 0906 02       		.uleb128 0x2
 2003 0907 75       		.byte	0x75
 2004 0908 7F       		.sleb128 -1
 2005 0909 21       		.uleb128 0x21
 2006 090a 01       		.uleb128 0x1
 2007 090b 50       		.byte	0x50
 2008 090c 05       		.uleb128 0x5
 2009 090d 03       		.byte	0x3
 2010 090e 00000000 		.4byte	.LANCHOR1
 2011 0912 00       		.byte	0
 2012 0913 20       		.uleb128 0x20
 2013 0914 38000000 		.4byte	.LVL26
 2014 0918 BC0E0000 		.4byte	0xebc
 2015 091c 42090000 		.4byte	0x942
 2016 0920 21       		.uleb128 0x21
 2017 0921 01       		.uleb128 0x1
 2018 0922 53       		.byte	0x53
 2019 0923 05       		.uleb128 0x5
 2020 0924 03       		.byte	0x3
 2021 0925 04000000 		.4byte	.LC1
 2022 0929 21       		.uleb128 0x21
 2023 092a 01       		.uleb128 0x1
 2024 092b 52       		.byte	0x52
 2025 092c 05       		.uleb128 0x5
 2026 092d 03       		.byte	0x3
ARM GAS  /tmp/ccPwPlGL.s 			page 37


 2027 092e 00000000 		.4byte	thread
 2028 0932 21       		.uleb128 0x21
 2029 0933 01       		.uleb128 0x1
 2030 0934 51       		.byte	0x51
 2031 0935 02       		.uleb128 0x2
 2032 0936 75       		.byte	0x75
 2033 0937 7E       		.sleb128 -2
 2034 0938 21       		.uleb128 0x21
 2035 0939 01       		.uleb128 0x1
 2036 093a 50       		.byte	0x50
 2037 093b 05       		.uleb128 0x5
 2038 093c 03       		.byte	0x3
 2039 093d 00000000 		.4byte	.LANCHOR1
 2040 0941 00       		.byte	0
 2041 0942 20       		.uleb128 0x20
 2042 0943 46000000 		.4byte	.LVL27
 2043 0947 BC0E0000 		.4byte	0xebc
 2044 094b 71090000 		.4byte	0x971
 2045 094f 21       		.uleb128 0x21
 2046 0950 01       		.uleb128 0x1
 2047 0951 53       		.byte	0x53
 2048 0952 05       		.uleb128 0x5
 2049 0953 03       		.byte	0x3
 2050 0954 08000000 		.4byte	.LC2
 2051 0958 21       		.uleb128 0x21
 2052 0959 01       		.uleb128 0x1
 2053 095a 52       		.byte	0x52
 2054 095b 05       		.uleb128 0x5
 2055 095c 03       		.byte	0x3
 2056 095d 00000000 		.4byte	thread
 2057 0961 21       		.uleb128 0x21
 2058 0962 01       		.uleb128 0x1
 2059 0963 51       		.byte	0x51
 2060 0964 02       		.uleb128 0x2
 2061 0965 75       		.byte	0x75
 2062 0966 7D       		.sleb128 -3
 2063 0967 21       		.uleb128 0x21
 2064 0968 01       		.uleb128 0x1
 2065 0969 50       		.byte	0x50
 2066 096a 05       		.uleb128 0x5
 2067 096b 03       		.byte	0x3
 2068 096c 00000000 		.4byte	.LANCHOR1
 2069 0970 00       		.byte	0
 2070 0971 20       		.uleb128 0x20
 2071 0972 54000000 		.4byte	.LVL28
 2072 0976 BC0E0000 		.4byte	0xebc
 2073 097a A0090000 		.4byte	0x9a0
 2074 097e 21       		.uleb128 0x21
 2075 097f 01       		.uleb128 0x1
 2076 0980 53       		.byte	0x53
 2077 0981 05       		.uleb128 0x5
 2078 0982 03       		.byte	0x3
 2079 0983 10000000 		.4byte	.LC4
 2080 0987 21       		.uleb128 0x21
 2081 0988 01       		.uleb128 0x1
 2082 0989 52       		.byte	0x52
 2083 098a 05       		.uleb128 0x5
ARM GAS  /tmp/ccPwPlGL.s 			page 38


 2084 098b 03       		.byte	0x3
 2085 098c 00000000 		.4byte	thread
 2086 0990 21       		.uleb128 0x21
 2087 0991 01       		.uleb128 0x1
 2088 0992 51       		.byte	0x51
 2089 0993 02       		.uleb128 0x2
 2090 0994 75       		.byte	0x75
 2091 0995 7C       		.sleb128 -4
 2092 0996 21       		.uleb128 0x21
 2093 0997 01       		.uleb128 0x1
 2094 0998 50       		.byte	0x50
 2095 0999 05       		.uleb128 0x5
 2096 099a 03       		.byte	0x3
 2097 099b 00000000 		.4byte	.LANCHOR1
 2098 099f 00       		.byte	0
 2099 09a0 20       		.uleb128 0x20
 2100 09a1 62000000 		.4byte	.LVL29
 2101 09a5 BC0E0000 		.4byte	0xebc
 2102 09a9 CF090000 		.4byte	0x9cf
 2103 09ad 21       		.uleb128 0x21
 2104 09ae 01       		.uleb128 0x1
 2105 09af 53       		.byte	0x53
 2106 09b0 05       		.uleb128 0x5
 2107 09b1 03       		.byte	0x3
 2108 09b2 14000000 		.4byte	.LC5
 2109 09b6 21       		.uleb128 0x21
 2110 09b7 01       		.uleb128 0x1
 2111 09b8 52       		.byte	0x52
 2112 09b9 05       		.uleb128 0x5
 2113 09ba 03       		.byte	0x3
 2114 09bb 00000000 		.4byte	thread
 2115 09bf 21       		.uleb128 0x21
 2116 09c0 01       		.uleb128 0x1
 2117 09c1 51       		.byte	0x51
 2118 09c2 02       		.uleb128 0x2
 2119 09c3 75       		.byte	0x75
 2120 09c4 7B       		.sleb128 -5
 2121 09c5 21       		.uleb128 0x21
 2122 09c6 01       		.uleb128 0x1
 2123 09c7 50       		.byte	0x50
 2124 09c8 05       		.uleb128 0x5
 2125 09c9 03       		.byte	0x3
 2126 09ca 00000000 		.4byte	.LANCHOR1
 2127 09ce 00       		.byte	0
 2128 09cf 20       		.uleb128 0x20
 2129 09d0 82000000 		.4byte	.LVL30
 2130 09d4 330E0000 		.4byte	0xe33
 2131 09d8 E2090000 		.4byte	0x9e2
 2132 09dc 21       		.uleb128 0x21
 2133 09dd 01       		.uleb128 0x1
 2134 09de 50       		.byte	0x50
 2135 09df 01       		.uleb128 0x1
 2136 09e0 31       		.byte	0x31
 2137 09e1 00       		.byte	0
 2138 09e2 22       		.uleb128 0x22
 2139 09e3 8A000000 		.4byte	.LVL32
 2140 09e7 4D0E0000 		.4byte	0xe4d
ARM GAS  /tmp/ccPwPlGL.s 			page 39


 2141 09eb 20       		.uleb128 0x20
 2142 09ec 92000000 		.4byte	.LVL33
 2143 09f0 540E0000 		.4byte	0xe54
 2144 09f4 070A0000 		.4byte	0xa07
 2145 09f8 21       		.uleb128 0x21
 2146 09f9 01       		.uleb128 0x1
 2147 09fa 51       		.byte	0x51
 2148 09fb 05       		.uleb128 0x5
 2149 09fc 03       		.byte	0x3
 2150 09fd 18000000 		.4byte	.LC6
 2151 0a01 21       		.uleb128 0x21
 2152 0a02 01       		.uleb128 0x1
 2153 0a03 50       		.byte	0x50
 2154 0a04 01       		.uleb128 0x1
 2155 0a05 32       		.byte	0x32
 2156 0a06 00       		.byte	0
 2157 0a07 20       		.uleb128 0x20
 2158 0a08 9E000000 		.4byte	.LVL35
 2159 0a0c E00E0000 		.4byte	0xee0
 2160 0a10 1E0A0000 		.4byte	0xa1e
 2161 0a14 21       		.uleb128 0x21
 2162 0a15 01       		.uleb128 0x1
 2163 0a16 50       		.byte	0x50
 2164 0a17 05       		.uleb128 0x5
 2165 0a18 03       		.byte	0x3
 2166 0a19 00000000 		.4byte	.LANCHOR1
 2167 0a1d 00       		.byte	0
 2168 0a1e 20       		.uleb128 0x20
 2169 0a1f AA000000 		.4byte	.LVL36
 2170 0a23 330E0000 		.4byte	0xe33
 2171 0a27 310A0000 		.4byte	0xa31
 2172 0a2b 21       		.uleb128 0x21
 2173 0a2c 01       		.uleb128 0x1
 2174 0a2d 50       		.byte	0x50
 2175 0a2e 01       		.uleb128 0x1
 2176 0a2f 33       		.byte	0x33
 2177 0a30 00       		.byte	0
 2178 0a31 20       		.uleb128 0x20
 2179 0a32 B8000000 		.4byte	.LVL38
 2180 0a36 E00E0000 		.4byte	0xee0
 2181 0a3a 480A0000 		.4byte	0xa48
 2182 0a3e 21       		.uleb128 0x21
 2183 0a3f 01       		.uleb128 0x1
 2184 0a40 50       		.byte	0x50
 2185 0a41 05       		.uleb128 0x5
 2186 0a42 03       		.byte	0x3
 2187 0a43 00000000 		.4byte	.LANCHOR1
 2188 0a47 00       		.byte	0
 2189 0a48 26       		.uleb128 0x26
 2190 0a49 CA000000 		.4byte	.LVL40
 2191 0a4d 330E0000 		.4byte	0xe33
 2192 0a51 21       		.uleb128 0x21
 2193 0a52 01       		.uleb128 0x1
 2194 0a53 50       		.byte	0x50
 2195 0a54 01       		.uleb128 0x1
 2196 0a55 34       		.byte	0x34
 2197 0a56 00       		.byte	0
ARM GAS  /tmp/ccPwPlGL.s 			page 40


 2198 0a57 00       		.byte	0
 2199 0a58 1C       		.uleb128 0x1c
 2200 0a59 AB000000 		.4byte	.LASF100
 2201 0a5d 01       		.byte	0x1
 2202 0a5e 93       		.byte	0x93
 2203 0a5f 00000000 		.4byte	.LFB10
 2204 0a63 10000000 		.4byte	.LFE10-.LFB10
 2205 0a67 01       		.uleb128 0x1
 2206 0a68 9C       		.byte	0x9c
 2207 0a69 8D0A0000 		.4byte	0xa8d
 2208 0a6d 26       		.uleb128 0x26
 2209 0a6e 0C000000 		.4byte	.LVL41
 2210 0a72 F50E0000 		.4byte	0xef5
 2211 0a76 21       		.uleb128 0x21
 2212 0a77 01       		.uleb128 0x1
 2213 0a78 52       		.byte	0x52
 2214 0a79 01       		.uleb128 0x1
 2215 0a7a 30       		.byte	0x30
 2216 0a7b 21       		.uleb128 0x21
 2217 0a7c 01       		.uleb128 0x1
 2218 0a7d 51       		.byte	0x51
 2219 0a7e 03       		.uleb128 0x3
 2220 0a7f 0A       		.byte	0xa
 2221 0a80 3001     		.2byte	0x130
 2222 0a82 21       		.uleb128 0x21
 2223 0a83 01       		.uleb128 0x1
 2224 0a84 50       		.byte	0x50
 2225 0a85 05       		.uleb128 0x5
 2226 0a86 03       		.byte	0x3
 2227 0a87 00000000 		.4byte	.LANCHOR1
 2228 0a8b 00       		.byte	0
 2229 0a8c 00       		.byte	0
 2230 0a8d 24       		.uleb128 0x24
 2231 0a8e B7050000 		.4byte	.LASF102
 2232 0a92 01       		.byte	0x1
 2233 0a93 CA       		.byte	0xca
 2234 0a94 CE000000 		.4byte	0xce
 2235 0a98 00000000 		.4byte	.LFB12
 2236 0a9c 24000000 		.4byte	.LFE12-.LFB12
 2237 0aa0 01       		.uleb128 0x1
 2238 0aa1 9C       		.byte	0x9c
 2239 0aa2 E50A0000 		.4byte	0xae5
 2240 0aa6 25       		.uleb128 0x25
 2241 0aa7 747000   		.ascii	"tp\000"
 2242 0aaa 01       		.byte	0x1
 2243 0aab CA       		.byte	0xca
 2244 0aac 4E020000 		.4byte	0x24e
 2245 0ab0 93000000 		.4byte	.LLST4
 2246 0ab4 1E       		.uleb128 0x1e
 2247 0ab5 66747000 		.ascii	"ftp\000"
 2248 0ab9 01       		.byte	0x1
 2249 0aba CB       		.byte	0xcb
 2250 0abb 4E020000 		.4byte	0x24e
 2251 0abf B1000000 		.4byte	.LLST5
 2252 0ac3 27       		.uleb128 0x27
 2253 0ac4 87050000 		.4byte	.LASF103
 2254 0ac8 01       		.byte	0x1
ARM GAS  /tmp/ccPwPlGL.s 			page 41


 2255 0ac9 CC       		.byte	0xcc
 2256 0aca CE000000 		.4byte	0xce
 2257 0ace DA000000 		.4byte	.LLST6
 2258 0ad2 22       		.uleb128 0x22
 2259 0ad3 08000000 		.4byte	.LVL43
 2260 0ad7 100F0000 		.4byte	0xf10
 2261 0adb 22       		.uleb128 0x22
 2262 0adc 1A000000 		.4byte	.LVL46
 2263 0ae0 1B0F0000 		.4byte	0xf1b
 2264 0ae4 00       		.byte	0
 2265 0ae5 1C       		.uleb128 0x1c
 2266 0ae6 7D030000 		.4byte	.LASF104
 2267 0aea 01       		.byte	0x1
 2268 0aeb DB       		.byte	0xdb
 2269 0aec 00000000 		.4byte	.LFB14
 2270 0af0 3C010000 		.4byte	.LFE14-.LFB14
 2271 0af4 01       		.uleb128 0x1
 2272 0af5 9C       		.byte	0x9c
 2273 0af6 ED0C0000 		.4byte	0xced
 2274 0afa 1E       		.uleb128 0x1e
 2275 0afb 747000   		.ascii	"tp\000"
 2276 0afe 01       		.byte	0x1
 2277 0aff DC       		.byte	0xdc
 2278 0b00 4E020000 		.4byte	0x24e
 2279 0b04 F9000000 		.4byte	.LLST7
 2280 0b08 28       		.uleb128 0x28
 2281 0b09 15000000 		.4byte	.LASF95
 2282 0b0d 01       		.byte	0x1
 2283 0b0e DD       		.byte	0xdd
 2284 0b0f FA000000 		.4byte	0xfa
 2285 0b13 20       		.uleb128 0x20
 2286 0b14 1C000000 		.4byte	.LVL50
 2287 0b18 DF0D0000 		.4byte	0xddf
 2288 0b1c 440B0000 		.4byte	0xb44
 2289 0b20 21       		.uleb128 0x21
 2290 0b21 01       		.uleb128 0x1
 2291 0b22 53       		.byte	0x53
 2292 0b23 05       		.uleb128 0x5
 2293 0b24 03       		.byte	0x3
 2294 0b25 00000000 		.4byte	thread
 2295 0b29 21       		.uleb128 0x21
 2296 0b2a 01       		.uleb128 0x1
 2297 0b2b 51       		.byte	0x51
 2298 0b2c 03       		.uleb128 0x3
 2299 0b2d 0A       		.byte	0xa
 2300 0b2e 3001     		.2byte	0x130
 2301 0b30 21       		.uleb128 0x21
 2302 0b31 01       		.uleb128 0x1
 2303 0b32 50       		.byte	0x50
 2304 0b33 05       		.uleb128 0x5
 2305 0b34 03       		.byte	0x3
 2306 0b35 00000000 		.4byte	.LANCHOR0
 2307 0b39 21       		.uleb128 0x21
 2308 0b3a 02       		.uleb128 0x2
 2309 0b3b 7D       		.byte	0x7d
 2310 0b3c 00       		.sleb128 0
 2311 0b3d 05       		.uleb128 0x5
ARM GAS  /tmp/ccPwPlGL.s 			page 42


 2312 0b3e 03       		.byte	0x3
 2313 0b3f 00000000 		.4byte	.LC0
 2314 0b43 00       		.byte	0
 2315 0b44 20       		.uleb128 0x20
 2316 0b45 32000000 		.4byte	.LVL53
 2317 0b49 330E0000 		.4byte	0xe33
 2318 0b4d 570B0000 		.4byte	0xb57
 2319 0b51 21       		.uleb128 0x21
 2320 0b52 01       		.uleb128 0x1
 2321 0b53 50       		.byte	0x50
 2322 0b54 01       		.uleb128 0x1
 2323 0b55 31       		.byte	0x31
 2324 0b56 00       		.byte	0
 2325 0b57 20       		.uleb128 0x20
 2326 0b58 3E000000 		.4byte	.LVL55
 2327 0b5c 300F0000 		.4byte	0xf30
 2328 0b60 6B0B0000 		.4byte	0xb6b
 2329 0b64 21       		.uleb128 0x21
 2330 0b65 01       		.uleb128 0x1
 2331 0b66 50       		.byte	0x50
 2332 0b67 02       		.uleb128 0x2
 2333 0b68 74       		.byte	0x74
 2334 0b69 00       		.sleb128 0
 2335 0b6a 00       		.byte	0
 2336 0b6b 20       		.uleb128 0x20
 2337 0b6c 52000000 		.4byte	.LVL56
 2338 0b70 330E0000 		.4byte	0xe33
 2339 0b74 7E0B0000 		.4byte	0xb7e
 2340 0b78 21       		.uleb128 0x21
 2341 0b79 01       		.uleb128 0x1
 2342 0b7a 50       		.byte	0x50
 2343 0b7b 01       		.uleb128 0x1
 2344 0b7c 32       		.byte	0x32
 2345 0b7d 00       		.byte	0
 2346 0b7e 20       		.uleb128 0x20
 2347 0b7f 5C000000 		.4byte	.LVL57
 2348 0b83 450F0000 		.4byte	0xf45
 2349 0b87 920B0000 		.4byte	0xb92
 2350 0b8b 21       		.uleb128 0x21
 2351 0b8c 01       		.uleb128 0x1
 2352 0b8d 50       		.byte	0x50
 2353 0b8e 02       		.uleb128 0x2
 2354 0b8f 74       		.byte	0x74
 2355 0b90 00       		.sleb128 0
 2356 0b91 00       		.byte	0
 2357 0b92 20       		.uleb128 0x20
 2358 0b93 6A000000 		.4byte	.LVL58
 2359 0b97 330E0000 		.4byte	0xe33
 2360 0b9b A50B0000 		.4byte	0xba5
 2361 0b9f 21       		.uleb128 0x21
 2362 0ba0 01       		.uleb128 0x1
 2363 0ba1 50       		.byte	0x50
 2364 0ba2 01       		.uleb128 0x1
 2365 0ba3 33       		.byte	0x33
 2366 0ba4 00       		.byte	0
 2367 0ba5 20       		.uleb128 0x20
 2368 0ba6 74000000 		.4byte	.LVL59
ARM GAS  /tmp/ccPwPlGL.s 			page 43


 2369 0baa 8D0A0000 		.4byte	0xa8d
 2370 0bae B90B0000 		.4byte	0xbb9
 2371 0bb2 21       		.uleb128 0x21
 2372 0bb3 01       		.uleb128 0x1
 2373 0bb4 50       		.byte	0x50
 2374 0bb5 02       		.uleb128 0x2
 2375 0bb6 74       		.byte	0x74
 2376 0bb7 00       		.sleb128 0
 2377 0bb8 00       		.byte	0
 2378 0bb9 20       		.uleb128 0x20
 2379 0bba 7C000000 		.4byte	.LVL60
 2380 0bbe 330E0000 		.4byte	0xe33
 2381 0bc2 CC0B0000 		.4byte	0xbcc
 2382 0bc6 21       		.uleb128 0x21
 2383 0bc7 01       		.uleb128 0x1
 2384 0bc8 50       		.byte	0x50
 2385 0bc9 01       		.uleb128 0x1
 2386 0bca 34       		.byte	0x34
 2387 0bcb 00       		.byte	0
 2388 0bcc 20       		.uleb128 0x20
 2389 0bcd 86000000 		.4byte	.LVL61
 2390 0bd1 8D0A0000 		.4byte	0xa8d
 2391 0bd5 E00B0000 		.4byte	0xbe0
 2392 0bd9 21       		.uleb128 0x21
 2393 0bda 01       		.uleb128 0x1
 2394 0bdb 50       		.byte	0x50
 2395 0bdc 02       		.uleb128 0x2
 2396 0bdd 74       		.byte	0x74
 2397 0bde 00       		.sleb128 0
 2398 0bdf 00       		.byte	0
 2399 0be0 20       		.uleb128 0x20
 2400 0be1 8E000000 		.4byte	.LVL62
 2401 0be5 330E0000 		.4byte	0xe33
 2402 0be9 F30B0000 		.4byte	0xbf3
 2403 0bed 21       		.uleb128 0x21
 2404 0bee 01       		.uleb128 0x1
 2405 0bef 50       		.byte	0x50
 2406 0bf0 01       		.uleb128 0x1
 2407 0bf1 35       		.byte	0x35
 2408 0bf2 00       		.byte	0
 2409 0bf3 20       		.uleb128 0x20
 2410 0bf4 98000000 		.4byte	.LVL63
 2411 0bf8 450F0000 		.4byte	0xf45
 2412 0bfc 070C0000 		.4byte	0xc07
 2413 0c00 21       		.uleb128 0x21
 2414 0c01 01       		.uleb128 0x1
 2415 0c02 50       		.byte	0x50
 2416 0c03 02       		.uleb128 0x2
 2417 0c04 74       		.byte	0x74
 2418 0c05 00       		.sleb128 0
 2419 0c06 00       		.byte	0
 2420 0c07 20       		.uleb128 0x20
 2421 0c08 A8000000 		.4byte	.LVL64
 2422 0c0c 330E0000 		.4byte	0xe33
 2423 0c10 1A0C0000 		.4byte	0xc1a
 2424 0c14 21       		.uleb128 0x21
 2425 0c15 01       		.uleb128 0x1
ARM GAS  /tmp/ccPwPlGL.s 			page 44


 2426 0c16 50       		.byte	0x50
 2427 0c17 01       		.uleb128 0x1
 2428 0c18 36       		.byte	0x36
 2429 0c19 00       		.byte	0
 2430 0c1a 20       		.uleb128 0x20
 2431 0c1b BC000000 		.4byte	.LVL65
 2432 0c1f 330E0000 		.4byte	0xe33
 2433 0c23 2D0C0000 		.4byte	0xc2d
 2434 0c27 21       		.uleb128 0x21
 2435 0c28 01       		.uleb128 0x1
 2436 0c29 50       		.byte	0x50
 2437 0c2a 01       		.uleb128 0x1
 2438 0c2b 37       		.byte	0x37
 2439 0c2c 00       		.byte	0
 2440 0c2d 20       		.uleb128 0x20
 2441 0c2e C6000000 		.4byte	.LVL66
 2442 0c32 8D0A0000 		.4byte	0xa8d
 2443 0c36 410C0000 		.4byte	0xc41
 2444 0c3a 21       		.uleb128 0x21
 2445 0c3b 01       		.uleb128 0x1
 2446 0c3c 50       		.byte	0x50
 2447 0c3d 02       		.uleb128 0x2
 2448 0c3e 74       		.byte	0x74
 2449 0c3f 00       		.sleb128 0
 2450 0c40 00       		.byte	0
 2451 0c41 20       		.uleb128 0x20
 2452 0c42 CE000000 		.4byte	.LVL67
 2453 0c46 330E0000 		.4byte	0xe33
 2454 0c4a 540C0000 		.4byte	0xc54
 2455 0c4e 21       		.uleb128 0x21
 2456 0c4f 01       		.uleb128 0x1
 2457 0c50 50       		.byte	0x50
 2458 0c51 01       		.uleb128 0x1
 2459 0c52 38       		.byte	0x38
 2460 0c53 00       		.byte	0
 2461 0c54 20       		.uleb128 0x20
 2462 0c55 D8000000 		.4byte	.LVL68
 2463 0c59 8D0A0000 		.4byte	0xa8d
 2464 0c5d 680C0000 		.4byte	0xc68
 2465 0c61 21       		.uleb128 0x21
 2466 0c62 01       		.uleb128 0x1
 2467 0c63 50       		.byte	0x50
 2468 0c64 02       		.uleb128 0x2
 2469 0c65 74       		.byte	0x74
 2470 0c66 00       		.sleb128 0
 2471 0c67 00       		.byte	0
 2472 0c68 20       		.uleb128 0x20
 2473 0c69 E0000000 		.4byte	.LVL69
 2474 0c6d 330E0000 		.4byte	0xe33
 2475 0c71 7B0C0000 		.4byte	0xc7b
 2476 0c75 21       		.uleb128 0x21
 2477 0c76 01       		.uleb128 0x1
 2478 0c77 50       		.byte	0x50
 2479 0c78 01       		.uleb128 0x1
 2480 0c79 39       		.byte	0x39
 2481 0c7a 00       		.byte	0
 2482 0c7b 20       		.uleb128 0x20
ARM GAS  /tmp/ccPwPlGL.s 			page 45


 2483 0c7c EA000000 		.4byte	.LVL70
 2484 0c80 560F0000 		.4byte	0xf56
 2485 0c84 8F0C0000 		.4byte	0xc8f
 2486 0c88 21       		.uleb128 0x21
 2487 0c89 01       		.uleb128 0x1
 2488 0c8a 50       		.byte	0x50
 2489 0c8b 02       		.uleb128 0x2
 2490 0c8c 08       		.byte	0x8
 2491 0c8d 32       		.byte	0x32
 2492 0c8e 00       		.byte	0
 2493 0c8f 20       		.uleb128 0x20
 2494 0c90 FA000000 		.4byte	.LVL71
 2495 0c94 330E0000 		.4byte	0xe33
 2496 0c98 A20C0000 		.4byte	0xca2
 2497 0c9c 21       		.uleb128 0x21
 2498 0c9d 01       		.uleb128 0x1
 2499 0c9e 50       		.byte	0x50
 2500 0c9f 01       		.uleb128 0x1
 2501 0ca0 3A       		.byte	0x3a
 2502 0ca1 00       		.byte	0
 2503 0ca2 20       		.uleb128 0x20
 2504 0ca3 04010000 		.4byte	.LVL72
 2505 0ca7 8D0A0000 		.4byte	0xa8d
 2506 0cab B60C0000 		.4byte	0xcb6
 2507 0caf 21       		.uleb128 0x21
 2508 0cb0 01       		.uleb128 0x1
 2509 0cb1 50       		.byte	0x50
 2510 0cb2 02       		.uleb128 0x2
 2511 0cb3 74       		.byte	0x74
 2512 0cb4 00       		.sleb128 0
 2513 0cb5 00       		.byte	0
 2514 0cb6 20       		.uleb128 0x20
 2515 0cb7 0C010000 		.4byte	.LVL73
 2516 0cbb 330E0000 		.4byte	0xe33
 2517 0cbf C90C0000 		.4byte	0xcc9
 2518 0cc3 21       		.uleb128 0x21
 2519 0cc4 01       		.uleb128 0x1
 2520 0cc5 50       		.byte	0x50
 2521 0cc6 01       		.uleb128 0x1
 2522 0cc7 3B       		.byte	0x3b
 2523 0cc8 00       		.byte	0
 2524 0cc9 20       		.uleb128 0x20
 2525 0cca 16010000 		.4byte	.LVL74
 2526 0cce 8D0A0000 		.4byte	0xa8d
 2527 0cd2 DD0C0000 		.4byte	0xcdd
 2528 0cd6 21       		.uleb128 0x21
 2529 0cd7 01       		.uleb128 0x1
 2530 0cd8 50       		.byte	0x50
 2531 0cd9 02       		.uleb128 0x2
 2532 0cda 74       		.byte	0x74
 2533 0cdb 00       		.sleb128 0
 2534 0cdc 00       		.byte	0
 2535 0cdd 26       		.uleb128 0x26
 2536 0cde 2A010000 		.4byte	.LVL76
 2537 0ce2 330E0000 		.4byte	0xe33
 2538 0ce6 21       		.uleb128 0x21
 2539 0ce7 01       		.uleb128 0x1
ARM GAS  /tmp/ccPwPlGL.s 			page 46


 2540 0ce8 50       		.byte	0x50
 2541 0ce9 01       		.uleb128 0x1
 2542 0cea 3C       		.byte	0x3c
 2543 0ceb 00       		.byte	0
 2544 0cec 00       		.byte	0
 2545 0ced 1F       		.uleb128 0x1f
 2546 0cee 21060000 		.4byte	.LASF105
 2547 0cf2 01       		.byte	0x1
 2548 0cf3 41       		.byte	0x41
 2549 0cf4 09040000 		.4byte	0x409
 2550 0cf8 05       		.uleb128 0x5
 2551 0cf9 03       		.byte	0x3
 2552 0cfa 00000000 		.4byte	heap1
 2553 0cfe 1D       		.uleb128 0x1d
 2554 0cff 6D703100 		.ascii	"mp1\000"
 2555 0d03 01       		.byte	0x1
 2556 0d04 44       		.byte	0x44
 2557 0d05 FC040000 		.4byte	0x4fc
 2558 0d09 05       		.uleb128 0x5
 2559 0d0a 03       		.byte	0x3
 2560 0d0b 00000000 		.4byte	mp1
 2561 0d0f 29       		.uleb128 0x29
 2562 0d10 BF050000 		.4byte	.LASF106
 2563 0d14 09       		.byte	0x9
 2564 0d15 72       		.byte	0x72
 2565 0d16 9C030000 		.4byte	0x39c
 2566 0d1a 18       		.uleb128 0x18
 2567 0d1b 4E020000 		.4byte	0x24e
 2568 0d1f 2A0D0000 		.4byte	0xd2a
 2569 0d23 19       		.uleb128 0x19
 2570 0d24 33030000 		.4byte	0x333
 2571 0d28 04       		.byte	0x4
 2572 0d29 00       		.byte	0
 2573 0d2a 29       		.uleb128 0x29
 2574 0d2b 63040000 		.4byte	.LASF107
 2575 0d2f 0E       		.byte	0xe
 2576 0d30 B0       		.byte	0xb0
 2577 0d31 1A0D0000 		.4byte	0xd1a
 2578 0d35 29       		.uleb128 0x29
 2579 0d36 73000000 		.4byte	.LASF108
 2580 0d3a 0E       		.byte	0xe
 2581 0d3b B1       		.byte	0xb1
 2582 0d3c 0D060000 		.4byte	0x60d
 2583 0d40 18       		.uleb128 0x18
 2584 0d41 8A020000 		.4byte	0x28a
 2585 0d45 4B0D0000 		.4byte	0xd4b
 2586 0d49 2A       		.uleb128 0x2a
 2587 0d4a 00       		.byte	0
 2588 0d4b 2B       		.uleb128 0x2b
 2589 0d4c 776100   		.ascii	"wa\000"
 2590 0d4f 0E       		.byte	0xe
 2591 0d50 B2       		.byte	0xb2
 2592 0d51 550D0000 		.4byte	0xd55
 2593 0d55 14       		.uleb128 0x14
 2594 0d56 400D0000 		.4byte	0xd40
 2595 0d5a 2C       		.uleb128 0x2c
 2596 0d5b 62030000 		.4byte	.LASF109
ARM GAS  /tmp/ccPwPlGL.s 			page 47


 2597 0d5f 01       		.byte	0x1
 2598 0d60 80       		.byte	0x80
 2599 0d61 6B0D0000 		.4byte	0xd6b
 2600 0d65 05       		.uleb128 0x5
 2601 0d66 03       		.byte	0x3
 2602 0d67 00000000 		.4byte	testdyn1
 2603 0d6b 14       		.uleb128 0x14
 2604 0d6c 74050000 		.4byte	0x574
 2605 0d70 2C       		.uleb128 0x2c
 2606 0d71 6B030000 		.4byte	.LASF110
 2607 0d75 01       		.byte	0x1
 2608 0d76 B8       		.byte	0xb8
 2609 0d77 6B0D0000 		.4byte	0xd6b
 2610 0d7b 05       		.uleb128 0x5
 2611 0d7c 03       		.byte	0x3
 2612 0d7d 00000000 		.4byte	testdyn2
 2613 0d81 2C       		.uleb128 0x2c
 2614 0d82 74030000 		.4byte	.LASF111
 2615 0d86 01       		.byte	0x1
 2616 0d87 F9       		.byte	0xf9
 2617 0d88 6B0D0000 		.4byte	0xd6b
 2618 0d8c 05       		.uleb128 0x5
 2619 0d8d 03       		.byte	0x3
 2620 0d8e 00000000 		.4byte	testdyn3
 2621 0d92 18       		.uleb128 0x18
 2622 0d93 A20D0000 		.4byte	0xda2
 2623 0d97 A20D0000 		.4byte	0xda2
 2624 0d9b 19       		.uleb128 0x19
 2625 0d9c 33030000 		.4byte	0x333
 2626 0da0 03       		.byte	0x3
 2627 0da1 00       		.byte	0
 2628 0da2 09       		.uleb128 0x9
 2629 0da3 04       		.byte	0x4
 2630 0da4 6B0D0000 		.4byte	0xd6b
 2631 0da8 2D       		.uleb128 0x2d
 2632 0da9 4E050000 		.4byte	.LASF112
 2633 0dad 01       		.byte	0x1
 2634 0dae 0501     		.2byte	0x105
 2635 0db0 BA0D0000 		.4byte	0xdba
 2636 0db4 05       		.uleb128 0x5
 2637 0db5 03       		.byte	0x3
 2638 0db6 00000000 		.4byte	patterndyn
 2639 0dba 14       		.uleb128 0x14
 2640 0dbb 920D0000 		.4byte	0xd92
 2641 0dbf 2E       		.uleb128 0x2e
 2642 0dc0 09050000 		.4byte	.LASF113
 2643 0dc4 0C       		.byte	0xc
 2644 0dc5 5B       		.byte	0x5b
 2645 0dc6 2C000000 		.4byte	0x2c
 2646 0dca D90D0000 		.4byte	0xdd9
 2647 0dce 0F       		.uleb128 0xf
 2648 0dcf 8B040000 		.4byte	0x48b
 2649 0dd3 0F       		.uleb128 0xf
 2650 0dd4 D90D0000 		.4byte	0xdd9
 2651 0dd8 00       		.byte	0
 2652 0dd9 09       		.uleb128 0x9
 2653 0dda 04       		.byte	0x4
ARM GAS  /tmp/ccPwPlGL.s 			page 48


 2654 0ddb 2C000000 		.4byte	0x2c
 2655 0ddf 2E       		.uleb128 0x2e
 2656 0de0 11010000 		.4byte	.LASF114
 2657 0de4 0F       		.byte	0xf
 2658 0de5 3C       		.byte	0x3c
 2659 0de6 4E020000 		.4byte	0x24e
 2660 0dea 080E0000 		.4byte	0xe08
 2661 0dee 0F       		.uleb128 0xf
 2662 0def 8B040000 		.4byte	0x48b
 2663 0df3 0F       		.uleb128 0xf
 2664 0df4 2C000000 		.4byte	0x2c
 2665 0df8 0F       		.uleb128 0xf
 2666 0df9 FA000000 		.4byte	0xfa
 2667 0dfd 0F       		.uleb128 0xf
 2668 0dfe 54050000 		.4byte	0x554
 2669 0e02 0F       		.uleb128 0xf
 2670 0e03 8A020000 		.4byte	0x28a
 2671 0e07 00       		.byte	0
 2672 0e08 2E       		.uleb128 0x2e
 2673 0e09 A8040000 		.4byte	.LASF115
 2674 0e0d 0C       		.byte	0xc
 2675 0e0e 59       		.byte	0x59
 2676 0e0f 8A020000 		.4byte	0x28a
 2677 0e13 220E0000 		.4byte	0xe22
 2678 0e17 0F       		.uleb128 0xf
 2679 0e18 8B040000 		.4byte	0x48b
 2680 0e1c 0F       		.uleb128 0xf
 2681 0e1d 2C000000 		.4byte	0x2c
 2682 0e21 00       		.byte	0
 2683 0e22 2F       		.uleb128 0x2f
 2684 0e23 FD000000 		.4byte	.LASF118
 2685 0e27 0C       		.byte	0xc
 2686 0e28 5A       		.byte	0x5a
 2687 0e29 330E0000 		.4byte	0xe33
 2688 0e2d 0F       		.uleb128 0xf
 2689 0e2e 8A020000 		.4byte	0x28a
 2690 0e32 00       		.byte	0
 2691 0e33 2E       		.uleb128 0x2e
 2692 0e34 F2050000 		.4byte	.LASF116
 2693 0e38 0E       		.byte	0xe
 2694 0e39 63       		.byte	0x63
 2695 0e3a CE000000 		.4byte	0xce
 2696 0e3e 4D0E0000 		.4byte	0xe4d
 2697 0e42 0F       		.uleb128 0xf
 2698 0e43 37000000 		.4byte	0x37
 2699 0e47 0F       		.uleb128 0xf
 2700 0e48 CE000000 		.4byte	0xce
 2701 0e4c 00       		.byte	0
 2702 0e4d 30       		.uleb128 0x30
 2703 0e4e 16050000 		.4byte	.LASF131
 2704 0e52 0E       		.byte	0xe
 2705 0e53 67       		.byte	0x67
 2706 0e54 2E       		.uleb128 0x2e
 2707 0e55 BA030000 		.4byte	.LASF117
 2708 0e59 0E       		.byte	0xe
 2709 0e5a 64       		.byte	0x64
 2710 0e5b CE000000 		.4byte	0xce
ARM GAS  /tmp/ccPwPlGL.s 			page 49


 2711 0e5f 6E0E0000 		.4byte	0xe6e
 2712 0e63 0F       		.uleb128 0xf
 2713 0e64 37000000 		.4byte	0x37
 2714 0e68 0F       		.uleb128 0xf
 2715 0e69 6E0E0000 		.4byte	0xe6e
 2716 0e6d 00       		.byte	0
 2717 0e6e 09       		.uleb128 0x9
 2718 0e6f 04       		.byte	0x4
 2719 0e70 47050000 		.4byte	0x547
 2720 0e74 2F       		.uleb128 0x2f
 2721 0e75 ED000000 		.4byte	.LASF119
 2722 0e79 0E       		.byte	0xe
 2723 0e7a 61       		.byte	0x61
 2724 0e7b 850E0000 		.4byte	0xe85
 2725 0e7f 0F       		.uleb128 0xf
 2726 0e80 47050000 		.4byte	0x547
 2727 0e84 00       		.byte	0
 2728 0e85 2F       		.uleb128 0x2f
 2729 0e86 94000000 		.4byte	.LASF120
 2730 0e8a 0C       		.byte	0xc
 2731 0e8b 57       		.byte	0x57
 2732 0e8c A00E0000 		.4byte	0xea0
 2733 0e90 0F       		.uleb128 0xf
 2734 0e91 8B040000 		.4byte	0x48b
 2735 0e95 0F       		.uleb128 0xf
 2736 0e96 8A020000 		.4byte	0x28a
 2737 0e9a 0F       		.uleb128 0xf
 2738 0e9b 2C000000 		.4byte	0x2c
 2739 0e9f 00       		.byte	0
 2740 0ea0 2F       		.uleb128 0x2f
 2741 0ea1 D9050000 		.4byte	.LASF121
 2742 0ea5 0D       		.byte	0xd
 2743 0ea6 5C       		.byte	0x5c
 2744 0ea7 B60E0000 		.4byte	0xeb6
 2745 0eab 0F       		.uleb128 0xf
 2746 0eac B60E0000 		.4byte	0xeb6
 2747 0eb0 0F       		.uleb128 0xf
 2748 0eb1 8A020000 		.4byte	0x28a
 2749 0eb5 00       		.byte	0
 2750 0eb6 09       		.uleb128 0x9
 2751 0eb7 04       		.byte	0x4
 2752 0eb8 FC040000 		.4byte	0x4fc
 2753 0ebc 2E       		.uleb128 0x2e
 2754 0ebd 52010000 		.4byte	.LASF122
 2755 0ec1 0F       		.byte	0xf
 2756 0ec2 40       		.byte	0x40
 2757 0ec3 4E020000 		.4byte	0x24e
 2758 0ec7 E00E0000 		.4byte	0xee0
 2759 0ecb 0F       		.uleb128 0xf
 2760 0ecc B60E0000 		.4byte	0xeb6
 2761 0ed0 0F       		.uleb128 0xf
 2762 0ed1 FA000000 		.4byte	0xfa
 2763 0ed5 0F       		.uleb128 0xf
 2764 0ed6 54050000 		.4byte	0x554
 2765 0eda 0F       		.uleb128 0xf
 2766 0edb 8A020000 		.4byte	0x28a
 2767 0edf 00       		.byte	0
ARM GAS  /tmp/ccPwPlGL.s 			page 50


 2768 0ee0 2E       		.uleb128 0x2e
 2769 0ee1 CD050000 		.4byte	.LASF123
 2770 0ee5 0D       		.byte	0xd
 2771 0ee6 5A       		.byte	0x5a
 2772 0ee7 8A020000 		.4byte	0x28a
 2773 0eeb F50E0000 		.4byte	0xef5
 2774 0eef 0F       		.uleb128 0xf
 2775 0ef0 B60E0000 		.4byte	0xeb6
 2776 0ef4 00       		.byte	0
 2777 0ef5 2F       		.uleb128 0x2f
 2778 0ef6 89000000 		.4byte	.LASF124
 2779 0efa 0D       		.byte	0xd
 2780 0efb 58       		.byte	0x58
 2781 0efc 100F0000 		.4byte	0xf10
 2782 0f00 0F       		.uleb128 0xf
 2783 0f01 B60E0000 		.4byte	0xeb6
 2784 0f05 0F       		.uleb128 0xf
 2785 0f06 2C000000 		.4byte	0x2c
 2786 0f0a 0F       		.uleb128 0xf
 2787 0f0b E9030000 		.4byte	0x3e9
 2788 0f0f 00       		.byte	0
 2789 0f10 31       		.uleb128 0x31
 2790 0f11 78000000 		.4byte	.LASF132
 2791 0f15 10       		.byte	0x10
 2792 0f16 63       		.byte	0x63
 2793 0f17 4E020000 		.4byte	0x24e
 2794 0f1b 2E       		.uleb128 0x2e
 2795 0f1c EE040000 		.4byte	.LASF125
 2796 0f20 10       		.byte	0x10
 2797 0f21 64       		.byte	0x64
 2798 0f22 4E020000 		.4byte	0x24e
 2799 0f26 300F0000 		.4byte	0xf30
 2800 0f2a 0F       		.uleb128 0xf
 2801 0f2b 4E020000 		.4byte	0x24e
 2802 0f2f 00       		.byte	0
 2803 0f30 2E       		.uleb128 0x2e
 2804 0f31 42030000 		.4byte	.LASF126
 2805 0f35 0F       		.byte	0xf
 2806 0f36 39       		.byte	0x39
 2807 0f37 4E020000 		.4byte	0x24e
 2808 0f3b 450F0000 		.4byte	0xf45
 2809 0f3f 0F       		.uleb128 0xf
 2810 0f40 4E020000 		.4byte	0x24e
 2811 0f44 00       		.byte	0
 2812 0f45 2F       		.uleb128 0x2f
 2813 0f46 94040000 		.4byte	.LASF127
 2814 0f4a 0F       		.byte	0xf
 2815 0f4b 3A       		.byte	0x3a
 2816 0f4c 560F0000 		.4byte	0xf56
 2817 0f50 0F       		.uleb128 0xf
 2818 0f51 4E020000 		.4byte	0x24e
 2819 0f55 00       		.byte	0
 2820 0f56 32       		.uleb128 0x32
 2821 0f57 C8040000 		.4byte	.LASF133
 2822 0f5b 07       		.byte	0x7
 2823 0f5c 6901     		.2byte	0x169
 2824 0f5e 0F       		.uleb128 0xf
ARM GAS  /tmp/ccPwPlGL.s 			page 51


 2825 0f5f 1B010000 		.4byte	0x11b
 2826 0f63 00       		.byte	0
 2827 0f64 00       		.byte	0
 2828              		.section	.debug_abbrev,"",%progbits
 2829              	.Ldebug_abbrev0:
 2830 0000 01       		.uleb128 0x1
 2831 0001 11       		.uleb128 0x11
 2832 0002 01       		.byte	0x1
 2833 0003 25       		.uleb128 0x25
 2834 0004 0E       		.uleb128 0xe
 2835 0005 13       		.uleb128 0x13
 2836 0006 0B       		.uleb128 0xb
 2837 0007 03       		.uleb128 0x3
 2838 0008 0E       		.uleb128 0xe
 2839 0009 1B       		.uleb128 0x1b
 2840 000a 0E       		.uleb128 0xe
 2841 000b 55       		.uleb128 0x55
 2842 000c 17       		.uleb128 0x17
 2843 000d 11       		.uleb128 0x11
 2844 000e 01       		.uleb128 0x1
 2845 000f 10       		.uleb128 0x10
 2846 0010 17       		.uleb128 0x17
 2847 0011 00       		.byte	0
 2848 0012 00       		.byte	0
 2849 0013 02       		.uleb128 0x2
 2850 0014 24       		.uleb128 0x24
 2851 0015 00       		.byte	0
 2852 0016 0B       		.uleb128 0xb
 2853 0017 0B       		.uleb128 0xb
 2854 0018 3E       		.uleb128 0x3e
 2855 0019 0B       		.uleb128 0xb
 2856 001a 03       		.uleb128 0x3
 2857 001b 08       		.uleb128 0x8
 2858 001c 00       		.byte	0
 2859 001d 00       		.byte	0
 2860 001e 03       		.uleb128 0x3
 2861 001f 16       		.uleb128 0x16
 2862 0020 00       		.byte	0
 2863 0021 03       		.uleb128 0x3
 2864 0022 0E       		.uleb128 0xe
 2865 0023 3A       		.uleb128 0x3a
 2866 0024 0B       		.uleb128 0xb
 2867 0025 3B       		.uleb128 0x3b
 2868 0026 0B       		.uleb128 0xb
 2869 0027 49       		.uleb128 0x49
 2870 0028 13       		.uleb128 0x13
 2871 0029 00       		.byte	0
 2872 002a 00       		.byte	0
 2873 002b 04       		.uleb128 0x4
 2874 002c 24       		.uleb128 0x24
 2875 002d 00       		.byte	0
 2876 002e 0B       		.uleb128 0xb
 2877 002f 0B       		.uleb128 0xb
 2878 0030 3E       		.uleb128 0x3e
 2879 0031 0B       		.uleb128 0xb
 2880 0032 03       		.uleb128 0x3
 2881 0033 0E       		.uleb128 0xe
ARM GAS  /tmp/ccPwPlGL.s 			page 52


 2882 0034 00       		.byte	0
 2883 0035 00       		.byte	0
 2884 0036 05       		.uleb128 0x5
 2885 0037 13       		.uleb128 0x13
 2886 0038 01       		.byte	0x1
 2887 0039 03       		.uleb128 0x3
 2888 003a 0E       		.uleb128 0xe
 2889 003b 0B       		.uleb128 0xb
 2890 003c 0B       		.uleb128 0xb
 2891 003d 3A       		.uleb128 0x3a
 2892 003e 0B       		.uleb128 0xb
 2893 003f 3B       		.uleb128 0x3b
 2894 0040 0B       		.uleb128 0xb
 2895 0041 01       		.uleb128 0x1
 2896 0042 13       		.uleb128 0x13
 2897 0043 00       		.byte	0
 2898 0044 00       		.byte	0
 2899 0045 06       		.uleb128 0x6
 2900 0046 0D       		.uleb128 0xd
 2901 0047 00       		.byte	0
 2902 0048 03       		.uleb128 0x3
 2903 0049 0E       		.uleb128 0xe
 2904 004a 3A       		.uleb128 0x3a
 2905 004b 0B       		.uleb128 0xb
 2906 004c 3B       		.uleb128 0x3b
 2907 004d 0B       		.uleb128 0xb
 2908 004e 49       		.uleb128 0x49
 2909 004f 13       		.uleb128 0x13
 2910 0050 38       		.uleb128 0x38
 2911 0051 0B       		.uleb128 0xb
 2912 0052 00       		.byte	0
 2913 0053 00       		.byte	0
 2914 0054 07       		.uleb128 0x7
 2915 0055 0D       		.uleb128 0xd
 2916 0056 00       		.byte	0
 2917 0057 03       		.uleb128 0x3
 2918 0058 08       		.uleb128 0x8
 2919 0059 3A       		.uleb128 0x3a
 2920 005a 0B       		.uleb128 0xb
 2921 005b 3B       		.uleb128 0x3b
 2922 005c 0B       		.uleb128 0xb
 2923 005d 49       		.uleb128 0x49
 2924 005e 13       		.uleb128 0x13
 2925 005f 38       		.uleb128 0x38
 2926 0060 0B       		.uleb128 0xb
 2927 0061 00       		.byte	0
 2928 0062 00       		.byte	0
 2929 0063 08       		.uleb128 0x8
 2930 0064 13       		.uleb128 0x13
 2931 0065 01       		.byte	0x1
 2932 0066 0B       		.uleb128 0xb
 2933 0067 0B       		.uleb128 0xb
 2934 0068 3A       		.uleb128 0x3a
 2935 0069 0B       		.uleb128 0xb
 2936 006a 3B       		.uleb128 0x3b
 2937 006b 0B       		.uleb128 0xb
 2938 006c 01       		.uleb128 0x1
ARM GAS  /tmp/ccPwPlGL.s 			page 53


 2939 006d 13       		.uleb128 0x13
 2940 006e 00       		.byte	0
 2941 006f 00       		.byte	0
 2942 0070 09       		.uleb128 0x9
 2943 0071 0F       		.uleb128 0xf
 2944 0072 00       		.byte	0
 2945 0073 0B       		.uleb128 0xb
 2946 0074 0B       		.uleb128 0xb
 2947 0075 49       		.uleb128 0x49
 2948 0076 13       		.uleb128 0x13
 2949 0077 00       		.byte	0
 2950 0078 00       		.byte	0
 2951 0079 0A       		.uleb128 0xa
 2952 007a 0F       		.uleb128 0xf
 2953 007b 00       		.byte	0
 2954 007c 0B       		.uleb128 0xb
 2955 007d 0B       		.uleb128 0xb
 2956 007e 00       		.byte	0
 2957 007f 00       		.byte	0
 2958 0080 0B       		.uleb128 0xb
 2959 0081 0D       		.uleb128 0xd
 2960 0082 00       		.byte	0
 2961 0083 03       		.uleb128 0x3
 2962 0084 08       		.uleb128 0x8
 2963 0085 3A       		.uleb128 0x3a
 2964 0086 0B       		.uleb128 0xb
 2965 0087 3B       		.uleb128 0x3b
 2966 0088 05       		.uleb128 0x5
 2967 0089 49       		.uleb128 0x49
 2968 008a 13       		.uleb128 0x13
 2969 008b 38       		.uleb128 0x38
 2970 008c 0B       		.uleb128 0xb
 2971 008d 00       		.byte	0
 2972 008e 00       		.byte	0
 2973 008f 0C       		.uleb128 0xc
 2974 0090 13       		.uleb128 0x13
 2975 0091 01       		.byte	0x1
 2976 0092 03       		.uleb128 0x3
 2977 0093 0E       		.uleb128 0xe
 2978 0094 0B       		.uleb128 0xb
 2979 0095 0B       		.uleb128 0xb
 2980 0096 3A       		.uleb128 0x3a
 2981 0097 0B       		.uleb128 0xb
 2982 0098 3B       		.uleb128 0x3b
 2983 0099 05       		.uleb128 0x5
 2984 009a 01       		.uleb128 0x1
 2985 009b 13       		.uleb128 0x13
 2986 009c 00       		.byte	0
 2987 009d 00       		.byte	0
 2988 009e 0D       		.uleb128 0xd
 2989 009f 35       		.uleb128 0x35
 2990 00a0 00       		.byte	0
 2991 00a1 49       		.uleb128 0x49
 2992 00a2 13       		.uleb128 0x13
 2993 00a3 00       		.byte	0
 2994 00a4 00       		.byte	0
 2995 00a5 0E       		.uleb128 0xe
ARM GAS  /tmp/ccPwPlGL.s 			page 54


 2996 00a6 15       		.uleb128 0x15
 2997 00a7 01       		.byte	0x1
 2998 00a8 27       		.uleb128 0x27
 2999 00a9 19       		.uleb128 0x19
 3000 00aa 49       		.uleb128 0x49
 3001 00ab 13       		.uleb128 0x13
 3002 00ac 01       		.uleb128 0x1
 3003 00ad 13       		.uleb128 0x13
 3004 00ae 00       		.byte	0
 3005 00af 00       		.byte	0
 3006 00b0 0F       		.uleb128 0xf
 3007 00b1 05       		.uleb128 0x5
 3008 00b2 00       		.byte	0
 3009 00b3 49       		.uleb128 0x49
 3010 00b4 13       		.uleb128 0x13
 3011 00b5 00       		.byte	0
 3012 00b6 00       		.byte	0
 3013 00b7 10       		.uleb128 0x10
 3014 00b8 17       		.uleb128 0x17
 3015 00b9 01       		.byte	0x1
 3016 00ba 0B       		.uleb128 0xb
 3017 00bb 0B       		.uleb128 0xb
 3018 00bc 3A       		.uleb128 0x3a
 3019 00bd 0B       		.uleb128 0xb
 3020 00be 3B       		.uleb128 0x3b
 3021 00bf 0B       		.uleb128 0xb
 3022 00c0 01       		.uleb128 0x1
 3023 00c1 13       		.uleb128 0x13
 3024 00c2 00       		.byte	0
 3025 00c3 00       		.byte	0
 3026 00c4 11       		.uleb128 0x11
 3027 00c5 0D       		.uleb128 0xd
 3028 00c6 00       		.byte	0
 3029 00c7 03       		.uleb128 0x3
 3030 00c8 0E       		.uleb128 0xe
 3031 00c9 3A       		.uleb128 0x3a
 3032 00ca 0B       		.uleb128 0xb
 3033 00cb 3B       		.uleb128 0x3b
 3034 00cc 0B       		.uleb128 0xb
 3035 00cd 49       		.uleb128 0x49
 3036 00ce 13       		.uleb128 0x13
 3037 00cf 00       		.byte	0
 3038 00d0 00       		.byte	0
 3039 00d1 12       		.uleb128 0x12
 3040 00d2 17       		.uleb128 0x17
 3041 00d3 01       		.byte	0x1
 3042 00d4 03       		.uleb128 0x3
 3043 00d5 0E       		.uleb128 0xe
 3044 00d6 0B       		.uleb128 0xb
 3045 00d7 0B       		.uleb128 0xb
 3046 00d8 3A       		.uleb128 0x3a
 3047 00d9 0B       		.uleb128 0xb
 3048 00da 3B       		.uleb128 0x3b
 3049 00db 0B       		.uleb128 0xb
 3050 00dc 01       		.uleb128 0x1
 3051 00dd 13       		.uleb128 0x13
 3052 00de 00       		.byte	0
ARM GAS  /tmp/ccPwPlGL.s 			page 55


 3053 00df 00       		.byte	0
 3054 00e0 13       		.uleb128 0x13
 3055 00e1 0D       		.uleb128 0xd
 3056 00e2 00       		.byte	0
 3057 00e3 03       		.uleb128 0x3
 3058 00e4 08       		.uleb128 0x8
 3059 00e5 3A       		.uleb128 0x3a
 3060 00e6 0B       		.uleb128 0xb
 3061 00e7 3B       		.uleb128 0x3b
 3062 00e8 0B       		.uleb128 0xb
 3063 00e9 49       		.uleb128 0x49
 3064 00ea 13       		.uleb128 0x13
 3065 00eb 00       		.byte	0
 3066 00ec 00       		.byte	0
 3067 00ed 14       		.uleb128 0x14
 3068 00ee 26       		.uleb128 0x26
 3069 00ef 00       		.byte	0
 3070 00f0 49       		.uleb128 0x49
 3071 00f1 13       		.uleb128 0x13
 3072 00f2 00       		.byte	0
 3073 00f3 00       		.byte	0
 3074 00f4 15       		.uleb128 0x15
 3075 00f5 15       		.uleb128 0x15
 3076 00f6 00       		.byte	0
 3077 00f7 27       		.uleb128 0x27
 3078 00f8 19       		.uleb128 0x19
 3079 00f9 00       		.byte	0
 3080 00fa 00       		.byte	0
 3081 00fb 16       		.uleb128 0x16
 3082 00fc 13       		.uleb128 0x13
 3083 00fd 01       		.byte	0x1
 3084 00fe 0B       		.uleb128 0xb
 3085 00ff 05       		.uleb128 0x5
 3086 0100 3A       		.uleb128 0x3a
 3087 0101 0B       		.uleb128 0xb
 3088 0102 3B       		.uleb128 0x3b
 3089 0103 0B       		.uleb128 0xb
 3090 0104 01       		.uleb128 0x1
 3091 0105 13       		.uleb128 0x13
 3092 0106 00       		.byte	0
 3093 0107 00       		.byte	0
 3094 0108 17       		.uleb128 0x17
 3095 0109 0D       		.uleb128 0xd
 3096 010a 00       		.byte	0
 3097 010b 03       		.uleb128 0x3
 3098 010c 08       		.uleb128 0x8
 3099 010d 3A       		.uleb128 0x3a
 3100 010e 0B       		.uleb128 0xb
 3101 010f 3B       		.uleb128 0x3b
 3102 0110 0B       		.uleb128 0xb
 3103 0111 49       		.uleb128 0x49
 3104 0112 13       		.uleb128 0x13
 3105 0113 38       		.uleb128 0x38
 3106 0114 05       		.uleb128 0x5
 3107 0115 00       		.byte	0
 3108 0116 00       		.byte	0
 3109 0117 18       		.uleb128 0x18
ARM GAS  /tmp/ccPwPlGL.s 			page 56


 3110 0118 01       		.uleb128 0x1
 3111 0119 01       		.byte	0x1
 3112 011a 49       		.uleb128 0x49
 3113 011b 13       		.uleb128 0x13
 3114 011c 01       		.uleb128 0x1
 3115 011d 13       		.uleb128 0x13
 3116 011e 00       		.byte	0
 3117 011f 00       		.byte	0
 3118 0120 19       		.uleb128 0x19
 3119 0121 21       		.uleb128 0x21
 3120 0122 00       		.byte	0
 3121 0123 49       		.uleb128 0x49
 3122 0124 13       		.uleb128 0x13
 3123 0125 2F       		.uleb128 0x2f
 3124 0126 0B       		.uleb128 0xb
 3125 0127 00       		.byte	0
 3126 0128 00       		.byte	0
 3127 0129 1A       		.uleb128 0x1a
 3128 012a 17       		.uleb128 0x17
 3129 012b 01       		.byte	0x1
 3130 012c 03       		.uleb128 0x3
 3131 012d 0E       		.uleb128 0xe
 3132 012e 0B       		.uleb128 0xb
 3133 012f 05       		.uleb128 0x5
 3134 0130 3A       		.uleb128 0x3a
 3135 0131 0B       		.uleb128 0xb
 3136 0132 3B       		.uleb128 0x3b
 3137 0133 0B       		.uleb128 0xb
 3138 0134 01       		.uleb128 0x1
 3139 0135 13       		.uleb128 0x13
 3140 0136 00       		.byte	0
 3141 0137 00       		.byte	0
 3142 0138 1B       		.uleb128 0x1b
 3143 0139 21       		.uleb128 0x21
 3144 013a 00       		.byte	0
 3145 013b 49       		.uleb128 0x49
 3146 013c 13       		.uleb128 0x13
 3147 013d 2F       		.uleb128 0x2f
 3148 013e 05       		.uleb128 0x5
 3149 013f 00       		.byte	0
 3150 0140 00       		.byte	0
 3151 0141 1C       		.uleb128 0x1c
 3152 0142 2E       		.uleb128 0x2e
 3153 0143 01       		.byte	0x1
 3154 0144 03       		.uleb128 0x3
 3155 0145 0E       		.uleb128 0xe
 3156 0146 3A       		.uleb128 0x3a
 3157 0147 0B       		.uleb128 0xb
 3158 0148 3B       		.uleb128 0x3b
 3159 0149 0B       		.uleb128 0xb
 3160 014a 27       		.uleb128 0x27
 3161 014b 19       		.uleb128 0x19
 3162 014c 11       		.uleb128 0x11
 3163 014d 01       		.uleb128 0x1
 3164 014e 12       		.uleb128 0x12
 3165 014f 06       		.uleb128 0x6
 3166 0150 40       		.uleb128 0x40
ARM GAS  /tmp/ccPwPlGL.s 			page 57


 3167 0151 18       		.uleb128 0x18
 3168 0152 9742     		.uleb128 0x2117
 3169 0154 19       		.uleb128 0x19
 3170 0155 01       		.uleb128 0x1
 3171 0156 13       		.uleb128 0x13
 3172 0157 00       		.byte	0
 3173 0158 00       		.byte	0
 3174 0159 1D       		.uleb128 0x1d
 3175 015a 34       		.uleb128 0x34
 3176 015b 00       		.byte	0
 3177 015c 03       		.uleb128 0x3
 3178 015d 08       		.uleb128 0x8
 3179 015e 3A       		.uleb128 0x3a
 3180 015f 0B       		.uleb128 0xb
 3181 0160 3B       		.uleb128 0x3b
 3182 0161 0B       		.uleb128 0xb
 3183 0162 49       		.uleb128 0x49
 3184 0163 13       		.uleb128 0x13
 3185 0164 02       		.uleb128 0x2
 3186 0165 18       		.uleb128 0x18
 3187 0166 00       		.byte	0
 3188 0167 00       		.byte	0
 3189 0168 1E       		.uleb128 0x1e
 3190 0169 34       		.uleb128 0x34
 3191 016a 00       		.byte	0
 3192 016b 03       		.uleb128 0x3
 3193 016c 08       		.uleb128 0x8
 3194 016d 3A       		.uleb128 0x3a
 3195 016e 0B       		.uleb128 0xb
 3196 016f 3B       		.uleb128 0x3b
 3197 0170 0B       		.uleb128 0xb
 3198 0171 49       		.uleb128 0x49
 3199 0172 13       		.uleb128 0x13
 3200 0173 02       		.uleb128 0x2
 3201 0174 17       		.uleb128 0x17
 3202 0175 00       		.byte	0
 3203 0176 00       		.byte	0
 3204 0177 1F       		.uleb128 0x1f
 3205 0178 34       		.uleb128 0x34
 3206 0179 00       		.byte	0
 3207 017a 03       		.uleb128 0x3
 3208 017b 0E       		.uleb128 0xe
 3209 017c 3A       		.uleb128 0x3a
 3210 017d 0B       		.uleb128 0xb
 3211 017e 3B       		.uleb128 0x3b
 3212 017f 0B       		.uleb128 0xb
 3213 0180 49       		.uleb128 0x49
 3214 0181 13       		.uleb128 0x13
 3215 0182 02       		.uleb128 0x2
 3216 0183 18       		.uleb128 0x18
 3217 0184 00       		.byte	0
 3218 0185 00       		.byte	0
 3219 0186 20       		.uleb128 0x20
 3220 0187 898201   		.uleb128 0x4109
 3221 018a 01       		.byte	0x1
 3222 018b 11       		.uleb128 0x11
 3223 018c 01       		.uleb128 0x1
ARM GAS  /tmp/ccPwPlGL.s 			page 58


 3224 018d 31       		.uleb128 0x31
 3225 018e 13       		.uleb128 0x13
 3226 018f 01       		.uleb128 0x1
 3227 0190 13       		.uleb128 0x13
 3228 0191 00       		.byte	0
 3229 0192 00       		.byte	0
 3230 0193 21       		.uleb128 0x21
 3231 0194 8A8201   		.uleb128 0x410a
 3232 0197 00       		.byte	0
 3233 0198 02       		.uleb128 0x2
 3234 0199 18       		.uleb128 0x18
 3235 019a 9142     		.uleb128 0x2111
 3236 019c 18       		.uleb128 0x18
 3237 019d 00       		.byte	0
 3238 019e 00       		.byte	0
 3239 019f 22       		.uleb128 0x22
 3240 01a0 898201   		.uleb128 0x4109
 3241 01a3 00       		.byte	0
 3242 01a4 11       		.uleb128 0x11
 3243 01a5 01       		.uleb128 0x1
 3244 01a6 31       		.uleb128 0x31
 3245 01a7 13       		.uleb128 0x13
 3246 01a8 00       		.byte	0
 3247 01a9 00       		.byte	0
 3248 01aa 23       		.uleb128 0x23
 3249 01ab 898201   		.uleb128 0x4109
 3250 01ae 01       		.byte	0x1
 3251 01af 11       		.uleb128 0x11
 3252 01b0 01       		.uleb128 0x1
 3253 01b1 31       		.uleb128 0x31
 3254 01b2 13       		.uleb128 0x13
 3255 01b3 00       		.byte	0
 3256 01b4 00       		.byte	0
 3257 01b5 24       		.uleb128 0x24
 3258 01b6 2E       		.uleb128 0x2e
 3259 01b7 01       		.byte	0x1
 3260 01b8 03       		.uleb128 0x3
 3261 01b9 0E       		.uleb128 0xe
 3262 01ba 3A       		.uleb128 0x3a
 3263 01bb 0B       		.uleb128 0xb
 3264 01bc 3B       		.uleb128 0x3b
 3265 01bd 0B       		.uleb128 0xb
 3266 01be 27       		.uleb128 0x27
 3267 01bf 19       		.uleb128 0x19
 3268 01c0 49       		.uleb128 0x49
 3269 01c1 13       		.uleb128 0x13
 3270 01c2 11       		.uleb128 0x11
 3271 01c3 01       		.uleb128 0x1
 3272 01c4 12       		.uleb128 0x12
 3273 01c5 06       		.uleb128 0x6
 3274 01c6 40       		.uleb128 0x40
 3275 01c7 18       		.uleb128 0x18
 3276 01c8 9742     		.uleb128 0x2117
 3277 01ca 19       		.uleb128 0x19
 3278 01cb 01       		.uleb128 0x1
 3279 01cc 13       		.uleb128 0x13
 3280 01cd 00       		.byte	0
ARM GAS  /tmp/ccPwPlGL.s 			page 59


 3281 01ce 00       		.byte	0
 3282 01cf 25       		.uleb128 0x25
 3283 01d0 05       		.uleb128 0x5
 3284 01d1 00       		.byte	0
 3285 01d2 03       		.uleb128 0x3
 3286 01d3 08       		.uleb128 0x8
 3287 01d4 3A       		.uleb128 0x3a
 3288 01d5 0B       		.uleb128 0xb
 3289 01d6 3B       		.uleb128 0x3b
 3290 01d7 0B       		.uleb128 0xb
 3291 01d8 49       		.uleb128 0x49
 3292 01d9 13       		.uleb128 0x13
 3293 01da 02       		.uleb128 0x2
 3294 01db 17       		.uleb128 0x17
 3295 01dc 00       		.byte	0
 3296 01dd 00       		.byte	0
 3297 01de 26       		.uleb128 0x26
 3298 01df 898201   		.uleb128 0x4109
 3299 01e2 01       		.byte	0x1
 3300 01e3 11       		.uleb128 0x11
 3301 01e4 01       		.uleb128 0x1
 3302 01e5 9542     		.uleb128 0x2115
 3303 01e7 19       		.uleb128 0x19
 3304 01e8 31       		.uleb128 0x31
 3305 01e9 13       		.uleb128 0x13
 3306 01ea 00       		.byte	0
 3307 01eb 00       		.byte	0
 3308 01ec 27       		.uleb128 0x27
 3309 01ed 34       		.uleb128 0x34
 3310 01ee 00       		.byte	0
 3311 01ef 03       		.uleb128 0x3
 3312 01f0 0E       		.uleb128 0xe
 3313 01f1 3A       		.uleb128 0x3a
 3314 01f2 0B       		.uleb128 0xb
 3315 01f3 3B       		.uleb128 0x3b
 3316 01f4 0B       		.uleb128 0xb
 3317 01f5 49       		.uleb128 0x49
 3318 01f6 13       		.uleb128 0x13
 3319 01f7 02       		.uleb128 0x2
 3320 01f8 17       		.uleb128 0x17
 3321 01f9 00       		.byte	0
 3322 01fa 00       		.byte	0
 3323 01fb 28       		.uleb128 0x28
 3324 01fc 34       		.uleb128 0x34
 3325 01fd 00       		.byte	0
 3326 01fe 03       		.uleb128 0x3
 3327 01ff 0E       		.uleb128 0xe
 3328 0200 3A       		.uleb128 0x3a
 3329 0201 0B       		.uleb128 0xb
 3330 0202 3B       		.uleb128 0x3b
 3331 0203 0B       		.uleb128 0xb
 3332 0204 49       		.uleb128 0x49
 3333 0205 13       		.uleb128 0x13
 3334 0206 00       		.byte	0
 3335 0207 00       		.byte	0
 3336 0208 29       		.uleb128 0x29
 3337 0209 34       		.uleb128 0x34
ARM GAS  /tmp/ccPwPlGL.s 			page 60


 3338 020a 00       		.byte	0
 3339 020b 03       		.uleb128 0x3
 3340 020c 0E       		.uleb128 0xe
 3341 020d 3A       		.uleb128 0x3a
 3342 020e 0B       		.uleb128 0xb
 3343 020f 3B       		.uleb128 0x3b
 3344 0210 0B       		.uleb128 0xb
 3345 0211 49       		.uleb128 0x49
 3346 0212 13       		.uleb128 0x13
 3347 0213 3F       		.uleb128 0x3f
 3348 0214 19       		.uleb128 0x19
 3349 0215 3C       		.uleb128 0x3c
 3350 0216 19       		.uleb128 0x19
 3351 0217 00       		.byte	0
 3352 0218 00       		.byte	0
 3353 0219 2A       		.uleb128 0x2a
 3354 021a 21       		.uleb128 0x21
 3355 021b 00       		.byte	0
 3356 021c 00       		.byte	0
 3357 021d 00       		.byte	0
 3358 021e 2B       		.uleb128 0x2b
 3359 021f 34       		.uleb128 0x34
 3360 0220 00       		.byte	0
 3361 0221 03       		.uleb128 0x3
 3362 0222 08       		.uleb128 0x8
 3363 0223 3A       		.uleb128 0x3a
 3364 0224 0B       		.uleb128 0xb
 3365 0225 3B       		.uleb128 0x3b
 3366 0226 0B       		.uleb128 0xb
 3367 0227 49       		.uleb128 0x49
 3368 0228 13       		.uleb128 0x13
 3369 0229 3F       		.uleb128 0x3f
 3370 022a 19       		.uleb128 0x19
 3371 022b 3C       		.uleb128 0x3c
 3372 022c 19       		.uleb128 0x19
 3373 022d 00       		.byte	0
 3374 022e 00       		.byte	0
 3375 022f 2C       		.uleb128 0x2c
 3376 0230 34       		.uleb128 0x34
 3377 0231 00       		.byte	0
 3378 0232 03       		.uleb128 0x3
 3379 0233 0E       		.uleb128 0xe
 3380 0234 3A       		.uleb128 0x3a
 3381 0235 0B       		.uleb128 0xb
 3382 0236 3B       		.uleb128 0x3b
 3383 0237 0B       		.uleb128 0xb
 3384 0238 49       		.uleb128 0x49
 3385 0239 13       		.uleb128 0x13
 3386 023a 3F       		.uleb128 0x3f
 3387 023b 19       		.uleb128 0x19
 3388 023c 02       		.uleb128 0x2
 3389 023d 18       		.uleb128 0x18
 3390 023e 00       		.byte	0
 3391 023f 00       		.byte	0
 3392 0240 2D       		.uleb128 0x2d
 3393 0241 34       		.uleb128 0x34
 3394 0242 00       		.byte	0
ARM GAS  /tmp/ccPwPlGL.s 			page 61


 3395 0243 03       		.uleb128 0x3
 3396 0244 0E       		.uleb128 0xe
 3397 0245 3A       		.uleb128 0x3a
 3398 0246 0B       		.uleb128 0xb
 3399 0247 3B       		.uleb128 0x3b
 3400 0248 05       		.uleb128 0x5
 3401 0249 49       		.uleb128 0x49
 3402 024a 13       		.uleb128 0x13
 3403 024b 3F       		.uleb128 0x3f
 3404 024c 19       		.uleb128 0x19
 3405 024d 02       		.uleb128 0x2
 3406 024e 18       		.uleb128 0x18
 3407 024f 00       		.byte	0
 3408 0250 00       		.byte	0
 3409 0251 2E       		.uleb128 0x2e
 3410 0252 2E       		.uleb128 0x2e
 3411 0253 01       		.byte	0x1
 3412 0254 3F       		.uleb128 0x3f
 3413 0255 19       		.uleb128 0x19
 3414 0256 03       		.uleb128 0x3
 3415 0257 0E       		.uleb128 0xe
 3416 0258 3A       		.uleb128 0x3a
 3417 0259 0B       		.uleb128 0xb
 3418 025a 3B       		.uleb128 0x3b
 3419 025b 0B       		.uleb128 0xb
 3420 025c 27       		.uleb128 0x27
 3421 025d 19       		.uleb128 0x19
 3422 025e 49       		.uleb128 0x49
 3423 025f 13       		.uleb128 0x13
 3424 0260 3C       		.uleb128 0x3c
 3425 0261 19       		.uleb128 0x19
 3426 0262 01       		.uleb128 0x1
 3427 0263 13       		.uleb128 0x13
 3428 0264 00       		.byte	0
 3429 0265 00       		.byte	0
 3430 0266 2F       		.uleb128 0x2f
 3431 0267 2E       		.uleb128 0x2e
 3432 0268 01       		.byte	0x1
 3433 0269 3F       		.uleb128 0x3f
 3434 026a 19       		.uleb128 0x19
 3435 026b 03       		.uleb128 0x3
 3436 026c 0E       		.uleb128 0xe
 3437 026d 3A       		.uleb128 0x3a
 3438 026e 0B       		.uleb128 0xb
 3439 026f 3B       		.uleb128 0x3b
 3440 0270 0B       		.uleb128 0xb
 3441 0271 27       		.uleb128 0x27
 3442 0272 19       		.uleb128 0x19
 3443 0273 3C       		.uleb128 0x3c
 3444 0274 19       		.uleb128 0x19
 3445 0275 01       		.uleb128 0x1
 3446 0276 13       		.uleb128 0x13
 3447 0277 00       		.byte	0
 3448 0278 00       		.byte	0
 3449 0279 30       		.uleb128 0x30
 3450 027a 2E       		.uleb128 0x2e
 3451 027b 00       		.byte	0
ARM GAS  /tmp/ccPwPlGL.s 			page 62


 3452 027c 3F       		.uleb128 0x3f
 3453 027d 19       		.uleb128 0x19
 3454 027e 03       		.uleb128 0x3
 3455 027f 0E       		.uleb128 0xe
 3456 0280 3A       		.uleb128 0x3a
 3457 0281 0B       		.uleb128 0xb
 3458 0282 3B       		.uleb128 0x3b
 3459 0283 0B       		.uleb128 0xb
 3460 0284 27       		.uleb128 0x27
 3461 0285 19       		.uleb128 0x19
 3462 0286 3C       		.uleb128 0x3c
 3463 0287 19       		.uleb128 0x19
 3464 0288 00       		.byte	0
 3465 0289 00       		.byte	0
 3466 028a 31       		.uleb128 0x31
 3467 028b 2E       		.uleb128 0x2e
 3468 028c 00       		.byte	0
 3469 028d 3F       		.uleb128 0x3f
 3470 028e 19       		.uleb128 0x19
 3471 028f 03       		.uleb128 0x3
 3472 0290 0E       		.uleb128 0xe
 3473 0291 3A       		.uleb128 0x3a
 3474 0292 0B       		.uleb128 0xb
 3475 0293 3B       		.uleb128 0x3b
 3476 0294 0B       		.uleb128 0xb
 3477 0295 27       		.uleb128 0x27
 3478 0296 19       		.uleb128 0x19
 3479 0297 49       		.uleb128 0x49
 3480 0298 13       		.uleb128 0x13
 3481 0299 3C       		.uleb128 0x3c
 3482 029a 19       		.uleb128 0x19
 3483 029b 00       		.byte	0
 3484 029c 00       		.byte	0
 3485 029d 32       		.uleb128 0x32
 3486 029e 2E       		.uleb128 0x2e
 3487 029f 01       		.byte	0x1
 3488 02a0 3F       		.uleb128 0x3f
 3489 02a1 19       		.uleb128 0x19
 3490 02a2 03       		.uleb128 0x3
 3491 02a3 0E       		.uleb128 0xe
 3492 02a4 3A       		.uleb128 0x3a
 3493 02a5 0B       		.uleb128 0xb
 3494 02a6 3B       		.uleb128 0x3b
 3495 02a7 05       		.uleb128 0x5
 3496 02a8 27       		.uleb128 0x27
 3497 02a9 19       		.uleb128 0x19
 3498 02aa 3C       		.uleb128 0x3c
 3499 02ab 19       		.uleb128 0x19
 3500 02ac 00       		.byte	0
 3501 02ad 00       		.byte	0
 3502 02ae 00       		.byte	0
 3503              		.section	.debug_loc,"",%progbits
 3504              	.Ldebug_loc0:
 3505              	.LLST0:
 3506 0000 54000000 		.4byte	.LVL6
 3507 0004 5A000000 		.4byte	.LVL7
 3508 0008 0100     		.2byte	0x1
ARM GAS  /tmp/ccPwPlGL.s 			page 63


 3509 000a 50       		.byte	0x50
 3510 000b 5A000000 		.4byte	.LVL7
 3511 000f F0000000 		.4byte	.LFE9
 3512 0013 0100     		.2byte	0x1
 3513 0015 56       		.byte	0x56
 3514 0016 00000000 		.4byte	0
 3515 001a 00000000 		.4byte	0
 3516              	.LLST1:
 3517 001e 00000000 		.4byte	.LVL17
 3518 0022 04000000 		.4byte	.LVL18
 3519 0026 0100     		.2byte	0x1
 3520 0028 50       		.byte	0x50
 3521 0029 04000000 		.4byte	.LVL18
 3522 002d 0C000000 		.4byte	.LFE7
 3523 0031 0400     		.2byte	0x4
 3524 0033 F3       		.byte	0xf3
 3525 0034 01       		.uleb128 0x1
 3526 0035 50       		.byte	0x50
 3527 0036 9F       		.byte	0x9f
 3528 0037 00000000 		.4byte	0
 3529 003b 00000000 		.4byte	0
 3530              	.LLST2:
 3531 003f 0A000000 		.4byte	.LVL22
 3532 0043 0E000000 		.4byte	.LVL23
 3533 0047 0200     		.2byte	0x2
 3534 0049 30       		.byte	0x30
 3535 004a 9F       		.byte	0x9f
 3536 004b 98000000 		.4byte	.LVL34
 3537 004f AA000000 		.4byte	.LVL36
 3538 0053 0500     		.2byte	0x5
 3539 0055 34       		.byte	0x34
 3540 0056 74       		.byte	0x74
 3541 0057 00       		.sleb128 0
 3542 0058 1C       		.byte	0x1c
 3543 0059 9F       		.byte	0x9f
 3544 005a AA000000 		.4byte	.LVL36
 3545 005e B0000000 		.4byte	.LVL37
 3546 0062 0500     		.2byte	0x5
 3547 0064 35       		.byte	0x35
 3548 0065 74       		.byte	0x74
 3549 0066 00       		.sleb128 0
 3550 0067 1C       		.byte	0x1c
 3551 0068 9F       		.byte	0x9f
 3552 0069 B0000000 		.4byte	.LVL37
 3553 006d BC000000 		.4byte	.LVL39
 3554 0071 0500     		.2byte	0x5
 3555 0073 34       		.byte	0x34
 3556 0074 74       		.byte	0x74
 3557 0075 00       		.sleb128 0
 3558 0076 1C       		.byte	0x1c
 3559 0077 9F       		.byte	0x9f
 3560 0078 00000000 		.4byte	0
 3561 007c 00000000 		.4byte	0
 3562              	.LLST3:
 3563 0080 0A000000 		.4byte	.LVL22
 3564 0084 BC000000 		.4byte	.LVL39
 3565 0088 0100     		.2byte	0x1
ARM GAS  /tmp/ccPwPlGL.s 			page 64


 3566 008a 55       		.byte	0x55
 3567 008b 00000000 		.4byte	0
 3568 008f 00000000 		.4byte	0
 3569              	.LLST4:
 3570 0093 00000000 		.4byte	.LVL42
 3571 0097 07000000 		.4byte	.LVL43-1
 3572 009b 0100     		.2byte	0x1
 3573 009d 50       		.byte	0x50
 3574 009e 07000000 		.4byte	.LVL43-1
 3575 00a2 24000000 		.4byte	.LFE12
 3576 00a6 0100     		.2byte	0x1
 3577 00a8 55       		.byte	0x55
 3578 00a9 00000000 		.4byte	0
 3579 00ad 00000000 		.4byte	0
 3580              	.LLST5:
 3581 00b1 0C000000 		.4byte	.LVL44
 3582 00b5 19000000 		.4byte	.LVL46-1
 3583 00b9 0100     		.2byte	0x1
 3584 00bb 50       		.byte	0x50
 3585 00bc 1A000000 		.4byte	.LVL46
 3586 00c0 22000000 		.4byte	.LVL47
 3587 00c4 0100     		.2byte	0x1
 3588 00c6 50       		.byte	0x50
 3589 00c7 22000000 		.4byte	.LVL47
 3590 00cb 24000000 		.4byte	.LFE12
 3591 00cf 0100     		.2byte	0x1
 3592 00d1 53       		.byte	0x53
 3593 00d2 00000000 		.4byte	0
 3594 00d6 00000000 		.4byte	0
 3595              	.LLST6:
 3596 00da 00000000 		.4byte	.LVL42
 3597 00de 0C000000 		.4byte	.LVL44
 3598 00e2 0200     		.2byte	0x2
 3599 00e4 30       		.byte	0x30
 3600 00e5 9F       		.byte	0x9f
 3601 00e6 0C000000 		.4byte	.LVL44
 3602 00ea 24000000 		.4byte	.LFE12
 3603 00ee 0100     		.2byte	0x1
 3604 00f0 54       		.byte	0x54
 3605 00f1 00000000 		.4byte	0
 3606 00f5 00000000 		.4byte	0
 3607              	.LLST7:
 3608 00f9 20000000 		.4byte	.LVL51
 3609 00fd 22000000 		.4byte	.LVL52
 3610 0101 0100     		.2byte	0x1
 3611 0103 50       		.byte	0x50
 3612 0104 22000000 		.4byte	.LVL52
 3613 0108 26010000 		.4byte	.LVL75
 3614 010c 0100     		.2byte	0x1
 3615 010e 54       		.byte	0x54
 3616 010f 00000000 		.4byte	0
 3617 0113 00000000 		.4byte	0
 3618              		.section	.debug_aranges,"",%progbits
 3619 0000 54000000 		.4byte	0x54
 3620 0004 0200     		.2byte	0x2
 3621 0006 00000000 		.4byte	.Ldebug_info0
 3622 000a 04       		.byte	0x4
ARM GAS  /tmp/ccPwPlGL.s 			page 65


 3623 000b 00       		.byte	0
 3624 000c 0000     		.2byte	0
 3625 000e 0000     		.2byte	0
 3626 0010 00000000 		.4byte	.LFB9
 3627 0014 F0000000 		.4byte	.LFE9-.LFB9
 3628 0018 00000000 		.4byte	.LFB7
 3629 001c 0C000000 		.4byte	.LFE7-.LFB7
 3630 0020 00000000 		.4byte	.LFB8
 3631 0024 14000000 		.4byte	.LFE8-.LFB8
 3632 0028 00000000 		.4byte	.LFB13
 3633 002c 14000000 		.4byte	.LFE13-.LFB13
 3634 0030 00000000 		.4byte	.LFB11
 3635 0034 F8000000 		.4byte	.LFE11-.LFB11
 3636 0038 00000000 		.4byte	.LFB10
 3637 003c 10000000 		.4byte	.LFE10-.LFB10
 3638 0040 00000000 		.4byte	.LFB12
 3639 0044 24000000 		.4byte	.LFE12-.LFB12
 3640 0048 00000000 		.4byte	.LFB14
 3641 004c 3C010000 		.4byte	.LFE14-.LFB14
 3642 0050 00000000 		.4byte	0
 3643 0054 00000000 		.4byte	0
 3644              		.section	.debug_ranges,"",%progbits
 3645              	.Ldebug_ranges0:
 3646 0000 00000000 		.4byte	.LFB9
 3647 0004 F0000000 		.4byte	.LFE9
 3648 0008 00000000 		.4byte	.LFB7
 3649 000c 0C000000 		.4byte	.LFE7
 3650 0010 00000000 		.4byte	.LFB8
 3651 0014 14000000 		.4byte	.LFE8
 3652 0018 00000000 		.4byte	.LFB13
 3653 001c 14000000 		.4byte	.LFE13
 3654 0020 00000000 		.4byte	.LFB11
 3655 0024 F8000000 		.4byte	.LFE11
 3656 0028 00000000 		.4byte	.LFB10
 3657 002c 10000000 		.4byte	.LFE10
 3658 0030 00000000 		.4byte	.LFB12
 3659 0034 24000000 		.4byte	.LFE12
 3660 0038 00000000 		.4byte	.LFB14
 3661 003c 3C010000 		.4byte	.LFE14
 3662 0040 00000000 		.4byte	0
 3663 0044 00000000 		.4byte	0
 3664              		.section	.debug_line,"",%progbits
 3665              	.Ldebug_line0:
 3666 0000 1F030000 		.section	.debug_str,"MS",%progbits,1
 3666      0200FD01 
 3666      00000201 
 3666      FB0E0D00 
 3666      01010101 
 3667              	.LASF86:
 3668 0000 7466756E 		.ascii	"tfunc_t\000"
 3668      635F7400 
 3669              	.LASF41:
 3670 0008 705F6D73 		.ascii	"p_msg\000"
 3670      6700
 3671              	.LASF2:
 3672 000e 73697A65 		.ascii	"size_t\000"
 3672      5F7400
ARM GAS  /tmp/ccPwPlGL.s 			page 66


 3673              	.LASF95:
 3674 0015 7072696F 		.ascii	"prio\000"
 3674      00
 3675              	.LASF81:
 3676 001a 7264796D 		.ascii	"rdymsg\000"
 3676      736700
 3677              	.LASF17:
 3678 0021 75696E74 		.ascii	"uint64_t\000"
 3678      36345F74 
 3678      00
 3679              	.LASF3:
 3680 002a 5F5F7569 		.ascii	"__uint8_t\000"
 3680      6E74385F 
 3680      7400
 3681              	.LASF80:
 3682 0034 4D656D6F 		.ascii	"MemoryPool\000"
 3682      7279506F 
 3682      6F6C00
 3683              	.LASF65:
 3684 003f 6D656D67 		.ascii	"memgetfunc_t\000"
 3684      65746675 
 3684      6E635F74 
 3684      00
 3685              	.LASF13:
 3686 004c 6C6F6E67 		.ascii	"long long unsigned int\000"
 3686      206C6F6E 
 3686      6720756E 
 3686      7369676E 
 3686      65642069 
 3687              	.LASF82:
 3688 0063 65786974 		.ascii	"exitcode\000"
 3688      636F6465 
 3688      00
 3689              	.LASF69:
 3690 006c 685F6672 		.ascii	"h_free\000"
 3690      656500
 3691              	.LASF108:
 3692 0073 74657374 		.ascii	"test\000"
 3692      00
 3693              	.LASF132:
 3694 0078 63685265 		.ascii	"chRegFirstThread\000"
 3694      67466972 
 3694      73745468 
 3694      72656164 
 3694      00
 3695              	.LASF124:
 3696 0089 6368506F 		.ascii	"chPoolInit\000"
 3696      6F6C496E 
 3696      697400
 3697              	.LASF120:
 3698 0094 63684865 		.ascii	"chHeapInit\000"
 3698      6170496E 
 3698      697400
 3699              	.LASF71:
 3700 009f 6E657874 		.ascii	"next\000"
 3700      00
 3701              	.LASF30:
ARM GAS  /tmp/ccPwPlGL.s 			page 67


 3702 00a4 705F7072 		.ascii	"p_prio\000"
 3702      696F00
 3703              	.LASF100:
 3704 00ab 64796E32 		.ascii	"dyn2_setup\000"
 3704      5F736574 
 3704      757000
 3705              	.LASF11:
 3706 00b6 6C6F6E67 		.ascii	"long long int\000"
 3706      206C6F6E 
 3706      6720696E 
 3706      7400
 3707              	.LASF1:
 3708 00c4 7369676E 		.ascii	"signed char\000"
 3708      65642063 
 3708      68617200 
 3709              	.LASF70:
 3710 00d0 685F6D74 		.ascii	"h_mtx\000"
 3710      7800
 3711              	.LASF45:
 3712 00d6 705F6D70 		.ascii	"p_mpool\000"
 3712      6F6F6C00 
 3713              	.LASF18:
 3714 00de 626F6F6C 		.ascii	"bool_t\000"
 3714      5F7400
 3715              	.LASF62:
 3716 00e5 6D5F7175 		.ascii	"m_queue\000"
 3716      65756500 
 3717              	.LASF119:
 3718 00ed 74657374 		.ascii	"test_emit_token\000"
 3718      5F656D69 
 3718      745F746F 
 3718      6B656E00 
 3719              	.LASF118:
 3720 00fd 63684865 		.ascii	"chHeapFree\000"
 3720      61704672 
 3720      656500
 3721              	.LASF8:
 3722 0108 6C6F6E67 		.ascii	"long int\000"
 3722      20696E74 
 3722      00
 3723              	.LASF114:
 3724 0111 63685468 		.ascii	"chThdCreateFromHeap\000"
 3724      64437265 
 3724      61746546 
 3724      726F6D48 
 3724      65617000 
 3725              	.LASF20:
 3726 0125 74737461 		.ascii	"tstate_t\000"
 3726      74655F74 
 3726      00
 3727              	.LASF77:
 3728 012e 6D705F6E 		.ascii	"mp_next\000"
 3728      65787400 
 3729              	.LASF96:
 3730 0136 64796E31 		.ascii	"dyn1_execute\000"
 3730      5F657865 
 3730      63757465 
ARM GAS  /tmp/ccPwPlGL.s 			page 68


 3730      00
 3731              	.LASF94:
 3732 0143 62756666 		.ascii	"buffer\000"
 3732      657200
 3733              	.LASF32:
 3734 014a 705F6E65 		.ascii	"p_newer\000"
 3734      77657200 
 3735              	.LASF122:
 3736 0152 63685468 		.ascii	"chThdCreateFromMemoryPool\000"
 3736      64437265 
 3736      61746546 
 3736      726F6D4D 
 3736      656D6F72 
 3737              	.LASF9:
 3738 016c 5F5F7569 		.ascii	"__uint32_t\000"
 3738      6E743332 
 3738      5F7400
 3739              	.LASF79:
 3740 0177 6D705F70 		.ascii	"mp_provider\000"
 3740      726F7669 
 3740      64657200 
 3741              	.LASF48:
 3742 0183 72656761 		.ascii	"regarm_t\000"
 3742      726D5F74 
 3742      00
 3743              	.LASF130:
 3744 018c 2F686F6D 		.ascii	"/home/alejandro/Desktop/ChibiOS/sam3s/blink\000"
 3744      652F616C 
 3744      656A616E 
 3744      64726F2F 
 3744      4465736B 
 3745              	.LASF73:
 3746 01b8 616C6967 		.ascii	"align\000"
 3746      6E00
 3747              	.LASF26:
 3748 01be 636E745F 		.ascii	"cnt_t\000"
 3748      7400
 3749              	.LASF0:
 3750 01c4 756E7369 		.ascii	"unsigned int\000"
 3750      676E6564 
 3750      20696E74 
 3750      00
 3751              	.LASF10:
 3752 01d1 6C6F6E67 		.ascii	"long unsigned int\000"
 3752      20756E73 
 3752      69676E65 
 3752      6420696E 
 3752      7400
 3753              	.LASF90:
 3754 01e3 74656172 		.ascii	"teardown\000"
 3754      646F776E 
 3754      00
 3755              	.LASF97:
 3756 01ec 64796E31 		.ascii	"dyn1_setup\000"
 3756      5F736574 
 3756      757000
 3757              	.LASF88:
ARM GAS  /tmp/ccPwPlGL.s 			page 69


 3758 01f7 6E616D65 		.ascii	"name\000"
 3758      00
 3759              	.LASF51:
 3760 01fc 636F6E74 		.ascii	"context\000"
 3760      65787400 
 3761              	.LASF74:
 3762 0204 73697A65 		.ascii	"size\000"
 3762      00
 3763              	.LASF6:
 3764 0209 73686F72 		.ascii	"short unsigned int\000"
 3764      7420756E 
 3764      7369676E 
 3764      65642069 
 3764      6E7400
 3765              	.LASF99:
 3766 021c 64796E32 		.ascii	"dyn2_execute\000"
 3766      5F657865 
 3766      63757465 
 3766      00
 3767              	.LASF128:
 3768 0229 474E5520 		.ascii	"GNU C 4.8.4 20140526 (release) [ARM/embedded-4_8-br"
 3768      4320342E 
 3768      382E3420 
 3768      32303134 
 3768      30353236 
 3769 025c 616E6368 		.ascii	"anch revision 211358] -mcpu=cortex-m3 -mno-thumb-in"
 3769      20726576 
 3769      6973696F 
 3769      6E203231 
 3769      31333538 
 3770 028f 74657277 		.ascii	"terwork -mthumb -ggdb -O2 -std=gnu99 -fomit-frame-p"
 3770      6F726B20 
 3770      2D6D7468 
 3770      756D6220 
 3770      2D676764 
 3771 02c2 6F696E74 		.ascii	"ointer -falign-functions=16 -ffunction-sections -fd"
 3771      6572202D 
 3771      66616C69 
 3771      676E2D66 
 3771      756E6374 
 3772 02f5 6174612D 		.ascii	"ata-sections -fno-common\000"
 3772      73656374 
 3772      696F6E73 
 3772      202D666E 
 3772      6F2D636F 
 3773              	.LASF23:
 3774 030e 6D73675F 		.ascii	"msg_t\000"
 3774      7400
 3775              	.LASF56:
 3776 0314 725F6E65 		.ascii	"r_newer\000"
 3776      77657200 
 3777              	.LASF19:
 3778 031c 746D6F64 		.ascii	"tmode_t\000"
 3778      655F7400 
 3779              	.LASF47:
 3780 0324 54687265 		.ascii	"ThreadsList\000"
 3780      6164734C 
ARM GAS  /tmp/ccPwPlGL.s 			page 70


 3780      69737400 
 3781              	.LASF24:
 3782 0330 6576656E 		.ascii	"eventmask_t\000"
 3782      746D6173 
 3782      6B5F7400 
 3783              	.LASF61:
 3784 033c 4D757465 		.ascii	"Mutex\000"
 3784      7800
 3785              	.LASF126:
 3786 0342 63685468 		.ascii	"chThdAddRef\000"
 3786      64416464 
 3786      52656600 
 3787              	.LASF49:
 3788 034e 73746B61 		.ascii	"stkalign_t\000"
 3788      6C69676E 
 3788      5F7400
 3789              	.LASF52:
 3790 0359 73697A65 		.ascii	"sizetype\000"
 3790      74797065 
 3790      00
 3791              	.LASF109:
 3792 0362 74657374 		.ascii	"testdyn1\000"
 3792      64796E31 
 3792      00
 3793              	.LASF110:
 3794 036b 74657374 		.ascii	"testdyn2\000"
 3794      64796E32 
 3794      00
 3795              	.LASF111:
 3796 0374 74657374 		.ascii	"testdyn3\000"
 3796      64796E33 
 3796      00
 3797              	.LASF104:
 3798 037d 64796E33 		.ascii	"dyn3_execute\000"
 3798      5F657865 
 3798      63757465 
 3798      00
 3799              	.LASF33:
 3800 038a 705F6F6C 		.ascii	"p_older\000"
 3800      64657200 
 3801              	.LASF55:
 3802 0392 725F6374 		.ascii	"r_ctx\000"
 3802      7800
 3803              	.LASF46:
 3804 0398 54687265 		.ascii	"ThreadsQueue\000"
 3804      61647351 
 3804      75657565 
 3804      00
 3805              	.LASF78:
 3806 03a5 6D705F6F 		.ascii	"mp_object_size\000"
 3806      626A6563 
 3806      745F7369 
 3806      7A6500
 3807              	.LASF89:
 3808 03b4 73657475 		.ascii	"setup\000"
 3808      7000
 3809              	.LASF117:
ARM GAS  /tmp/ccPwPlGL.s 			page 71


 3810 03ba 5F746573 		.ascii	"_test_assert_sequence\000"
 3810      745F6173 
 3810      73657274 
 3810      5F736571 
 3810      75656E63 
 3811              	.LASF59:
 3812 03d0 725F6375 		.ascii	"r_current\000"
 3812      7272656E 
 3812      7400
 3813              	.LASF57:
 3814 03da 725F6F6C 		.ascii	"r_older\000"
 3814      64657200 
 3815              	.LASF66:
 3816 03e2 4D656D6F 		.ascii	"MemoryHeap\000"
 3816      72794865 
 3816      617000
 3817              	.LASF12:
 3818 03ed 5F5F7569 		.ascii	"__uint64_t\000"
 3818      6E743634 
 3818      5F7400
 3819              	.LASF76:
 3820 03f8 70685F6E 		.ascii	"ph_next\000"
 3820      65787400 
 3821              	.LASF21:
 3822 0400 74726566 		.ascii	"trefs_t\000"
 3822      735F7400 
 3823              	.LASF29:
 3824 0408 705F7072 		.ascii	"p_prev\000"
 3824      657600
 3825              	.LASF91:
 3826 040f 65786563 		.ascii	"execute\000"
 3826      75746500 
 3827              	.LASF22:
 3828 0417 74707269 		.ascii	"tprio_t\000"
 3828      6F5F7400 
 3829              	.LASF101:
 3830 041f 74687265 		.ascii	"thread\000"
 3830      616400
 3831              	.LASF15:
 3832 0426 696E7433 		.ascii	"int32_t\000"
 3832      325F7400 
 3833              	.LASF4:
 3834 042e 756E7369 		.ascii	"unsigned char\000"
 3834      676E6564 
 3834      20636861 
 3834      7200
 3835              	.LASF68:
 3836 043c 685F7072 		.ascii	"h_provider\000"
 3836      6F766964 
 3836      657200
 3837              	.LASF43:
 3838 0447 705F6D74 		.ascii	"p_mtxlist\000"
 3838      786C6973 
 3838      7400
 3839              	.LASF5:
 3840 0451 73686F72 		.ascii	"short int\000"
 3840      7420696E 
ARM GAS  /tmp/ccPwPlGL.s 			page 72


 3840      7400
 3841              	.LASF35:
 3842 045b 705F7374 		.ascii	"p_state\000"
 3842      61746500 
 3843              	.LASF107:
 3844 0463 74687265 		.ascii	"threads\000"
 3844      61647300 
 3845              	.LASF54:
 3846 046b 725F7072 		.ascii	"r_prio\000"
 3846      696F00
 3847              	.LASF92:
 3848 0472 68656170 		.ascii	"heap_header\000"
 3848      5F686561 
 3848      64657200 
 3849              	.LASF84:
 3850 047e 65776D61 		.ascii	"ewmask\000"
 3850      736B00
 3851              	.LASF28:
 3852 0485 705F6E65 		.ascii	"p_next\000"
 3852      787400
 3853              	.LASF36:
 3854 048c 705F666C 		.ascii	"p_flags\000"
 3854      61677300 
 3855              	.LASF127:
 3856 0494 63685468 		.ascii	"chThdRelease\000"
 3856      6452656C 
 3856      65617365 
 3856      00
 3857              	.LASF27:
 3858 04a1 54687265 		.ascii	"Thread\000"
 3858      616400
 3859              	.LASF115:
 3860 04a8 63684865 		.ascii	"chHeapAlloc\000"
 3860      6170416C 
 3860      6C6F6300 
 3861              	.LASF87:
 3862 04b4 74657374 		.ascii	"testcase\000"
 3862      63617365 
 3862      00
 3863              	.LASF42:
 3864 04bd 705F6570 		.ascii	"p_epending\000"
 3864      656E6469 
 3864      6E6700
 3865              	.LASF133:
 3866 04c8 63685468 		.ascii	"chThdSleep\000"
 3866      64536C65 
 3866      657000
 3867              	.LASF16:
 3868 04d3 75696E74 		.ascii	"uint32_t\000"
 3868      33325F74 
 3868      00
 3869              	.LASF53:
 3870 04dc 725F7175 		.ascii	"r_queue\000"
 3870      65756500 
 3871              	.LASF72:
 3872 04e4 68656170 		.ascii	"heap\000"
 3872      00
ARM GAS  /tmp/ccPwPlGL.s 			page 73


 3873              	.LASF85:
 3874 04e9 63686172 		.ascii	"char\000"
 3874      00
 3875              	.LASF125:
 3876 04ee 63685265 		.ascii	"chRegNextThread\000"
 3876      674E6578 
 3876      74546872 
 3876      65616400 
 3877              	.LASF98:
 3878 04fe 64796E33 		.ascii	"dyn3_setup\000"
 3878      5F736574 
 3878      757000
 3879              	.LASF113:
 3880 0509 63684865 		.ascii	"chHeapStatus\000"
 3880      61705374 
 3880      61747573 
 3880      00
 3881              	.LASF131:
 3882 0516 74657374 		.ascii	"test_wait_threads\000"
 3882      5F776169 
 3882      745F7468 
 3882      72656164 
 3882      7300
 3883              	.LASF64:
 3884 0528 6D5F6E65 		.ascii	"m_next\000"
 3884      787400
 3885              	.LASF25:
 3886 052f 73797374 		.ascii	"systime_t\000"
 3886      696D655F 
 3886      7400
 3887              	.LASF44:
 3888 0539 705F7265 		.ascii	"p_realprio\000"
 3888      616C7072 
 3888      696F00
 3889              	.LASF7:
 3890 0544 5F5F696E 		.ascii	"__int32_t\000"
 3890      7433325F 
 3890      7400
 3891              	.LASF112:
 3892 054e 70617474 		.ascii	"patterndyn\000"
 3892      65726E64 
 3892      796E00
 3893              	.LASF38:
 3894 0559 705F7469 		.ascii	"p_time\000"
 3894      6D6500
 3895              	.LASF50:
 3896 0560 696E7463 		.ascii	"intctx\000"
 3896      747800
 3897              	.LASF40:
 3898 0567 705F6D73 		.ascii	"p_msgqueue\000"
 3898      67717565 
 3898      756500
 3899              	.LASF129:
 3900 0572 2E2E2F2E 		.ascii	"../../test/testdyn.c\000"
 3900      2E2F7465 
 3900      73742F74 
 3900      65737464 
ARM GAS  /tmp/ccPwPlGL.s 			page 74


 3900      796E2E63 
 3901              	.LASF103:
 3902 0587 666F756E 		.ascii	"found\000"
 3902      6400
 3903              	.LASF93:
 3904 058d 74657374 		.ascii	"test_buffers\000"
 3904      5F627566 
 3904      66657273 
 3904      00
 3905              	.LASF75:
 3906 059a 706F6F6C 		.ascii	"pool_header\000"
 3906      5F686561 
 3906      64657200 
 3907              	.LASF37:
 3908 05a6 705F7265 		.ascii	"p_refs\000"
 3908      667300
 3909              	.LASF60:
 3910 05ad 52656164 		.ascii	"ReadyList\000"
 3910      794C6973 
 3910      7400
 3911              	.LASF102:
 3912 05b7 72656766 		.ascii	"regfind\000"
 3912      696E6400 
 3913              	.LASF106:
 3914 05bf 726C6973 		.ascii	"rlist\000"
 3914      7400
 3915              	.LASF14:
 3916 05c5 75696E74 		.ascii	"uint8_t\000"
 3916      385F7400 
 3917              	.LASF123:
 3918 05cd 6368506F 		.ascii	"chPoolAlloc\000"
 3918      6F6C416C 
 3918      6C6F6300 
 3919              	.LASF121:
 3920 05d9 6368506F 		.ascii	"chPoolFree\000"
 3920      6F6C4672 
 3920      656500
 3921              	.LASF83:
 3922 05e4 77746F62 		.ascii	"wtobjp\000"
 3922      6A7000
 3923              	.LASF34:
 3924 05eb 705F6E61 		.ascii	"p_name\000"
 3924      6D6500
 3925              	.LASF116:
 3926 05f2 5F746573 		.ascii	"_test_assert\000"
 3926      745F6173 
 3926      73657274 
 3926      00
 3927              	.LASF58:
 3928 05ff 725F7072 		.ascii	"r_preempt\000"
 3928      65656D70 
 3928      7400
 3929              	.LASF63:
 3930 0609 6D5F6F77 		.ascii	"m_owner\000"
 3930      6E657200 
 3931              	.LASF31:
 3932 0611 705F6374 		.ascii	"p_ctx\000"
ARM GAS  /tmp/ccPwPlGL.s 			page 75


 3932      7800
 3933              	.LASF39:
 3934 0617 705F7761 		.ascii	"p_waiting\000"
 3934      6974696E 
 3934      6700
 3935              	.LASF105:
 3936 0621 68656170 		.ascii	"heap1\000"
 3936      3100
 3937              	.LASF67:
 3938 0627 6D656D6F 		.ascii	"memory_heap\000"
 3938      72795F68 
 3938      65617000 
 3939              		.ident	"GCC: (GNU Tools for ARM Embedded Processors) 4.8.4 20140526 (release) [ARM/embedded-4_8-br
ARM GAS  /tmp/ccPwPlGL.s 			page 76


DEFINED SYMBOLS
                            *ABS*:00000000 testdyn.c
     /tmp/ccPwPlGL.s:19     .text.dyn1_execute:00000000 $t
     /tmp/ccPwPlGL.s:24     .text.dyn1_execute:00000000 dyn1_execute
     /tmp/ccPwPlGL.s:176    .text.dyn1_execute:000000d0 $d
     /tmp/ccPwPlGL.s:193    .text.thread:00000000 thread
     /tmp/ccPwPlGL.s:188    .text.thread:00000000 $t
     /tmp/ccPwPlGL.s:216    .text.dyn1_setup:00000000 $t
     /tmp/ccPwPlGL.s:221    .text.dyn1_setup:00000000 dyn1_setup
     /tmp/ccPwPlGL.s:237    .text.dyn1_setup:0000000c $d
     /tmp/ccPwPlGL.s:243    .text.dyn3_setup:00000000 $t
     /tmp/ccPwPlGL.s:248    .text.dyn3_setup:00000000 dyn3_setup
     /tmp/ccPwPlGL.s:264    .text.dyn3_setup:0000000c $d
     /tmp/ccPwPlGL.s:270    .text.dyn2_execute:00000000 $t
     /tmp/ccPwPlGL.s:275    .text.dyn2_execute:00000000 dyn2_execute
     /tmp/ccPwPlGL.s:426    .text.dyn2_execute:000000cc $d
     /tmp/ccPwPlGL.s:441    .text.dyn2_setup:00000000 $t
     /tmp/ccPwPlGL.s:446    .text.dyn2_setup:00000000 dyn2_setup
     /tmp/ccPwPlGL.s:462    .text.dyn2_setup:0000000c $d
     /tmp/ccPwPlGL.s:467    .text.regfind:00000000 $t
     /tmp/ccPwPlGL.s:472    .text.regfind:00000000 regfind
     /tmp/ccPwPlGL.s:518    .text.dyn3_execute:00000000 $t
     /tmp/ccPwPlGL.s:523    .text.dyn3_execute:00000000 dyn3_execute
     /tmp/ccPwPlGL.s:709    .text.dyn3_execute:0000012c $d
     /tmp/ccPwPlGL.s:788    .rodata.patterndyn:00000000 patterndyn
     /tmp/ccPwPlGL.s:742    .rodata.testdyn3:00000000 testdyn3
     /tmp/ccPwPlGL.s:733    .rodata.testdyn2:00000000 testdyn2
     /tmp/ccPwPlGL.s:724    .rodata.testdyn1:00000000 testdyn1
     /tmp/ccPwPlGL.s:721    .rodata.testdyn1:00000000 $d
     /tmp/ccPwPlGL.s:730    .rodata.testdyn2:00000000 $d
     /tmp/ccPwPlGL.s:739    .rodata.testdyn3:00000000 $d
     /tmp/ccPwPlGL.s:748    .bss.mp1:00000000 $d
     /tmp/ccPwPlGL.s:752    .bss.mp1:00000000 mp1
     /tmp/ccPwPlGL.s:755    .rodata.str1.4:00000000 $d
     /tmp/ccPwPlGL.s:785    .rodata.patterndyn:00000000 $d
     /tmp/ccPwPlGL.s:794    .bss.heap1:00000000 $d
     /tmp/ccPwPlGL.s:798    .bss.heap1:00000000 heap1
                     .debug_frame:00000010 $d
     /tmp/ccPwPlGL.s:242    .text.dyn1_setup:00000014 $t
     /tmp/ccPwPlGL.s:269    .text.dyn3_setup:00000014 $t
     /tmp/ccPwPlGL.s:440    .text.dyn2_execute:000000f8 $t
     /tmp/ccPwPlGL.s:720    .text.dyn3_execute:0000013c $t

UNDEFINED SYMBOLS
chHeapStatus
chThdCreateFromHeap
chHeapAlloc
chHeapFree
_test_assert
test_wait_threads
_test_assert_sequence
rlist
threads
test_emit_token
chHeapInit
test
chPoolFree
ARM GAS  /tmp/ccPwPlGL.s 			page 77


chThdCreateFromMemoryPool
chPoolAlloc
wa
chPoolInit
chRegFirstThread
chRegNextThread
chThdAddRef
chThdRelease
chThdSleep
